Archive member included because of file (symbol)

/opt/paparazzi/arm-multilib/lib/gcc/arm-none-eabi/4.4.5/../../../../arm-none-eabi/lib/thumb2/libc.a(lib_a-memcpy.o)
                              /home/woz/lisa-m-team4938/paparazzi/var/ECE_2012/ap/peripherals/hmc5843.o (memcpy)
/opt/paparazzi/arm-multilib/lib/gcc/arm-none-eabi/4.4.5/../../../../arm-none-eabi/lib/thumb2/libm.a(lib_a-s_atan.o)
                              /home/woz/lisa-m-team4938/paparazzi/var/ECE_2012/ap/math/pprz_geodetic_float.o (atan)
/opt/paparazzi/arm-multilib/lib/gcc/arm-none-eabi/4.4.5/../../../../arm-none-eabi/lib/thumb2/libm.a(lib_a-s_cos.o)
                              /home/woz/lisa-m-team4938/paparazzi/var/ECE_2012/ap/math/pprz_geodetic_float.o (cos)
/opt/paparazzi/arm-multilib/lib/gcc/arm-none-eabi/4.4.5/../../../../arm-none-eabi/lib/thumb2/libm.a(lib_a-s_fabs.o)
                              /opt/paparazzi/arm-multilib/lib/gcc/arm-none-eabi/4.4.5/../../../../arm-none-eabi/lib/thumb2/libm.a(lib_a-s_atan.o) (fabs)
/opt/paparazzi/arm-multilib/lib/gcc/arm-none-eabi/4.4.5/../../../../arm-none-eabi/lib/thumb2/libm.a(lib_a-s_rint.o)
                              /home/woz/lisa-m-team4938/paparazzi/var/ECE_2012/ap/math/pprz_geodetic_int.o (rint)
/opt/paparazzi/arm-multilib/lib/gcc/arm-none-eabi/4.4.5/../../../../arm-none-eabi/lib/thumb2/libm.a(lib_a-s_sin.o)
                              /home/woz/lisa-m-team4938/paparazzi/var/ECE_2012/ap/math/pprz_geodetic_float.o (sin)
/opt/paparazzi/arm-multilib/lib/gcc/arm-none-eabi/4.4.5/../../../../arm-none-eabi/lib/thumb2/libm.a(lib_a-s_tan.o)
                              /home/woz/lisa-m-team4938/paparazzi/var/ECE_2012/ap/math/pprz_geodetic_float.o (tan)
/opt/paparazzi/arm-multilib/lib/gcc/arm-none-eabi/4.4.5/../../../../arm-none-eabi/lib/thumb2/libm.a(lib_a-sf_atan.o)
                              /home/woz/lisa-m-team4938/paparazzi/var/ECE_2012/ap/math/pprz_geodetic_float.o (atanf)
/opt/paparazzi/arm-multilib/lib/gcc/arm-none-eabi/4.4.5/../../../../arm-none-eabi/lib/thumb2/libm.a(lib_a-sf_cos.o)
                              /home/woz/lisa-m-team4938/paparazzi/var/ECE_2012/ap/math/pprz_geodetic_int.o (cosf)
/opt/paparazzi/arm-multilib/lib/gcc/arm-none-eabi/4.4.5/../../../../arm-none-eabi/lib/thumb2/libm.a(lib_a-sf_fabs.o)
                              /opt/paparazzi/arm-multilib/lib/gcc/arm-none-eabi/4.4.5/../../../../arm-none-eabi/lib/thumb2/libm.a(lib_a-sf_atan.o) (fabsf)
/opt/paparazzi/arm-multilib/lib/gcc/arm-none-eabi/4.4.5/../../../../arm-none-eabi/lib/thumb2/libm.a(lib_a-sf_sin.o)
                              /home/woz/lisa-m-team4938/paparazzi/var/ECE_2012/ap/math/pprz_geodetic_int.o (sinf)
/opt/paparazzi/arm-multilib/lib/gcc/arm-none-eabi/4.4.5/../../../../arm-none-eabi/lib/thumb2/libm.a(lib_a-w_asin.o)
                              /home/woz/lisa-m-team4938/paparazzi/var/ECE_2012/ap/math/pprz_geodetic_float.o (asin)
/opt/paparazzi/arm-multilib/lib/gcc/arm-none-eabi/4.4.5/../../../../arm-none-eabi/lib/thumb2/libm.a(lib_a-w_atan2.o)
                              /home/woz/lisa-m-team4938/paparazzi/var/ECE_2012/ap/math/pprz_geodetic_double.o (atan2)
/opt/paparazzi/arm-multilib/lib/gcc/arm-none-eabi/4.4.5/../../../../arm-none-eabi/lib/thumb2/libm.a(lib_a-w_cosh.o)
                              /home/woz/lisa-m-team4938/paparazzi/var/ECE_2012/ap/math/pprz_geodetic_float.o (cosh)
/opt/paparazzi/arm-multilib/lib/gcc/arm-none-eabi/4.4.5/../../../../arm-none-eabi/lib/thumb2/libm.a(lib_a-w_exp.o)
                              /home/woz/lisa-m-team4938/paparazzi/var/ECE_2012/ap/math/pprz_geodetic_float.o (exp)
/opt/paparazzi/arm-multilib/lib/gcc/arm-none-eabi/4.4.5/../../../../arm-none-eabi/lib/thumb2/libm.a(lib_a-w_log.o)
                              /home/woz/lisa-m-team4938/paparazzi/var/ECE_2012/ap/math/pprz_geodetic_float.o (log)
/opt/paparazzi/arm-multilib/lib/gcc/arm-none-eabi/4.4.5/../../../../arm-none-eabi/lib/thumb2/libm.a(lib_a-w_pow.o)
                              /home/woz/lisa-m-team4938/paparazzi/var/ECE_2012/ap/math/pprz_geodetic_float.o (pow)
/opt/paparazzi/arm-multilib/lib/gcc/arm-none-eabi/4.4.5/../../../../arm-none-eabi/lib/thumb2/libm.a(lib_a-w_sinh.o)
                              /home/woz/lisa-m-team4938/paparazzi/var/ECE_2012/ap/math/pprz_geodetic_float.o (sinh)
/opt/paparazzi/arm-multilib/lib/gcc/arm-none-eabi/4.4.5/../../../../arm-none-eabi/lib/thumb2/libm.a(lib_a-w_sqrt.o)
                              /home/woz/lisa-m-team4938/paparazzi/var/ECE_2012/ap/math/pprz_geodetic_double.o (sqrt)
/opt/paparazzi/arm-multilib/lib/gcc/arm-none-eabi/4.4.5/../../../../arm-none-eabi/lib/thumb2/libm.a(lib_a-wf_asin.o)
                              /home/woz/lisa-m-team4938/paparazzi/var/ECE_2012/ap/subsystems/ahrs/ahrs_float_dcm.o (asinf)
/opt/paparazzi/arm-multilib/lib/gcc/arm-none-eabi/4.4.5/../../../../arm-none-eabi/lib/thumb2/libm.a(lib_a-wf_atan2.o)
                              /home/woz/lisa-m-team4938/paparazzi/var/ECE_2012/ap/math/pprz_geodetic_float.o (atan2f)
/opt/paparazzi/arm-multilib/lib/gcc/arm-none-eabi/4.4.5/../../../../arm-none-eabi/lib/thumb2/libm.a(lib_a-wf_pow.o)
                              /home/woz/lisa-m-team4938/paparazzi/var/ECE_2012/ap/math/pprz_geodetic_float.o (powf)
/opt/paparazzi/arm-multilib/lib/gcc/arm-none-eabi/4.4.5/../../../../arm-none-eabi/lib/thumb2/libm.a(lib_a-wf_sqrt.o)
                              /home/woz/lisa-m-team4938/paparazzi/var/ECE_2012/ap/math/pprz_geodetic_float.o (sqrtf)
/opt/paparazzi/arm-multilib/lib/gcc/arm-none-eabi/4.4.5/../../../../arm-none-eabi/lib/thumb2/libm.a(lib_a-e_asin.o)
                              /opt/paparazzi/arm-multilib/lib/gcc/arm-none-eabi/4.4.5/../../../../arm-none-eabi/lib/thumb2/libm.a(lib_a-w_asin.o) (__ieee754_asin)
/opt/paparazzi/arm-multilib/lib/gcc/arm-none-eabi/4.4.5/../../../../arm-none-eabi/lib/thumb2/libm.a(lib_a-e_atan2.o)
                              /opt/paparazzi/arm-multilib/lib/gcc/arm-none-eabi/4.4.5/../../../../arm-none-eabi/lib/thumb2/libm.a(lib_a-w_atan2.o) (__ieee754_atan2)
/opt/paparazzi/arm-multilib/lib/gcc/arm-none-eabi/4.4.5/../../../../arm-none-eabi/lib/thumb2/libm.a(lib_a-e_cosh.o)
                              /opt/paparazzi/arm-multilib/lib/gcc/arm-none-eabi/4.4.5/../../../../arm-none-eabi/lib/thumb2/libm.a(lib_a-w_cosh.o) (__ieee754_cosh)
/opt/paparazzi/arm-multilib/lib/gcc/arm-none-eabi/4.4.5/../../../../arm-none-eabi/lib/thumb2/libm.a(lib_a-e_exp.o)
                              /opt/paparazzi/arm-multilib/lib/gcc/arm-none-eabi/4.4.5/../../../../arm-none-eabi/lib/thumb2/libm.a(lib_a-w_exp.o) (__ieee754_exp)
/opt/paparazzi/arm-multilib/lib/gcc/arm-none-eabi/4.4.5/../../../../arm-none-eabi/lib/thumb2/libm.a(lib_a-e_log.o)
                              /opt/paparazzi/arm-multilib/lib/gcc/arm-none-eabi/4.4.5/../../../../arm-none-eabi/lib/thumb2/libm.a(lib_a-w_log.o) (__ieee754_log)
/opt/paparazzi/arm-multilib/lib/gcc/arm-none-eabi/4.4.5/../../../../arm-none-eabi/lib/thumb2/libm.a(lib_a-e_pow.o)
                              /opt/paparazzi/arm-multilib/lib/gcc/arm-none-eabi/4.4.5/../../../../arm-none-eabi/lib/thumb2/libm.a(lib_a-w_pow.o) (__ieee754_pow)
/opt/paparazzi/arm-multilib/lib/gcc/arm-none-eabi/4.4.5/../../../../arm-none-eabi/lib/thumb2/libm.a(lib_a-e_rem_pio2.o)
                              /opt/paparazzi/arm-multilib/lib/gcc/arm-none-eabi/4.4.5/../../../../arm-none-eabi/lib/thumb2/libm.a(lib_a-s_cos.o) (__ieee754_rem_pio2)
/opt/paparazzi/arm-multilib/lib/gcc/arm-none-eabi/4.4.5/../../../../arm-none-eabi/lib/thumb2/libm.a(lib_a-e_sinh.o)
                              /opt/paparazzi/arm-multilib/lib/gcc/arm-none-eabi/4.4.5/../../../../arm-none-eabi/lib/thumb2/libm.a(lib_a-w_sinh.o) (__ieee754_sinh)
/opt/paparazzi/arm-multilib/lib/gcc/arm-none-eabi/4.4.5/../../../../arm-none-eabi/lib/thumb2/libm.a(lib_a-e_sqrt.o)
                              /opt/paparazzi/arm-multilib/lib/gcc/arm-none-eabi/4.4.5/../../../../arm-none-eabi/lib/thumb2/libm.a(lib_a-w_sqrt.o) (__ieee754_sqrt)
/opt/paparazzi/arm-multilib/lib/gcc/arm-none-eabi/4.4.5/../../../../arm-none-eabi/lib/thumb2/libm.a(lib_a-ef_asin.o)
                              /opt/paparazzi/arm-multilib/lib/gcc/arm-none-eabi/4.4.5/../../../../arm-none-eabi/lib/thumb2/libm.a(lib_a-wf_asin.o) (__ieee754_asinf)
/opt/paparazzi/arm-multilib/lib/gcc/arm-none-eabi/4.4.5/../../../../arm-none-eabi/lib/thumb2/libm.a(lib_a-ef_atan2.o)
                              /opt/paparazzi/arm-multilib/lib/gcc/arm-none-eabi/4.4.5/../../../../arm-none-eabi/lib/thumb2/libm.a(lib_a-wf_atan2.o) (__ieee754_atan2f)
/opt/paparazzi/arm-multilib/lib/gcc/arm-none-eabi/4.4.5/../../../../arm-none-eabi/lib/thumb2/libm.a(lib_a-ef_pow.o)
                              /opt/paparazzi/arm-multilib/lib/gcc/arm-none-eabi/4.4.5/../../../../arm-none-eabi/lib/thumb2/libm.a(lib_a-wf_pow.o) (__ieee754_powf)
/opt/paparazzi/arm-multilib/lib/gcc/arm-none-eabi/4.4.5/../../../../arm-none-eabi/lib/thumb2/libm.a(lib_a-ef_rem_pio2.o)
                              /opt/paparazzi/arm-multilib/lib/gcc/arm-none-eabi/4.4.5/../../../../arm-none-eabi/lib/thumb2/libm.a(lib_a-sf_cos.o) (__ieee754_rem_pio2f)
/opt/paparazzi/arm-multilib/lib/gcc/arm-none-eabi/4.4.5/../../../../arm-none-eabi/lib/thumb2/libm.a(lib_a-ef_sqrt.o)
                              /opt/paparazzi/arm-multilib/lib/gcc/arm-none-eabi/4.4.5/../../../../arm-none-eabi/lib/thumb2/libm.a(lib_a-wf_sqrt.o) (__ieee754_sqrtf)
/opt/paparazzi/arm-multilib/lib/gcc/arm-none-eabi/4.4.5/../../../../arm-none-eabi/lib/thumb2/libm.a(lib_a-k_cos.o)
                              /opt/paparazzi/arm-multilib/lib/gcc/arm-none-eabi/4.4.5/../../../../arm-none-eabi/lib/thumb2/libm.a(lib_a-s_cos.o) (__kernel_cos)
/opt/paparazzi/arm-multilib/lib/gcc/arm-none-eabi/4.4.5/../../../../arm-none-eabi/lib/thumb2/libm.a(lib_a-k_rem_pio2.o)
                              /opt/paparazzi/arm-multilib/lib/gcc/arm-none-eabi/4.4.5/../../../../arm-none-eabi/lib/thumb2/libm.a(lib_a-e_rem_pio2.o) (__kernel_rem_pio2)
/opt/paparazzi/arm-multilib/lib/gcc/arm-none-eabi/4.4.5/../../../../arm-none-eabi/lib/thumb2/libm.a(lib_a-k_sin.o)
                              /opt/paparazzi/arm-multilib/lib/gcc/arm-none-eabi/4.4.5/../../../../arm-none-eabi/lib/thumb2/libm.a(lib_a-s_cos.o) (__kernel_sin)
/opt/paparazzi/arm-multilib/lib/gcc/arm-none-eabi/4.4.5/../../../../arm-none-eabi/lib/thumb2/libm.a(lib_a-k_tan.o)
                              /opt/paparazzi/arm-multilib/lib/gcc/arm-none-eabi/4.4.5/../../../../arm-none-eabi/lib/thumb2/libm.a(lib_a-s_tan.o) (__kernel_tan)
/opt/paparazzi/arm-multilib/lib/gcc/arm-none-eabi/4.4.5/../../../../arm-none-eabi/lib/thumb2/libm.a(lib_a-kf_cos.o)
                              /opt/paparazzi/arm-multilib/lib/gcc/arm-none-eabi/4.4.5/../../../../arm-none-eabi/lib/thumb2/libm.a(lib_a-sf_cos.o) (__kernel_cosf)
/opt/paparazzi/arm-multilib/lib/gcc/arm-none-eabi/4.4.5/../../../../arm-none-eabi/lib/thumb2/libm.a(lib_a-kf_rem_pio2.o)
                              /opt/paparazzi/arm-multilib/lib/gcc/arm-none-eabi/4.4.5/../../../../arm-none-eabi/lib/thumb2/libm.a(lib_a-ef_rem_pio2.o) (__kernel_rem_pio2f)
/opt/paparazzi/arm-multilib/lib/gcc/arm-none-eabi/4.4.5/../../../../arm-none-eabi/lib/thumb2/libm.a(lib_a-kf_sin.o)
                              /opt/paparazzi/arm-multilib/lib/gcc/arm-none-eabi/4.4.5/../../../../arm-none-eabi/lib/thumb2/libm.a(lib_a-sf_cos.o) (__kernel_sinf)
/opt/paparazzi/arm-multilib/lib/gcc/arm-none-eabi/4.4.5/../../../../arm-none-eabi/lib/thumb2/libm.a(lib_a-s_expm1.o)
                              /opt/paparazzi/arm-multilib/lib/gcc/arm-none-eabi/4.4.5/../../../../arm-none-eabi/lib/thumb2/libm.a(lib_a-e_cosh.o) (expm1)
/opt/paparazzi/arm-multilib/lib/gcc/arm-none-eabi/4.4.5/../../../../arm-none-eabi/lib/thumb2/libm.a(lib_a-s_finite.o)
                              /opt/paparazzi/arm-multilib/lib/gcc/arm-none-eabi/4.4.5/../../../../arm-none-eabi/lib/thumb2/libm.a(lib_a-w_exp.o) (finite)
/opt/paparazzi/arm-multilib/lib/gcc/arm-none-eabi/4.4.5/../../../../arm-none-eabi/lib/thumb2/libm.a(lib_a-s_floor.o)
                              /opt/paparazzi/arm-multilib/lib/gcc/arm-none-eabi/4.4.5/../../../../arm-none-eabi/lib/thumb2/libm.a(lib_a-k_rem_pio2.o) (floor)
/opt/paparazzi/arm-multilib/lib/gcc/arm-none-eabi/4.4.5/../../../../arm-none-eabi/lib/thumb2/libm.a(lib_a-s_fpclassify.o)
                              /opt/paparazzi/arm-multilib/lib/gcc/arm-none-eabi/4.4.5/../../../../arm-none-eabi/lib/thumb2/libm.a(lib_a-w_asin.o) (__fpclassifyd)
/opt/paparazzi/arm-multilib/lib/gcc/arm-none-eabi/4.4.5/../../../../arm-none-eabi/lib/thumb2/libm.a(lib_a-s_lib_ver.o)
                              /opt/paparazzi/arm-multilib/lib/gcc/arm-none-eabi/4.4.5/../../../../arm-none-eabi/lib/thumb2/libm.a(lib_a-w_asin.o) (__fdlib_version)
/opt/paparazzi/arm-multilib/lib/gcc/arm-none-eabi/4.4.5/../../../../arm-none-eabi/lib/thumb2/libm.a(lib_a-s_matherr.o)
                              /opt/paparazzi/arm-multilib/lib/gcc/arm-none-eabi/4.4.5/../../../../arm-none-eabi/lib/thumb2/libm.a(lib_a-w_asin.o) (matherr)
/opt/paparazzi/arm-multilib/lib/gcc/arm-none-eabi/4.4.5/../../../../arm-none-eabi/lib/thumb2/libm.a(lib_a-s_nan.o)
                              /opt/paparazzi/arm-multilib/lib/gcc/arm-none-eabi/4.4.5/../../../../arm-none-eabi/lib/thumb2/libm.a(lib_a-w_asin.o) (nan)
/opt/paparazzi/arm-multilib/lib/gcc/arm-none-eabi/4.4.5/../../../../arm-none-eabi/lib/thumb2/libm.a(lib_a-s_scalbn.o)
                              /opt/paparazzi/arm-multilib/lib/gcc/arm-none-eabi/4.4.5/../../../../arm-none-eabi/lib/thumb2/libm.a(lib_a-e_pow.o) (scalbn)
/opt/paparazzi/arm-multilib/lib/gcc/arm-none-eabi/4.4.5/../../../../arm-none-eabi/lib/thumb2/libm.a(lib_a-sf_finite.o)
                              /opt/paparazzi/arm-multilib/lib/gcc/arm-none-eabi/4.4.5/../../../../arm-none-eabi/lib/thumb2/libm.a(lib_a-wf_pow.o) (finitef)
/opt/paparazzi/arm-multilib/lib/gcc/arm-none-eabi/4.4.5/../../../../arm-none-eabi/lib/thumb2/libm.a(lib_a-sf_floor.o)
                              /opt/paparazzi/arm-multilib/lib/gcc/arm-none-eabi/4.4.5/../../../../arm-none-eabi/lib/thumb2/libm.a(lib_a-kf_rem_pio2.o) (floorf)
/opt/paparazzi/arm-multilib/lib/gcc/arm-none-eabi/4.4.5/../../../../arm-none-eabi/lib/thumb2/libm.a(lib_a-sf_fpclassify.o)
                              /opt/paparazzi/arm-multilib/lib/gcc/arm-none-eabi/4.4.5/../../../../arm-none-eabi/lib/thumb2/libm.a(lib_a-wf_asin.o) (__fpclassifyf)
/opt/paparazzi/arm-multilib/lib/gcc/arm-none-eabi/4.4.5/../../../../arm-none-eabi/lib/thumb2/libm.a(lib_a-sf_nan.o)
                              /opt/paparazzi/arm-multilib/lib/gcc/arm-none-eabi/4.4.5/../../../../arm-none-eabi/lib/thumb2/libm.a(lib_a-ef_pow.o) (nanf)
/opt/paparazzi/arm-multilib/lib/gcc/arm-none-eabi/4.4.5/../../../../arm-none-eabi/lib/thumb2/libm.a(lib_a-sf_scalbn.o)
                              /opt/paparazzi/arm-multilib/lib/gcc/arm-none-eabi/4.4.5/../../../../arm-none-eabi/lib/thumb2/libm.a(lib_a-ef_pow.o) (scalbnf)
/opt/paparazzi/arm-multilib/lib/gcc/arm-none-eabi/4.4.5/../../../../arm-none-eabi/lib/thumb2/libm.a(lib_a-s_copysign.o)
                              /opt/paparazzi/arm-multilib/lib/gcc/arm-none-eabi/4.4.5/../../../../arm-none-eabi/lib/thumb2/libm.a(lib_a-s_scalbn.o) (copysign)
/opt/paparazzi/arm-multilib/lib/gcc/arm-none-eabi/4.4.5/../../../../arm-none-eabi/lib/thumb2/libm.a(lib_a-sf_copysign.o)
                              /opt/paparazzi/arm-multilib/lib/gcc/arm-none-eabi/4.4.5/../../../../arm-none-eabi/lib/thumb2/libm.a(lib_a-sf_scalbn.o) (copysignf)
/opt/paparazzi/arm-multilib/lib/gcc/arm-none-eabi/4.4.5/thumb2/libgcc.a(_divsi3.o)
                              /opt/paparazzi/arm-multilib/lib/gcc/arm-none-eabi/4.4.5/../../../../arm-none-eabi/lib/thumb2/libm.a(lib_a-k_rem_pio2.o) (__aeabi_idiv)
/opt/paparazzi/arm-multilib/lib/gcc/arm-none-eabi/4.4.5/thumb2/libgcc.a(_dvmd_tls.o)
                              /opt/paparazzi/arm-multilib/lib/gcc/arm-none-eabi/4.4.5/thumb2/libgcc.a(_divsi3.o) (__aeabi_idiv0)
/opt/paparazzi/arm-multilib/lib/gcc/arm-none-eabi/4.4.5/thumb2/libgcc.a(_arm_addsubdf3.o)
                              /home/woz/lisa-m-team4938/paparazzi/var/ECE_2012/ap/math/pprz_geodetic_float.o (__aeabi_dsub)
/opt/paparazzi/arm-multilib/lib/gcc/arm-none-eabi/4.4.5/thumb2/libgcc.a(_arm_muldivdf3.o)
                              /home/woz/lisa-m-team4938/paparazzi/var/ECE_2012/ap/math/pprz_geodetic_int.o (__aeabi_dmul)
/opt/paparazzi/arm-multilib/lib/gcc/arm-none-eabi/4.4.5/thumb2/libgcc.a(_arm_cmpdf2.o)
                              /opt/paparazzi/arm-multilib/lib/gcc/arm-none-eabi/4.4.5/../../../../arm-none-eabi/lib/thumb2/libm.a(lib_a-w_log.o) (__aeabi_dcmpeq)
/opt/paparazzi/arm-multilib/lib/gcc/arm-none-eabi/4.4.5/thumb2/libgcc.a(_arm_fixdfsi.o)
                              /home/woz/lisa-m-team4938/paparazzi/var/ECE_2012/ap/math/pprz_geodetic_int.o (__aeabi_d2iz)
/opt/paparazzi/arm-multilib/lib/gcc/arm-none-eabi/4.4.5/thumb2/libgcc.a(_arm_fixunsdfsi.o)
                              /home/woz/lisa-m-team4938/paparazzi/var/ECE_2012/ap/subsystems/electrical.o (__aeabi_d2uiz)
/opt/paparazzi/arm-multilib/lib/gcc/arm-none-eabi/4.4.5/thumb2/libgcc.a(_arm_truncdfsf2.o)
                              /home/woz/lisa-m-team4938/paparazzi/var/ECE_2012/ap/math/pprz_geodetic_float.o (__aeabi_d2f)
/opt/paparazzi/arm-multilib/lib/gcc/arm-none-eabi/4.4.5/thumb2/libgcc.a(_arm_addsubsf3.o)
                              /home/woz/lisa-m-team4938/paparazzi/var/ECE_2012/ap/math/pprz_geodetic_float.o (__aeabi_fsub)
/opt/paparazzi/arm-multilib/lib/gcc/arm-none-eabi/4.4.5/thumb2/libgcc.a(_arm_muldivsf3.o)
                              /home/woz/lisa-m-team4938/paparazzi/var/ECE_2012/ap/math/pprz_geodetic_int.o (__aeabi_fmul)
/opt/paparazzi/arm-multilib/lib/gcc/arm-none-eabi/4.4.5/thumb2/libgcc.a(_arm_cmpsf2.o)
                              /home/woz/lisa-m-team4938/paparazzi/var/ECE_2012/ap/firmwares/fixedwing/datalink.o (__aeabi_fcmpeq)
/opt/paparazzi/arm-multilib/lib/gcc/arm-none-eabi/4.4.5/thumb2/libgcc.a(_arm_fixsfsi.o)
                              /home/woz/lisa-m-team4938/paparazzi/var/ECE_2012/ap/firmwares/fixedwing/main_fbw.o (__aeabi_f2iz)
/opt/paparazzi/arm-multilib/lib/gcc/arm-none-eabi/4.4.5/thumb2/libgcc.a(_arm_fixunssfsi.o)
                              /home/woz/lisa-m-team4938/paparazzi/var/ECE_2012/ap/firmwares/fixedwing/datalink.o (__aeabi_f2uiz)
/opt/paparazzi/arm-multilib/lib/gcc/arm-none-eabi/4.4.5/../../../../arm-none-eabi/lib/libstm32.a(stm32_adc.o)
                              /home/woz/lisa-m-team4938/paparazzi/var/ECE_2012/ap/arch/stm32/mcu_periph/adc_arch.o (ADC_Init)
/opt/paparazzi/arm-multilib/lib/gcc/arm-none-eabi/4.4.5/../../../../arm-none-eabi/lib/libstm32.a(stm32_tim.o)
                              /home/woz/lisa-m-team4938/paparazzi/var/ECE_2012/ap/arch/stm32/mcu_periph/adc_arch.o (TIM_TimeBaseInit)
/opt/paparazzi/arm-multilib/lib/gcc/arm-none-eabi/4.4.5/../../../../arm-none-eabi/lib/libstm32.a(stm32_dma.o)
                              /home/woz/lisa-m-team4938/paparazzi/var/ECE_2012/ap/arch/stm32/subsystems/imu/imu_aspirin_arch.o (DMA_DeInit)
/opt/paparazzi/arm-multilib/lib/gcc/arm-none-eabi/4.4.5/../../../../arm-none-eabi/lib/libstm32.a(stm32_gpio.o)
                              /home/woz/lisa-m-team4938/paparazzi/var/ECE_2012/ap/mcu.o (GPIO_Init)
/opt/paparazzi/arm-multilib/lib/gcc/arm-none-eabi/4.4.5/../../../../arm-none-eabi/lib/libstm32.a(stm32_usart.o)
                              /home/woz/lisa-m-team4938/paparazzi/var/ECE_2012/ap/arch/stm32/mcu_periph/uart_arch.o (USART_Cmd)
/opt/paparazzi/arm-multilib/lib/gcc/arm-none-eabi/4.4.5/../../../../arm-none-eabi/lib/libstm32.a(stm32_exti.o)
                              /home/woz/lisa-m-team4938/paparazzi/var/ECE_2012/ap/arch/stm32/subsystems/imu/imu_aspirin_arch.o (EXTI_Init)
/opt/paparazzi/arm-multilib/lib/gcc/arm-none-eabi/4.4.5/../../../../arm-none-eabi/lib/libstm32.a(stm32_i2c.o)
                              /home/woz/lisa-m-team4938/paparazzi/var/ECE_2012/ap/arch/stm32/mcu_periph/i2c_arch.o (I2C_Cmd)
/opt/paparazzi/arm-multilib/lib/gcc/arm-none-eabi/4.4.5/../../../../arm-none-eabi/lib/libstm32.a(stm32_spi.o)
                              /home/woz/lisa-m-team4938/paparazzi/var/ECE_2012/ap/arch/stm32/subsystems/imu/imu_aspirin_arch.o (SPI_Init)
/opt/paparazzi/arm-multilib/lib/gcc/arm-none-eabi/4.4.5/../../../../arm-none-eabi/lib/libstm32.a(stm32_rcc.o)
                              /home/woz/lisa-m-team4938/paparazzi/var/ECE_2012/ap/arch/stm32/mcu_periph/adc_arch.o (RCC_ADCCLKConfig)
/opt/paparazzi/arm-multilib/lib/gcc/arm-none-eabi/4.4.5/../../../../arm-none-eabi/lib/libstm32.a(stm32_misc.o)
                              /home/woz/lisa-m-team4938/paparazzi/var/ECE_2012/ap/arch/stm32/mcu_periph/i2c_arch.o (NVIC_PriorityGroupConfig)
/opt/paparazzi/arm-multilib/lib/gcc/arm-none-eabi/4.4.5/../../../../arm-none-eabi/lib/libopencm3_stm32.a(rcc.o)
                              /home/woz/lisa-m-team4938/paparazzi/var/ECE_2012/ap/arch/stm32/mcu_arch.o (rcc_clock_setup_in_hse_12mhz_out_72mhz)
/opt/paparazzi/arm-multilib/lib/gcc/arm-none-eabi/4.4.5/../../../../arm-none-eabi/lib/libopencm3_stm32.a(usart.o)
                              /home/woz/lisa-m-team4938/paparazzi/var/ECE_2012/ap/arch/stm32/mcu_periph/uart_arch.o (usart_set_baudrate)
/opt/paparazzi/arm-multilib/lib/gcc/arm-none-eabi/4.4.5/../../../../arm-none-eabi/lib/libopencm3_stm32.a(flash.o)
                              /opt/paparazzi/arm-multilib/lib/gcc/arm-none-eabi/4.4.5/../../../../arm-none-eabi/lib/libopencm3_stm32.a(rcc.o) (flash_set_ws)
/opt/paparazzi/arm-multilib/lib/gcc/arm-none-eabi/4.4.5/../../../../arm-none-eabi/lib/thumb2/libc.a(lib_a-errno.o)
                              /opt/paparazzi/arm-multilib/lib/gcc/arm-none-eabi/4.4.5/../../../../arm-none-eabi/lib/thumb2/libm.a(lib_a-w_asin.o) (__errno)
/opt/paparazzi/arm-multilib/lib/gcc/arm-none-eabi/4.4.5/../../../../arm-none-eabi/lib/thumb2/libc.a(lib_a-impure.o)
                              /opt/paparazzi/arm-multilib/lib/gcc/arm-none-eabi/4.4.5/../../../../arm-none-eabi/lib/thumb2/libc.a(lib_a-errno.o) (_impure_ptr)

Discarded input sections

 .text          0x00000000        0x0 /home/woz/lisa-m-team4938/paparazzi/var/ECE_2012/ap/mcu.o
 .data          0x00000000        0x0 /home/woz/lisa-m-team4938/paparazzi/var/ECE_2012/ap/mcu.o
 .bss           0x00000000        0x0 /home/woz/lisa-m-team4938/paparazzi/var/ECE_2012/ap/mcu.o
 .text          0x00000000        0x0 /home/woz/lisa-m-team4938/paparazzi/var/ECE_2012/ap/arch/stm32/mcu_arch.o
 .data          0x00000000        0x0 /home/woz/lisa-m-team4938/paparazzi/var/ECE_2012/ap/arch/stm32/mcu_arch.o
 .bss           0x00000000        0x0 /home/woz/lisa-m-team4938/paparazzi/var/ECE_2012/ap/arch/stm32/mcu_arch.o
 .text          0x00000000        0x0 /home/woz/lisa-m-team4938/paparazzi/var/ECE_2012/ap/arch/stm32/led_hw.o
 .data          0x00000000        0x0 /home/woz/lisa-m-team4938/paparazzi/var/ECE_2012/ap/arch/stm32/led_hw.o
 .bss           0x00000000        0x0 /home/woz/lisa-m-team4938/paparazzi/var/ECE_2012/ap/arch/stm32/led_hw.o
 .text          0x00000000        0x0 /home/woz/lisa-m-team4938/paparazzi/var/ECE_2012/ap/sys_time.o
 .data          0x00000000        0x0 /home/woz/lisa-m-team4938/paparazzi/var/ECE_2012/ap/sys_time.o
 .bss           0x00000000        0x0 /home/woz/lisa-m-team4938/paparazzi/var/ECE_2012/ap/sys_time.o
 .text          0x00000000        0x0 /home/woz/lisa-m-team4938/paparazzi/var/ECE_2012/ap/./inter_mcu.o
 .data          0x00000000        0x0 /home/woz/lisa-m-team4938/paparazzi/var/ECE_2012/ap/./inter_mcu.o
 .bss           0x00000000        0x0 /home/woz/lisa-m-team4938/paparazzi/var/ECE_2012/ap/./inter_mcu.o
 .text          0x00000000        0x0 /home/woz/lisa-m-team4938/paparazzi/var/ECE_2012/ap/math/pprz_geodetic_int.o
 .data          0x00000000        0x0 /home/woz/lisa-m-team4938/paparazzi/var/ECE_2012/ap/math/pprz_geodetic_int.o
 .bss           0x00000000        0x0 /home/woz/lisa-m-team4938/paparazzi/var/ECE_2012/ap/math/pprz_geodetic_int.o
 .text.enu_of_ecef_point_i
                0x00000000      0x14a /home/woz/lisa-m-team4938/paparazzi/var/ECE_2012/ap/math/pprz_geodetic_int.o
 .text.ned_of_ecef_point_i
                0x00000000       0x1a /home/woz/lisa-m-team4938/paparazzi/var/ECE_2012/ap/math/pprz_geodetic_int.o
 .text.enu_of_ecef_vect_i
                0x00000000      0x13e /home/woz/lisa-m-team4938/paparazzi/var/ECE_2012/ap/math/pprz_geodetic_int.o
 .text.ned_of_ecef_vect_i
                0x00000000       0x1a /home/woz/lisa-m-team4938/paparazzi/var/ECE_2012/ap/math/pprz_geodetic_int.o
 .text.ecef_of_enu_point_i
                0x00000000       0x5c /home/woz/lisa-m-team4938/paparazzi/var/ECE_2012/ap/math/pprz_geodetic_int.o
 .text.ecef_of_ned_point_i
                0x00000000       0x1a /home/woz/lisa-m-team4938/paparazzi/var/ECE_2012/ap/math/pprz_geodetic_int.o
 .text.ecef_of_enu_vect_i
                0x00000000       0x46 /home/woz/lisa-m-team4938/paparazzi/var/ECE_2012/ap/math/pprz_geodetic_int.o
 .text.ecef_of_ned_vect_i
                0x00000000       0x1a /home/woz/lisa-m-team4938/paparazzi/var/ECE_2012/ap/math/pprz_geodetic_int.o
 .text.ecef_of_lla_i
                0x00000000       0xa0 /home/woz/lisa-m-team4938/paparazzi/var/ECE_2012/ap/math/pprz_geodetic_int.o
 .text.ned_of_lla_vect_i
                0x00000000       0x1c /home/woz/lisa-m-team4938/paparazzi/var/ECE_2012/ap/math/pprz_geodetic_int.o
 .text.enu_of_lla_vect_i
                0x00000000       0x1c /home/woz/lisa-m-team4938/paparazzi/var/ECE_2012/ap/math/pprz_geodetic_int.o
 .text.ned_of_lla_point_i
                0x00000000       0x1c /home/woz/lisa-m-team4938/paparazzi/var/ECE_2012/ap/math/pprz_geodetic_int.o
 .text.enu_of_lla_point_i
                0x00000000       0x1c /home/woz/lisa-m-team4938/paparazzi/var/ECE_2012/ap/math/pprz_geodetic_int.o
 .text.lla_of_ecef_i
                0x00000000       0xa8 /home/woz/lisa-m-team4938/paparazzi/var/ECE_2012/ap/math/pprz_geodetic_int.o
 .text.ltp_def_from_lla_i
                0x00000000      0x148 /home/woz/lisa-m-team4938/paparazzi/var/ECE_2012/ap/math/pprz_geodetic_int.o
 .text.ltp_def_from_ecef_i
                0x00000000      0x148 /home/woz/lisa-m-team4938/paparazzi/var/ECE_2012/ap/math/pprz_geodetic_int.o
 .text          0x00000000        0x0 /home/woz/lisa-m-team4938/paparazzi/var/ECE_2012/ap/math/pprz_geodetic_float.o
 .data          0x00000000        0x0 /home/woz/lisa-m-team4938/paparazzi/var/ECE_2012/ap/math/pprz_geodetic_float.o
 .bss           0x00000000        0x0 /home/woz/lisa-m-team4938/paparazzi/var/ECE_2012/ap/math/pprz_geodetic_float.o
 .text.enu_of_ecef_point_f
                0x00000000       0xb6 /home/woz/lisa-m-team4938/paparazzi/var/ECE_2012/ap/math/pprz_geodetic_float.o
 .text.ned_of_ecef_point_f
                0x00000000       0x1c /home/woz/lisa-m-team4938/paparazzi/var/ECE_2012/ap/math/pprz_geodetic_float.o
 .text.enu_of_ecef_vect_f
                0x00000000       0x9e /home/woz/lisa-m-team4938/paparazzi/var/ECE_2012/ap/math/pprz_geodetic_float.o
 .text.ned_of_ecef_vect_f
                0x00000000       0x1c /home/woz/lisa-m-team4938/paparazzi/var/ECE_2012/ap/math/pprz_geodetic_float.o
 .text.ecef_of_enu_point_f
                0x00000000      0x146 /home/woz/lisa-m-team4938/paparazzi/var/ECE_2012/ap/math/pprz_geodetic_float.o
 .text.ecef_of_ned_point_f
                0x00000000       0x1c /home/woz/lisa-m-team4938/paparazzi/var/ECE_2012/ap/math/pprz_geodetic_float.o
 .text.ecef_of_enu_vect_f
                0x00000000      0x134 /home/woz/lisa-m-team4938/paparazzi/var/ECE_2012/ap/math/pprz_geodetic_float.o
 .text.ecef_of_ned_vect_f
                0x00000000       0x1c /home/woz/lisa-m-team4938/paparazzi/var/ECE_2012/ap/math/pprz_geodetic_float.o
 .text.ecef_of_lla_f
                0x00000000       0xd0 /home/woz/lisa-m-team4938/paparazzi/var/ECE_2012/ap/math/pprz_geodetic_float.o
 .text.ned_of_lla_point_f
                0x00000000       0x1c /home/woz/lisa-m-team4938/paparazzi/var/ECE_2012/ap/math/pprz_geodetic_float.o
 .text.enu_of_lla_point_f
                0x00000000       0x1c /home/woz/lisa-m-team4938/paparazzi/var/ECE_2012/ap/math/pprz_geodetic_float.o
 .text.ltp_def_from_lla_f
                0x00000000       0x80 /home/woz/lisa-m-team4938/paparazzi/var/ECE_2012/ap/math/pprz_geodetic_float.o
 .text.lla_of_ecef_f
                0x00000000      0x298 /home/woz/lisa-m-team4938/paparazzi/var/ECE_2012/ap/math/pprz_geodetic_float.o
 .text.ltp_def_from_ecef_f
                0x00000000       0x80 /home/woz/lisa-m-team4938/paparazzi/var/ECE_2012/ap/math/pprz_geodetic_float.o
 .text.lla_of_utm_f
                0x00000000      0x280 /home/woz/lisa-m-team4938/paparazzi/var/ECE_2012/ap/math/pprz_geodetic_float.o
 .text          0x00000000        0x0 /home/woz/lisa-m-team4938/paparazzi/var/ECE_2012/ap/math/pprz_geodetic_double.o
 .data          0x00000000        0x0 /home/woz/lisa-m-team4938/paparazzi/var/ECE_2012/ap/math/pprz_geodetic_double.o
 .bss           0x00000000        0x0 /home/woz/lisa-m-team4938/paparazzi/var/ECE_2012/ap/math/pprz_geodetic_double.o
 .text.enu_of_ecef_point_d
                0x00000000      0x116 /home/woz/lisa-m-team4938/paparazzi/var/ECE_2012/ap/math/pprz_geodetic_double.o
 .text.ned_of_ecef_point_d
                0x00000000       0x2c /home/woz/lisa-m-team4938/paparazzi/var/ECE_2012/ap/math/pprz_geodetic_double.o
 .text.enu_of_ecef_vect_d
                0x00000000       0xf4 /home/woz/lisa-m-team4938/paparazzi/var/ECE_2012/ap/math/pprz_geodetic_double.o
 .text.ned_of_ecef_vect_d
                0x00000000       0x2c /home/woz/lisa-m-team4938/paparazzi/var/ECE_2012/ap/math/pprz_geodetic_double.o
 .text.ecef_of_enu_point_d
                0x00000000      0x134 /home/woz/lisa-m-team4938/paparazzi/var/ECE_2012/ap/math/pprz_geodetic_double.o
 .text.ecef_of_ned_point_d
                0x00000000       0x2a /home/woz/lisa-m-team4938/paparazzi/var/ECE_2012/ap/math/pprz_geodetic_double.o
 .text.ecef_of_enu_vect_d
                0x00000000       0xf4 /home/woz/lisa-m-team4938/paparazzi/var/ECE_2012/ap/math/pprz_geodetic_double.o
 .text.ecef_of_ned_vect_d
                0x00000000       0x2a /home/woz/lisa-m-team4938/paparazzi/var/ECE_2012/ap/math/pprz_geodetic_double.o
 .text.gc_of_gd_lat_d
                0x00000000       0xd0 /home/woz/lisa-m-team4938/paparazzi/var/ECE_2012/ap/math/pprz_geodetic_double.o
 .text.ecef_of_lla_d
                0x00000000      0x100 /home/woz/lisa-m-team4938/paparazzi/var/ECE_2012/ap/math/pprz_geodetic_double.o
 .text.lla_of_ecef_d
                0x00000000      0x3a8 /home/woz/lisa-m-team4938/paparazzi/var/ECE_2012/ap/math/pprz_geodetic_double.o
 .text.ltp_def_from_ecef_d
                0x00000000       0xce /home/woz/lisa-m-team4938/paparazzi/var/ECE_2012/ap/math/pprz_geodetic_double.o
 .text.lla_of_utm_d
                0x00000000      0x300 /home/woz/lisa-m-team4938/paparazzi/var/ECE_2012/ap/math/pprz_geodetic_double.o
 .text          0x00000000        0x0 /home/woz/lisa-m-team4938/paparazzi/var/ECE_2012/ap/math/pprz_trig_int.o
 .data          0x00000000        0x0 /home/woz/lisa-m-team4938/paparazzi/var/ECE_2012/ap/math/pprz_trig_int.o
 .bss           0x00000000        0x0 /home/woz/lisa-m-team4938/paparazzi/var/ECE_2012/ap/math/pprz_trig_int.o
 .text          0x00000000        0x0 /home/woz/lisa-m-team4938/paparazzi/var/ECE_2012/ap/mcu_periph/i2c.o
 .data          0x00000000        0x0 /home/woz/lisa-m-team4938/paparazzi/var/ECE_2012/ap/mcu_periph/i2c.o
 .bss           0x00000000        0x0 /home/woz/lisa-m-team4938/paparazzi/var/ECE_2012/ap/mcu_periph/i2c.o
 .text          0x00000000        0x0 /home/woz/lisa-m-team4938/paparazzi/var/ECE_2012/ap/arch/stm32/mcu_periph/i2c_arch.o
 .data          0x00000000        0x0 /home/woz/lisa-m-team4938/paparazzi/var/ECE_2012/ap/arch/stm32/mcu_periph/i2c_arch.o
 .bss           0x00000000        0x0 /home/woz/lisa-m-team4938/paparazzi/var/ECE_2012/ap/arch/stm32/mcu_periph/i2c_arch.o
 .text          0x00000000        0x0 /home/woz/lisa-m-team4938/paparazzi/var/ECE_2012/ap/firmwares/fixedwing/main_fbw.o
 .data          0x00000000        0x0 /home/woz/lisa-m-team4938/paparazzi/var/ECE_2012/ap/firmwares/fixedwing/main_fbw.o
 .bss           0x00000000        0x0 /home/woz/lisa-m-team4938/paparazzi/var/ECE_2012/ap/firmwares/fixedwing/main_fbw.o
 .text          0x00000000        0x0 /home/woz/lisa-m-team4938/paparazzi/var/ECE_2012/ap/subsystems/electrical.o
 .data          0x00000000        0x0 /home/woz/lisa-m-team4938/paparazzi/var/ECE_2012/ap/subsystems/electrical.o
 .bss           0x00000000        0x0 /home/woz/lisa-m-team4938/paparazzi/var/ECE_2012/ap/subsystems/electrical.o
 .text          0x00000000        0x0 /home/woz/lisa-m-team4938/paparazzi/var/ECE_2012/ap/./commands.o
 .data          0x00000000        0x0 /home/woz/lisa-m-team4938/paparazzi/var/ECE_2012/ap/./commands.o
 .bss           0x00000000        0x0 /home/woz/lisa-m-team4938/paparazzi/var/ECE_2012/ap/./commands.o
 .text          0x00000000        0x0 /home/woz/lisa-m-team4938/paparazzi/var/ECE_2012/ap/firmwares/fixedwing/main_ap.o
 .data          0x00000000        0x0 /home/woz/lisa-m-team4938/paparazzi/var/ECE_2012/ap/firmwares/fixedwing/main_ap.o
 .bss           0x00000000        0x0 /home/woz/lisa-m-team4938/paparazzi/var/ECE_2012/ap/firmwares/fixedwing/main_ap.o
 .text.on_accel_event
                0x00000000        0x2 /home/woz/lisa-m-team4938/paparazzi/var/ECE_2012/ap/firmwares/fixedwing/main_ap.o
 .bss.slider_2_val
                0x00000000        0x4 /home/woz/lisa-m-team4938/paparazzi/var/ECE_2012/ap/firmwares/fixedwing/main_ap.o
 .bss.slider_1_val
                0x00000000        0x4 /home/woz/lisa-m-team4938/paparazzi/var/ECE_2012/ap/firmwares/fixedwing/main_ap.o
 .data.ac_ident
                0x00000000        0x1 /home/woz/lisa-m-team4938/paparazzi/var/ECE_2012/ap/firmwares/fixedwing/main_ap.o
 .bss.fatal_error_nb
                0x00000000        0x1 /home/woz/lisa-m-team4938/paparazzi/var/ECE_2012/ap/firmwares/fixedwing/main_ap.o
 .text          0x00000000        0x0 /home/woz/lisa-m-team4938/paparazzi/var/ECE_2012/ap/./estimator.o
 .data          0x00000000        0x0 /home/woz/lisa-m-team4938/paparazzi/var/ECE_2012/ap/./estimator.o
 .bss           0x00000000        0x0 /home/woz/lisa-m-team4938/paparazzi/var/ECE_2012/ap/./estimator.o
 .bss.estimator_t
                0x00000000        0x4 /home/woz/lisa-m-team4938/paparazzi/var/ECE_2012/ap/./estimator.o
 .bss.estimator_AOA
                0x00000000        0x4 /home/woz/lisa-m-team4938/paparazzi/var/ECE_2012/ap/./estimator.o
 .text          0x00000000        0x0 /home/woz/lisa-m-team4938/paparazzi/var/ECE_2012/ap/arch/stm32/stm32_exceptions.o
 .data          0x00000000        0x0 /home/woz/lisa-m-team4938/paparazzi/var/ECE_2012/ap/arch/stm32/stm32_exceptions.o
 .bss           0x00000000        0x0 /home/woz/lisa-m-team4938/paparazzi/var/ECE_2012/ap/arch/stm32/stm32_exceptions.o
 .text          0x00000000        0x0 /home/woz/lisa-m-team4938/paparazzi/var/ECE_2012/ap/arch/stm32/stm32_vector_table.o
 .data          0x00000000        0x0 /home/woz/lisa-m-team4938/paparazzi/var/ECE_2012/ap/arch/stm32/stm32_vector_table.o
 .bss           0x00000000        0x0 /home/woz/lisa-m-team4938/paparazzi/var/ECE_2012/ap/arch/stm32/stm32_vector_table.o
 .text.assert_param
                0x00000000        0x2 /home/woz/lisa-m-team4938/paparazzi/var/ECE_2012/ap/arch/stm32/stm32_vector_table.o
 .text          0x00000000        0x0 /home/woz/lisa-m-team4938/paparazzi/var/ECE_2012/ap/lisa/plug_sys.o
 .data          0x00000000        0x0 /home/woz/lisa-m-team4938/paparazzi/var/ECE_2012/ap/lisa/plug_sys.o
 .bss           0x00000000        0x0 /home/woz/lisa-m-team4938/paparazzi/var/ECE_2012/ap/lisa/plug_sys.o
 .text._lseek   0x00000000        0x4 /home/woz/lisa-m-team4938/paparazzi/var/ECE_2012/ap/lisa/plug_sys.o
 .text.abort    0x00000000        0x2 /home/woz/lisa-m-team4938/paparazzi/var/ECE_2012/ap/lisa/plug_sys.o
 .text.getpid   0x00000000        0x4 /home/woz/lisa-m-team4938/paparazzi/var/ECE_2012/ap/lisa/plug_sys.o
 .text.kill     0x00000000        0x4 /home/woz/lisa-m-team4938/paparazzi/var/ECE_2012/ap/lisa/plug_sys.o
 .text._sbrk    0x00000000        0x4 /home/woz/lisa-m-team4938/paparazzi/var/ECE_2012/ap/lisa/plug_sys.o
 .text._write   0x00000000        0x4 /home/woz/lisa-m-team4938/paparazzi/var/ECE_2012/ap/lisa/plug_sys.o
 .text._close   0x00000000        0x4 /home/woz/lisa-m-team4938/paparazzi/var/ECE_2012/ap/lisa/plug_sys.o
 .text._read    0x00000000        0x4 /home/woz/lisa-m-team4938/paparazzi/var/ECE_2012/ap/lisa/plug_sys.o
 .text          0x00000000        0x0 /home/woz/lisa-m-team4938/paparazzi/var/ECE_2012/ap/firmwares/fixedwing/main.o
 .data          0x00000000        0x0 /home/woz/lisa-m-team4938/paparazzi/var/ECE_2012/ap/firmwares/fixedwing/main.o
 .bss           0x00000000        0x0 /home/woz/lisa-m-team4938/paparazzi/var/ECE_2012/ap/firmwares/fixedwing/main.o
 .text          0x00000000        0x0 /home/woz/lisa-m-team4938/paparazzi/var/ECE_2012/ap/arch/stm32/sys_time_hw.o
 .data          0x00000000        0x0 /home/woz/lisa-m-team4938/paparazzi/var/ECE_2012/ap/arch/stm32/sys_time_hw.o
 .bss           0x00000000        0x0 /home/woz/lisa-m-team4938/paparazzi/var/ECE_2012/ap/arch/stm32/sys_time_hw.o
 .text          0x00000000        0x0 /home/woz/lisa-m-team4938/paparazzi/var/ECE_2012/ap/mcu_periph/uart.o
 .data          0x00000000        0x0 /home/woz/lisa-m-team4938/paparazzi/var/ECE_2012/ap/mcu_periph/uart.o
 .bss           0x00000000        0x0 /home/woz/lisa-m-team4938/paparazzi/var/ECE_2012/ap/mcu_periph/uart.o
 .text          0x00000000        0x0 /home/woz/lisa-m-team4938/paparazzi/var/ECE_2012/ap/arch/stm32/mcu_periph/uart_arch.o
 .data          0x00000000        0x0 /home/woz/lisa-m-team4938/paparazzi/var/ECE_2012/ap/arch/stm32/mcu_periph/uart_arch.o
 .bss           0x00000000        0x0 /home/woz/lisa-m-team4938/paparazzi/var/ECE_2012/ap/arch/stm32/mcu_periph/uart_arch.o
 .text          0x00000000        0x0 /home/woz/lisa-m-team4938/paparazzi/var/ECE_2012/ap/subsystems/settings.o
 .data          0x00000000        0x0 /home/woz/lisa-m-team4938/paparazzi/var/ECE_2012/ap/subsystems/settings.o
 .bss           0x00000000        0x0 /home/woz/lisa-m-team4938/paparazzi/var/ECE_2012/ap/subsystems/settings.o
 .text.settings_store
                0x00000000        0x2 /home/woz/lisa-m-team4938/paparazzi/var/ECE_2012/ap/subsystems/settings.o
 .bss.settings_store_now
                0x00000000        0x1 /home/woz/lisa-m-team4938/paparazzi/var/ECE_2012/ap/subsystems/settings.o
 .bss.pers_settings
                0x00000000        0x0 /home/woz/lisa-m-team4938/paparazzi/var/ECE_2012/ap/subsystems/settings.o
 .text          0x00000000        0x0 /home/woz/lisa-m-team4938/paparazzi/var/ECE_2012/ap/arch/stm32/subsystems/settings_arch.o
 .data          0x00000000        0x0 /home/woz/lisa-m-team4938/paparazzi/var/ECE_2012/ap/arch/stm32/subsystems/settings_arch.o
 .bss           0x00000000        0x0 /home/woz/lisa-m-team4938/paparazzi/var/ECE_2012/ap/arch/stm32/subsystems/settings_arch.o
 .text.pflash_checksum
                0x00000000       0x98 /home/woz/lisa-m-team4938/paparazzi/var/ECE_2012/ap/arch/stm32/subsystems/settings_arch.o
 .text.flash_detect
                0x00000000       0x70 /home/woz/lisa-m-team4938/paparazzi/var/ECE_2012/ap/arch/stm32/subsystems/settings_arch.o
 .text.persistent_read
                0x00000000       0x66 /home/woz/lisa-m-team4938/paparazzi/var/ECE_2012/ap/arch/stm32/subsystems/settings_arch.o
 .text.persistent_write
                0x00000000       0xfc /home/woz/lisa-m-team4938/paparazzi/var/ECE_2012/ap/arch/stm32/subsystems/settings_arch.o
 .text          0x00000000        0x0 /home/woz/lisa-m-team4938/paparazzi/var/ECE_2012/ap/arch/stm32/mcu_periph/adc_arch.o
 .data          0x00000000        0x0 /home/woz/lisa-m-team4938/paparazzi/var/ECE_2012/ap/arch/stm32/mcu_periph/adc_arch.o
 .bss           0x00000000        0x0 /home/woz/lisa-m-team4938/paparazzi/var/ECE_2012/ap/arch/stm32/mcu_periph/adc_arch.o
 .text          0x00000000        0x0 /home/woz/lisa-m-team4938/paparazzi/var/ECE_2012/ap/arch/stm32/servos_direct_hw.o
 .data          0x00000000        0x0 /home/woz/lisa-m-team4938/paparazzi/var/ECE_2012/ap/arch/stm32/servos_direct_hw.o
 .bss           0x00000000        0x0 /home/woz/lisa-m-team4938/paparazzi/var/ECE_2012/ap/arch/stm32/servos_direct_hw.o
 .text          0x00000000        0x0 /home/woz/lisa-m-team4938/paparazzi/var/ECE_2012/ap/actuators.o
 .data          0x00000000        0x0 /home/woz/lisa-m-team4938/paparazzi/var/ECE_2012/ap/actuators.o
 .bss           0x00000000        0x0 /home/woz/lisa-m-team4938/paparazzi/var/ECE_2012/ap/actuators.o
 .text          0x00000000        0x0 /home/woz/lisa-m-team4938/paparazzi/var/ECE_2012/ap/firmwares/rotorcraft/actuators/arch/stm32/actuators_pwm_arch.o
 .data          0x00000000        0x0 /home/woz/lisa-m-team4938/paparazzi/var/ECE_2012/ap/firmwares/rotorcraft/actuators/arch/stm32/actuators_pwm_arch.o
 .bss           0x00000000        0x0 /home/woz/lisa-m-team4938/paparazzi/var/ECE_2012/ap/firmwares/rotorcraft/actuators/arch/stm32/actuators_pwm_arch.o
 .text          0x00000000        0x0 /home/woz/lisa-m-team4938/paparazzi/var/ECE_2012/ap/subsystems/radio_control.o
 .data          0x00000000        0x0 /home/woz/lisa-m-team4938/paparazzi/var/ECE_2012/ap/subsystems/radio_control.o
 .bss           0x00000000        0x0 /home/woz/lisa-m-team4938/paparazzi/var/ECE_2012/ap/subsystems/radio_control.o
 .text          0x00000000        0x0 /home/woz/lisa-m-team4938/paparazzi/var/ECE_2012/ap/subsystems/radio_control/ppm.o
 .data          0x00000000        0x0 /home/woz/lisa-m-team4938/paparazzi/var/ECE_2012/ap/subsystems/radio_control/ppm.o
 .bss           0x00000000        0x0 /home/woz/lisa-m-team4938/paparazzi/var/ECE_2012/ap/subsystems/radio_control/ppm.o
 .text          0x00000000        0x0 /home/woz/lisa-m-team4938/paparazzi/var/ECE_2012/ap/arch/stm32/subsystems/radio_control/ppm_arch.o
 .data          0x00000000        0x0 /home/woz/lisa-m-team4938/paparazzi/var/ECE_2012/ap/arch/stm32/subsystems/radio_control/ppm_arch.o
 .bss           0x00000000        0x0 /home/woz/lisa-m-team4938/paparazzi/var/ECE_2012/ap/arch/stm32/subsystems/radio_control/ppm_arch.o
 .text          0x00000000        0x0 /home/woz/lisa-m-team4938/paparazzi/var/ECE_2012/ap/downlink.o
 .data          0x00000000        0x0 /home/woz/lisa-m-team4938/paparazzi/var/ECE_2012/ap/downlink.o
 .bss           0x00000000        0x0 /home/woz/lisa-m-team4938/paparazzi/var/ECE_2012/ap/downlink.o
 .text          0x00000000        0x0 /home/woz/lisa-m-team4938/paparazzi/var/ECE_2012/ap/pprz_transport.o
 .data          0x00000000        0x0 /home/woz/lisa-m-team4938/paparazzi/var/ECE_2012/ap/pprz_transport.o
 .bss           0x00000000        0x0 /home/woz/lisa-m-team4938/paparazzi/var/ECE_2012/ap/pprz_transport.o
 .text          0x00000000        0x0 /home/woz/lisa-m-team4938/paparazzi/var/ECE_2012/ap/firmwares/fixedwing/datalink.o
 .data          0x00000000        0x0 /home/woz/lisa-m-team4938/paparazzi/var/ECE_2012/ap/firmwares/fixedwing/datalink.o
 .bss           0x00000000        0x0 /home/woz/lisa-m-team4938/paparazzi/var/ECE_2012/ap/firmwares/fixedwing/datalink.o
 .text          0x00000000        0x0 /home/woz/lisa-m-team4938/paparazzi/var/ECE_2012/ap/firmwares/fixedwing/stabilization/stabilization_attitude.o
 .data          0x00000000        0x0 /home/woz/lisa-m-team4938/paparazzi/var/ECE_2012/ap/firmwares/fixedwing/stabilization/stabilization_attitude.o
 .bss           0x00000000        0x0 /home/woz/lisa-m-team4938/paparazzi/var/ECE_2012/ap/firmwares/fixedwing/stabilization/stabilization_attitude.o
 .bss.h_ctl_auto1_rate
                0x00000000        0x1 /home/woz/lisa-m-team4938/paparazzi/var/ECE_2012/ap/firmwares/fixedwing/stabilization/stabilization_attitude.o
 .bss.h_ctl_roll_rate_gain
                0x00000000        0x4 /home/woz/lisa-m-team4938/paparazzi/var/ECE_2012/ap/firmwares/fixedwing/stabilization/stabilization_attitude.o
 .bss.h_ctl_roll_attitude_gain
                0x00000000        0x4 /home/woz/lisa-m-team4938/paparazzi/var/ECE_2012/ap/firmwares/fixedwing/stabilization/stabilization_attitude.o
 .bss.h_ctl_roll_slew
                0x00000000        0x4 /home/woz/lisa-m-team4938/paparazzi/var/ECE_2012/ap/firmwares/fixedwing/stabilization/stabilization_attitude.o
 .text          0x00000000        0x0 /home/woz/lisa-m-team4938/paparazzi/var/ECE_2012/ap/firmwares/fixedwing/guidance/guidance_v.o
 .data          0x00000000        0x0 /home/woz/lisa-m-team4938/paparazzi/var/ECE_2012/ap/firmwares/fixedwing/guidance/guidance_v.o
 .bss           0x00000000        0x0 /home/woz/lisa-m-team4938/paparazzi/var/ECE_2012/ap/firmwares/fixedwing/guidance/guidance_v.o
 .text          0x00000000        0x0 /home/woz/lisa-m-team4938/paparazzi/var/ECE_2012/ap/subsystems/imu.o
 .data          0x00000000        0x0 /home/woz/lisa-m-team4938/paparazzi/var/ECE_2012/ap/subsystems/imu.o
 .bss           0x00000000        0x0 /home/woz/lisa-m-team4938/paparazzi/var/ECE_2012/ap/subsystems/imu.o
 .text.imu_float_init
                0x00000000       0x2c /home/woz/lisa-m-team4938/paparazzi/var/ECE_2012/ap/subsystems/imu.o
 .text          0x00000000        0x0 /home/woz/lisa-m-team4938/paparazzi/var/ECE_2012/ap/subsystems/imu/imu_aspirin.o
 .data          0x00000000        0x0 /home/woz/lisa-m-team4938/paparazzi/var/ECE_2012/ap/subsystems/imu/imu_aspirin.o
 .bss           0x00000000        0x0 /home/woz/lisa-m-team4938/paparazzi/var/ECE_2012/ap/subsystems/imu/imu_aspirin.o
 .text          0x00000000        0x0 /home/woz/lisa-m-team4938/paparazzi/var/ECE_2012/ap/arch/stm32/subsystems/imu/imu_aspirin_arch.o
 .data          0x00000000        0x0 /home/woz/lisa-m-team4938/paparazzi/var/ECE_2012/ap/arch/stm32/subsystems/imu/imu_aspirin_arch.o
 .bss           0x00000000        0x0 /home/woz/lisa-m-team4938/paparazzi/var/ECE_2012/ap/arch/stm32/subsystems/imu/imu_aspirin_arch.o
 .text          0x00000000        0x0 /home/woz/lisa-m-team4938/paparazzi/var/ECE_2012/ap/peripherals/hmc5843.o
 .data          0x00000000        0x0 /home/woz/lisa-m-team4938/paparazzi/var/ECE_2012/ap/peripherals/hmc5843.o
 .bss           0x00000000        0x0 /home/woz/lisa-m-team4938/paparazzi/var/ECE_2012/ap/peripherals/hmc5843.o
 .text          0x00000000        0x0 /home/woz/lisa-m-team4938/paparazzi/var/ECE_2012/ap/arch/stm32/peripherals/hmc5843_arch.o
 .data          0x00000000        0x0 /home/woz/lisa-m-team4938/paparazzi/var/ECE_2012/ap/arch/stm32/peripherals/hmc5843_arch.o
 .bss           0x00000000        0x0 /home/woz/lisa-m-team4938/paparazzi/var/ECE_2012/ap/arch/stm32/peripherals/hmc5843_arch.o
 .text.hmc5843_arch_reset
                0x00000000        0x4 /home/woz/lisa-m-team4938/paparazzi/var/ECE_2012/ap/arch/stm32/peripherals/hmc5843_arch.o
 .text          0x00000000        0x0 /home/woz/lisa-m-team4938/paparazzi/var/ECE_2012/ap/subsystems/ahrs.o
 .data          0x00000000        0x0 /home/woz/lisa-m-team4938/paparazzi/var/ECE_2012/ap/subsystems/ahrs.o
 .bss           0x00000000        0x0 /home/woz/lisa-m-team4938/paparazzi/var/ECE_2012/ap/subsystems/ahrs.o
 .bss.ahrs_mag_offset
                0x00000000        0x4 /home/woz/lisa-m-team4938/paparazzi/var/ECE_2012/ap/subsystems/ahrs.o
 .text          0x00000000        0x0 /home/woz/lisa-m-team4938/paparazzi/var/ECE_2012/ap/subsystems/ahrs/ahrs_aligner.o
 .data          0x00000000        0x0 /home/woz/lisa-m-team4938/paparazzi/var/ECE_2012/ap/subsystems/ahrs/ahrs_aligner.o
 .bss           0x00000000        0x0 /home/woz/lisa-m-team4938/paparazzi/var/ECE_2012/ap/subsystems/ahrs/ahrs_aligner.o
 .text          0x00000000        0x0 /home/woz/lisa-m-team4938/paparazzi/var/ECE_2012/ap/subsystems/ahrs/ahrs_float_dcm.o
 .data          0x00000000        0x0 /home/woz/lisa-m-team4938/paparazzi/var/ECE_2012/ap/subsystems/ahrs/ahrs_float_dcm.o
 .bss           0x00000000        0x0 /home/woz/lisa-m-team4938/paparazzi/var/ECE_2012/ap/subsystems/ahrs/ahrs_float_dcm.o
 .rodata.G_Dt   0x00000000        0x4 /home/woz/lisa-m-team4938/paparazzi/var/ECE_2012/ap/subsystems/ahrs/ahrs_float_dcm.o
 .text          0x00000000        0x0 /home/woz/lisa-m-team4938/paparazzi/var/ECE_2012/ap/subsystems/gps/gps_ubx.o
 .data          0x00000000        0x0 /home/woz/lisa-m-team4938/paparazzi/var/ECE_2012/ap/subsystems/gps/gps_ubx.o
 .bss           0x00000000        0x0 /home/woz/lisa-m-team4938/paparazzi/var/ECE_2012/ap/subsystems/gps/gps_ubx.o
 .text.ubxsend_cfg_rst
                0x00000000      0x138 /home/woz/lisa-m-team4938/paparazzi/var/ECE_2012/ap/subsystems/gps/gps_ubx.o
 .text          0x00000000        0x0 /home/woz/lisa-m-team4938/paparazzi/var/ECE_2012/ap/subsystems/gps.o
 .data          0x00000000        0x0 /home/woz/lisa-m-team4938/paparazzi/var/ECE_2012/ap/subsystems/gps.o
 .bss           0x00000000        0x0 /home/woz/lisa-m-team4938/paparazzi/var/ECE_2012/ap/subsystems/gps.o
 .text          0x00000000        0x0 /home/woz/lisa-m-team4938/paparazzi/var/ECE_2012/ap/subsystems/nav.o
 .data          0x00000000        0x0 /home/woz/lisa-m-team4938/paparazzi/var/ECE_2012/ap/subsystems/nav.o
 .bss           0x00000000        0x0 /home/woz/lisa-m-team4938/paparazzi/var/ECE_2012/ap/subsystems/nav.o
 .bss.carrot_x  0x00000000        0x4 /home/woz/lisa-m-team4938/paparazzi/var/ECE_2012/ap/subsystems/nav.o
 .bss.carrot_y  0x00000000        0x4 /home/woz/lisa-m-team4938/paparazzi/var/ECE_2012/ap/subsystems/nav.o
 .bss.fp_pitch  0x00000000        0x4 /home/woz/lisa-m-team4938/paparazzi/var/ECE_2012/ap/subsystems/nav.o
 .bss.nav_climb
                0x00000000        0x4 /home/woz/lisa-m-team4938/paparazzi/var/ECE_2012/ap/subsystems/nav.o
 .bss.nav_ground_speed_setpoint
                0x00000000        0x4 /home/woz/lisa-m-team4938/paparazzi/var/ECE_2012/ap/subsystems/nav.o
 .bss.rc_pitch  0x00000000        0x4 /home/woz/lisa-m-team4938/paparazzi/var/ECE_2012/ap/subsystems/nav.o
 .bss.nav_ground_speed_pgain
                0x00000000        0x4 /home/woz/lisa-m-team4938/paparazzi/var/ECE_2012/ap/subsystems/nav.o
 .text          0x00000000        0x0 /home/woz/lisa-m-team4938/paparazzi/var/ECE_2012/ap/subsystems/navigation/common_flight_plan.o
 .data          0x00000000        0x0 /home/woz/lisa-m-team4938/paparazzi/var/ECE_2012/ap/subsystems/navigation/common_flight_plan.o
 .bss           0x00000000        0x0 /home/woz/lisa-m-team4938/paparazzi/var/ECE_2012/ap/subsystems/navigation/common_flight_plan.o
 .text          0x00000000        0x0 /home/woz/lisa-m-team4938/paparazzi/var/ECE_2012/ap/subsystems/navigation/traffic_info.o
 .data          0x00000000        0x0 /home/woz/lisa-m-team4938/paparazzi/var/ECE_2012/ap/subsystems/navigation/traffic_info.o
 .bss           0x00000000        0x0 /home/woz/lisa-m-team4938/paparazzi/var/ECE_2012/ap/subsystems/navigation/traffic_info.o
 .text.get_ac_info
                0x00000000       0x14 /home/woz/lisa-m-team4938/paparazzi/var/ECE_2012/ap/subsystems/navigation/traffic_info.o
 .text          0x00000000        0x0 /home/woz/lisa-m-team4938/paparazzi/var/ECE_2012/ap/subsystems/navigation/nav_survey_rectangle.o
 .data          0x00000000        0x0 /home/woz/lisa-m-team4938/paparazzi/var/ECE_2012/ap/subsystems/navigation/nav_survey_rectangle.o
 .bss           0x00000000        0x0 /home/woz/lisa-m-team4938/paparazzi/var/ECE_2012/ap/subsystems/navigation/nav_survey_rectangle.o
 .text          0x00000000        0x0 /home/woz/lisa-m-team4938/paparazzi/var/ECE_2012/ap/subsystems/navigation/nav_line.o
 .data          0x00000000        0x0 /home/woz/lisa-m-team4938/paparazzi/var/ECE_2012/ap/subsystems/navigation/nav_line.o
 .bss           0x00000000        0x0 /home/woz/lisa-m-team4938/paparazzi/var/ECE_2012/ap/subsystems/navigation/nav_line.o
 .data          0x00000000        0x0 /opt/paparazzi/arm-multilib/lib/gcc/arm-none-eabi/4.4.5/../../../../arm-none-eabi/lib/thumb2/libc.a(lib_a-memcpy.o)
 .bss           0x00000000        0x0 /opt/paparazzi/arm-multilib/lib/gcc/arm-none-eabi/4.4.5/../../../../arm-none-eabi/lib/thumb2/libc.a(lib_a-memcpy.o)
 .data          0x00000000        0x0 /opt/paparazzi/arm-multilib/lib/gcc/arm-none-eabi/4.4.5/../../../../arm-none-eabi/lib/thumb2/libm.a(lib_a-s_atan.o)
 .bss           0x00000000        0x0 /opt/paparazzi/arm-multilib/lib/gcc/arm-none-eabi/4.4.5/../../../../arm-none-eabi/lib/thumb2/libm.a(lib_a-s_atan.o)
 .data          0x00000000        0x0 /opt/paparazzi/arm-multilib/lib/gcc/arm-none-eabi/4.4.5/../../../../arm-none-eabi/lib/thumb2/libm.a(lib_a-s_cos.o)
 .bss           0x00000000        0x0 /opt/paparazzi/arm-multilib/lib/gcc/arm-none-eabi/4.4.5/../../../../arm-none-eabi/lib/thumb2/libm.a(lib_a-s_cos.o)
 .data          0x00000000        0x0 /opt/paparazzi/arm-multilib/lib/gcc/arm-none-eabi/4.4.5/../../../../arm-none-eabi/lib/thumb2/libm.a(lib_a-s_fabs.o)
 .bss           0x00000000        0x0 /opt/paparazzi/arm-multilib/lib/gcc/arm-none-eabi/4.4.5/../../../../arm-none-eabi/lib/thumb2/libm.a(lib_a-s_fabs.o)
 .data          0x00000000        0x0 /opt/paparazzi/arm-multilib/lib/gcc/arm-none-eabi/4.4.5/../../../../arm-none-eabi/lib/thumb2/libm.a(lib_a-s_rint.o)
 .bss           0x00000000        0x0 /opt/paparazzi/arm-multilib/lib/gcc/arm-none-eabi/4.4.5/../../../../arm-none-eabi/lib/thumb2/libm.a(lib_a-s_rint.o)
 .data          0x00000000        0x0 /opt/paparazzi/arm-multilib/lib/gcc/arm-none-eabi/4.4.5/../../../../arm-none-eabi/lib/thumb2/libm.a(lib_a-s_sin.o)
 .bss           0x00000000        0x0 /opt/paparazzi/arm-multilib/lib/gcc/arm-none-eabi/4.4.5/../../../../arm-none-eabi/lib/thumb2/libm.a(lib_a-s_sin.o)
 .data          0x00000000        0x0 /opt/paparazzi/arm-multilib/lib/gcc/arm-none-eabi/4.4.5/../../../../arm-none-eabi/lib/thumb2/libm.a(lib_a-s_tan.o)
 .bss           0x00000000        0x0 /opt/paparazzi/arm-multilib/lib/gcc/arm-none-eabi/4.4.5/../../../../arm-none-eabi/lib/thumb2/libm.a(lib_a-s_tan.o)
 .data          0x00000000        0x0 /opt/paparazzi/arm-multilib/lib/gcc/arm-none-eabi/4.4.5/../../../../arm-none-eabi/lib/thumb2/libm.a(lib_a-sf_atan.o)
 .bss           0x00000000        0x0 /opt/paparazzi/arm-multilib/lib/gcc/arm-none-eabi/4.4.5/../../../../arm-none-eabi/lib/thumb2/libm.a(lib_a-sf_atan.o)
 .data          0x00000000        0x0 /opt/paparazzi/arm-multilib/lib/gcc/arm-none-eabi/4.4.5/../../../../arm-none-eabi/lib/thumb2/libm.a(lib_a-sf_cos.o)
 .bss           0x00000000        0x0 /opt/paparazzi/arm-multilib/lib/gcc/arm-none-eabi/4.4.5/../../../../arm-none-eabi/lib/thumb2/libm.a(lib_a-sf_cos.o)
 .data          0x00000000        0x0 /opt/paparazzi/arm-multilib/lib/gcc/arm-none-eabi/4.4.5/../../../../arm-none-eabi/lib/thumb2/libm.a(lib_a-sf_fabs.o)
 .bss           0x00000000        0x0 /opt/paparazzi/arm-multilib/lib/gcc/arm-none-eabi/4.4.5/../../../../arm-none-eabi/lib/thumb2/libm.a(lib_a-sf_fabs.o)
 .data          0x00000000        0x0 /opt/paparazzi/arm-multilib/lib/gcc/arm-none-eabi/4.4.5/../../../../arm-none-eabi/lib/thumb2/libm.a(lib_a-sf_sin.o)
 .bss           0x00000000        0x0 /opt/paparazzi/arm-multilib/lib/gcc/arm-none-eabi/4.4.5/../../../../arm-none-eabi/lib/thumb2/libm.a(lib_a-sf_sin.o)
 .data          0x00000000        0x0 /opt/paparazzi/arm-multilib/lib/gcc/arm-none-eabi/4.4.5/../../../../arm-none-eabi/lib/thumb2/libm.a(lib_a-w_asin.o)
 .bss           0x00000000        0x0 /opt/paparazzi/arm-multilib/lib/gcc/arm-none-eabi/4.4.5/../../../../arm-none-eabi/lib/thumb2/libm.a(lib_a-w_asin.o)
 .data          0x00000000        0x0 /opt/paparazzi/arm-multilib/lib/gcc/arm-none-eabi/4.4.5/../../../../arm-none-eabi/lib/thumb2/libm.a(lib_a-w_atan2.o)
 .bss           0x00000000        0x0 /opt/paparazzi/arm-multilib/lib/gcc/arm-none-eabi/4.4.5/../../../../arm-none-eabi/lib/thumb2/libm.a(lib_a-w_atan2.o)
 .data          0x00000000        0x0 /opt/paparazzi/arm-multilib/lib/gcc/arm-none-eabi/4.4.5/../../../../arm-none-eabi/lib/thumb2/libm.a(lib_a-w_cosh.o)
 .bss           0x00000000        0x0 /opt/paparazzi/arm-multilib/lib/gcc/arm-none-eabi/4.4.5/../../../../arm-none-eabi/lib/thumb2/libm.a(lib_a-w_cosh.o)
 .data          0x00000000        0x0 /opt/paparazzi/arm-multilib/lib/gcc/arm-none-eabi/4.4.5/../../../../arm-none-eabi/lib/thumb2/libm.a(lib_a-w_exp.o)
 .bss           0x00000000        0x0 /opt/paparazzi/arm-multilib/lib/gcc/arm-none-eabi/4.4.5/../../../../arm-none-eabi/lib/thumb2/libm.a(lib_a-w_exp.o)
 .data          0x00000000        0x0 /opt/paparazzi/arm-multilib/lib/gcc/arm-none-eabi/4.4.5/../../../../arm-none-eabi/lib/thumb2/libm.a(lib_a-w_log.o)
 .bss           0x00000000        0x0 /opt/paparazzi/arm-multilib/lib/gcc/arm-none-eabi/4.4.5/../../../../arm-none-eabi/lib/thumb2/libm.a(lib_a-w_log.o)
 .data          0x00000000        0x0 /opt/paparazzi/arm-multilib/lib/gcc/arm-none-eabi/4.4.5/../../../../arm-none-eabi/lib/thumb2/libm.a(lib_a-w_pow.o)
 .bss           0x00000000        0x0 /opt/paparazzi/arm-multilib/lib/gcc/arm-none-eabi/4.4.5/../../../../arm-none-eabi/lib/thumb2/libm.a(lib_a-w_pow.o)
 .data          0x00000000        0x0 /opt/paparazzi/arm-multilib/lib/gcc/arm-none-eabi/4.4.5/../../../../arm-none-eabi/lib/thumb2/libm.a(lib_a-w_sinh.o)
 .bss           0x00000000        0x0 /opt/paparazzi/arm-multilib/lib/gcc/arm-none-eabi/4.4.5/../../../../arm-none-eabi/lib/thumb2/libm.a(lib_a-w_sinh.o)
 .data          0x00000000        0x0 /opt/paparazzi/arm-multilib/lib/gcc/arm-none-eabi/4.4.5/../../../../arm-none-eabi/lib/thumb2/libm.a(lib_a-w_sqrt.o)
 .bss           0x00000000        0x0 /opt/paparazzi/arm-multilib/lib/gcc/arm-none-eabi/4.4.5/../../../../arm-none-eabi/lib/thumb2/libm.a(lib_a-w_sqrt.o)
 .data          0x00000000        0x0 /opt/paparazzi/arm-multilib/lib/gcc/arm-none-eabi/4.4.5/../../../../arm-none-eabi/lib/thumb2/libm.a(lib_a-wf_asin.o)
 .bss           0x00000000        0x0 /opt/paparazzi/arm-multilib/lib/gcc/arm-none-eabi/4.4.5/../../../../arm-none-eabi/lib/thumb2/libm.a(lib_a-wf_asin.o)
 .data          0x00000000        0x0 /opt/paparazzi/arm-multilib/lib/gcc/arm-none-eabi/4.4.5/../../../../arm-none-eabi/lib/thumb2/libm.a(lib_a-wf_atan2.o)
 .bss           0x00000000        0x0 /opt/paparazzi/arm-multilib/lib/gcc/arm-none-eabi/4.4.5/../../../../arm-none-eabi/lib/thumb2/libm.a(lib_a-wf_atan2.o)
 .text          0x00000000      0x2e0 /opt/paparazzi/arm-multilib/lib/gcc/arm-none-eabi/4.4.5/../../../../arm-none-eabi/lib/thumb2/libm.a(lib_a-wf_pow.o)
 .data          0x00000000        0x0 /opt/paparazzi/arm-multilib/lib/gcc/arm-none-eabi/4.4.5/../../../../arm-none-eabi/lib/thumb2/libm.a(lib_a-wf_pow.o)
 .bss           0x00000000        0x0 /opt/paparazzi/arm-multilib/lib/gcc/arm-none-eabi/4.4.5/../../../../arm-none-eabi/lib/thumb2/libm.a(lib_a-wf_pow.o)
 .rodata.str1.1
                0x00000000        0x5 /opt/paparazzi/arm-multilib/lib/gcc/arm-none-eabi/4.4.5/../../../../arm-none-eabi/lib/thumb2/libm.a(lib_a-wf_pow.o)
 .text          0x00000000       0xa0 /opt/paparazzi/arm-multilib/lib/gcc/arm-none-eabi/4.4.5/../../../../arm-none-eabi/lib/thumb2/libm.a(lib_a-wf_sqrt.o)
 .data          0x00000000        0x0 /opt/paparazzi/arm-multilib/lib/gcc/arm-none-eabi/4.4.5/../../../../arm-none-eabi/lib/thumb2/libm.a(lib_a-wf_sqrt.o)
 .bss           0x00000000        0x0 /opt/paparazzi/arm-multilib/lib/gcc/arm-none-eabi/4.4.5/../../../../arm-none-eabi/lib/thumb2/libm.a(lib_a-wf_sqrt.o)
 .rodata.str1.1
                0x00000000        0x6 /opt/paparazzi/arm-multilib/lib/gcc/arm-none-eabi/4.4.5/../../../../arm-none-eabi/lib/thumb2/libm.a(lib_a-wf_sqrt.o)
 .data          0x00000000        0x0 /opt/paparazzi/arm-multilib/lib/gcc/arm-none-eabi/4.4.5/../../../../arm-none-eabi/lib/thumb2/libm.a(lib_a-e_asin.o)
 .bss           0x00000000        0x0 /opt/paparazzi/arm-multilib/lib/gcc/arm-none-eabi/4.4.5/../../../../arm-none-eabi/lib/thumb2/libm.a(lib_a-e_asin.o)
 .data          0x00000000        0x0 /opt/paparazzi/arm-multilib/lib/gcc/arm-none-eabi/4.4.5/../../../../arm-none-eabi/lib/thumb2/libm.a(lib_a-e_atan2.o)
 .bss           0x00000000        0x0 /opt/paparazzi/arm-multilib/lib/gcc/arm-none-eabi/4.4.5/../../../../arm-none-eabi/lib/thumb2/libm.a(lib_a-e_atan2.o)
 .data          0x00000000        0x0 /opt/paparazzi/arm-multilib/lib/gcc/arm-none-eabi/4.4.5/../../../../arm-none-eabi/lib/thumb2/libm.a(lib_a-e_cosh.o)
 .bss           0x00000000        0x0 /opt/paparazzi/arm-multilib/lib/gcc/arm-none-eabi/4.4.5/../../../../arm-none-eabi/lib/thumb2/libm.a(lib_a-e_cosh.o)
 .data          0x00000000        0x0 /opt/paparazzi/arm-multilib/lib/gcc/arm-none-eabi/4.4.5/../../../../arm-none-eabi/lib/thumb2/libm.a(lib_a-e_exp.o)
 .bss           0x00000000        0x0 /opt/paparazzi/arm-multilib/lib/gcc/arm-none-eabi/4.4.5/../../../../arm-none-eabi/lib/thumb2/libm.a(lib_a-e_exp.o)
 .data          0x00000000        0x0 /opt/paparazzi/arm-multilib/lib/gcc/arm-none-eabi/4.4.5/../../../../arm-none-eabi/lib/thumb2/libm.a(lib_a-e_log.o)
 .bss           0x00000000        0x0 /opt/paparazzi/arm-multilib/lib/gcc/arm-none-eabi/4.4.5/../../../../arm-none-eabi/lib/thumb2/libm.a(lib_a-e_log.o)
 .data          0x00000000        0x0 /opt/paparazzi/arm-multilib/lib/gcc/arm-none-eabi/4.4.5/../../../../arm-none-eabi/lib/thumb2/libm.a(lib_a-e_pow.o)
 .bss           0x00000000        0x0 /opt/paparazzi/arm-multilib/lib/gcc/arm-none-eabi/4.4.5/../../../../arm-none-eabi/lib/thumb2/libm.a(lib_a-e_pow.o)
 .data          0x00000000        0x0 /opt/paparazzi/arm-multilib/lib/gcc/arm-none-eabi/4.4.5/../../../../arm-none-eabi/lib/thumb2/libm.a(lib_a-e_rem_pio2.o)
 .bss           0x00000000        0x0 /opt/paparazzi/arm-multilib/lib/gcc/arm-none-eabi/4.4.5/../../../../arm-none-eabi/lib/thumb2/libm.a(lib_a-e_rem_pio2.o)
 .data          0x00000000        0x0 /opt/paparazzi/arm-multilib/lib/gcc/arm-none-eabi/4.4.5/../../../../arm-none-eabi/lib/thumb2/libm.a(lib_a-e_sinh.o)
 .bss           0x00000000        0x0 /opt/paparazzi/arm-multilib/lib/gcc/arm-none-eabi/4.4.5/../../../../arm-none-eabi/lib/thumb2/libm.a(lib_a-e_sinh.o)
 .data          0x00000000        0x0 /opt/paparazzi/arm-multilib/lib/gcc/arm-none-eabi/4.4.5/../../../../arm-none-eabi/lib/thumb2/libm.a(lib_a-e_sqrt.o)
 .bss           0x00000000        0x0 /opt/paparazzi/arm-multilib/lib/gcc/arm-none-eabi/4.4.5/../../../../arm-none-eabi/lib/thumb2/libm.a(lib_a-e_sqrt.o)
 .data          0x00000000        0x0 /opt/paparazzi/arm-multilib/lib/gcc/arm-none-eabi/4.4.5/../../../../arm-none-eabi/lib/thumb2/libm.a(lib_a-ef_asin.o)
 .bss           0x00000000        0x0 /opt/paparazzi/arm-multilib/lib/gcc/arm-none-eabi/4.4.5/../../../../arm-none-eabi/lib/thumb2/libm.a(lib_a-ef_asin.o)
 .data          0x00000000        0x0 /opt/paparazzi/arm-multilib/lib/gcc/arm-none-eabi/4.4.5/../../../../arm-none-eabi/lib/thumb2/libm.a(lib_a-ef_atan2.o)
 .bss           0x00000000        0x0 /opt/paparazzi/arm-multilib/lib/gcc/arm-none-eabi/4.4.5/../../../../arm-none-eabi/lib/thumb2/libm.a(lib_a-ef_atan2.o)
 .text          0x00000000      0x6d8 /opt/paparazzi/arm-multilib/lib/gcc/arm-none-eabi/4.4.5/../../../../arm-none-eabi/lib/thumb2/libm.a(lib_a-ef_pow.o)
 .data          0x00000000        0x0 /opt/paparazzi/arm-multilib/lib/gcc/arm-none-eabi/4.4.5/../../../../arm-none-eabi/lib/thumb2/libm.a(lib_a-ef_pow.o)
 .bss           0x00000000        0x0 /opt/paparazzi/arm-multilib/lib/gcc/arm-none-eabi/4.4.5/../../../../arm-none-eabi/lib/thumb2/libm.a(lib_a-ef_pow.o)
 .rodata        0x00000000       0x18 /opt/paparazzi/arm-multilib/lib/gcc/arm-none-eabi/4.4.5/../../../../arm-none-eabi/lib/thumb2/libm.a(lib_a-ef_pow.o)
 .rodata.str1.1
                0x00000000        0x1 /opt/paparazzi/arm-multilib/lib/gcc/arm-none-eabi/4.4.5/../../../../arm-none-eabi/lib/thumb2/libm.a(lib_a-ef_pow.o)
 .data          0x00000000        0x0 /opt/paparazzi/arm-multilib/lib/gcc/arm-none-eabi/4.4.5/../../../../arm-none-eabi/lib/thumb2/libm.a(lib_a-ef_rem_pio2.o)
 .bss           0x00000000        0x0 /opt/paparazzi/arm-multilib/lib/gcc/arm-none-eabi/4.4.5/../../../../arm-none-eabi/lib/thumb2/libm.a(lib_a-ef_rem_pio2.o)
 .data          0x00000000        0x0 /opt/paparazzi/arm-multilib/lib/gcc/arm-none-eabi/4.4.5/../../../../arm-none-eabi/lib/thumb2/libm.a(lib_a-ef_sqrt.o)
 .bss           0x00000000        0x0 /opt/paparazzi/arm-multilib/lib/gcc/arm-none-eabi/4.4.5/../../../../arm-none-eabi/lib/thumb2/libm.a(lib_a-ef_sqrt.o)
 .data          0x00000000        0x0 /opt/paparazzi/arm-multilib/lib/gcc/arm-none-eabi/4.4.5/../../../../arm-none-eabi/lib/thumb2/libm.a(lib_a-k_cos.o)
 .bss           0x00000000        0x0 /opt/paparazzi/arm-multilib/lib/gcc/arm-none-eabi/4.4.5/../../../../arm-none-eabi/lib/thumb2/libm.a(lib_a-k_cos.o)
 .data          0x00000000        0x0 /opt/paparazzi/arm-multilib/lib/gcc/arm-none-eabi/4.4.5/../../../../arm-none-eabi/lib/thumb2/libm.a(lib_a-k_rem_pio2.o)
 .bss           0x00000000        0x0 /opt/paparazzi/arm-multilib/lib/gcc/arm-none-eabi/4.4.5/../../../../arm-none-eabi/lib/thumb2/libm.a(lib_a-k_rem_pio2.o)
 .data          0x00000000        0x0 /opt/paparazzi/arm-multilib/lib/gcc/arm-none-eabi/4.4.5/../../../../arm-none-eabi/lib/thumb2/libm.a(lib_a-k_sin.o)
 .bss           0x00000000        0x0 /opt/paparazzi/arm-multilib/lib/gcc/arm-none-eabi/4.4.5/../../../../arm-none-eabi/lib/thumb2/libm.a(lib_a-k_sin.o)
 .data          0x00000000        0x0 /opt/paparazzi/arm-multilib/lib/gcc/arm-none-eabi/4.4.5/../../../../arm-none-eabi/lib/thumb2/libm.a(lib_a-k_tan.o)
 .bss           0x00000000        0x0 /opt/paparazzi/arm-multilib/lib/gcc/arm-none-eabi/4.4.5/../../../../arm-none-eabi/lib/thumb2/libm.a(lib_a-k_tan.o)
 .data          0x00000000        0x0 /opt/paparazzi/arm-multilib/lib/gcc/arm-none-eabi/4.4.5/../../../../arm-none-eabi/lib/thumb2/libm.a(lib_a-kf_cos.o)
 .bss           0x00000000        0x0 /opt/paparazzi/arm-multilib/lib/gcc/arm-none-eabi/4.4.5/../../../../arm-none-eabi/lib/thumb2/libm.a(lib_a-kf_cos.o)
 .data          0x00000000        0x0 /opt/paparazzi/arm-multilib/lib/gcc/arm-none-eabi/4.4.5/../../../../arm-none-eabi/lib/thumb2/libm.a(lib_a-kf_rem_pio2.o)
 .bss           0x00000000        0x0 /opt/paparazzi/arm-multilib/lib/gcc/arm-none-eabi/4.4.5/../../../../arm-none-eabi/lib/thumb2/libm.a(lib_a-kf_rem_pio2.o)
 .data          0x00000000        0x0 /opt/paparazzi/arm-multilib/lib/gcc/arm-none-eabi/4.4.5/../../../../arm-none-eabi/lib/thumb2/libm.a(lib_a-kf_sin.o)
 .bss           0x00000000        0x0 /opt/paparazzi/arm-multilib/lib/gcc/arm-none-eabi/4.4.5/../../../../arm-none-eabi/lib/thumb2/libm.a(lib_a-kf_sin.o)
 .data          0x00000000        0x0 /opt/paparazzi/arm-multilib/lib/gcc/arm-none-eabi/4.4.5/../../../../arm-none-eabi/lib/thumb2/libm.a(lib_a-s_expm1.o)
 .bss           0x00000000        0x0 /opt/paparazzi/arm-multilib/lib/gcc/arm-none-eabi/4.4.5/../../../../arm-none-eabi/lib/thumb2/libm.a(lib_a-s_expm1.o)
 .data          0x00000000        0x0 /opt/paparazzi/arm-multilib/lib/gcc/arm-none-eabi/4.4.5/../../../../arm-none-eabi/lib/thumb2/libm.a(lib_a-s_finite.o)
 .bss           0x00000000        0x0 /opt/paparazzi/arm-multilib/lib/gcc/arm-none-eabi/4.4.5/../../../../arm-none-eabi/lib/thumb2/libm.a(lib_a-s_finite.o)
 .data          0x00000000        0x0 /opt/paparazzi/arm-multilib/lib/gcc/arm-none-eabi/4.4.5/../../../../arm-none-eabi/lib/thumb2/libm.a(lib_a-s_floor.o)
 .bss           0x00000000        0x0 /opt/paparazzi/arm-multilib/lib/gcc/arm-none-eabi/4.4.5/../../../../arm-none-eabi/lib/thumb2/libm.a(lib_a-s_floor.o)
 .data          0x00000000        0x0 /opt/paparazzi/arm-multilib/lib/gcc/arm-none-eabi/4.4.5/../../../../arm-none-eabi/lib/thumb2/libm.a(lib_a-s_fpclassify.o)
 .bss           0x00000000        0x0 /opt/paparazzi/arm-multilib/lib/gcc/arm-none-eabi/4.4.5/../../../../arm-none-eabi/lib/thumb2/libm.a(lib_a-s_fpclassify.o)
 .text          0x00000000        0x0 /opt/paparazzi/arm-multilib/lib/gcc/arm-none-eabi/4.4.5/../../../../arm-none-eabi/lib/thumb2/libm.a(lib_a-s_lib_ver.o)
 .bss           0x00000000        0x0 /opt/paparazzi/arm-multilib/lib/gcc/arm-none-eabi/4.4.5/../../../../arm-none-eabi/lib/thumb2/libm.a(lib_a-s_lib_ver.o)
 .data          0x00000000        0x0 /opt/paparazzi/arm-multilib/lib/gcc/arm-none-eabi/4.4.5/../../../../arm-none-eabi/lib/thumb2/libm.a(lib_a-s_matherr.o)
 .bss           0x00000000        0x0 /opt/paparazzi/arm-multilib/lib/gcc/arm-none-eabi/4.4.5/../../../../arm-none-eabi/lib/thumb2/libm.a(lib_a-s_matherr.o)
 .data          0x00000000        0x0 /opt/paparazzi/arm-multilib/lib/gcc/arm-none-eabi/4.4.5/../../../../arm-none-eabi/lib/thumb2/libm.a(lib_a-s_nan.o)
 .bss           0x00000000        0x0 /opt/paparazzi/arm-multilib/lib/gcc/arm-none-eabi/4.4.5/../../../../arm-none-eabi/lib/thumb2/libm.a(lib_a-s_nan.o)
 .data          0x00000000        0x0 /opt/paparazzi/arm-multilib/lib/gcc/arm-none-eabi/4.4.5/../../../../arm-none-eabi/lib/thumb2/libm.a(lib_a-s_scalbn.o)
 .bss           0x00000000        0x0 /opt/paparazzi/arm-multilib/lib/gcc/arm-none-eabi/4.4.5/../../../../arm-none-eabi/lib/thumb2/libm.a(lib_a-s_scalbn.o)
 .text          0x00000000       0x10 /opt/paparazzi/arm-multilib/lib/gcc/arm-none-eabi/4.4.5/../../../../arm-none-eabi/lib/thumb2/libm.a(lib_a-sf_finite.o)
 .data          0x00000000        0x0 /opt/paparazzi/arm-multilib/lib/gcc/arm-none-eabi/4.4.5/../../../../arm-none-eabi/lib/thumb2/libm.a(lib_a-sf_finite.o)
 .bss           0x00000000        0x0 /opt/paparazzi/arm-multilib/lib/gcc/arm-none-eabi/4.4.5/../../../../arm-none-eabi/lib/thumb2/libm.a(lib_a-sf_finite.o)
 .data          0x00000000        0x0 /opt/paparazzi/arm-multilib/lib/gcc/arm-none-eabi/4.4.5/../../../../arm-none-eabi/lib/thumb2/libm.a(lib_a-sf_floor.o)
 .bss           0x00000000        0x0 /opt/paparazzi/arm-multilib/lib/gcc/arm-none-eabi/4.4.5/../../../../arm-none-eabi/lib/thumb2/libm.a(lib_a-sf_floor.o)
 .data          0x00000000        0x0 /opt/paparazzi/arm-multilib/lib/gcc/arm-none-eabi/4.4.5/../../../../arm-none-eabi/lib/thumb2/libm.a(lib_a-sf_fpclassify.o)
 .bss           0x00000000        0x0 /opt/paparazzi/arm-multilib/lib/gcc/arm-none-eabi/4.4.5/../../../../arm-none-eabi/lib/thumb2/libm.a(lib_a-sf_fpclassify.o)
 .text          0x00000000        0x8 /opt/paparazzi/arm-multilib/lib/gcc/arm-none-eabi/4.4.5/../../../../arm-none-eabi/lib/thumb2/libm.a(lib_a-sf_nan.o)
 .data          0x00000000        0x0 /opt/paparazzi/arm-multilib/lib/gcc/arm-none-eabi/4.4.5/../../../../arm-none-eabi/lib/thumb2/libm.a(lib_a-sf_nan.o)
 .bss           0x00000000        0x0 /opt/paparazzi/arm-multilib/lib/gcc/arm-none-eabi/4.4.5/../../../../arm-none-eabi/lib/thumb2/libm.a(lib_a-sf_nan.o)
 .data          0x00000000        0x0 /opt/paparazzi/arm-multilib/lib/gcc/arm-none-eabi/4.4.5/../../../../arm-none-eabi/lib/thumb2/libm.a(lib_a-sf_scalbn.o)
 .bss           0x00000000        0x0 /opt/paparazzi/arm-multilib/lib/gcc/arm-none-eabi/4.4.5/../../../../arm-none-eabi/lib/thumb2/libm.a(lib_a-sf_scalbn.o)
 .data          0x00000000        0x0 /opt/paparazzi/arm-multilib/lib/gcc/arm-none-eabi/4.4.5/../../../../arm-none-eabi/lib/thumb2/libm.a(lib_a-s_copysign.o)
 .bss           0x00000000        0x0 /opt/paparazzi/arm-multilib/lib/gcc/arm-none-eabi/4.4.5/../../../../arm-none-eabi/lib/thumb2/libm.a(lib_a-s_copysign.o)
 .data          0x00000000        0x0 /opt/paparazzi/arm-multilib/lib/gcc/arm-none-eabi/4.4.5/../../../../arm-none-eabi/lib/thumb2/libm.a(lib_a-sf_copysign.o)
 .bss           0x00000000        0x0 /opt/paparazzi/arm-multilib/lib/gcc/arm-none-eabi/4.4.5/../../../../arm-none-eabi/lib/thumb2/libm.a(lib_a-sf_copysign.o)
 .data          0x00000000        0x0 /opt/paparazzi/arm-multilib/lib/gcc/arm-none-eabi/4.4.5/thumb2/libgcc.a(_divsi3.o)
 .bss           0x00000000        0x0 /opt/paparazzi/arm-multilib/lib/gcc/arm-none-eabi/4.4.5/thumb2/libgcc.a(_divsi3.o)
 .data          0x00000000        0x0 /opt/paparazzi/arm-multilib/lib/gcc/arm-none-eabi/4.4.5/thumb2/libgcc.a(_dvmd_tls.o)
 .bss           0x00000000        0x0 /opt/paparazzi/arm-multilib/lib/gcc/arm-none-eabi/4.4.5/thumb2/libgcc.a(_dvmd_tls.o)
 .data          0x00000000        0x0 /opt/paparazzi/arm-multilib/lib/gcc/arm-none-eabi/4.4.5/thumb2/libgcc.a(_arm_addsubdf3.o)
 .bss           0x00000000        0x0 /opt/paparazzi/arm-multilib/lib/gcc/arm-none-eabi/4.4.5/thumb2/libgcc.a(_arm_addsubdf3.o)
 .data          0x00000000        0x0 /opt/paparazzi/arm-multilib/lib/gcc/arm-none-eabi/4.4.5/thumb2/libgcc.a(_arm_muldivdf3.o)
 .bss           0x00000000        0x0 /opt/paparazzi/arm-multilib/lib/gcc/arm-none-eabi/4.4.5/thumb2/libgcc.a(_arm_muldivdf3.o)
 .data          0x00000000        0x0 /opt/paparazzi/arm-multilib/lib/gcc/arm-none-eabi/4.4.5/thumb2/libgcc.a(_arm_cmpdf2.o)
 .bss           0x00000000        0x0 /opt/paparazzi/arm-multilib/lib/gcc/arm-none-eabi/4.4.5/thumb2/libgcc.a(_arm_cmpdf2.o)
 .data          0x00000000        0x0 /opt/paparazzi/arm-multilib/lib/gcc/arm-none-eabi/4.4.5/thumb2/libgcc.a(_arm_fixdfsi.o)
 .bss           0x00000000        0x0 /opt/paparazzi/arm-multilib/lib/gcc/arm-none-eabi/4.4.5/thumb2/libgcc.a(_arm_fixdfsi.o)
 .data          0x00000000        0x0 /opt/paparazzi/arm-multilib/lib/gcc/arm-none-eabi/4.4.5/thumb2/libgcc.a(_arm_fixunsdfsi.o)
 .bss           0x00000000        0x0 /opt/paparazzi/arm-multilib/lib/gcc/arm-none-eabi/4.4.5/thumb2/libgcc.a(_arm_fixunsdfsi.o)
 .data          0x00000000        0x0 /opt/paparazzi/arm-multilib/lib/gcc/arm-none-eabi/4.4.5/thumb2/libgcc.a(_arm_truncdfsf2.o)
 .bss           0x00000000        0x0 /opt/paparazzi/arm-multilib/lib/gcc/arm-none-eabi/4.4.5/thumb2/libgcc.a(_arm_truncdfsf2.o)
 .data          0x00000000        0x0 /opt/paparazzi/arm-multilib/lib/gcc/arm-none-eabi/4.4.5/thumb2/libgcc.a(_arm_addsubsf3.o)
 .bss           0x00000000        0x0 /opt/paparazzi/arm-multilib/lib/gcc/arm-none-eabi/4.4.5/thumb2/libgcc.a(_arm_addsubsf3.o)
 .data          0x00000000        0x0 /opt/paparazzi/arm-multilib/lib/gcc/arm-none-eabi/4.4.5/thumb2/libgcc.a(_arm_muldivsf3.o)
 .bss           0x00000000        0x0 /opt/paparazzi/arm-multilib/lib/gcc/arm-none-eabi/4.4.5/thumb2/libgcc.a(_arm_muldivsf3.o)
 .data          0x00000000        0x0 /opt/paparazzi/arm-multilib/lib/gcc/arm-none-eabi/4.4.5/thumb2/libgcc.a(_arm_cmpsf2.o)
 .bss           0x00000000        0x0 /opt/paparazzi/arm-multilib/lib/gcc/arm-none-eabi/4.4.5/thumb2/libgcc.a(_arm_cmpsf2.o)
 .data          0x00000000        0x0 /opt/paparazzi/arm-multilib/lib/gcc/arm-none-eabi/4.4.5/thumb2/libgcc.a(_arm_fixsfsi.o)
 .bss           0x00000000        0x0 /opt/paparazzi/arm-multilib/lib/gcc/arm-none-eabi/4.4.5/thumb2/libgcc.a(_arm_fixsfsi.o)
 .data          0x00000000        0x0 /opt/paparazzi/arm-multilib/lib/gcc/arm-none-eabi/4.4.5/thumb2/libgcc.a(_arm_fixunssfsi.o)
 .bss           0x00000000        0x0 /opt/paparazzi/arm-multilib/lib/gcc/arm-none-eabi/4.4.5/thumb2/libgcc.a(_arm_fixunssfsi.o)
 .text          0x00000000        0x0 /opt/paparazzi/arm-multilib/lib/gcc/arm-none-eabi/4.4.5/../../../../arm-none-eabi/lib/libstm32.a(stm32_adc.o)
 .data          0x00000000        0x0 /opt/paparazzi/arm-multilib/lib/gcc/arm-none-eabi/4.4.5/../../../../arm-none-eabi/lib/libstm32.a(stm32_adc.o)
 .bss           0x00000000        0x0 /opt/paparazzi/arm-multilib/lib/gcc/arm-none-eabi/4.4.5/../../../../arm-none-eabi/lib/libstm32.a(stm32_adc.o)
 .text.ADC_StructInit
                0x00000000       0x12 /opt/paparazzi/arm-multilib/lib/gcc/arm-none-eabi/4.4.5/../../../../arm-none-eabi/lib/libstm32.a(stm32_adc.o)
 .text.ADC_DMACmd
                0x00000000       0x14 /opt/paparazzi/arm-multilib/lib/gcc/arm-none-eabi/4.4.5/../../../../arm-none-eabi/lib/libstm32.a(stm32_adc.o)
 .text.ADC_SoftwareStartConvCmd
                0x00000000       0x14 /opt/paparazzi/arm-multilib/lib/gcc/arm-none-eabi/4.4.5/../../../../arm-none-eabi/lib/libstm32.a(stm32_adc.o)
 .text.ADC_GetSoftwareStartConvStatus
                0x00000000        0xa /opt/paparazzi/arm-multilib/lib/gcc/arm-none-eabi/4.4.5/../../../../arm-none-eabi/lib/libstm32.a(stm32_adc.o)
 .text.ADC_DiscModeChannelCountConfig
                0x00000000       0x10 /opt/paparazzi/arm-multilib/lib/gcc/arm-none-eabi/4.4.5/../../../../arm-none-eabi/lib/libstm32.a(stm32_adc.o)
 .text.ADC_DiscModeCmd
                0x00000000       0x14 /opt/paparazzi/arm-multilib/lib/gcc/arm-none-eabi/4.4.5/../../../../arm-none-eabi/lib/libstm32.a(stm32_adc.o)
 .text.ADC_RegularChannelConfig
                0x00000000       0x96 /opt/paparazzi/arm-multilib/lib/gcc/arm-none-eabi/4.4.5/../../../../arm-none-eabi/lib/libstm32.a(stm32_adc.o)
 .text.ADC_ExternalTrigConvCmd
                0x00000000       0x14 /opt/paparazzi/arm-multilib/lib/gcc/arm-none-eabi/4.4.5/../../../../arm-none-eabi/lib/libstm32.a(stm32_adc.o)
 .text.ADC_GetConversionValue
                0x00000000        0x6 /opt/paparazzi/arm-multilib/lib/gcc/arm-none-eabi/4.4.5/../../../../arm-none-eabi/lib/libstm32.a(stm32_adc.o)
 .text.ADC_GetDualModeConversionValue
                0x00000000        0xc /opt/paparazzi/arm-multilib/lib/gcc/arm-none-eabi/4.4.5/../../../../arm-none-eabi/lib/libstm32.a(stm32_adc.o)
 .text.ADC_AutoInjectedConvCmd
                0x00000000       0x14 /opt/paparazzi/arm-multilib/lib/gcc/arm-none-eabi/4.4.5/../../../../arm-none-eabi/lib/libstm32.a(stm32_adc.o)
 .text.ADC_InjectedDiscModeCmd
                0x00000000       0x14 /opt/paparazzi/arm-multilib/lib/gcc/arm-none-eabi/4.4.5/../../../../arm-none-eabi/lib/libstm32.a(stm32_adc.o)
 .text.ADC_SoftwareStartInjectedConvCmd
                0x00000000       0x14 /opt/paparazzi/arm-multilib/lib/gcc/arm-none-eabi/4.4.5/../../../../arm-none-eabi/lib/libstm32.a(stm32_adc.o)
 .text.ADC_GetSoftwareStartInjectedConvCmdStatus
                0x00000000        0xa /opt/paparazzi/arm-multilib/lib/gcc/arm-none-eabi/4.4.5/../../../../arm-none-eabi/lib/libstm32.a(stm32_adc.o)
 .text.ADC_SetInjectedOffset
                0x00000000        0x4 /opt/paparazzi/arm-multilib/lib/gcc/arm-none-eabi/4.4.5/../../../../arm-none-eabi/lib/libstm32.a(stm32_adc.o)
 .text.ADC_AnalogWatchdogCmd
                0x00000000       0x12 /opt/paparazzi/arm-multilib/lib/gcc/arm-none-eabi/4.4.5/../../../../arm-none-eabi/lib/libstm32.a(stm32_adc.o)
 .text.ADC_AnalogWatchdogThresholdsConfig
                0x00000000        0x6 /opt/paparazzi/arm-multilib/lib/gcc/arm-none-eabi/4.4.5/../../../../arm-none-eabi/lib/libstm32.a(stm32_adc.o)
 .text.ADC_AnalogWatchdogSingleChannelConfig
                0x00000000        0xe /opt/paparazzi/arm-multilib/lib/gcc/arm-none-eabi/4.4.5/../../../../arm-none-eabi/lib/libstm32.a(stm32_adc.o)
 .text.ADC_TempSensorVrefintCmd
                0x00000000       0x1c /opt/paparazzi/arm-multilib/lib/gcc/arm-none-eabi/4.4.5/../../../../arm-none-eabi/lib/libstm32.a(stm32_adc.o)
 .text.ADC_GetFlagStatus
                0x00000000        0xc /opt/paparazzi/arm-multilib/lib/gcc/arm-none-eabi/4.4.5/../../../../arm-none-eabi/lib/libstm32.a(stm32_adc.o)
 .text.ADC_ClearFlag
                0x00000000        0x6 /opt/paparazzi/arm-multilib/lib/gcc/arm-none-eabi/4.4.5/../../../../arm-none-eabi/lib/libstm32.a(stm32_adc.o)
 .text.ADC_GetITStatus
                0x00000000       0x16 /opt/paparazzi/arm-multilib/lib/gcc/arm-none-eabi/4.4.5/../../../../arm-none-eabi/lib/libstm32.a(stm32_adc.o)
 .text.ADC_DeInit
                0x00000000       0x5c /opt/paparazzi/arm-multilib/lib/gcc/arm-none-eabi/4.4.5/../../../../arm-none-eabi/lib/libstm32.a(stm32_adc.o)
 .text          0x00000000        0x0 /opt/paparazzi/arm-multilib/lib/gcc/arm-none-eabi/4.4.5/../../../../arm-none-eabi/lib/libstm32.a(stm32_tim.o)
 .data          0x00000000        0x0 /opt/paparazzi/arm-multilib/lib/gcc/arm-none-eabi/4.4.5/../../../../arm-none-eabi/lib/libstm32.a(stm32_tim.o)
 .bss           0x00000000        0x0 /opt/paparazzi/arm-multilib/lib/gcc/arm-none-eabi/4.4.5/../../../../arm-none-eabi/lib/libstm32.a(stm32_tim.o)
 .text.TIM_BDTRConfig
                0x00000000       0x24 /opt/paparazzi/arm-multilib/lib/gcc/arm-none-eabi/4.4.5/../../../../arm-none-eabi/lib/libstm32.a(stm32_tim.o)
 .text.TIM_OCStructInit
                0x00000000       0x14 /opt/paparazzi/arm-multilib/lib/gcc/arm-none-eabi/4.4.5/../../../../arm-none-eabi/lib/libstm32.a(stm32_tim.o)
 .text.TIM_ICStructInit
                0x00000000       0x12 /opt/paparazzi/arm-multilib/lib/gcc/arm-none-eabi/4.4.5/../../../../arm-none-eabi/lib/libstm32.a(stm32_tim.o)
 .text.TIM_BDTRStructInit
                0x00000000       0x12 /opt/paparazzi/arm-multilib/lib/gcc/arm-none-eabi/4.4.5/../../../../arm-none-eabi/lib/libstm32.a(stm32_tim.o)
 .text.TIM_GenerateEvent
                0x00000000        0x4 /opt/paparazzi/arm-multilib/lib/gcc/arm-none-eabi/4.4.5/../../../../arm-none-eabi/lib/libstm32.a(stm32_tim.o)
 .text.TIM_DMAConfig
                0x00000000        0x8 /opt/paparazzi/arm-multilib/lib/gcc/arm-none-eabi/4.4.5/../../../../arm-none-eabi/lib/libstm32.a(stm32_tim.o)
 .text.TIM_DMACmd
                0x00000000       0x16 /opt/paparazzi/arm-multilib/lib/gcc/arm-none-eabi/4.4.5/../../../../arm-none-eabi/lib/libstm32.a(stm32_tim.o)
 .text.TIM_InternalClockConfig
                0x00000000        0xe /opt/paparazzi/arm-multilib/lib/gcc/arm-none-eabi/4.4.5/../../../../arm-none-eabi/lib/libstm32.a(stm32_tim.o)
 .text.TIM_ETRConfig
                0x00000000       0x1e /opt/paparazzi/arm-multilib/lib/gcc/arm-none-eabi/4.4.5/../../../../arm-none-eabi/lib/libstm32.a(stm32_tim.o)
 .text.TIM_ETRClockMode2Config
                0x00000000       0x14 /opt/paparazzi/arm-multilib/lib/gcc/arm-none-eabi/4.4.5/../../../../arm-none-eabi/lib/libstm32.a(stm32_tim.o)
 .text.TIM_ETRClockMode1Config
                0x00000000       0x1a /opt/paparazzi/arm-multilib/lib/gcc/arm-none-eabi/4.4.5/../../../../arm-none-eabi/lib/libstm32.a(stm32_tim.o)
 .text.TIM_PrescalerConfig
                0x00000000        0x6 /opt/paparazzi/arm-multilib/lib/gcc/arm-none-eabi/4.4.5/../../../../arm-none-eabi/lib/libstm32.a(stm32_tim.o)
 .text.TIM_CounterModeConfig
                0x00000000       0x12 /opt/paparazzi/arm-multilib/lib/gcc/arm-none-eabi/4.4.5/../../../../arm-none-eabi/lib/libstm32.a(stm32_tim.o)
 .text.TIM_SelectInputTrigger
                0x00000000       0x12 /opt/paparazzi/arm-multilib/lib/gcc/arm-none-eabi/4.4.5/../../../../arm-none-eabi/lib/libstm32.a(stm32_tim.o)
 .text.TIM_ITRxExternalClockConfig
                0x00000000       0x14 /opt/paparazzi/arm-multilib/lib/gcc/arm-none-eabi/4.4.5/../../../../arm-none-eabi/lib/libstm32.a(stm32_tim.o)
 .text.TIM_EncoderInterfaceConfig
                0x00000000       0x48 /opt/paparazzi/arm-multilib/lib/gcc/arm-none-eabi/4.4.5/../../../../arm-none-eabi/lib/libstm32.a(stm32_tim.o)
 .text.TIM_ForcedOC1Config
                0x00000000       0x12 /opt/paparazzi/arm-multilib/lib/gcc/arm-none-eabi/4.4.5/../../../../arm-none-eabi/lib/libstm32.a(stm32_tim.o)
 .text.TIM_ForcedOC2Config
                0x00000000       0x14 /opt/paparazzi/arm-multilib/lib/gcc/arm-none-eabi/4.4.5/../../../../arm-none-eabi/lib/libstm32.a(stm32_tim.o)
 .text.TIM_ForcedOC3Config
                0x00000000       0x12 /opt/paparazzi/arm-multilib/lib/gcc/arm-none-eabi/4.4.5/../../../../arm-none-eabi/lib/libstm32.a(stm32_tim.o)
 .text.TIM_ForcedOC4Config
                0x00000000       0x14 /opt/paparazzi/arm-multilib/lib/gcc/arm-none-eabi/4.4.5/../../../../arm-none-eabi/lib/libstm32.a(stm32_tim.o)
 .text.TIM_SelectCOM
                0x00000000       0x1a /opt/paparazzi/arm-multilib/lib/gcc/arm-none-eabi/4.4.5/../../../../arm-none-eabi/lib/libstm32.a(stm32_tim.o)
 .text.TIM_SelectCCDMA
                0x00000000       0x1a /opt/paparazzi/arm-multilib/lib/gcc/arm-none-eabi/4.4.5/../../../../arm-none-eabi/lib/libstm32.a(stm32_tim.o)
 .text.TIM_CCPreloadControl
                0x00000000       0x1a /opt/paparazzi/arm-multilib/lib/gcc/arm-none-eabi/4.4.5/../../../../arm-none-eabi/lib/libstm32.a(stm32_tim.o)
 .text.TIM_OC1FastConfig
                0x00000000       0x12 /opt/paparazzi/arm-multilib/lib/gcc/arm-none-eabi/4.4.5/../../../../arm-none-eabi/lib/libstm32.a(stm32_tim.o)
 .text.TIM_OC2FastConfig
                0x00000000       0x14 /opt/paparazzi/arm-multilib/lib/gcc/arm-none-eabi/4.4.5/../../../../arm-none-eabi/lib/libstm32.a(stm32_tim.o)
 .text.TIM_OC3FastConfig
                0x00000000       0x12 /opt/paparazzi/arm-multilib/lib/gcc/arm-none-eabi/4.4.5/../../../../arm-none-eabi/lib/libstm32.a(stm32_tim.o)
 .text.TIM_OC4FastConfig
                0x00000000       0x14 /opt/paparazzi/arm-multilib/lib/gcc/arm-none-eabi/4.4.5/../../../../arm-none-eabi/lib/libstm32.a(stm32_tim.o)
 .text.TIM_ClearOC1Ref
                0x00000000       0x12 /opt/paparazzi/arm-multilib/lib/gcc/arm-none-eabi/4.4.5/../../../../arm-none-eabi/lib/libstm32.a(stm32_tim.o)
 .text.TIM_ClearOC2Ref
                0x00000000       0x10 /opt/paparazzi/arm-multilib/lib/gcc/arm-none-eabi/4.4.5/../../../../arm-none-eabi/lib/libstm32.a(stm32_tim.o)
 .text.TIM_ClearOC3Ref
                0x00000000       0x12 /opt/paparazzi/arm-multilib/lib/gcc/arm-none-eabi/4.4.5/../../../../arm-none-eabi/lib/libstm32.a(stm32_tim.o)
 .text.TIM_ClearOC4Ref
                0x00000000       0x10 /opt/paparazzi/arm-multilib/lib/gcc/arm-none-eabi/4.4.5/../../../../arm-none-eabi/lib/libstm32.a(stm32_tim.o)
 .text.TIM_OC1PolarityConfig
                0x00000000       0x12 /opt/paparazzi/arm-multilib/lib/gcc/arm-none-eabi/4.4.5/../../../../arm-none-eabi/lib/libstm32.a(stm32_tim.o)
 .text.TIM_OC1NPolarityConfig
                0x00000000       0x12 /opt/paparazzi/arm-multilib/lib/gcc/arm-none-eabi/4.4.5/../../../../arm-none-eabi/lib/libstm32.a(stm32_tim.o)
 .text.TIM_OC2PolarityConfig
                0x00000000       0x14 /opt/paparazzi/arm-multilib/lib/gcc/arm-none-eabi/4.4.5/../../../../arm-none-eabi/lib/libstm32.a(stm32_tim.o)
 .text.TIM_OC2NPolarityConfig
                0x00000000       0x14 /opt/paparazzi/arm-multilib/lib/gcc/arm-none-eabi/4.4.5/../../../../arm-none-eabi/lib/libstm32.a(stm32_tim.o)
 .text.TIM_OC3PolarityConfig
                0x00000000       0x14 /opt/paparazzi/arm-multilib/lib/gcc/arm-none-eabi/4.4.5/../../../../arm-none-eabi/lib/libstm32.a(stm32_tim.o)
 .text.TIM_OC3NPolarityConfig
                0x00000000       0x14 /opt/paparazzi/arm-multilib/lib/gcc/arm-none-eabi/4.4.5/../../../../arm-none-eabi/lib/libstm32.a(stm32_tim.o)
 .text.TIM_OC4PolarityConfig
                0x00000000       0x14 /opt/paparazzi/arm-multilib/lib/gcc/arm-none-eabi/4.4.5/../../../../arm-none-eabi/lib/libstm32.a(stm32_tim.o)
 .text.TIM_CCxCmd
                0x00000000       0x22 /opt/paparazzi/arm-multilib/lib/gcc/arm-none-eabi/4.4.5/../../../../arm-none-eabi/lib/libstm32.a(stm32_tim.o)
 .text.TIM_CCxNCmd
                0x00000000       0x22 /opt/paparazzi/arm-multilib/lib/gcc/arm-none-eabi/4.4.5/../../../../arm-none-eabi/lib/libstm32.a(stm32_tim.o)
 .text.TIM_SelectOCxM
                0x00000000       0x50 /opt/paparazzi/arm-multilib/lib/gcc/arm-none-eabi/4.4.5/../../../../arm-none-eabi/lib/libstm32.a(stm32_tim.o)
 .text.TIM_UpdateDisableConfig
                0x00000000       0x1a /opt/paparazzi/arm-multilib/lib/gcc/arm-none-eabi/4.4.5/../../../../arm-none-eabi/lib/libstm32.a(stm32_tim.o)
 .text.TIM_UpdateRequestConfig
                0x00000000       0x1a /opt/paparazzi/arm-multilib/lib/gcc/arm-none-eabi/4.4.5/../../../../arm-none-eabi/lib/libstm32.a(stm32_tim.o)
 .text.TIM_SelectHallSensor
                0x00000000       0x1a /opt/paparazzi/arm-multilib/lib/gcc/arm-none-eabi/4.4.5/../../../../arm-none-eabi/lib/libstm32.a(stm32_tim.o)
 .text.TIM_SelectOnePulseMode
                0x00000000       0x18 /opt/paparazzi/arm-multilib/lib/gcc/arm-none-eabi/4.4.5/../../../../arm-none-eabi/lib/libstm32.a(stm32_tim.o)
 .text.TIM_SelectSlaveMode
                0x00000000       0x18 /opt/paparazzi/arm-multilib/lib/gcc/arm-none-eabi/4.4.5/../../../../arm-none-eabi/lib/libstm32.a(stm32_tim.o)
 .text.TIM_SelectMasterSlaveMode
                0x00000000       0x18 /opt/paparazzi/arm-multilib/lib/gcc/arm-none-eabi/4.4.5/../../../../arm-none-eabi/lib/libstm32.a(stm32_tim.o)
 .text.TIM_SetCounter
                0x00000000        0x4 /opt/paparazzi/arm-multilib/lib/gcc/arm-none-eabi/4.4.5/../../../../arm-none-eabi/lib/libstm32.a(stm32_tim.o)
 .text.TIM_SetAutoreload
                0x00000000        0x4 /opt/paparazzi/arm-multilib/lib/gcc/arm-none-eabi/4.4.5/../../../../arm-none-eabi/lib/libstm32.a(stm32_tim.o)
 .text.TIM_SetClockDivision
                0x00000000       0x12 /opt/paparazzi/arm-multilib/lib/gcc/arm-none-eabi/4.4.5/../../../../arm-none-eabi/lib/libstm32.a(stm32_tim.o)
 .text.TIM_GetCapture1
                0x00000000        0x6 /opt/paparazzi/arm-multilib/lib/gcc/arm-none-eabi/4.4.5/../../../../arm-none-eabi/lib/libstm32.a(stm32_tim.o)
 .text.TIM_GetCapture3
                0x00000000        0x6 /opt/paparazzi/arm-multilib/lib/gcc/arm-none-eabi/4.4.5/../../../../arm-none-eabi/lib/libstm32.a(stm32_tim.o)
 .text.TIM_GetCapture4
                0x00000000        0x8 /opt/paparazzi/arm-multilib/lib/gcc/arm-none-eabi/4.4.5/../../../../arm-none-eabi/lib/libstm32.a(stm32_tim.o)
 .text.TIM_GetCounter
                0x00000000        0x6 /opt/paparazzi/arm-multilib/lib/gcc/arm-none-eabi/4.4.5/../../../../arm-none-eabi/lib/libstm32.a(stm32_tim.o)
 .text.TIM_GetPrescaler
                0x00000000        0x6 /opt/paparazzi/arm-multilib/lib/gcc/arm-none-eabi/4.4.5/../../../../arm-none-eabi/lib/libstm32.a(stm32_tim.o)
 .text.TIM_GetFlagStatus
                0x00000000        0xc /opt/paparazzi/arm-multilib/lib/gcc/arm-none-eabi/4.4.5/../../../../arm-none-eabi/lib/libstm32.a(stm32_tim.o)
 .text.TIM_ClearFlag
                0x00000000        0x8 /opt/paparazzi/arm-multilib/lib/gcc/arm-none-eabi/4.4.5/../../../../arm-none-eabi/lib/libstm32.a(stm32_tim.o)
 .text.TIM_TIxExternalClockConfig
                0x00000000       0x2e /opt/paparazzi/arm-multilib/lib/gcc/arm-none-eabi/4.4.5/../../../../arm-none-eabi/lib/libstm32.a(stm32_tim.o)
 .text.TIM_PWMIConfig
                0x00000000       0x70 /opt/paparazzi/arm-multilib/lib/gcc/arm-none-eabi/4.4.5/../../../../arm-none-eabi/lib/libstm32.a(stm32_tim.o)
 .text.TIM_DeInit
                0x00000000       0xd4 /opt/paparazzi/arm-multilib/lib/gcc/arm-none-eabi/4.4.5/../../../../arm-none-eabi/lib/libstm32.a(stm32_tim.o)
 .text          0x00000000        0x0 /opt/paparazzi/arm-multilib/lib/gcc/arm-none-eabi/4.4.5/../../../../arm-none-eabi/lib/libstm32.a(stm32_dma.o)
 .data          0x00000000        0x0 /opt/paparazzi/arm-multilib/lib/gcc/arm-none-eabi/4.4.5/../../../../arm-none-eabi/lib/libstm32.a(stm32_dma.o)
 .bss           0x00000000        0x0 /opt/paparazzi/arm-multilib/lib/gcc/arm-none-eabi/4.4.5/../../../../arm-none-eabi/lib/libstm32.a(stm32_dma.o)
 .text.DMA_StructInit
                0x00000000       0x1a /opt/paparazzi/arm-multilib/lib/gcc/arm-none-eabi/4.4.5/../../../../arm-none-eabi/lib/libstm32.a(stm32_dma.o)
 .text.DMA_GetCurrDataCounter
                0x00000000        0x6 /opt/paparazzi/arm-multilib/lib/gcc/arm-none-eabi/4.4.5/../../../../arm-none-eabi/lib/libstm32.a(stm32_dma.o)
 .text.DMA_GetFlagStatus
                0x00000000       0x20 /opt/paparazzi/arm-multilib/lib/gcc/arm-none-eabi/4.4.5/../../../../arm-none-eabi/lib/libstm32.a(stm32_dma.o)
 .text.DMA_ClearFlag
                0x00000000       0x18 /opt/paparazzi/arm-multilib/lib/gcc/arm-none-eabi/4.4.5/../../../../arm-none-eabi/lib/libstm32.a(stm32_dma.o)
 .text          0x00000000        0x0 /opt/paparazzi/arm-multilib/lib/gcc/arm-none-eabi/4.4.5/../../../../arm-none-eabi/lib/libstm32.a(stm32_gpio.o)
 .data          0x00000000        0x0 /opt/paparazzi/arm-multilib/lib/gcc/arm-none-eabi/4.4.5/../../../../arm-none-eabi/lib/libstm32.a(stm32_gpio.o)
 .bss           0x00000000        0x0 /opt/paparazzi/arm-multilib/lib/gcc/arm-none-eabi/4.4.5/../../../../arm-none-eabi/lib/libstm32.a(stm32_gpio.o)
 .text.GPIO_StructInit
                0x00000000       0x10 /opt/paparazzi/arm-multilib/lib/gcc/arm-none-eabi/4.4.5/../../../../arm-none-eabi/lib/libstm32.a(stm32_gpio.o)
 .text.GPIO_ReadInputData
                0x00000000        0x6 /opt/paparazzi/arm-multilib/lib/gcc/arm-none-eabi/4.4.5/../../../../arm-none-eabi/lib/libstm32.a(stm32_gpio.o)
 .text.GPIO_ReadOutputDataBit
                0x00000000        0xc /opt/paparazzi/arm-multilib/lib/gcc/arm-none-eabi/4.4.5/../../../../arm-none-eabi/lib/libstm32.a(stm32_gpio.o)
 .text.GPIO_ReadOutputData
                0x00000000        0x6 /opt/paparazzi/arm-multilib/lib/gcc/arm-none-eabi/4.4.5/../../../../arm-none-eabi/lib/libstm32.a(stm32_gpio.o)
 .text.GPIO_WriteBit
                0x00000000        0xa /opt/paparazzi/arm-multilib/lib/gcc/arm-none-eabi/4.4.5/../../../../arm-none-eabi/lib/libstm32.a(stm32_gpio.o)
 .text.GPIO_Write
                0x00000000        0x4 /opt/paparazzi/arm-multilib/lib/gcc/arm-none-eabi/4.4.5/../../../../arm-none-eabi/lib/libstm32.a(stm32_gpio.o)
 .text.GPIO_PinLockConfig
                0x00000000       0x10 /opt/paparazzi/arm-multilib/lib/gcc/arm-none-eabi/4.4.5/../../../../arm-none-eabi/lib/libstm32.a(stm32_gpio.o)
 .text.GPIO_EventOutputConfig
                0x00000000       0x20 /opt/paparazzi/arm-multilib/lib/gcc/arm-none-eabi/4.4.5/../../../../arm-none-eabi/lib/libstm32.a(stm32_gpio.o)
 .text.GPIO_EventOutputCmd
                0x00000000        0xc /opt/paparazzi/arm-multilib/lib/gcc/arm-none-eabi/4.4.5/../../../../arm-none-eabi/lib/libstm32.a(stm32_gpio.o)
 .text.GPIO_AFIODeInit
                0x00000000       0x16 /opt/paparazzi/arm-multilib/lib/gcc/arm-none-eabi/4.4.5/../../../../arm-none-eabi/lib/libstm32.a(stm32_gpio.o)
 .text.GPIO_DeInit
                0x00000000       0xb0 /opt/paparazzi/arm-multilib/lib/gcc/arm-none-eabi/4.4.5/../../../../arm-none-eabi/lib/libstm32.a(stm32_gpio.o)
 .text          0x00000000        0x0 /opt/paparazzi/arm-multilib/lib/gcc/arm-none-eabi/4.4.5/../../../../arm-none-eabi/lib/libstm32.a(stm32_usart.o)
 .data          0x00000000        0x0 /opt/paparazzi/arm-multilib/lib/gcc/arm-none-eabi/4.4.5/../../../../arm-none-eabi/lib/libstm32.a(stm32_usart.o)
 .bss           0x00000000        0x0 /opt/paparazzi/arm-multilib/lib/gcc/arm-none-eabi/4.4.5/../../../../arm-none-eabi/lib/libstm32.a(stm32_usart.o)
 .text.USART_StructInit
                0x00000000       0x18 /opt/paparazzi/arm-multilib/lib/gcc/arm-none-eabi/4.4.5/../../../../arm-none-eabi/lib/libstm32.a(stm32_usart.o)
 .text.USART_ClockInit
                0x00000000       0x2a /opt/paparazzi/arm-multilib/lib/gcc/arm-none-eabi/4.4.5/../../../../arm-none-eabi/lib/libstm32.a(stm32_usart.o)
 .text.USART_ClockStructInit
                0x00000000        0xc /opt/paparazzi/arm-multilib/lib/gcc/arm-none-eabi/4.4.5/../../../../arm-none-eabi/lib/libstm32.a(stm32_usart.o)
 .text.USART_DMACmd
                0x00000000       0x16 /opt/paparazzi/arm-multilib/lib/gcc/arm-none-eabi/4.4.5/../../../../arm-none-eabi/lib/libstm32.a(stm32_usart.o)
 .text.USART_SetAddress
                0x00000000       0x18 /opt/paparazzi/arm-multilib/lib/gcc/arm-none-eabi/4.4.5/../../../../arm-none-eabi/lib/libstm32.a(stm32_usart.o)
 .text.USART_WakeUpConfig
                0x00000000       0x18 /opt/paparazzi/arm-multilib/lib/gcc/arm-none-eabi/4.4.5/../../../../arm-none-eabi/lib/libstm32.a(stm32_usart.o)
 .text.USART_ReceiverWakeUpCmd
                0x00000000       0x1a /opt/paparazzi/arm-multilib/lib/gcc/arm-none-eabi/4.4.5/../../../../arm-none-eabi/lib/libstm32.a(stm32_usart.o)
 .text.USART_LINBreakDetectLengthConfig
                0x00000000       0x18 /opt/paparazzi/arm-multilib/lib/gcc/arm-none-eabi/4.4.5/../../../../arm-none-eabi/lib/libstm32.a(stm32_usart.o)
 .text.USART_LINCmd
                0x00000000       0x1a /opt/paparazzi/arm-multilib/lib/gcc/arm-none-eabi/4.4.5/../../../../arm-none-eabi/lib/libstm32.a(stm32_usart.o)
 .text.USART_SendBreak
                0x00000000        0xc /opt/paparazzi/arm-multilib/lib/gcc/arm-none-eabi/4.4.5/../../../../arm-none-eabi/lib/libstm32.a(stm32_usart.o)
 .text.USART_SetGuardTime
                0x00000000       0x12 /opt/paparazzi/arm-multilib/lib/gcc/arm-none-eabi/4.4.5/../../../../arm-none-eabi/lib/libstm32.a(stm32_usart.o)
 .text.USART_SetPrescaler
                0x00000000       0x14 /opt/paparazzi/arm-multilib/lib/gcc/arm-none-eabi/4.4.5/../../../../arm-none-eabi/lib/libstm32.a(stm32_usart.o)
 .text.USART_SmartCardCmd
                0x00000000       0x1a /opt/paparazzi/arm-multilib/lib/gcc/arm-none-eabi/4.4.5/../../../../arm-none-eabi/lib/libstm32.a(stm32_usart.o)
 .text.USART_SmartCardNACKCmd
                0x00000000       0x1a /opt/paparazzi/arm-multilib/lib/gcc/arm-none-eabi/4.4.5/../../../../arm-none-eabi/lib/libstm32.a(stm32_usart.o)
 .text.USART_HalfDuplexCmd
                0x00000000       0x1a /opt/paparazzi/arm-multilib/lib/gcc/arm-none-eabi/4.4.5/../../../../arm-none-eabi/lib/libstm32.a(stm32_usart.o)
 .text.USART_IrDAConfig
                0x00000000       0x18 /opt/paparazzi/arm-multilib/lib/gcc/arm-none-eabi/4.4.5/../../../../arm-none-eabi/lib/libstm32.a(stm32_usart.o)
 .text.USART_IrDACmd
                0x00000000       0x1a /opt/paparazzi/arm-multilib/lib/gcc/arm-none-eabi/4.4.5/../../../../arm-none-eabi/lib/libstm32.a(stm32_usart.o)
 .text.USART_GetFlagStatus
                0x00000000        0xc /opt/paparazzi/arm-multilib/lib/gcc/arm-none-eabi/4.4.5/../../../../arm-none-eabi/lib/libstm32.a(stm32_usart.o)
 .text.USART_ClearFlag
                0x00000000        0x8 /opt/paparazzi/arm-multilib/lib/gcc/arm-none-eabi/4.4.5/../../../../arm-none-eabi/lib/libstm32.a(stm32_usart.o)
 .text.USART_ClearITPendingBit
                0x00000000        0xe /opt/paparazzi/arm-multilib/lib/gcc/arm-none-eabi/4.4.5/../../../../arm-none-eabi/lib/libstm32.a(stm32_usart.o)
 .text.USART_DeInit
                0x00000000       0x9c /opt/paparazzi/arm-multilib/lib/gcc/arm-none-eabi/4.4.5/../../../../arm-none-eabi/lib/libstm32.a(stm32_usart.o)
 .text          0x00000000        0x0 /opt/paparazzi/arm-multilib/lib/gcc/arm-none-eabi/4.4.5/../../../../arm-none-eabi/lib/libstm32.a(stm32_exti.o)
 .data          0x00000000        0x0 /opt/paparazzi/arm-multilib/lib/gcc/arm-none-eabi/4.4.5/../../../../arm-none-eabi/lib/libstm32.a(stm32_exti.o)
 .bss           0x00000000        0x0 /opt/paparazzi/arm-multilib/lib/gcc/arm-none-eabi/4.4.5/../../../../arm-none-eabi/lib/libstm32.a(stm32_exti.o)
 .text.EXTI_DeInit
                0x00000000       0x1c /opt/paparazzi/arm-multilib/lib/gcc/arm-none-eabi/4.4.5/../../../../arm-none-eabi/lib/libstm32.a(stm32_exti.o)
 .text.EXTI_StructInit
                0x00000000        0xe /opt/paparazzi/arm-multilib/lib/gcc/arm-none-eabi/4.4.5/../../../../arm-none-eabi/lib/libstm32.a(stm32_exti.o)
 .text.EXTI_GenerateSWInterrupt
                0x00000000       0x10 /opt/paparazzi/arm-multilib/lib/gcc/arm-none-eabi/4.4.5/../../../../arm-none-eabi/lib/libstm32.a(stm32_exti.o)
 .text.EXTI_GetFlagStatus
                0x00000000       0x14 /opt/paparazzi/arm-multilib/lib/gcc/arm-none-eabi/4.4.5/../../../../arm-none-eabi/lib/libstm32.a(stm32_exti.o)
 .text.EXTI_ClearFlag
                0x00000000        0xc /opt/paparazzi/arm-multilib/lib/gcc/arm-none-eabi/4.4.5/../../../../arm-none-eabi/lib/libstm32.a(stm32_exti.o)
 .text          0x00000000        0x0 /opt/paparazzi/arm-multilib/lib/gcc/arm-none-eabi/4.4.5/../../../../arm-none-eabi/lib/libstm32.a(stm32_i2c.o)
 .data          0x00000000        0x0 /opt/paparazzi/arm-multilib/lib/gcc/arm-none-eabi/4.4.5/../../../../arm-none-eabi/lib/libstm32.a(stm32_i2c.o)
 .bss           0x00000000        0x0 /opt/paparazzi/arm-multilib/lib/gcc/arm-none-eabi/4.4.5/../../../../arm-none-eabi/lib/libstm32.a(stm32_i2c.o)
 .text.I2C_StructInit
                0x00000000       0x1c /opt/paparazzi/arm-multilib/lib/gcc/arm-none-eabi/4.4.5/../../../../arm-none-eabi/lib/libstm32.a(stm32_i2c.o)
 .text.I2C_DMACmd
                0x00000000       0x1a /opt/paparazzi/arm-multilib/lib/gcc/arm-none-eabi/4.4.5/../../../../arm-none-eabi/lib/libstm32.a(stm32_i2c.o)
 .text.I2C_DMALastTransferCmd
                0x00000000       0x1a /opt/paparazzi/arm-multilib/lib/gcc/arm-none-eabi/4.4.5/../../../../arm-none-eabi/lib/libstm32.a(stm32_i2c.o)
 .text.I2C_OwnAddress2Config
                0x00000000       0x16 /opt/paparazzi/arm-multilib/lib/gcc/arm-none-eabi/4.4.5/../../../../arm-none-eabi/lib/libstm32.a(stm32_i2c.o)
 .text.I2C_DualAddressCmd
                0x00000000       0x1a /opt/paparazzi/arm-multilib/lib/gcc/arm-none-eabi/4.4.5/../../../../arm-none-eabi/lib/libstm32.a(stm32_i2c.o)
 .text.I2C_GeneralCallCmd
                0x00000000       0x1a /opt/paparazzi/arm-multilib/lib/gcc/arm-none-eabi/4.4.5/../../../../arm-none-eabi/lib/libstm32.a(stm32_i2c.o)
 .text.I2C_ReadRegister
                0x00000000        0xe /opt/paparazzi/arm-multilib/lib/gcc/arm-none-eabi/4.4.5/../../../../arm-none-eabi/lib/libstm32.a(stm32_i2c.o)
 .text.I2C_SMBusAlertConfig
                0x00000000       0x1e /opt/paparazzi/arm-multilib/lib/gcc/arm-none-eabi/4.4.5/../../../../arm-none-eabi/lib/libstm32.a(stm32_i2c.o)
 .text.I2C_TransmitPEC
                0x00000000       0x1a /opt/paparazzi/arm-multilib/lib/gcc/arm-none-eabi/4.4.5/../../../../arm-none-eabi/lib/libstm32.a(stm32_i2c.o)
 .text.I2C_PECPositionConfig
                0x00000000       0x1e /opt/paparazzi/arm-multilib/lib/gcc/arm-none-eabi/4.4.5/../../../../arm-none-eabi/lib/libstm32.a(stm32_i2c.o)
 .text.I2C_CalculatePEC
                0x00000000       0x1a /opt/paparazzi/arm-multilib/lib/gcc/arm-none-eabi/4.4.5/../../../../arm-none-eabi/lib/libstm32.a(stm32_i2c.o)
 .text.I2C_GetPEC
                0x00000000        0x8 /opt/paparazzi/arm-multilib/lib/gcc/arm-none-eabi/4.4.5/../../../../arm-none-eabi/lib/libstm32.a(stm32_i2c.o)
 .text.I2C_ARPCmd
                0x00000000       0x1a /opt/paparazzi/arm-multilib/lib/gcc/arm-none-eabi/4.4.5/../../../../arm-none-eabi/lib/libstm32.a(stm32_i2c.o)
 .text.I2C_StretchClockCmd
                0x00000000       0x1a /opt/paparazzi/arm-multilib/lib/gcc/arm-none-eabi/4.4.5/../../../../arm-none-eabi/lib/libstm32.a(stm32_i2c.o)
 .text.I2C_FastModeDutyCycleConfig
                0x00000000       0x1e /opt/paparazzi/arm-multilib/lib/gcc/arm-none-eabi/4.4.5/../../../../arm-none-eabi/lib/libstm32.a(stm32_i2c.o)
 .text.I2C_CheckEvent
                0x00000000       0x18 /opt/paparazzi/arm-multilib/lib/gcc/arm-none-eabi/4.4.5/../../../../arm-none-eabi/lib/libstm32.a(stm32_i2c.o)
 .text.I2C_ClearFlag
                0x00000000        0x8 /opt/paparazzi/arm-multilib/lib/gcc/arm-none-eabi/4.4.5/../../../../arm-none-eabi/lib/libstm32.a(stm32_i2c.o)
 .text          0x00000000        0x0 /opt/paparazzi/arm-multilib/lib/gcc/arm-none-eabi/4.4.5/../../../../arm-none-eabi/lib/libstm32.a(stm32_spi.o)
 .data          0x00000000        0x0 /opt/paparazzi/arm-multilib/lib/gcc/arm-none-eabi/4.4.5/../../../../arm-none-eabi/lib/libstm32.a(stm32_spi.o)
 .bss           0x00000000        0x0 /opt/paparazzi/arm-multilib/lib/gcc/arm-none-eabi/4.4.5/../../../../arm-none-eabi/lib/libstm32.a(stm32_spi.o)
 .text.SPI_StructInit
                0x00000000       0x1a /opt/paparazzi/arm-multilib/lib/gcc/arm-none-eabi/4.4.5/../../../../arm-none-eabi/lib/libstm32.a(stm32_spi.o)
 .text.I2S_StructInit
                0x00000000       0x14 /opt/paparazzi/arm-multilib/lib/gcc/arm-none-eabi/4.4.5/../../../../arm-none-eabi/lib/libstm32.a(stm32_spi.o)
 .text.I2S_Cmd  0x00000000       0x1a /opt/paparazzi/arm-multilib/lib/gcc/arm-none-eabi/4.4.5/../../../../arm-none-eabi/lib/libstm32.a(stm32_spi.o)
 .text.SPI_I2S_ITConfig
                0x00000000       0x1e /opt/paparazzi/arm-multilib/lib/gcc/arm-none-eabi/4.4.5/../../../../arm-none-eabi/lib/libstm32.a(stm32_spi.o)
 .text.SPI_NSSInternalSoftwareConfig
                0x00000000       0x1c /opt/paparazzi/arm-multilib/lib/gcc/arm-none-eabi/4.4.5/../../../../arm-none-eabi/lib/libstm32.a(stm32_spi.o)
 .text.SPI_SSOutputCmd
                0x00000000       0x1a /opt/paparazzi/arm-multilib/lib/gcc/arm-none-eabi/4.4.5/../../../../arm-none-eabi/lib/libstm32.a(stm32_spi.o)
 .text.SPI_DataSizeConfig
                0x00000000       0x18 /opt/paparazzi/arm-multilib/lib/gcc/arm-none-eabi/4.4.5/../../../../arm-none-eabi/lib/libstm32.a(stm32_spi.o)
 .text.SPI_TransmitCRC
                0x00000000        0xc /opt/paparazzi/arm-multilib/lib/gcc/arm-none-eabi/4.4.5/../../../../arm-none-eabi/lib/libstm32.a(stm32_spi.o)
 .text.SPI_CalculateCRC
                0x00000000       0x1a /opt/paparazzi/arm-multilib/lib/gcc/arm-none-eabi/4.4.5/../../../../arm-none-eabi/lib/libstm32.a(stm32_spi.o)
 .text.SPI_GetCRC
                0x00000000       0x10 /opt/paparazzi/arm-multilib/lib/gcc/arm-none-eabi/4.4.5/../../../../arm-none-eabi/lib/libstm32.a(stm32_spi.o)
 .text.SPI_GetCRCPolynomial
                0x00000000        0x6 /opt/paparazzi/arm-multilib/lib/gcc/arm-none-eabi/4.4.5/../../../../arm-none-eabi/lib/libstm32.a(stm32_spi.o)
 .text.SPI_BiDirectionalLineConfig
                0x00000000       0x1e /opt/paparazzi/arm-multilib/lib/gcc/arm-none-eabi/4.4.5/../../../../arm-none-eabi/lib/libstm32.a(stm32_spi.o)
 .text.SPI_I2S_ClearFlag
                0x00000000        0x8 /opt/paparazzi/arm-multilib/lib/gcc/arm-none-eabi/4.4.5/../../../../arm-none-eabi/lib/libstm32.a(stm32_spi.o)
 .text.SPI_I2S_GetITStatus
                0x00000000       0x2a /opt/paparazzi/arm-multilib/lib/gcc/arm-none-eabi/4.4.5/../../../../arm-none-eabi/lib/libstm32.a(stm32_spi.o)
 .text.SPI_I2S_ClearITPendingBit
                0x00000000       0x10 /opt/paparazzi/arm-multilib/lib/gcc/arm-none-eabi/4.4.5/../../../../arm-none-eabi/lib/libstm32.a(stm32_spi.o)
 .text.I2S_Init
                0x00000000       0xac /opt/paparazzi/arm-multilib/lib/gcc/arm-none-eabi/4.4.5/../../../../arm-none-eabi/lib/libstm32.a(stm32_spi.o)
 .text.SPI_I2S_DeInit
                0x00000000       0x64 /opt/paparazzi/arm-multilib/lib/gcc/arm-none-eabi/4.4.5/../../../../arm-none-eabi/lib/libstm32.a(stm32_spi.o)
 .text          0x00000000        0x0 /opt/paparazzi/arm-multilib/lib/gcc/arm-none-eabi/4.4.5/../../../../arm-none-eabi/lib/libstm32.a(stm32_rcc.o)
 .data          0x00000000        0x0 /opt/paparazzi/arm-multilib/lib/gcc/arm-none-eabi/4.4.5/../../../../arm-none-eabi/lib/libstm32.a(stm32_rcc.o)
 .bss           0x00000000        0x0 /opt/paparazzi/arm-multilib/lib/gcc/arm-none-eabi/4.4.5/../../../../arm-none-eabi/lib/libstm32.a(stm32_rcc.o)
 .text.RCC_DeInit
                0x00000000       0x40 /opt/paparazzi/arm-multilib/lib/gcc/arm-none-eabi/4.4.5/../../../../arm-none-eabi/lib/libstm32.a(stm32_rcc.o)
 .text.RCC_HSEConfig
                0x00000000       0x38 /opt/paparazzi/arm-multilib/lib/gcc/arm-none-eabi/4.4.5/../../../../arm-none-eabi/lib/libstm32.a(stm32_rcc.o)
 .text.RCC_AdjustHSICalibrationValue
                0x00000000       0x14 /opt/paparazzi/arm-multilib/lib/gcc/arm-none-eabi/4.4.5/../../../../arm-none-eabi/lib/libstm32.a(stm32_rcc.o)
 .text.RCC_HSICmd
                0x00000000        0xc /opt/paparazzi/arm-multilib/lib/gcc/arm-none-eabi/4.4.5/../../../../arm-none-eabi/lib/libstm32.a(stm32_rcc.o)
 .text.RCC_PLLConfig
                0x00000000       0x18 /opt/paparazzi/arm-multilib/lib/gcc/arm-none-eabi/4.4.5/../../../../arm-none-eabi/lib/libstm32.a(stm32_rcc.o)
 .text.RCC_PLLCmd
                0x00000000        0xc /opt/paparazzi/arm-multilib/lib/gcc/arm-none-eabi/4.4.5/../../../../arm-none-eabi/lib/libstm32.a(stm32_rcc.o)
 .text.RCC_SYSCLKConfig
                0x00000000       0x14 /opt/paparazzi/arm-multilib/lib/gcc/arm-none-eabi/4.4.5/../../../../arm-none-eabi/lib/libstm32.a(stm32_rcc.o)
 .text.RCC_GetSYSCLKSource
                0x00000000       0x10 /opt/paparazzi/arm-multilib/lib/gcc/arm-none-eabi/4.4.5/../../../../arm-none-eabi/lib/libstm32.a(stm32_rcc.o)
 .text.RCC_HCLKConfig
                0x00000000       0x14 /opt/paparazzi/arm-multilib/lib/gcc/arm-none-eabi/4.4.5/../../../../arm-none-eabi/lib/libstm32.a(stm32_rcc.o)
 .text.RCC_PCLK1Config
                0x00000000       0x14 /opt/paparazzi/arm-multilib/lib/gcc/arm-none-eabi/4.4.5/../../../../arm-none-eabi/lib/libstm32.a(stm32_rcc.o)
 .text.RCC_PCLK2Config
                0x00000000       0x14 /opt/paparazzi/arm-multilib/lib/gcc/arm-none-eabi/4.4.5/../../../../arm-none-eabi/lib/libstm32.a(stm32_rcc.o)
 .text.RCC_ITConfig
                0x00000000       0x1c /opt/paparazzi/arm-multilib/lib/gcc/arm-none-eabi/4.4.5/../../../../arm-none-eabi/lib/libstm32.a(stm32_rcc.o)
 .text.RCC_USBCLKConfig
                0x00000000        0xc /opt/paparazzi/arm-multilib/lib/gcc/arm-none-eabi/4.4.5/../../../../arm-none-eabi/lib/libstm32.a(stm32_rcc.o)
 .text.RCC_LSEConfig
                0x00000000       0x20 /opt/paparazzi/arm-multilib/lib/gcc/arm-none-eabi/4.4.5/../../../../arm-none-eabi/lib/libstm32.a(stm32_rcc.o)
 .text.RCC_LSICmd
                0x00000000        0xc /opt/paparazzi/arm-multilib/lib/gcc/arm-none-eabi/4.4.5/../../../../arm-none-eabi/lib/libstm32.a(stm32_rcc.o)
 .text.RCC_RTCCLKConfig
                0x00000000       0x10 /opt/paparazzi/arm-multilib/lib/gcc/arm-none-eabi/4.4.5/../../../../arm-none-eabi/lib/libstm32.a(stm32_rcc.o)
 .text.RCC_RTCCLKCmd
                0x00000000        0xc /opt/paparazzi/arm-multilib/lib/gcc/arm-none-eabi/4.4.5/../../../../arm-none-eabi/lib/libstm32.a(stm32_rcc.o)
 .text.RCC_APB2PeriphResetCmd
                0x00000000       0x1c /opt/paparazzi/arm-multilib/lib/gcc/arm-none-eabi/4.4.5/../../../../arm-none-eabi/lib/libstm32.a(stm32_rcc.o)
 .text.RCC_BackupResetCmd
                0x00000000        0xc /opt/paparazzi/arm-multilib/lib/gcc/arm-none-eabi/4.4.5/../../../../arm-none-eabi/lib/libstm32.a(stm32_rcc.o)
 .text.RCC_ClockSecuritySystemCmd
                0x00000000        0xc /opt/paparazzi/arm-multilib/lib/gcc/arm-none-eabi/4.4.5/../../../../arm-none-eabi/lib/libstm32.a(stm32_rcc.o)
 .text.RCC_MCOConfig
                0x00000000        0xc /opt/paparazzi/arm-multilib/lib/gcc/arm-none-eabi/4.4.5/../../../../arm-none-eabi/lib/libstm32.a(stm32_rcc.o)
 .text.RCC_GetFlagStatus
                0x00000000       0x28 /opt/paparazzi/arm-multilib/lib/gcc/arm-none-eabi/4.4.5/../../../../arm-none-eabi/lib/libstm32.a(stm32_rcc.o)
 .text.RCC_WaitForHSEStartUp
                0x00000000       0x2a /opt/paparazzi/arm-multilib/lib/gcc/arm-none-eabi/4.4.5/../../../../arm-none-eabi/lib/libstm32.a(stm32_rcc.o)
 .text.RCC_ClearFlag
                0x00000000       0x10 /opt/paparazzi/arm-multilib/lib/gcc/arm-none-eabi/4.4.5/../../../../arm-none-eabi/lib/libstm32.a(stm32_rcc.o)
 .text.RCC_GetITStatus
                0x00000000       0x14 /opt/paparazzi/arm-multilib/lib/gcc/arm-none-eabi/4.4.5/../../../../arm-none-eabi/lib/libstm32.a(stm32_rcc.o)
 .text.RCC_ClearITPendingBit
                0x00000000        0xc /opt/paparazzi/arm-multilib/lib/gcc/arm-none-eabi/4.4.5/../../../../arm-none-eabi/lib/libstm32.a(stm32_rcc.o)
 .text          0x00000000        0x0 /opt/paparazzi/arm-multilib/lib/gcc/arm-none-eabi/4.4.5/../../../../arm-none-eabi/lib/libstm32.a(stm32_misc.o)
 .data          0x00000000        0x0 /opt/paparazzi/arm-multilib/lib/gcc/arm-none-eabi/4.4.5/../../../../arm-none-eabi/lib/libstm32.a(stm32_misc.o)
 .bss           0x00000000        0x0 /opt/paparazzi/arm-multilib/lib/gcc/arm-none-eabi/4.4.5/../../../../arm-none-eabi/lib/libstm32.a(stm32_misc.o)
 .text.NVIC_SystemLPConfig
                0x00000000       0x1c /opt/paparazzi/arm-multilib/lib/gcc/arm-none-eabi/4.4.5/../../../../arm-none-eabi/lib/libstm32.a(stm32_misc.o)
 .text.SysTick_CLKSourceConfig
                0x00000000       0x18 /opt/paparazzi/arm-multilib/lib/gcc/arm-none-eabi/4.4.5/../../../../arm-none-eabi/lib/libstm32.a(stm32_misc.o)
 .text          0x00000000        0x0 /opt/paparazzi/arm-multilib/lib/gcc/arm-none-eabi/4.4.5/../../../../arm-none-eabi/lib/libopencm3_stm32.a(rcc.o)
 .data          0x00000000        0x0 /opt/paparazzi/arm-multilib/lib/gcc/arm-none-eabi/4.4.5/../../../../arm-none-eabi/lib/libopencm3_stm32.a(rcc.o)
 .bss           0x00000000        0x0 /opt/paparazzi/arm-multilib/lib/gcc/arm-none-eabi/4.4.5/../../../../arm-none-eabi/lib/libopencm3_stm32.a(rcc.o)
 .text.rcc_osc_ready_int_clear
                0x00000000       0x48 /opt/paparazzi/arm-multilib/lib/gcc/arm-none-eabi/4.4.5/../../../../arm-none-eabi/lib/libopencm3_stm32.a(rcc.o)
 .text.rcc_osc_ready_int_enable
                0x00000000       0x48 /opt/paparazzi/arm-multilib/lib/gcc/arm-none-eabi/4.4.5/../../../../arm-none-eabi/lib/libopencm3_stm32.a(rcc.o)
 .text.rcc_osc_ready_int_disable
                0x00000000       0x48 /opt/paparazzi/arm-multilib/lib/gcc/arm-none-eabi/4.4.5/../../../../arm-none-eabi/lib/libopencm3_stm32.a(rcc.o)
 .text.rcc_osc_ready_int_flag
                0x00000000       0x48 /opt/paparazzi/arm-multilib/lib/gcc/arm-none-eabi/4.4.5/../../../../arm-none-eabi/lib/libopencm3_stm32.a(rcc.o)
 .text.rcc_css_int_clear
                0x00000000       0x10 /opt/paparazzi/arm-multilib/lib/gcc/arm-none-eabi/4.4.5/../../../../arm-none-eabi/lib/libopencm3_stm32.a(rcc.o)
 .text.rcc_css_int_flag
                0x00000000       0x10 /opt/paparazzi/arm-multilib/lib/gcc/arm-none-eabi/4.4.5/../../../../arm-none-eabi/lib/libopencm3_stm32.a(rcc.o)
 .text.rcc_osc_off
                0x00000000       0x4c /opt/paparazzi/arm-multilib/lib/gcc/arm-none-eabi/4.4.5/../../../../arm-none-eabi/lib/libopencm3_stm32.a(rcc.o)
 .text.rcc_css_enable
                0x00000000       0x10 /opt/paparazzi/arm-multilib/lib/gcc/arm-none-eabi/4.4.5/../../../../arm-none-eabi/lib/libopencm3_stm32.a(rcc.o)
 .text.rcc_css_disable
                0x00000000       0x10 /opt/paparazzi/arm-multilib/lib/gcc/arm-none-eabi/4.4.5/../../../../arm-none-eabi/lib/libopencm3_stm32.a(rcc.o)
 .text.rcc_osc_bypass_enable
                0x00000000       0x2c /opt/paparazzi/arm-multilib/lib/gcc/arm-none-eabi/4.4.5/../../../../arm-none-eabi/lib/libopencm3_stm32.a(rcc.o)
 .text.rcc_osc_bypass_disable
                0x00000000       0x2c /opt/paparazzi/arm-multilib/lib/gcc/arm-none-eabi/4.4.5/../../../../arm-none-eabi/lib/libopencm3_stm32.a(rcc.o)
 .text.rcc_peripheral_enable_clock
                0x00000000        0xa /opt/paparazzi/arm-multilib/lib/gcc/arm-none-eabi/4.4.5/../../../../arm-none-eabi/lib/libopencm3_stm32.a(rcc.o)
 .text.rcc_peripheral_disable_clock
                0x00000000        0xa /opt/paparazzi/arm-multilib/lib/gcc/arm-none-eabi/4.4.5/../../../../arm-none-eabi/lib/libopencm3_stm32.a(rcc.o)
 .text.rcc_peripheral_reset
                0x00000000        0xa /opt/paparazzi/arm-multilib/lib/gcc/arm-none-eabi/4.4.5/../../../../arm-none-eabi/lib/libopencm3_stm32.a(rcc.o)
 .text.rcc_peripheral_clear_reset
                0x00000000        0xa /opt/paparazzi/arm-multilib/lib/gcc/arm-none-eabi/4.4.5/../../../../arm-none-eabi/lib/libopencm3_stm32.a(rcc.o)
 .text.rcc_set_ppre2
                0x00000000       0x14 /opt/paparazzi/arm-multilib/lib/gcc/arm-none-eabi/4.4.5/../../../../arm-none-eabi/lib/libopencm3_stm32.a(rcc.o)
 .text.rcc_set_hpre
                0x00000000       0x14 /opt/paparazzi/arm-multilib/lib/gcc/arm-none-eabi/4.4.5/../../../../arm-none-eabi/lib/libopencm3_stm32.a(rcc.o)
 .text.rcc_set_usbpre
                0x00000000       0x14 /opt/paparazzi/arm-multilib/lib/gcc/arm-none-eabi/4.4.5/../../../../arm-none-eabi/lib/libopencm3_stm32.a(rcc.o)
 .text.rcc_system_clock_source
                0x00000000       0x10 /opt/paparazzi/arm-multilib/lib/gcc/arm-none-eabi/4.4.5/../../../../arm-none-eabi/lib/libopencm3_stm32.a(rcc.o)
 .text.rcc_backupdomain_reset
                0x00000000       0x18 /opt/paparazzi/arm-multilib/lib/gcc/arm-none-eabi/4.4.5/../../../../arm-none-eabi/lib/libopencm3_stm32.a(rcc.o)
 .text.rcc_clock_setup_in_hsi_out_64mhz
                0x00000000       0x6c /opt/paparazzi/arm-multilib/lib/gcc/arm-none-eabi/4.4.5/../../../../arm-none-eabi/lib/libopencm3_stm32.a(rcc.o)
 .text.rcc_clock_setup_in_hsi_out_48mhz
                0x00000000       0x70 /opt/paparazzi/arm-multilib/lib/gcc/arm-none-eabi/4.4.5/../../../../arm-none-eabi/lib/libopencm3_stm32.a(rcc.o)
 .text.rcc_clock_setup_in_hse_8mhz_out_24mhz
                0x00000000       0x7c /opt/paparazzi/arm-multilib/lib/gcc/arm-none-eabi/4.4.5/../../../../arm-none-eabi/lib/libopencm3_stm32.a(rcc.o)
 .text.rcc_clock_setup_in_hse_8mhz_out_72mhz
                0x00000000       0x84 /opt/paparazzi/arm-multilib/lib/gcc/arm-none-eabi/4.4.5/../../../../arm-none-eabi/lib/libopencm3_stm32.a(rcc.o)
 .text.rcc_clock_setup_in_hse_16mhz_out_72mhz
                0x00000000       0x84 /opt/paparazzi/arm-multilib/lib/gcc/arm-none-eabi/4.4.5/../../../../arm-none-eabi/lib/libopencm3_stm32.a(rcc.o)
 .text          0x00000000        0x0 /opt/paparazzi/arm-multilib/lib/gcc/arm-none-eabi/4.4.5/../../../../arm-none-eabi/lib/libopencm3_stm32.a(usart.o)
 .data          0x00000000        0x0 /opt/paparazzi/arm-multilib/lib/gcc/arm-none-eabi/4.4.5/../../../../arm-none-eabi/lib/libopencm3_stm32.a(usart.o)
 .bss           0x00000000        0x0 /opt/paparazzi/arm-multilib/lib/gcc/arm-none-eabi/4.4.5/../../../../arm-none-eabi/lib/libopencm3_stm32.a(usart.o)
 .text.usart_set_databits
                0x00000000       0x12 /opt/paparazzi/arm-multilib/lib/gcc/arm-none-eabi/4.4.5/../../../../arm-none-eabi/lib/libopencm3_stm32.a(usart.o)
 .text.usart_set_stopbits
                0x00000000        0xc /opt/paparazzi/arm-multilib/lib/gcc/arm-none-eabi/4.4.5/../../../../arm-none-eabi/lib/libopencm3_stm32.a(usart.o)
 .text.usart_set_parity
                0x00000000        0xc /opt/paparazzi/arm-multilib/lib/gcc/arm-none-eabi/4.4.5/../../../../arm-none-eabi/lib/libopencm3_stm32.a(usart.o)
 .text.usart_set_mode
                0x00000000        0xc /opt/paparazzi/arm-multilib/lib/gcc/arm-none-eabi/4.4.5/../../../../arm-none-eabi/lib/libopencm3_stm32.a(usart.o)
 .text.usart_set_flow_control
                0x00000000        0xc /opt/paparazzi/arm-multilib/lib/gcc/arm-none-eabi/4.4.5/../../../../arm-none-eabi/lib/libopencm3_stm32.a(usart.o)
 .text.usart_enable
                0x00000000        0xa /opt/paparazzi/arm-multilib/lib/gcc/arm-none-eabi/4.4.5/../../../../arm-none-eabi/lib/libopencm3_stm32.a(usart.o)
 .text.usart_disable
                0x00000000        0xa /opt/paparazzi/arm-multilib/lib/gcc/arm-none-eabi/4.4.5/../../../../arm-none-eabi/lib/libopencm3_stm32.a(usart.o)
 .text.usart_send
                0x00000000        0x8 /opt/paparazzi/arm-multilib/lib/gcc/arm-none-eabi/4.4.5/../../../../arm-none-eabi/lib/libopencm3_stm32.a(usart.o)
 .text.usart_recv
                0x00000000        0x8 /opt/paparazzi/arm-multilib/lib/gcc/arm-none-eabi/4.4.5/../../../../arm-none-eabi/lib/libopencm3_stm32.a(usart.o)
 .text.usart_wait_send_ready
                0x00000000        0xa /opt/paparazzi/arm-multilib/lib/gcc/arm-none-eabi/4.4.5/../../../../arm-none-eabi/lib/libopencm3_stm32.a(usart.o)
 .text.usart_wait_recv_ready
                0x00000000        0xa /opt/paparazzi/arm-multilib/lib/gcc/arm-none-eabi/4.4.5/../../../../arm-none-eabi/lib/libopencm3_stm32.a(usart.o)
 .text.usart_send_blocking
                0x00000000       0x12 /opt/paparazzi/arm-multilib/lib/gcc/arm-none-eabi/4.4.5/../../../../arm-none-eabi/lib/libopencm3_stm32.a(usart.o)
 .text.usart_recv_blocking
                0x00000000       0x12 /opt/paparazzi/arm-multilib/lib/gcc/arm-none-eabi/4.4.5/../../../../arm-none-eabi/lib/libopencm3_stm32.a(usart.o)
 .text          0x00000000        0x0 /opt/paparazzi/arm-multilib/lib/gcc/arm-none-eabi/4.4.5/../../../../arm-none-eabi/lib/libopencm3_stm32.a(flash.o)
 .data          0x00000000        0x0 /opt/paparazzi/arm-multilib/lib/gcc/arm-none-eabi/4.4.5/../../../../arm-none-eabi/lib/libopencm3_stm32.a(flash.o)
 .bss           0x00000000        0x0 /opt/paparazzi/arm-multilib/lib/gcc/arm-none-eabi/4.4.5/../../../../arm-none-eabi/lib/libopencm3_stm32.a(flash.o)
 .text.flash_prefetch_buffer_enable
                0x00000000       0x10 /opt/paparazzi/arm-multilib/lib/gcc/arm-none-eabi/4.4.5/../../../../arm-none-eabi/lib/libopencm3_stm32.a(flash.o)
 .text.flash_prefetch_buffer_disable
                0x00000000       0x10 /opt/paparazzi/arm-multilib/lib/gcc/arm-none-eabi/4.4.5/../../../../arm-none-eabi/lib/libopencm3_stm32.a(flash.o)
 .text.flash_halfcycle_enable
                0x00000000       0x10 /opt/paparazzi/arm-multilib/lib/gcc/arm-none-eabi/4.4.5/../../../../arm-none-eabi/lib/libopencm3_stm32.a(flash.o)
 .text.flash_halfcycle_disable
                0x00000000       0x10 /opt/paparazzi/arm-multilib/lib/gcc/arm-none-eabi/4.4.5/../../../../arm-none-eabi/lib/libopencm3_stm32.a(flash.o)
 .text.flash_unlock
                0x00000000       0x18 /opt/paparazzi/arm-multilib/lib/gcc/arm-none-eabi/4.4.5/../../../../arm-none-eabi/lib/libopencm3_stm32.a(flash.o)
 .text.flash_lock
                0x00000000       0x10 /opt/paparazzi/arm-multilib/lib/gcc/arm-none-eabi/4.4.5/../../../../arm-none-eabi/lib/libopencm3_stm32.a(flash.o)
 .text.flash_clear_pgerr_flag
                0x00000000       0x10 /opt/paparazzi/arm-multilib/lib/gcc/arm-none-eabi/4.4.5/../../../../arm-none-eabi/lib/libopencm3_stm32.a(flash.o)
 .text.flash_clear_eop_flag
                0x00000000       0x10 /opt/paparazzi/arm-multilib/lib/gcc/arm-none-eabi/4.4.5/../../../../arm-none-eabi/lib/libopencm3_stm32.a(flash.o)
 .text.flash_clear_wrprterr_flag
                0x00000000       0x10 /opt/paparazzi/arm-multilib/lib/gcc/arm-none-eabi/4.4.5/../../../../arm-none-eabi/lib/libopencm3_stm32.a(flash.o)
 .text.flash_clear_bsy_flag
                0x00000000       0x10 /opt/paparazzi/arm-multilib/lib/gcc/arm-none-eabi/4.4.5/../../../../arm-none-eabi/lib/libopencm3_stm32.a(flash.o)
 .text.flash_clear_status_flags
                0x00000000       0x16 /opt/paparazzi/arm-multilib/lib/gcc/arm-none-eabi/4.4.5/../../../../arm-none-eabi/lib/libopencm3_stm32.a(flash.o)
 .text.flash_unlock_option_bytes
                0x00000000       0x18 /opt/paparazzi/arm-multilib/lib/gcc/arm-none-eabi/4.4.5/../../../../arm-none-eabi/lib/libopencm3_stm32.a(flash.o)
 .text.flash_wait_for_last_operation
                0x00000000       0x10 /opt/paparazzi/arm-multilib/lib/gcc/arm-none-eabi/4.4.5/../../../../arm-none-eabi/lib/libopencm3_stm32.a(flash.o)
 .text.flash_program_word
                0x00000000       0x34 /opt/paparazzi/arm-multilib/lib/gcc/arm-none-eabi/4.4.5/../../../../arm-none-eabi/lib/libopencm3_stm32.a(flash.o)
 .text.flash_program_half_word
                0x00000000       0x28 /opt/paparazzi/arm-multilib/lib/gcc/arm-none-eabi/4.4.5/../../../../arm-none-eabi/lib/libopencm3_stm32.a(flash.o)
 .text.flash_erase_page
                0x00000000       0x34 /opt/paparazzi/arm-multilib/lib/gcc/arm-none-eabi/4.4.5/../../../../arm-none-eabi/lib/libopencm3_stm32.a(flash.o)
 .text.flash_erase_all_pages
                0x00000000       0x2c /opt/paparazzi/arm-multilib/lib/gcc/arm-none-eabi/4.4.5/../../../../arm-none-eabi/lib/libopencm3_stm32.a(flash.o)
 .text.flash_erase_option_bytes
                0x00000000       0x38 /opt/paparazzi/arm-multilib/lib/gcc/arm-none-eabi/4.4.5/../../../../arm-none-eabi/lib/libopencm3_stm32.a(flash.o)
 .text.flash_program_option_bytes
                0x00000000       0x38 /opt/paparazzi/arm-multilib/lib/gcc/arm-none-eabi/4.4.5/../../../../arm-none-eabi/lib/libopencm3_stm32.a(flash.o)
 .data          0x00000000        0x0 /opt/paparazzi/arm-multilib/lib/gcc/arm-none-eabi/4.4.5/../../../../arm-none-eabi/lib/thumb2/libc.a(lib_a-errno.o)
 .bss           0x00000000        0x0 /opt/paparazzi/arm-multilib/lib/gcc/arm-none-eabi/4.4.5/../../../../arm-none-eabi/lib/thumb2/libc.a(lib_a-errno.o)
 .text          0x00000000        0x0 /opt/paparazzi/arm-multilib/lib/gcc/arm-none-eabi/4.4.5/../../../../arm-none-eabi/lib/thumb2/libc.a(lib_a-impure.o)
 .bss           0x00000000        0x0 /opt/paparazzi/arm-multilib/lib/gcc/arm-none-eabi/4.4.5/../../../../arm-none-eabi/lib/thumb2/libc.a(lib_a-impure.o)
 .rodata        0x00000000        0x4 /opt/paparazzi/arm-multilib/lib/gcc/arm-none-eabi/4.4.5/../../../../arm-none-eabi/lib/thumb2/libc.a(lib_a-impure.o)

Memory Configuration

Name             Origin             Length             Attributes
RAM              0x20000000         0x00010000         xrw
FLASH            0x08000000         0x0007f800         xr
FLASHB1          0x00000000         0x00000000         xr
*default*        0x00000000         0xffffffff

Linker script and memory map

LOAD /home/woz/lisa-m-team4938/paparazzi/var/ECE_2012/ap/mcu.o
LOAD /home/woz/lisa-m-team4938/paparazzi/var/ECE_2012/ap/arch/stm32/mcu_arch.o
LOAD /home/woz/lisa-m-team4938/paparazzi/var/ECE_2012/ap/arch/stm32/led_hw.o
LOAD /home/woz/lisa-m-team4938/paparazzi/var/ECE_2012/ap/sys_time.o
LOAD /home/woz/lisa-m-team4938/paparazzi/var/ECE_2012/ap/./inter_mcu.o
LOAD /home/woz/lisa-m-team4938/paparazzi/var/ECE_2012/ap/math/pprz_geodetic_int.o
LOAD /home/woz/lisa-m-team4938/paparazzi/var/ECE_2012/ap/math/pprz_geodetic_float.o
LOAD /home/woz/lisa-m-team4938/paparazzi/var/ECE_2012/ap/math/pprz_geodetic_double.o
LOAD /home/woz/lisa-m-team4938/paparazzi/var/ECE_2012/ap/math/pprz_trig_int.o
LOAD /home/woz/lisa-m-team4938/paparazzi/var/ECE_2012/ap/mcu_periph/i2c.o
LOAD /home/woz/lisa-m-team4938/paparazzi/var/ECE_2012/ap/arch/stm32/mcu_periph/i2c_arch.o
LOAD /home/woz/lisa-m-team4938/paparazzi/var/ECE_2012/ap/firmwares/fixedwing/main_fbw.o
LOAD /home/woz/lisa-m-team4938/paparazzi/var/ECE_2012/ap/subsystems/electrical.o
LOAD /home/woz/lisa-m-team4938/paparazzi/var/ECE_2012/ap/./commands.o
LOAD /home/woz/lisa-m-team4938/paparazzi/var/ECE_2012/ap/firmwares/fixedwing/main_ap.o
LOAD /home/woz/lisa-m-team4938/paparazzi/var/ECE_2012/ap/./estimator.o
LOAD /home/woz/lisa-m-team4938/paparazzi/var/ECE_2012/ap/arch/stm32/stm32_exceptions.o
LOAD /home/woz/lisa-m-team4938/paparazzi/var/ECE_2012/ap/arch/stm32/stm32_vector_table.o
LOAD /home/woz/lisa-m-team4938/paparazzi/var/ECE_2012/ap/lisa/plug_sys.o
LOAD /home/woz/lisa-m-team4938/paparazzi/var/ECE_2012/ap/firmwares/fixedwing/main.o
LOAD /home/woz/lisa-m-team4938/paparazzi/var/ECE_2012/ap/arch/stm32/sys_time_hw.o
LOAD /home/woz/lisa-m-team4938/paparazzi/var/ECE_2012/ap/mcu_periph/uart.o
LOAD /home/woz/lisa-m-team4938/paparazzi/var/ECE_2012/ap/arch/stm32/mcu_periph/uart_arch.o
LOAD /home/woz/lisa-m-team4938/paparazzi/var/ECE_2012/ap/subsystems/settings.o
LOAD /home/woz/lisa-m-team4938/paparazzi/var/ECE_2012/ap/arch/stm32/subsystems/settings_arch.o
LOAD /home/woz/lisa-m-team4938/paparazzi/var/ECE_2012/ap/arch/stm32/mcu_periph/adc_arch.o
LOAD /home/woz/lisa-m-team4938/paparazzi/var/ECE_2012/ap/arch/stm32/servos_direct_hw.o
LOAD /home/woz/lisa-m-team4938/paparazzi/var/ECE_2012/ap/actuators.o
LOAD /home/woz/lisa-m-team4938/paparazzi/var/ECE_2012/ap/firmwares/rotorcraft/actuators/arch/stm32/actuators_pwm_arch.o
LOAD /home/woz/lisa-m-team4938/paparazzi/var/ECE_2012/ap/subsystems/radio_control.o
LOAD /home/woz/lisa-m-team4938/paparazzi/var/ECE_2012/ap/subsystems/radio_control/ppm.o
LOAD /home/woz/lisa-m-team4938/paparazzi/var/ECE_2012/ap/arch/stm32/subsystems/radio_control/ppm_arch.o
LOAD /home/woz/lisa-m-team4938/paparazzi/var/ECE_2012/ap/downlink.o
LOAD /home/woz/lisa-m-team4938/paparazzi/var/ECE_2012/ap/pprz_transport.o
LOAD /home/woz/lisa-m-team4938/paparazzi/var/ECE_2012/ap/firmwares/fixedwing/datalink.o
LOAD /home/woz/lisa-m-team4938/paparazzi/var/ECE_2012/ap/firmwares/fixedwing/stabilization/stabilization_attitude.o
LOAD /home/woz/lisa-m-team4938/paparazzi/var/ECE_2012/ap/firmwares/fixedwing/guidance/guidance_v.o
LOAD /home/woz/lisa-m-team4938/paparazzi/var/ECE_2012/ap/subsystems/imu.o
LOAD /home/woz/lisa-m-team4938/paparazzi/var/ECE_2012/ap/subsystems/imu/imu_aspirin.o
LOAD /home/woz/lisa-m-team4938/paparazzi/var/ECE_2012/ap/arch/stm32/subsystems/imu/imu_aspirin_arch.o
LOAD /home/woz/lisa-m-team4938/paparazzi/var/ECE_2012/ap/peripherals/hmc5843.o
LOAD /home/woz/lisa-m-team4938/paparazzi/var/ECE_2012/ap/arch/stm32/peripherals/hmc5843_arch.o
LOAD /home/woz/lisa-m-team4938/paparazzi/var/ECE_2012/ap/subsystems/ahrs.o
LOAD /home/woz/lisa-m-team4938/paparazzi/var/ECE_2012/ap/subsystems/ahrs/ahrs_aligner.o
LOAD /home/woz/lisa-m-team4938/paparazzi/var/ECE_2012/ap/subsystems/ahrs/ahrs_float_dcm.o
LOAD /home/woz/lisa-m-team4938/paparazzi/var/ECE_2012/ap/subsystems/gps/gps_ubx.o
LOAD /home/woz/lisa-m-team4938/paparazzi/var/ECE_2012/ap/subsystems/gps.o
LOAD /home/woz/lisa-m-team4938/paparazzi/var/ECE_2012/ap/subsystems/nav.o
LOAD /home/woz/lisa-m-team4938/paparazzi/var/ECE_2012/ap/subsystems/navigation/common_flight_plan.o
LOAD /home/woz/lisa-m-team4938/paparazzi/var/ECE_2012/ap/subsystems/navigation/traffic_info.o
LOAD /home/woz/lisa-m-team4938/paparazzi/var/ECE_2012/ap/subsystems/navigation/nav_survey_rectangle.o
LOAD /home/woz/lisa-m-team4938/paparazzi/var/ECE_2012/ap/subsystems/navigation/nav_line.o
LOAD /opt/paparazzi/arm-multilib/lib/gcc/arm-none-eabi/4.4.5/../../../../arm-none-eabi/lib/thumb2/libc.a
LOAD /opt/paparazzi/arm-multilib/lib/gcc/arm-none-eabi/4.4.5/../../../../arm-none-eabi/lib/thumb2/libm.a
LOAD /opt/paparazzi/arm-multilib/lib/gcc/arm-none-eabi/4.4.5/thumb2/libgcc.a
LOAD /opt/paparazzi/arm-multilib/lib/gcc/arm-none-eabi/4.4.5/../../../../arm-none-eabi/lib/libcmsis.a
LOAD /opt/paparazzi/arm-multilib/lib/gcc/arm-none-eabi/4.4.5/../../../../arm-none-eabi/lib/libstm32.a
LOAD /opt/paparazzi/arm-multilib/lib/gcc/arm-none-eabi/4.4.5/../../../../arm-none-eabi/lib/libopencm3_stm32.a
START GROUP
LOAD /opt/paparazzi/arm-multilib/lib/gcc/arm-none-eabi/4.4.5/thumb2/libgcc.a
LOAD /opt/paparazzi/arm-multilib/lib/gcc/arm-none-eabi/4.4.5/../../../../arm-none-eabi/lib/thumb2/libc.a
END GROUP
                0x20010000                _estack = 0x20010000
                0x00001000                __Stack_Size = 0x1000
                0x00001000                PROVIDE (_Stack_Size, __Stack_Size)
                0x2000f000                __Stack_Init = (_estack - __Stack_Size)
                0x2000f000                PROVIDE (_Stack_Init, __Stack_Init)
                0x00000800                _Minimum_Stack_Size = 0x800
                0x00000001                ASSERT ((ORIGIN (FLASH) == ALIGN (ORIGIN (FLASH), 0x80)), Start of memory region flash not aligned for startup vector table)

.isr_vector     0x08000000      0x130
                0x08000000                . = ALIGN (0x4)
 *(.isr_vector)
 .isr_vector    0x08000000      0x130 /home/woz/lisa-m-team4938/paparazzi/var/ECE_2012/ap/arch/stm32/stm32_vector_table.o
                0x08000000                vector_table
                0x08000130                . = ALIGN (0x4)

.flashtext      0x08000130        0x0
                0x08000130                . = ALIGN (0x4)
 *(.flashtext)
                0x08000130                . = ALIGN (0x4)

.text           0x08000130    0x18058
                0x08000130                . = ALIGN (0x4)
 *(.text)
 .text          0x08000130       0x16 /opt/paparazzi/arm-multilib/lib/gcc/arm-none-eabi/4.4.5/../../../../arm-none-eabi/lib/thumb2/libc.a(lib_a-memcpy.o)
                0x08000130                memcpy
 *fill*         0x08000146        0x2 00
 .text          0x08000148      0x340 /opt/paparazzi/arm-multilib/lib/gcc/arm-none-eabi/4.4.5/../../../../arm-none-eabi/lib/thumb2/libm.a(lib_a-s_atan.o)
                0x08000148                atan
 .text          0x08000488       0x88 /opt/paparazzi/arm-multilib/lib/gcc/arm-none-eabi/4.4.5/../../../../arm-none-eabi/lib/thumb2/libm.a(lib_a-s_cos.o)
                0x08000488                cos
 .text          0x08000510        0x6 /opt/paparazzi/arm-multilib/lib/gcc/arm-none-eabi/4.4.5/../../../../arm-none-eabi/lib/thumb2/libm.a(lib_a-s_fabs.o)
                0x08000510                fabs
 *fill*         0x08000516        0x2 00
 .text          0x08000518      0x12c /opt/paparazzi/arm-multilib/lib/gcc/arm-none-eabi/4.4.5/../../../../arm-none-eabi/lib/thumb2/libm.a(lib_a-s_rint.o)
                0x08000518                rint
 .text          0x08000644       0x8c /opt/paparazzi/arm-multilib/lib/gcc/arm-none-eabi/4.4.5/../../../../arm-none-eabi/lib/thumb2/libm.a(lib_a-s_sin.o)
                0x08000644                sin
 .text          0x080006d0       0x54 /opt/paparazzi/arm-multilib/lib/gcc/arm-none-eabi/4.4.5/../../../../arm-none-eabi/lib/thumb2/libm.a(lib_a-s_tan.o)
                0x080006d0                tan
 .text          0x08000724      0x234 /opt/paparazzi/arm-multilib/lib/gcc/arm-none-eabi/4.4.5/../../../../arm-none-eabi/lib/thumb2/libm.a(lib_a-sf_atan.o)
                0x08000724                atanf
 .text          0x08000958       0x64 /opt/paparazzi/arm-multilib/lib/gcc/arm-none-eabi/4.4.5/../../../../arm-none-eabi/lib/thumb2/libm.a(lib_a-sf_cos.o)
                0x08000958                cosf
 .text          0x080009bc        0x6 /opt/paparazzi/arm-multilib/lib/gcc/arm-none-eabi/4.4.5/../../../../arm-none-eabi/lib/thumb2/libm.a(lib_a-sf_fabs.o)
                0x080009bc                fabsf
 *fill*         0x080009c2        0x2 00
 .text          0x080009c4       0x68 /opt/paparazzi/arm-multilib/lib/gcc/arm-none-eabi/4.4.5/../../../../arm-none-eabi/lib/thumb2/libm.a(lib_a-sf_sin.o)
                0x080009c4                sinf
 .text          0x08000a2c       0x9c /opt/paparazzi/arm-multilib/lib/gcc/arm-none-eabi/4.4.5/../../../../arm-none-eabi/lib/thumb2/libm.a(lib_a-w_asin.o)
                0x08000a2c                asin
 .text          0x08000ac8        0x4 /opt/paparazzi/arm-multilib/lib/gcc/arm-none-eabi/4.4.5/../../../../arm-none-eabi/lib/thumb2/libm.a(lib_a-w_atan2.o)
                0x08000ac8                atan2
 *fill*         0x08000acc        0x4 00
 .text          0x08000ad0       0xb8 /opt/paparazzi/arm-multilib/lib/gcc/arm-none-eabi/4.4.5/../../../../arm-none-eabi/lib/thumb2/libm.a(lib_a-w_cosh.o)
                0x08000ad0                cosh
 .text          0x08000b88       0xe8 /opt/paparazzi/arm-multilib/lib/gcc/arm-none-eabi/4.4.5/../../../../arm-none-eabi/lib/thumb2/libm.a(lib_a-w_exp.o)
                0x08000b88                exp
 .text          0x08000c70       0xd8 /opt/paparazzi/arm-multilib/lib/gcc/arm-none-eabi/4.4.5/../../../../arm-none-eabi/lib/thumb2/libm.a(lib_a-w_log.o)
                0x08000c70                log
 .text          0x08000d48      0x2d0 /opt/paparazzi/arm-multilib/lib/gcc/arm-none-eabi/4.4.5/../../../../arm-none-eabi/lib/thumb2/libm.a(lib_a-w_pow.o)
                0x08000d48                pow
 .text          0x08001018       0xd4 /opt/paparazzi/arm-multilib/lib/gcc/arm-none-eabi/4.4.5/../../../../arm-none-eabi/lib/thumb2/libm.a(lib_a-w_sinh.o)
                0x08001018                sinh
 .text          0x080010ec       0xa8 /opt/paparazzi/arm-multilib/lib/gcc/arm-none-eabi/4.4.5/../../../../arm-none-eabi/lib/thumb2/libm.a(lib_a-w_sqrt.o)
                0x080010ec                sqrt
 .text          0x08001194       0x98 /opt/paparazzi/arm-multilib/lib/gcc/arm-none-eabi/4.4.5/../../../../arm-none-eabi/lib/thumb2/libm.a(lib_a-wf_asin.o)
                0x08001194                asinf
 .text          0x0800122c        0x4 /opt/paparazzi/arm-multilib/lib/gcc/arm-none-eabi/4.4.5/../../../../arm-none-eabi/lib/thumb2/libm.a(lib_a-wf_atan2.o)
                0x0800122c                atan2f
 .text          0x08001230      0x498 /opt/paparazzi/arm-multilib/lib/gcc/arm-none-eabi/4.4.5/../../../../arm-none-eabi/lib/thumb2/libm.a(lib_a-e_asin.o)
                0x08001230                __ieee754_asin
 .text          0x080016c8      0x1e8 /opt/paparazzi/arm-multilib/lib/gcc/arm-none-eabi/4.4.5/../../../../arm-none-eabi/lib/thumb2/libm.a(lib_a-e_atan2.o)
                0x080016c8                __ieee754_atan2
 .text          0x080018b0      0x130 /opt/paparazzi/arm-multilib/lib/gcc/arm-none-eabi/4.4.5/../../../../arm-none-eabi/lib/thumb2/libm.a(lib_a-e_cosh.o)
                0x080018b0                __ieee754_cosh
 .text          0x080019e0      0x2e0 /opt/paparazzi/arm-multilib/lib/gcc/arm-none-eabi/4.4.5/../../../../arm-none-eabi/lib/thumb2/libm.a(lib_a-e_exp.o)
                0x080019e0                __ieee754_exp
 .text          0x08001cc0      0x400 /opt/paparazzi/arm-multilib/lib/gcc/arm-none-eabi/4.4.5/../../../../arm-none-eabi/lib/thumb2/libm.a(lib_a-e_log.o)
                0x08001cc0                __ieee754_log
 .text          0x080020c0      0xa58 /opt/paparazzi/arm-multilib/lib/gcc/arm-none-eabi/4.4.5/../../../../arm-none-eabi/lib/thumb2/libm.a(lib_a-e_pow.o)
                0x080020c0                __ieee754_pow
 .text          0x08002b18      0x3f0 /opt/paparazzi/arm-multilib/lib/gcc/arm-none-eabi/4.4.5/../../../../arm-none-eabi/lib/thumb2/libm.a(lib_a-e_rem_pio2.o)
                0x08002b18                __ieee754_rem_pio2
 .text          0x08002f08      0x168 /opt/paparazzi/arm-multilib/lib/gcc/arm-none-eabi/4.4.5/../../../../arm-none-eabi/lib/thumb2/libm.a(lib_a-e_sinh.o)
                0x08002f08                __ieee754_sinh
 .text          0x08003070      0x170 /opt/paparazzi/arm-multilib/lib/gcc/arm-none-eabi/4.4.5/../../../../arm-none-eabi/lib/thumb2/libm.a(lib_a-e_sqrt.o)
                0x08003070                __ieee754_sqrt
 .text          0x080031e0      0x2ac /opt/paparazzi/arm-multilib/lib/gcc/arm-none-eabi/4.4.5/../../../../arm-none-eabi/lib/thumb2/libm.a(lib_a-ef_asin.o)
                0x080031e0                __ieee754_asinf
 .text          0x0800348c      0x118 /opt/paparazzi/arm-multilib/lib/gcc/arm-none-eabi/4.4.5/../../../../arm-none-eabi/lib/thumb2/libm.a(lib_a-ef_atan2.o)
                0x0800348c                __ieee754_atan2f
 .text          0x080035a4      0x2b8 /opt/paparazzi/arm-multilib/lib/gcc/arm-none-eabi/4.4.5/../../../../arm-none-eabi/lib/thumb2/libm.a(lib_a-ef_rem_pio2.o)
                0x080035a4                __ieee754_rem_pio2f
 .text          0x0800385c       0xaa /opt/paparazzi/arm-multilib/lib/gcc/arm-none-eabi/4.4.5/../../../../arm-none-eabi/lib/thumb2/libm.a(lib_a-ef_sqrt.o)
                0x0800385c                __ieee754_sqrtf
 *fill*         0x08003906        0x2 00
 .text          0x08003908      0x1d0 /opt/paparazzi/arm-multilib/lib/gcc/arm-none-eabi/4.4.5/../../../../arm-none-eabi/lib/thumb2/libm.a(lib_a-k_cos.o)
                0x08003908                __kernel_cos
 .text          0x08003ad8      0x6d0 /opt/paparazzi/arm-multilib/lib/gcc/arm-none-eabi/4.4.5/../../../../arm-none-eabi/lib/thumb2/libm.a(lib_a-k_rem_pio2.o)
                0x08003ad8                __kernel_rem_pio2
 .text          0x080041a8      0x180 /opt/paparazzi/arm-multilib/lib/gcc/arm-none-eabi/4.4.5/../../../../arm-none-eabi/lib/thumb2/libm.a(lib_a-k_sin.o)
                0x080041a8                __kernel_sin
 .text          0x08004328      0x3d8 /opt/paparazzi/arm-multilib/lib/gcc/arm-none-eabi/4.4.5/../../../../arm-none-eabi/lib/thumb2/libm.a(lib_a-k_tan.o)
                0x08004328                __kernel_tan
 .text          0x08004700      0x138 /opt/paparazzi/arm-multilib/lib/gcc/arm-none-eabi/4.4.5/../../../../arm-none-eabi/lib/thumb2/libm.a(lib_a-kf_cos.o)
                0x08004700                __kernel_cosf
 .text          0x08004838      0x58c /opt/paparazzi/arm-multilib/lib/gcc/arm-none-eabi/4.4.5/../../../../arm-none-eabi/lib/thumb2/libm.a(lib_a-kf_rem_pio2.o)
                0x08004838                __kernel_rem_pio2f
 .text          0x08004dc4       0xf4 /opt/paparazzi/arm-multilib/lib/gcc/arm-none-eabi/4.4.5/../../../../arm-none-eabi/lib/thumb2/libm.a(lib_a-kf_sin.o)
                0x08004dc4                __kernel_sinf
 .text          0x08004eb8      0x438 /opt/paparazzi/arm-multilib/lib/gcc/arm-none-eabi/4.4.5/../../../../arm-none-eabi/lib/thumb2/libm.a(lib_a-s_expm1.o)
                0x08004eb8                expm1
 .text          0x080052f0       0x10 /opt/paparazzi/arm-multilib/lib/gcc/arm-none-eabi/4.4.5/../../../../arm-none-eabi/lib/thumb2/libm.a(lib_a-s_finite.o)
                0x080052f0                finite
 .text          0x08005300      0x108 /opt/paparazzi/arm-multilib/lib/gcc/arm-none-eabi/4.4.5/../../../../arm-none-eabi/lib/thumb2/libm.a(lib_a-s_floor.o)
                0x08005300                floor
 .text          0x08005408       0x68 /opt/paparazzi/arm-multilib/lib/gcc/arm-none-eabi/4.4.5/../../../../arm-none-eabi/lib/thumb2/libm.a(lib_a-s_fpclassify.o)
                0x08005408                __fpclassifyd
 .text          0x08005470        0x4 /opt/paparazzi/arm-multilib/lib/gcc/arm-none-eabi/4.4.5/../../../../arm-none-eabi/lib/thumb2/libm.a(lib_a-s_matherr.o)
                0x08005470                matherr
 .text          0x08005474        0xc /opt/paparazzi/arm-multilib/lib/gcc/arm-none-eabi/4.4.5/../../../../arm-none-eabi/lib/thumb2/libm.a(lib_a-s_nan.o)
                0x08005474                nan
 .text          0x08005480      0x108 /opt/paparazzi/arm-multilib/lib/gcc/arm-none-eabi/4.4.5/../../../../arm-none-eabi/lib/thumb2/libm.a(lib_a-s_scalbn.o)
                0x08005480                scalbn
 .text          0x08005588       0x80 /opt/paparazzi/arm-multilib/lib/gcc/arm-none-eabi/4.4.5/../../../../arm-none-eabi/lib/thumb2/libm.a(lib_a-sf_floor.o)
                0x08005588                floorf
 .text          0x08005608       0x54 /opt/paparazzi/arm-multilib/lib/gcc/arm-none-eabi/4.4.5/../../../../arm-none-eabi/lib/thumb2/libm.a(lib_a-sf_fpclassify.o)
                0x08005608                __fpclassifyf
 .text          0x0800565c       0xa0 /opt/paparazzi/arm-multilib/lib/gcc/arm-none-eabi/4.4.5/../../../../arm-none-eabi/lib/thumb2/libm.a(lib_a-sf_scalbn.o)
                0x0800565c                scalbnf
 .text          0x080056fc       0x14 /opt/paparazzi/arm-multilib/lib/gcc/arm-none-eabi/4.4.5/../../../../arm-none-eabi/lib/thumb2/libm.a(lib_a-s_copysign.o)
                0x080056fc                copysign
 .text          0x08005710        0xe /opt/paparazzi/arm-multilib/lib/gcc/arm-none-eabi/4.4.5/../../../../arm-none-eabi/lib/thumb2/libm.a(lib_a-sf_copysign.o)
                0x08005710                copysignf
 *fill*         0x0800571e        0x2 00
 .text          0x08005720       0xe0 /opt/paparazzi/arm-multilib/lib/gcc/arm-none-eabi/4.4.5/thumb2/libgcc.a(_divsi3.o)
                0x08005720                __aeabi_idiv
                0x08005720                __divsi3
                0x080057e4                __aeabi_idivmod
 .text          0x08005800        0x4 /opt/paparazzi/arm-multilib/lib/gcc/arm-none-eabi/4.4.5/thumb2/libgcc.a(_dvmd_tls.o)
                0x08005800                __aeabi_ldiv0
                0x08005800                __aeabi_idiv0
 .text          0x08005804      0x370 /opt/paparazzi/arm-multilib/lib/gcc/arm-none-eabi/4.4.5/thumb2/libgcc.a(_arm_addsubdf3.o)
                0x08005804                __aeabi_drsub
                0x0800580c                __aeabi_dsub
                0x0800580c                __subdf3
                0x08005810                __adddf3
                0x08005810                __aeabi_dadd
                0x08005a88                __aeabi_ui2d
                0x08005a88                __floatunsidf
                0x08005aa8                __floatsidf
                0x08005aa8                __aeabi_i2d
                0x08005acc                __extendsfdf2
                0x08005acc                __aeabi_f2d
                0x08005b08                __aeabi_ul2d
                0x08005b08                __floatundidf
                0x08005b18                __floatdidf
                0x08005b18                __aeabi_l2d
 .text          0x08005b74      0x424 /opt/paparazzi/arm-multilib/lib/gcc/arm-none-eabi/4.4.5/thumb2/libgcc.a(_arm_muldivdf3.o)
                0x08005b74                __aeabi_dmul
                0x08005b74                __muldf3
                0x08005dc8                __aeabi_ddiv
                0x08005dc8                __divdf3
 .text          0x08005f98      0x110 /opt/paparazzi/arm-multilib/lib/gcc/arm-none-eabi/4.4.5/thumb2/libgcc.a(_arm_cmpdf2.o)
                0x08005f98                __gtdf2
                0x08005f98                __gedf2
                0x08005fa0                __ltdf2
                0x08005fa0                __ledf2
                0x08005fa8                __cmpdf2
                0x08005fa8                __eqdf2
                0x08005fa8                __nedf2
                0x08006024                __aeabi_cdrcmple
                0x08006034                __aeabi_cdcmple
                0x08006034                __aeabi_cdcmpeq
                0x08006044                __aeabi_dcmpeq
                0x08006058                __aeabi_dcmplt
                0x0800606c                __aeabi_dcmple
                0x08006080                __aeabi_dcmpge
                0x08006094                __aeabi_dcmpgt
 .text          0x080060a8       0x50 /opt/paparazzi/arm-multilib/lib/gcc/arm-none-eabi/4.4.5/thumb2/libgcc.a(_arm_fixdfsi.o)
                0x080060a8                __fixdfsi
                0x080060a8                __aeabi_d2iz
 .text          0x080060f8       0x40 /opt/paparazzi/arm-multilib/lib/gcc/arm-none-eabi/4.4.5/thumb2/libgcc.a(_arm_fixunsdfsi.o)
                0x080060f8                __fixunsdfsi
                0x080060f8                __aeabi_d2uiz
 .text          0x08006138       0xa0 /opt/paparazzi/arm-multilib/lib/gcc/arm-none-eabi/4.4.5/thumb2/libgcc.a(_arm_truncdfsf2.o)
                0x08006138                __aeabi_d2f
                0x08006138                __truncdfsf2
 .text          0x080061d8      0x21c /opt/paparazzi/arm-multilib/lib/gcc/arm-none-eabi/4.4.5/thumb2/libgcc.a(_arm_addsubsf3.o)
                0x080061d8                __aeabi_frsub
                0x080061e0                __subsf3
                0x080061e0                __aeabi_fsub
                0x080061e4                __aeabi_fadd
                0x080061e4                __addsf3
                0x08006344                __aeabi_ui2f
                0x08006344                __floatunsisf
                0x0800634c                __aeabi_i2f
                0x0800634c                __floatsisf
                0x08006368                __floatundisf
                0x08006368                __aeabi_ul2f
                0x08006378                __floatdisf
                0x08006378                __aeabi_l2f
 .text          0x080063f4      0x2a0 /opt/paparazzi/arm-multilib/lib/gcc/arm-none-eabi/4.4.5/thumb2/libgcc.a(_arm_muldivsf3.o)
                0x080063f4                __mulsf3
                0x080063f4                __aeabi_fmul
                0x0800655c                __divsf3
                0x0800655c                __aeabi_fdiv
 .text          0x08006694       0xec /opt/paparazzi/arm-multilib/lib/gcc/arm-none-eabi/4.4.5/thumb2/libgcc.a(_arm_cmpsf2.o)
                0x08006694                __gtsf2
                0x08006694                __gesf2
                0x0800669c                __lesf2
                0x0800669c                __ltsf2
                0x080066a4                __nesf2
                0x080066a4                __eqsf2
                0x080066a4                __cmpsf2
                0x08006704                __aeabi_cfrcmple
                0x0800670c                __aeabi_cfcmple
                0x0800670c                __aeabi_cfcmpeq
                0x0800671c                __aeabi_fcmpeq
                0x08006730                __aeabi_fcmplt
                0x08006744                __aeabi_fcmple
                0x08006758                __aeabi_fcmpge
                0x0800676c                __aeabi_fcmpgt
 .text          0x08006780       0x4c /opt/paparazzi/arm-multilib/lib/gcc/arm-none-eabi/4.4.5/thumb2/libgcc.a(_arm_fixsfsi.o)
                0x08006780                __fixsfsi
                0x08006780                __aeabi_f2iz
 .text          0x080067cc       0x40 /opt/paparazzi/arm-multilib/lib/gcc/arm-none-eabi/4.4.5/thumb2/libgcc.a(_arm_fixunssfsi.o)
                0x080067cc                __aeabi_f2uiz
                0x080067cc                __fixunssfsi
 .text          0x0800680c        0xc /opt/paparazzi/arm-multilib/lib/gcc/arm-none-eabi/4.4.5/../../../../arm-none-eabi/lib/thumb2/libc.a(lib_a-errno.o)
                0x0800680c                __errno
 *(.text.*)
 .text.mcu_init
                0x08006818       0xa0 /home/woz/lisa-m-team4938/paparazzi/var/ECE_2012/ap/mcu.o
                0x08006818                mcu_init
 .text.mcu_arch_init
                0x080068b8       0x14 /home/woz/lisa-m-team4938/paparazzi/var/ECE_2012/ap/arch/stm32/mcu_arch.o
                0x080068b8                mcu_arch_init
 *fill*         0x080068cc        0x4 00
 .text.isometric_latitude_fast_f
                0x080068d0       0x38 /home/woz/lisa-m-team4938/paparazzi/var/ECE_2012/ap/math/pprz_geodetic_float.o
 .text.utm_of_lla_f
                0x08006908      0x270 /home/woz/lisa-m-team4938/paparazzi/var/ECE_2012/ap/math/pprz_geodetic_float.o
                0x08006908                utm_of_lla_f
 .text.i2c_init
                0x08006b78       0x10 /home/woz/lisa-m-team4938/paparazzi/var/ECE_2012/ap/mcu_periph/i2c.o
                0x08006b78                i2c_init
 .text.i2c2_init
                0x08006b88       0x14 /home/woz/lisa-m-team4938/paparazzi/var/ECE_2012/ap/mcu_periph/i2c.o
                0x08006b88                i2c2_init
 .text.i2c_delay
                0x08006b9c       0x16 /home/woz/lisa-m-team4938/paparazzi/var/ECE_2012/ap/arch/stm32/mcu_periph/i2c_arch.o
 .text.start_transaction
                0x08006bb2       0x28 /home/woz/lisa-m-team4938/paparazzi/var/ECE_2012/ap/arch/stm32/mcu_periph/i2c_arch.o
 .text.i2c_submit
                0x08006bda       0x3e /home/woz/lisa-m-team4938/paparazzi/var/ECE_2012/ap/arch/stm32/mcu_periph/i2c_arch.o
                0x08006bda                i2c_submit
 .text.i2c_idle
                0x08006c18       0x16 /home/woz/lisa-m-team4938/paparazzi/var/ECE_2012/ap/arch/stm32/mcu_periph/i2c_arch.o
                0x08006c18                i2c_idle
 *fill*         0x08006c2e        0x2 00
 .text.T.28     0x08006c30       0x38 /home/woz/lisa-m-team4938/paparazzi/var/ECE_2012/ap/arch/stm32/mcu_periph/i2c_arch.o
 .text.T.29     0x08006c68      0x100 /home/woz/lisa-m-team4938/paparazzi/var/ECE_2012/ap/arch/stm32/mcu_periph/i2c_arch.o
 .text.i2c2_hw_init
                0x08006d68       0xb0 /home/woz/lisa-m-team4938/paparazzi/var/ECE_2012/ap/arch/stm32/mcu_periph/i2c_arch.o
                0x08006d68                i2c2_hw_init
 .text.T.30     0x08006e18       0x3c /home/woz/lisa-m-team4938/paparazzi/var/ECE_2012/ap/arch/stm32/mcu_periph/i2c_arch.o
 .text.i2c2_er_irq_handler
                0x08006e54      0x100 /home/woz/lisa-m-team4938/paparazzi/var/ECE_2012/ap/arch/stm32/mcu_periph/i2c_arch.o
                0x08006e54                i2c2_er_irq_handler
 .text.i2c2_ev_irq_handler
                0x08006f54      0x2d4 /home/woz/lisa-m-team4938/paparazzi/var/ECE_2012/ap/arch/stm32/mcu_periph/i2c_arch.o
                0x08006f54                i2c2_ev_irq_handler
 .text.inter_mcu_fill_fbw_state
                0x08007228       0x8c /home/woz/lisa-m-team4938/paparazzi/var/ECE_2012/ap/firmwares/fixedwing/main_fbw.o
 .text.periodic_task_fbw
                0x080072b4      0x908 /home/woz/lisa-m-team4938/paparazzi/var/ECE_2012/ap/firmwares/fixedwing/main_fbw.o
                0x080072b4                periodic_task_fbw
 *fill*         0x08007bbc        0x4 00
 .text.event_task_fbw
                0x08007bc0      0x408 /home/woz/lisa-m-team4938/paparazzi/var/ECE_2012/ap/firmwares/fixedwing/main_fbw.o
                0x08007bc0                event_task_fbw
 .text.init_fbw
                0x08007fc8       0x7c /home/woz/lisa-m-team4938/paparazzi/var/ECE_2012/ap/firmwares/fixedwing/main_fbw.o
                0x08007fc8                init_fbw
 *fill*         0x08008044        0x4 00
 .text.electrical_periodic
                0x08008048       0xf8 /home/woz/lisa-m-team4938/paparazzi/var/ECE_2012/ap/subsystems/electrical.o
                0x08008048                electrical_periodic
 .text.electrical_init
                0x08008140       0x28 /home/woz/lisa-m-team4938/paparazzi/var/ECE_2012/ap/subsystems/electrical.o
                0x08008140                electrical_init
 .text.gyro_read_i2c
                0x08008168       0x20 /home/woz/lisa-m-team4938/paparazzi/var/ECE_2012/ap/firmwares/fixedwing/main_ap.o
 .text.on_mag_event
                0x08008188       0x60 /home/woz/lisa-m-team4938/paparazzi/var/ECE_2012/ap/firmwares/fixedwing/main_ap.o
 .text.on_gyro_event
                0x080081e8      0x160 /home/woz/lisa-m-team4938/paparazzi/var/ECE_2012/ap/firmwares/fixedwing/main_ap.o
 .text.navigation_task
                0x08008348      0x690 /home/woz/lisa-m-team4938/paparazzi/var/ECE_2012/ap/firmwares/fixedwing/main_ap.o
 .text.attitude_loop
                0x080089d8       0x3c /home/woz/lisa-m-team4938/paparazzi/var/ECE_2012/ap/firmwares/fixedwing/main_ap.o
 *fill*         0x08008a14        0x4 00
 .text.periodic_task_ap
                0x08008a18     0x5d78 /home/woz/lisa-m-team4938/paparazzi/var/ECE_2012/ap/firmwares/fixedwing/main_ap.o
                0x08008a18                periodic_task_ap
 .text.init_ap  0x0800e790       0xa4 /home/woz/lisa-m-team4938/paparazzi/var/ECE_2012/ap/firmwares/fixedwing/main_ap.o
                0x0800e790                init_ap
 .text.event_task_ap
                0x0800e834      0x60c /home/woz/lisa-m-team4938/paparazzi/var/ECE_2012/ap/firmwares/fixedwing/main_ap.o
                0x0800e834                event_task_ap
 .text.estimator_propagate_state
                0x0800ee40        0x2 /home/woz/lisa-m-team4938/paparazzi/var/ECE_2012/ap/./estimator.o
                0x0800ee40                estimator_propagate_state
 *fill*         0x0800ee42        0x2 00
 .text.alt_kalman_reset
                0x0800ee44       0x18 /home/woz/lisa-m-team4938/paparazzi/var/ECE_2012/ap/./estimator.o
                0x0800ee44                alt_kalman_reset
 .text.alt_kalman_init
                0x0800ee5c       0x10 /home/woz/lisa-m-team4938/paparazzi/var/ECE_2012/ap/./estimator.o
                0x0800ee5c                alt_kalman_init
 *fill*         0x0800ee6c        0x4 00
 .text.alt_kalman
                0x0800ee70      0x168 /home/woz/lisa-m-team4938/paparazzi/var/ECE_2012/ap/./estimator.o
                0x0800ee70                alt_kalman
 .text.estimator_init
                0x0800efd8       0x94 /home/woz/lisa-m-team4938/paparazzi/var/ECE_2012/ap/./estimator.o
                0x0800efd8                estimator_init
 *fill*         0x0800f06c        0x4 00
 .text.estimator_update_state_gps
                0x0800f070      0x110 /home/woz/lisa-m-team4938/paparazzi/var/ECE_2012/ap/./estimator.o
                0x0800f070                estimator_update_state_gps
 .text.nmi_exception
                0x0800f180        0x2 /home/woz/lisa-m-team4938/paparazzi/var/ECE_2012/ap/arch/stm32/stm32_exceptions.o
                0x0800f180                nmi_exception
 .text.hard_fault_exception
                0x0800f182        0x2 /home/woz/lisa-m-team4938/paparazzi/var/ECE_2012/ap/arch/stm32/stm32_exceptions.o
                0x0800f182                hard_fault_exception
 .text.mem_manage_exception
                0x0800f184        0x2 /home/woz/lisa-m-team4938/paparazzi/var/ECE_2012/ap/arch/stm32/stm32_exceptions.o
                0x0800f184                mem_manage_exception
 .text.bus_fault_exception
                0x0800f186        0x2 /home/woz/lisa-m-team4938/paparazzi/var/ECE_2012/ap/arch/stm32/stm32_exceptions.o
                0x0800f186                bus_fault_exception
 .text.usage_fault_exception
                0x0800f188        0x2 /home/woz/lisa-m-team4938/paparazzi/var/ECE_2012/ap/arch/stm32/stm32_exceptions.o
                0x0800f188                usage_fault_exception
 .text.null_handler
                0x0800f18a        0x2 /home/woz/lisa-m-team4938/paparazzi/var/ECE_2012/ap/arch/stm32/stm32_vector_table.o
                0x0800f18a                null_handler
 .text.reset_handler_stage2
                0x0800f18c       0x40 /home/woz/lisa-m-team4938/paparazzi/var/ECE_2012/ap/arch/stm32/stm32_vector_table.o
                0x0800f18c                reset_handler_stage2
 .text.reset_handler_stage1
                0x0800f1cc       0x24 /home/woz/lisa-m-team4938/paparazzi/var/ECE_2012/ap/arch/stm32/stm32_vector_table.o
                0x0800f1cc                reset_handler_stage1
 .text.main     0x0800f1f0       0x70 /home/woz/lisa-m-team4938/paparazzi/var/ECE_2012/ap/firmwares/fixedwing/main.o
                0x0800f1f0                main
 .text.sys_tick_irq_handler
                0x0800f260        0xc /home/woz/lisa-m-team4938/paparazzi/var/ECE_2012/ap/arch/stm32/sys_time_hw.o
                0x0800f260                sys_tick_irq_handler
 .text.T.16     0x0800f26c       0x10 /home/woz/lisa-m-team4938/paparazzi/var/ECE_2012/ap/arch/stm32/sys_time_hw.o
 .text.sys_time_init
                0x0800f27c       0x40 /home/woz/lisa-m-team4938/paparazzi/var/ECE_2012/ap/arch/stm32/sys_time_hw.o
                0x0800f27c                sys_time_init
 .text.uart_periph_init
                0x0800f2bc       0x18 /home/woz/lisa-m-team4938/paparazzi/var/ECE_2012/ap/mcu_periph/uart.o
                0x0800f2bc                uart_periph_init
 .text.uart_check_free_space
                0x0800f2d4       0x24 /home/woz/lisa-m-team4938/paparazzi/var/ECE_2012/ap/mcu_periph/uart.o
                0x0800f2d4                uart_check_free_space
 .text.uart_transmit
                0x0800f2f8       0x60 /home/woz/lisa-m-team4938/paparazzi/var/ECE_2012/ap/arch/stm32/mcu_periph/uart_arch.o
                0x0800f2f8                uart_transmit
 .text.usart_irq_handler
                0x0800f358       0x7e /home/woz/lisa-m-team4938/paparazzi/var/ECE_2012/ap/arch/stm32/mcu_periph/uart_arch.o
 *fill*         0x0800f3d6        0x2 00
 .text.usart2_irq_handler
                0x0800f3d8        0xc /home/woz/lisa-m-team4938/paparazzi/var/ECE_2012/ap/arch/stm32/mcu_periph/uart_arch.o
                0x0800f3d8                usart2_irq_handler
 .text.usart1_irq_handler
                0x0800f3e4        0xc /home/woz/lisa-m-team4938/paparazzi/var/ECE_2012/ap/arch/stm32/mcu_periph/uart_arch.o
                0x0800f3e4                usart1_irq_handler
 .text.usart_enable_irq
                0x0800f3f0       0x1e /home/woz/lisa-m-team4938/paparazzi/var/ECE_2012/ap/arch/stm32/mcu_periph/uart_arch.o
 .text.uart_periph_set_baudrate
                0x0800f40e       0x54 /home/woz/lisa-m-team4938/paparazzi/var/ECE_2012/ap/arch/stm32/mcu_periph/uart_arch.o
                0x0800f40e                uart_periph_set_baudrate
 *fill*         0x0800f462        0x2 00
 .text.uart2_init
                0x0800f464       0x74 /home/woz/lisa-m-team4938/paparazzi/var/ECE_2012/ap/arch/stm32/mcu_periph/uart_arch.o
                0x0800f464                uart2_init
 .text.uart1_init
                0x0800f4d8       0x74 /home/woz/lisa-m-team4938/paparazzi/var/ECE_2012/ap/arch/stm32/mcu_periph/uart_arch.o
                0x0800f4d8                uart1_init
 .text.settings_init
                0x0800f54c        0x2 /home/woz/lisa-m-team4938/paparazzi/var/ECE_2012/ap/subsystems/settings.o
                0x0800f54c                settings_init
 *fill*         0x0800f54e        0x2 00
 .text.adc_buf_channel
                0x0800f550       0x10 /home/woz/lisa-m-team4938/paparazzi/var/ECE_2012/ap/arch/stm32/mcu_periph/adc_arch.o
                0x0800f550                adc_buf_channel
 .text.adc1_2_irq_handler
                0x0800f560       0x64 /home/woz/lisa-m-team4938/paparazzi/var/ECE_2012/ap/arch/stm32/mcu_periph/adc_arch.o
                0x0800f560                adc1_2_irq_handler
 .text.adc_init
                0x0800f5c4      0x1a4 /home/woz/lisa-m-team4938/paparazzi/var/ECE_2012/ap/arch/stm32/mcu_periph/adc_arch.o
                0x0800f5c4                adc_init
 .text.actuators_init
                0x0800f768        0x4 /home/woz/lisa-m-team4938/paparazzi/var/ECE_2012/ap/arch/stm32/servos_direct_hw.o
                0x0800f768                actuators_init
 .text.actuators_pwm_commit
                0x0800f76c       0x44 /home/woz/lisa-m-team4938/paparazzi/var/ECE_2012/ap/firmwares/rotorcraft/actuators/arch/stm32/actuators_pwm_arch.o
                0x0800f76c                actuators_pwm_commit
 .text.actuators_pwm_arch_init
                0x0800f7b0      0x13c /home/woz/lisa-m-team4938/paparazzi/var/ECE_2012/ap/firmwares/rotorcraft/actuators/arch/stm32/actuators_pwm_arch.o
                0x0800f7b0                actuators_pwm_arch_init
 .text.radio_control_impl_init
                0x0800f8ec       0x10 /home/woz/lisa-m-team4938/paparazzi/var/ECE_2012/ap/subsystems/radio_control/ppm.o
                0x0800f8ec                radio_control_impl_init
 .text.tim2_irq_handler
                0x0800f8fc       0xd4 /home/woz/lisa-m-team4938/paparazzi/var/ECE_2012/ap/arch/stm32/subsystems/radio_control/ppm_arch.o
                0x0800f8fc                tim2_irq_handler
 .text.ppm_arch_init
                0x0800f9d0       0xd0 /home/woz/lisa-m-team4938/paparazzi/var/ECE_2012/ap/arch/stm32/subsystems/radio_control/ppm_arch.o
                0x0800f9d0                ppm_arch_init
 .text.dl_parse_msg
                0x0800faa0      0xb78 /home/woz/lisa-m-team4938/paparazzi/var/ECE_2012/ap/firmwares/fixedwing/datalink.o
                0x0800faa0                dl_parse_msg
 .text.h_ctl_init
                0x08010618       0xbc /home/woz/lisa-m-team4938/paparazzi/var/ECE_2012/ap/firmwares/fixedwing/stabilization/stabilization_attitude.o
                0x08010618                h_ctl_init
 *fill*         0x080106d4        0x4 00
 .text.h_ctl_course_loop
                0x080106d8      0x2d8 /home/woz/lisa-m-team4938/paparazzi/var/ECE_2012/ap/firmwares/fixedwing/stabilization/stabilization_attitude.o
                0x080106d8                h_ctl_course_loop
 .text.h_ctl_attitude_loop
                0x080109b0      0x290 /home/woz/lisa-m-team4938/paparazzi/var/ECE_2012/ap/firmwares/fixedwing/stabilization/stabilization_attitude.o
                0x080109b0                h_ctl_attitude_loop
 .text.v_ctl_init
                0x08010c40       0xe0 /home/woz/lisa-m-team4938/paparazzi/var/ECE_2012/ap/firmwares/fixedwing/guidance/guidance_v.o
                0x08010c40                v_ctl_init
 .text.v_ctl_altitude_loop
                0x08010d20       0xa0 /home/woz/lisa-m-team4938/paparazzi/var/ECE_2012/ap/firmwares/fixedwing/guidance/guidance_v.o
                0x08010d20                v_ctl_altitude_loop
 .text.v_ctl_climb_loop
                0x08010dc0      0x390 /home/woz/lisa-m-team4938/paparazzi/var/ECE_2012/ap/firmwares/fixedwing/guidance/guidance_v.o
                0x08010dc0                v_ctl_climb_loop
 .text.v_ctl_throttle_slew
                0x08011150       0x58 /home/woz/lisa-m-team4938/paparazzi/var/ECE_2012/ap/firmwares/fixedwing/guidance/guidance_v.o
                0x08011150                v_ctl_throttle_slew
 .text.imu_init
                0x080111a8      0x150 /home/woz/lisa-m-team4938/paparazzi/var/ECE_2012/ap/subsystems/imu.o
                0x080111a8                imu_init
 .text.send_i2c_msg_with_retry
                0x080112f8       0x50 /home/woz/lisa-m-team4938/paparazzi/var/ECE_2012/ap/subsystems/imu/imu_aspirin.o
 .text.configure_accel
                0x08011348       0x2e /home/woz/lisa-m-team4938/paparazzi/var/ECE_2012/ap/subsystems/imu/imu_aspirin.o
 *fill*         0x08011376        0x2 00
 .text.imu_periodic
                0x08011378       0x9c /home/woz/lisa-m-team4938/paparazzi/var/ECE_2012/ap/subsystems/imu/imu_aspirin.o
                0x08011378                imu_periodic
 .text.imu_impl_init
                0x08011414       0x40 /home/woz/lisa-m-team4938/paparazzi/var/ECE_2012/ap/subsystems/imu/imu_aspirin.o
                0x08011414                imu_impl_init
 .text.dma1_c4_irq_handler
                0x08011454       0x68 /home/woz/lisa-m-team4938/paparazzi/var/ECE_2012/ap/arch/stm32/subsystems/imu/imu_aspirin_arch.o
                0x08011454                dma1_c4_irq_handler
 .text.exti15_10_irq_handler
                0x080114bc       0x1a /home/woz/lisa-m-team4938/paparazzi/var/ECE_2012/ap/arch/stm32/subsystems/imu/imu_aspirin_arch.o
                0x080114bc                exti15_10_irq_handler
 *fill*         0x080114d6        0x2 00
 .text.adxl345_start_reading_data
                0x080114d8       0xc0 /home/woz/lisa-m-team4938/paparazzi/var/ECE_2012/ap/arch/stm32/subsystems/imu/imu_aspirin_arch.o
                0x080114d8                adxl345_start_reading_data
 .text.exti2_irq_handler
                0x08011598       0x18 /home/woz/lisa-m-team4938/paparazzi/var/ECE_2012/ap/arch/stm32/subsystems/imu/imu_aspirin_arch.o
                0x08011598                exti2_irq_handler
 .text.adxl345_clear_rx_buf
                0x080115b0        0xc /home/woz/lisa-m-team4938/paparazzi/var/ECE_2012/ap/arch/stm32/subsystems/imu/imu_aspirin_arch.o
                0x080115b0                adxl345_clear_rx_buf
 .text.adxl345_write_to_reg
                0x080115bc       0x54 /home/woz/lisa-m-team4938/paparazzi/var/ECE_2012/ap/arch/stm32/subsystems/imu/imu_aspirin_arch.o
                0x080115bc                adxl345_write_to_reg
 .text.imu_aspirin_arch_init
                0x08011610      0x154 /home/woz/lisa-m-team4938/paparazzi/var/ECE_2012/ap/arch/stm32/subsystems/imu/imu_aspirin_arch.o
                0x08011610                imu_aspirin_arch_init
 .text.imu_aspirin_arch_int_disable
                0x08011764       0x38 /home/woz/lisa-m-team4938/paparazzi/var/ECE_2012/ap/arch/stm32/subsystems/imu/imu_aspirin_arch.o
                0x08011764                imu_aspirin_arch_int_disable
 .text.imu_aspirin_arch_int_enable
                0x0801179c       0x34 /home/woz/lisa-m-team4938/paparazzi/var/ECE_2012/ap/arch/stm32/subsystems/imu/imu_aspirin_arch.o
                0x0801179c                imu_aspirin_arch_int_enable
 .text.hmc5843_periodic
                0x080117d0       0xe0 /home/woz/lisa-m-team4938/paparazzi/var/ECE_2012/ap/peripherals/hmc5843.o
                0x080117d0                hmc5843_periodic
 .text.hmc5843_idle_task
                0x080118b0       0xdc /home/woz/lisa-m-team4938/paparazzi/var/ECE_2012/ap/peripherals/hmc5843.o
                0x080118b0                hmc5843_idle_task
 .text.hmc5843_init
                0x0801198c       0x14 /home/woz/lisa-m-team4938/paparazzi/var/ECE_2012/ap/peripherals/hmc5843.o
                0x0801198c                hmc5843_init
 .text.exti9_5_irq_handler
                0x080119a0       0x16 /home/woz/lisa-m-team4938/paparazzi/var/ECE_2012/ap/arch/stm32/peripherals/hmc5843_arch.o
                0x080119a0                exti9_5_irq_handler
 *fill*         0x080119b6        0x2 00
 .text.hmc5843_arch_init
                0x080119b8       0x2c /home/woz/lisa-m-team4938/paparazzi/var/ECE_2012/ap/arch/stm32/peripherals/hmc5843_arch.o
                0x080119b8                hmc5843_arch_init
 .text.ahrs_aligner_init
                0x080119e4       0x40 /home/woz/lisa-m-team4938/paparazzi/var/ECE_2012/ap/subsystems/ahrs/ahrs_aligner.o
                0x080119e4                ahrs_aligner_init
 .text.ahrs_aligner_run
                0x08011a24      0x188 /home/woz/lisa-m-team4938/paparazzi/var/ECE_2012/ap/subsystems/ahrs/ahrs_aligner.o
                0x08011a24                ahrs_aligner_run
 .text.Vector_Dot_Product
                0x08011bac       0x34 /home/woz/lisa-m-team4938/paparazzi/var/ECE_2012/ap/subsystems/ahrs/ahrs_float_dcm.o
 .text.Vector_Cross_Product
                0x08011be0       0x5e /home/woz/lisa-m-team4938/paparazzi/var/ECE_2012/ap/subsystems/ahrs/ahrs_float_dcm.o
 .text.Vector_Scale
                0x08011c3e       0x28 /home/woz/lisa-m-team4938/paparazzi/var/ECE_2012/ap/subsystems/ahrs/ahrs_float_dcm.o
 .text.Vector_Add
                0x08011c66       0x28 /home/woz/lisa-m-team4938/paparazzi/var/ECE_2012/ap/subsystems/ahrs/ahrs_float_dcm.o
 *fill*         0x08011c8e        0x2 00
 .text.set_dcm_matrix_from_rmat
                0x08011c90       0x20 /home/woz/lisa-m-team4938/paparazzi/var/ECE_2012/ap/subsystems/ahrs/ahrs_float_dcm.o
 .text.ahrs_update_mag
                0x08011cb0        0x2 /home/woz/lisa-m-team4938/paparazzi/var/ECE_2012/ap/subsystems/ahrs/ahrs_float_dcm.o
                0x08011cb0                ahrs_update_mag
 *fill*         0x08011cb2        0x2 00
 .text.Normalize
                0x08011cb4      0x20c /home/woz/lisa-m-team4938/paparazzi/var/ECE_2012/ap/subsystems/ahrs/ahrs_float_dcm.o
                0x08011cb4                Normalize
 .text.Drift_correction
                0x08011ec0      0x290 /home/woz/lisa-m-team4938/paparazzi/var/ECE_2012/ap/subsystems/ahrs/ahrs_float_dcm.o
                0x08011ec0                Drift_correction
 .text.ahrs_update_accel
                0x08012150      0x100 /home/woz/lisa-m-team4938/paparazzi/var/ECE_2012/ap/subsystems/ahrs/ahrs_float_dcm.o
                0x08012150                ahrs_update_accel
 .text.ahrs_init
                0x08012250       0xe0 /home/woz/lisa-m-team4938/paparazzi/var/ECE_2012/ap/subsystems/ahrs/ahrs_float_dcm.o
                0x08012250                ahrs_init
 .text.compute_body_orientation_and_rates
                0x08012330      0x3c0 /home/woz/lisa-m-team4938/paparazzi/var/ECE_2012/ap/subsystems/ahrs/ahrs_float_dcm.o
 .text.ahrs_update_fw_estimator
                0x080126f0      0x2c0 /home/woz/lisa-m-team4938/paparazzi/var/ECE_2012/ap/subsystems/ahrs/ahrs_float_dcm.o
                0x080126f0                ahrs_update_fw_estimator
 .text.Matrix_update
                0x080129b0      0x128 /home/woz/lisa-m-team4938/paparazzi/var/ECE_2012/ap/subsystems/ahrs/ahrs_float_dcm.o
                0x080129b0                Matrix_update
 .text.ahrs_propagate
                0x08012ad8       0x6c /home/woz/lisa-m-team4938/paparazzi/var/ECE_2012/ap/subsystems/ahrs/ahrs_float_dcm.o
                0x08012ad8                ahrs_propagate
 *fill*         0x08012b44        0x4 00
 .text.ahrs_align
                0x08012b48      0x448 /home/woz/lisa-m-team4938/paparazzi/var/ECE_2012/ap/subsystems/ahrs/ahrs_float_dcm.o
                0x08012b48                ahrs_align
 .text.gps_impl_init
                0x08012f90       0x1c /home/woz/lisa-m-team4938/paparazzi/var/ECE_2012/ap/subsystems/gps/gps_ubx.o
                0x08012f90                gps_impl_init
 .text.gps_ubx_parse
                0x08012fac      0x100 /home/woz/lisa-m-team4938/paparazzi/var/ECE_2012/ap/subsystems/gps/gps_ubx.o
                0x08012fac                gps_ubx_parse
 *fill*         0x080130ac        0x4 00
 .text.gps_ubx_read_message
                0x080130b0      0x368 /home/woz/lisa-m-team4938/paparazzi/var/ECE_2012/ap/subsystems/gps/gps_ubx.o
                0x080130b0                gps_ubx_read_message
 .text.gps_init
                0x08013418       0x10 /home/woz/lisa-m-team4938/paparazzi/var/ECE_2012/ap/subsystems/gps.o
                0x08013418                gps_init
 .text.nav_init_stage
                0x08013428       0x58 /home/woz/lisa-m-team4938/paparazzi/var/ECE_2012/ap/subsystems/nav.o
                0x08013428                nav_init_stage
 .text.nav_approaching_xy
                0x08013480       0xa8 /home/woz/lisa-m-team4938/paparazzi/var/ECE_2012/ap/subsystems/nav.o
                0x08013480                nav_approaching_xy
 .text.compute_dist2_to_home
                0x08013528       0x68 /home/woz/lisa-m-team4938/paparazzi/var/ECE_2012/ap/subsystems/nav.o
                0x08013528                compute_dist2_to_home
 .text.nav_update_waypoints_alt
                0x08013590       0x38 /home/woz/lisa-m-team4938/paparazzi/var/ECE_2012/ap/subsystems/nav.o
                0x08013590                nav_update_waypoints_alt
 .text.common_nav_periodic_task_4Hz
                0x080135c8       0x34 /home/woz/lisa-m-team4938/paparazzi/var/ECE_2012/ap/subsystems/nav.o
                0x080135c8                common_nav_periodic_task_4Hz
 .text.nav_move_waypoint
                0x080135fc       0xc4 /home/woz/lisa-m-team4938/paparazzi/var/ECE_2012/ap/subsystems/nav.o
                0x080135fc                nav_move_waypoint
 .text.nav_set_altitude
                0x080136c0       0x40 /home/woz/lisa-m-team4938/paparazzi/var/ECE_2012/ap/subsystems/nav.o
 .text.nav_init
                0x08013700       0x4c /home/woz/lisa-m-team4938/paparazzi/var/ECE_2012/ap/subsystems/nav.o
                0x08013700                nav_init
 .text.nav_without_gps
                0x0801374c       0x3c /home/woz/lisa-m-team4938/paparazzi/var/ECE_2012/ap/subsystems/nav.o
                0x0801374c                nav_without_gps
 .text.nav_eight_init
                0x08013788        0xc /home/woz/lisa-m-team4938/paparazzi/var/ECE_2012/ap/subsystems/nav.o
                0x08013788                nav_eight_init
 .text.nav_oval_init
                0x08013794       0x18 /home/woz/lisa-m-team4938/paparazzi/var/ECE_2012/ap/subsystems/nav.o
                0x08013794                nav_oval_init
 *fill*         0x080137ac        0x4 00
 .text.nav_reset_reference
                0x080137b0       0xf0 /home/woz/lisa-m-team4938/paparazzi/var/ECE_2012/ap/subsystems/nav.o
                0x080137b0                nav_reset_reference
 .text.fly_to_xy
                0x080138a0      0x208 /home/woz/lisa-m-team4938/paparazzi/var/ECE_2012/ap/subsystems/nav.o
                0x080138a0                fly_to_xy
 .text.nav_route_xy
                0x08013aa8      0x194 /home/woz/lisa-m-team4938/paparazzi/var/ECE_2012/ap/subsystems/nav.o
                0x08013aa8                nav_route_xy
 *fill*         0x08013c3c        0x4 00
 .text.nav_circle_XY
                0x08013c40      0x330 /home/woz/lisa-m-team4938/paparazzi/var/ECE_2012/ap/subsystems/nav.o
                0x08013c40                nav_circle_XY
 .text.nav_oval
                0x08013f70      0x4c0 /home/woz/lisa-m-team4938/paparazzi/var/ECE_2012/ap/subsystems/nav.o
                0x08013f70                nav_oval
 .text.nav_eight
                0x08014430      0x530 /home/woz/lisa-m-team4938/paparazzi/var/ECE_2012/ap/subsystems/nav.o
                0x08014430                nav_eight
 .text.nav_home
                0x08014960       0x60 /home/woz/lisa-m-team4938/paparazzi/var/ECE_2012/ap/subsystems/nav.o
                0x08014960                nav_home
 .text.nav_periodic_task
                0x080149c0      0xaa0 /home/woz/lisa-m-team4938/paparazzi/var/ECE_2012/ap/subsystems/nav.o
                0x080149c0                nav_periodic_task
 .text.nav_init_block
                0x08015460       0x28 /home/woz/lisa-m-team4938/paparazzi/var/ECE_2012/ap/subsystems/navigation/common_flight_plan.o
                0x08015460                nav_init_block
 .text.nav_goto_block
                0x08015488       0x2c /home/woz/lisa-m-team4938/paparazzi/var/ECE_2012/ap/subsystems/navigation/common_flight_plan.o
                0x08015488                nav_goto_block
 .text.traffic_info_init
                0x080154b4       0x24 /home/woz/lisa-m-team4938/paparazzi/var/ECE_2012/ap/subsystems/navigation/traffic_info.o
                0x080154b4                traffic_info_init
 .text.nav_survey_rectangle_init
                0x080154d8      0x2f0 /home/woz/lisa-m-team4938/paparazzi/var/ECE_2012/ap/subsystems/navigation/nav_survey_rectangle.o
                0x080154d8                nav_survey_rectangle_init
 .text.nav_survey_rectangle
                0x080157c8      0x650 /home/woz/lisa-m-team4938/paparazzi/var/ECE_2012/ap/subsystems/navigation/nav_survey_rectangle.o
                0x080157c8                nav_survey_rectangle
 .text.nav_line_init
                0x08015e18        0xc /home/woz/lisa-m-team4938/paparazzi/var/ECE_2012/ap/subsystems/navigation/nav_line.o
                0x08015e18                nav_line_init
 *fill*         0x08015e24        0x4 00
 .text.nav_line
                0x08015e28      0xa38 /home/woz/lisa-m-team4938/paparazzi/var/ECE_2012/ap/subsystems/navigation/nav_line.o
                0x08015e28                nav_line
 .text.ADC_Init
                0x08016860       0x4c /opt/paparazzi/arm-multilib/lib/gcc/arm-none-eabi/4.4.5/../../../../arm-none-eabi/lib/libstm32.a(stm32_adc.o)
                0x08016860                ADC_Init
 .text.ADC_Cmd  0x080168ac       0x14 /opt/paparazzi/arm-multilib/lib/gcc/arm-none-eabi/4.4.5/../../../../arm-none-eabi/lib/libstm32.a(stm32_adc.o)
                0x080168ac                ADC_Cmd
 .text.ADC_ITConfig
                0x080168c0       0x14 /opt/paparazzi/arm-multilib/lib/gcc/arm-none-eabi/4.4.5/../../../../arm-none-eabi/lib/libstm32.a(stm32_adc.o)
                0x080168c0                ADC_ITConfig
 .text.ADC_ResetCalibration
                0x080168d4        0xa /opt/paparazzi/arm-multilib/lib/gcc/arm-none-eabi/4.4.5/../../../../arm-none-eabi/lib/libstm32.a(stm32_adc.o)
                0x080168d4                ADC_ResetCalibration
 .text.ADC_GetResetCalibrationStatus
                0x080168de        0xa /opt/paparazzi/arm-multilib/lib/gcc/arm-none-eabi/4.4.5/../../../../arm-none-eabi/lib/libstm32.a(stm32_adc.o)
                0x080168de                ADC_GetResetCalibrationStatus
 .text.ADC_StartCalibration
                0x080168e8        0xa /opt/paparazzi/arm-multilib/lib/gcc/arm-none-eabi/4.4.5/../../../../arm-none-eabi/lib/libstm32.a(stm32_adc.o)
                0x080168e8                ADC_StartCalibration
 .text.ADC_GetCalibrationStatus
                0x080168f2        0xa /opt/paparazzi/arm-multilib/lib/gcc/arm-none-eabi/4.4.5/../../../../arm-none-eabi/lib/libstm32.a(stm32_adc.o)
                0x080168f2                ADC_GetCalibrationStatus
 .text.ADC_ExternalTrigInjectedConvConfig
                0x080168fc        0xe /opt/paparazzi/arm-multilib/lib/gcc/arm-none-eabi/4.4.5/../../../../arm-none-eabi/lib/libstm32.a(stm32_adc.o)
                0x080168fc                ADC_ExternalTrigInjectedConvConfig
 .text.ADC_ExternalTrigInjectedConvCmd
                0x0801690a       0x14 /opt/paparazzi/arm-multilib/lib/gcc/arm-none-eabi/4.4.5/../../../../arm-none-eabi/lib/libstm32.a(stm32_adc.o)
                0x0801690a                ADC_ExternalTrigInjectedConvCmd
 .text.ADC_InjectedChannelConfig
                0x0801691e       0x68 /opt/paparazzi/arm-multilib/lib/gcc/arm-none-eabi/4.4.5/../../../../arm-none-eabi/lib/libstm32.a(stm32_adc.o)
                0x0801691e                ADC_InjectedChannelConfig
 .text.ADC_InjectedSequencerLengthConfig
                0x08016986       0x10 /opt/paparazzi/arm-multilib/lib/gcc/arm-none-eabi/4.4.5/../../../../arm-none-eabi/lib/libstm32.a(stm32_adc.o)
                0x08016986                ADC_InjectedSequencerLengthConfig
 .text.ADC_GetInjectedConversionValue
                0x08016996        0x8 /opt/paparazzi/arm-multilib/lib/gcc/arm-none-eabi/4.4.5/../../../../arm-none-eabi/lib/libstm32.a(stm32_adc.o)
                0x08016996                ADC_GetInjectedConversionValue
 .text.ADC_ClearITPendingBit
                0x0801699e        0x8 /opt/paparazzi/arm-multilib/lib/gcc/arm-none-eabi/4.4.5/../../../../arm-none-eabi/lib/libstm32.a(stm32_adc.o)
                0x0801699e                ADC_ClearITPendingBit
 *fill*         0x080169a6        0x2 00
 .text.TIM_TimeBaseInit
                0x080169a8       0x40 /opt/paparazzi/arm-multilib/lib/gcc/arm-none-eabi/4.4.5/../../../../arm-none-eabi/lib/libstm32.a(stm32_tim.o)
                0x080169a8                TIM_TimeBaseInit
 .text.TIM_OC1Init
                0x080169e8       0x94 /opt/paparazzi/arm-multilib/lib/gcc/arm-none-eabi/4.4.5/../../../../arm-none-eabi/lib/libstm32.a(stm32_tim.o)
                0x080169e8                TIM_OC1Init
 .text.TIM_OC2Init
                0x08016a7c       0x9c /opt/paparazzi/arm-multilib/lib/gcc/arm-none-eabi/4.4.5/../../../../arm-none-eabi/lib/libstm32.a(stm32_tim.o)
                0x08016a7c                TIM_OC2Init
 .text.TIM_OC3Init
                0x08016b18       0x98 /opt/paparazzi/arm-multilib/lib/gcc/arm-none-eabi/4.4.5/../../../../arm-none-eabi/lib/libstm32.a(stm32_tim.o)
                0x08016b18                TIM_OC3Init
 .text.TIM_OC4Init
                0x08016bb0       0x7c /opt/paparazzi/arm-multilib/lib/gcc/arm-none-eabi/4.4.5/../../../../arm-none-eabi/lib/libstm32.a(stm32_tim.o)
                0x08016bb0                TIM_OC4Init
 .text.TIM_TimeBaseStructInit
                0x08016c2c       0x12 /opt/paparazzi/arm-multilib/lib/gcc/arm-none-eabi/4.4.5/../../../../arm-none-eabi/lib/libstm32.a(stm32_tim.o)
                0x08016c2c                TIM_TimeBaseStructInit
 .text.TIM_Cmd  0x08016c3e       0x1a /opt/paparazzi/arm-multilib/lib/gcc/arm-none-eabi/4.4.5/../../../../arm-none-eabi/lib/libstm32.a(stm32_tim.o)
                0x08016c3e                TIM_Cmd
 .text.TIM_CtrlPWMOutputs
                0x08016c58       0x20 /opt/paparazzi/arm-multilib/lib/gcc/arm-none-eabi/4.4.5/../../../../arm-none-eabi/lib/libstm32.a(stm32_tim.o)
                0x08016c58                TIM_CtrlPWMOutputs
 .text.TIM_ITConfig
                0x08016c78       0x16 /opt/paparazzi/arm-multilib/lib/gcc/arm-none-eabi/4.4.5/../../../../arm-none-eabi/lib/libstm32.a(stm32_tim.o)
                0x08016c78                TIM_ITConfig
 .text.TIM_ARRPreloadConfig
                0x08016c8e       0x1a /opt/paparazzi/arm-multilib/lib/gcc/arm-none-eabi/4.4.5/../../../../arm-none-eabi/lib/libstm32.a(stm32_tim.o)
                0x08016c8e                TIM_ARRPreloadConfig
 .text.TIM_OC1PreloadConfig
                0x08016ca8       0x12 /opt/paparazzi/arm-multilib/lib/gcc/arm-none-eabi/4.4.5/../../../../arm-none-eabi/lib/libstm32.a(stm32_tim.o)
                0x08016ca8                TIM_OC1PreloadConfig
 .text.TIM_OC2PreloadConfig
                0x08016cba       0x14 /opt/paparazzi/arm-multilib/lib/gcc/arm-none-eabi/4.4.5/../../../../arm-none-eabi/lib/libstm32.a(stm32_tim.o)
                0x08016cba                TIM_OC2PreloadConfig
 .text.TIM_OC3PreloadConfig
                0x08016cce       0x12 /opt/paparazzi/arm-multilib/lib/gcc/arm-none-eabi/4.4.5/../../../../arm-none-eabi/lib/libstm32.a(stm32_tim.o)
                0x08016cce                TIM_OC3PreloadConfig
 .text.TIM_OC4PreloadConfig
                0x08016ce0       0x14 /opt/paparazzi/arm-multilib/lib/gcc/arm-none-eabi/4.4.5/../../../../arm-none-eabi/lib/libstm32.a(stm32_tim.o)
                0x08016ce0                TIM_OC4PreloadConfig
 .text.TIM_SelectOutputTrigger
                0x08016cf4       0x18 /opt/paparazzi/arm-multilib/lib/gcc/arm-none-eabi/4.4.5/../../../../arm-none-eabi/lib/libstm32.a(stm32_tim.o)
                0x08016cf4                TIM_SelectOutputTrigger
 .text.TIM_SetCompare1
                0x08016d0c        0x4 /opt/paparazzi/arm-multilib/lib/gcc/arm-none-eabi/4.4.5/../../../../arm-none-eabi/lib/libstm32.a(stm32_tim.o)
                0x08016d0c                TIM_SetCompare1
 .text.TIM_SetCompare2
                0x08016d10        0x4 /opt/paparazzi/arm-multilib/lib/gcc/arm-none-eabi/4.4.5/../../../../arm-none-eabi/lib/libstm32.a(stm32_tim.o)
                0x08016d10                TIM_SetCompare2
 .text.TIM_SetCompare3
                0x08016d14        0x4 /opt/paparazzi/arm-multilib/lib/gcc/arm-none-eabi/4.4.5/../../../../arm-none-eabi/lib/libstm32.a(stm32_tim.o)
                0x08016d14                TIM_SetCompare3
 .text.TIM_SetCompare4
                0x08016d18        0x6 /opt/paparazzi/arm-multilib/lib/gcc/arm-none-eabi/4.4.5/../../../../arm-none-eabi/lib/libstm32.a(stm32_tim.o)
                0x08016d18                TIM_SetCompare4
 .text.TIM_SetIC1Prescaler
                0x08016d1e       0x18 /opt/paparazzi/arm-multilib/lib/gcc/arm-none-eabi/4.4.5/../../../../arm-none-eabi/lib/libstm32.a(stm32_tim.o)
                0x08016d1e                TIM_SetIC1Prescaler
 .text.TIM_SetIC2Prescaler
                0x08016d36       0x1a /opt/paparazzi/arm-multilib/lib/gcc/arm-none-eabi/4.4.5/../../../../arm-none-eabi/lib/libstm32.a(stm32_tim.o)
                0x08016d36                TIM_SetIC2Prescaler
 .text.TIM_SetIC3Prescaler
                0x08016d50       0x18 /opt/paparazzi/arm-multilib/lib/gcc/arm-none-eabi/4.4.5/../../../../arm-none-eabi/lib/libstm32.a(stm32_tim.o)
                0x08016d50                TIM_SetIC3Prescaler
 .text.TIM_SetIC4Prescaler
                0x08016d68       0x1a /opt/paparazzi/arm-multilib/lib/gcc/arm-none-eabi/4.4.5/../../../../arm-none-eabi/lib/libstm32.a(stm32_tim.o)
                0x08016d68                TIM_SetIC4Prescaler
 .text.TIM_GetCapture2
                0x08016d82        0x6 /opt/paparazzi/arm-multilib/lib/gcc/arm-none-eabi/4.4.5/../../../../arm-none-eabi/lib/libstm32.a(stm32_tim.o)
                0x08016d82                TIM_GetCapture2
 .text.TIM_GetITStatus
                0x08016d88       0x16 /opt/paparazzi/arm-multilib/lib/gcc/arm-none-eabi/4.4.5/../../../../arm-none-eabi/lib/libstm32.a(stm32_tim.o)
                0x08016d88                TIM_GetITStatus
 .text.TIM_ClearITPendingBit
                0x08016d9e        0x8 /opt/paparazzi/arm-multilib/lib/gcc/arm-none-eabi/4.4.5/../../../../arm-none-eabi/lib/libstm32.a(stm32_tim.o)
                0x08016d9e                TIM_ClearITPendingBit
 .text.TI1_Config
                0x08016da6       0x4a /opt/paparazzi/arm-multilib/lib/gcc/arm-none-eabi/4.4.5/../../../../arm-none-eabi/lib/libstm32.a(stm32_tim.o)
 .text.TI2_Config
                0x08016df0       0x4e /opt/paparazzi/arm-multilib/lib/gcc/arm-none-eabi/4.4.5/../../../../arm-none-eabi/lib/libstm32.a(stm32_tim.o)
 .text.TIM_ICInit
                0x08016e3e       0xd8 /opt/paparazzi/arm-multilib/lib/gcc/arm-none-eabi/4.4.5/../../../../arm-none-eabi/lib/libstm32.a(stm32_tim.o)
                0x08016e3e                TIM_ICInit
 *fill*         0x08016f16        0x2 00
 .text.DMA_DeInit
                0x08016f18       0xec /opt/paparazzi/arm-multilib/lib/gcc/arm-none-eabi/4.4.5/../../../../arm-none-eabi/lib/libstm32.a(stm32_dma.o)
                0x08016f18                DMA_DeInit
 .text.DMA_Init
                0x08017004       0x40 /opt/paparazzi/arm-multilib/lib/gcc/arm-none-eabi/4.4.5/../../../../arm-none-eabi/lib/libstm32.a(stm32_dma.o)
                0x08017004                DMA_Init
 .text.DMA_Cmd  0x08017044       0x14 /opt/paparazzi/arm-multilib/lib/gcc/arm-none-eabi/4.4.5/../../../../arm-none-eabi/lib/libstm32.a(stm32_dma.o)
                0x08017044                DMA_Cmd
 .text.DMA_ITConfig
                0x08017058       0x12 /opt/paparazzi/arm-multilib/lib/gcc/arm-none-eabi/4.4.5/../../../../arm-none-eabi/lib/libstm32.a(stm32_dma.o)
                0x08017058                DMA_ITConfig
 *fill*         0x0801706a        0x2 00
 .text.DMA_GetITStatus
                0x0801706c       0x20 /opt/paparazzi/arm-multilib/lib/gcc/arm-none-eabi/4.4.5/../../../../arm-none-eabi/lib/libstm32.a(stm32_dma.o)
                0x0801706c                DMA_GetITStatus
 .text.DMA_ClearITPendingBit
                0x0801708c       0x18 /opt/paparazzi/arm-multilib/lib/gcc/arm-none-eabi/4.4.5/../../../../arm-none-eabi/lib/libstm32.a(stm32_dma.o)
                0x0801708c                DMA_ClearITPendingBit
 .text.GPIO_Init
                0x080170a4       0x94 /opt/paparazzi/arm-multilib/lib/gcc/arm-none-eabi/4.4.5/../../../../arm-none-eabi/lib/libstm32.a(stm32_gpio.o)
                0x080170a4                GPIO_Init
 .text.GPIO_ReadInputDataBit
                0x08017138        0xc /opt/paparazzi/arm-multilib/lib/gcc/arm-none-eabi/4.4.5/../../../../arm-none-eabi/lib/libstm32.a(stm32_gpio.o)
                0x08017138                GPIO_ReadInputDataBit
 .text.GPIO_SetBits
                0x08017144        0x4 /opt/paparazzi/arm-multilib/lib/gcc/arm-none-eabi/4.4.5/../../../../arm-none-eabi/lib/libstm32.a(stm32_gpio.o)
                0x08017144                GPIO_SetBits
 .text.GPIO_ResetBits
                0x08017148        0x4 /opt/paparazzi/arm-multilib/lib/gcc/arm-none-eabi/4.4.5/../../../../arm-none-eabi/lib/libstm32.a(stm32_gpio.o)
                0x08017148                GPIO_ResetBits
 .text.GPIO_PinRemapConfig
                0x0801714c       0x60 /opt/paparazzi/arm-multilib/lib/gcc/arm-none-eabi/4.4.5/../../../../arm-none-eabi/lib/libstm32.a(stm32_gpio.o)
                0x0801714c                GPIO_PinRemapConfig
 .text.GPIO_EXTILineConfig
                0x080171ac       0x34 /opt/paparazzi/arm-multilib/lib/gcc/arm-none-eabi/4.4.5/../../../../arm-none-eabi/lib/libstm32.a(stm32_gpio.o)
                0x080171ac                GPIO_EXTILineConfig
 .text.USART_Cmd
                0x080171e0       0x1a /opt/paparazzi/arm-multilib/lib/gcc/arm-none-eabi/4.4.5/../../../../arm-none-eabi/lib/libstm32.a(stm32_usart.o)
                0x080171e0                USART_Cmd
 .text.USART_ITConfig
                0x080171fa       0x36 /opt/paparazzi/arm-multilib/lib/gcc/arm-none-eabi/4.4.5/../../../../arm-none-eabi/lib/libstm32.a(stm32_usart.o)
                0x080171fa                USART_ITConfig
 .text.USART_SendData
                0x08017230        0x8 /opt/paparazzi/arm-multilib/lib/gcc/arm-none-eabi/4.4.5/../../../../arm-none-eabi/lib/libstm32.a(stm32_usart.o)
                0x08017230                USART_SendData
 .text.USART_ReceiveData
                0x08017238        0x8 /opt/paparazzi/arm-multilib/lib/gcc/arm-none-eabi/4.4.5/../../../../arm-none-eabi/lib/libstm32.a(stm32_usart.o)
                0x08017238                USART_ReceiveData
 .text.USART_GetITStatus
                0x08017240       0x46 /opt/paparazzi/arm-multilib/lib/gcc/arm-none-eabi/4.4.5/../../../../arm-none-eabi/lib/libstm32.a(stm32_usart.o)
                0x08017240                USART_GetITStatus
 *fill*         0x08017286        0x2 00
 .text.USART_Init
                0x08017288       0x90 /opt/paparazzi/arm-multilib/lib/gcc/arm-none-eabi/4.4.5/../../../../arm-none-eabi/lib/libstm32.a(stm32_usart.o)
                0x08017288                USART_Init
 .text.EXTI_Init
                0x08017318       0x84 /opt/paparazzi/arm-multilib/lib/gcc/arm-none-eabi/4.4.5/../../../../arm-none-eabi/lib/libstm32.a(stm32_exti.o)
                0x08017318                EXTI_Init
 .text.EXTI_GetITStatus
                0x0801739c       0x1c /opt/paparazzi/arm-multilib/lib/gcc/arm-none-eabi/4.4.5/../../../../arm-none-eabi/lib/libstm32.a(stm32_exti.o)
                0x0801739c                EXTI_GetITStatus
 .text.EXTI_ClearITPendingBit
                0x080173b8        0xc /opt/paparazzi/arm-multilib/lib/gcc/arm-none-eabi/4.4.5/../../../../arm-none-eabi/lib/libstm32.a(stm32_exti.o)
                0x080173b8                EXTI_ClearITPendingBit
 .text.I2C_Cmd  0x080173c4       0x1a /opt/paparazzi/arm-multilib/lib/gcc/arm-none-eabi/4.4.5/../../../../arm-none-eabi/lib/libstm32.a(stm32_i2c.o)
                0x080173c4                I2C_Cmd
 .text.I2C_GenerateSTART
                0x080173de       0x1a /opt/paparazzi/arm-multilib/lib/gcc/arm-none-eabi/4.4.5/../../../../arm-none-eabi/lib/libstm32.a(stm32_i2c.o)
                0x080173de                I2C_GenerateSTART
 .text.I2C_GenerateSTOP
                0x080173f8       0x1a /opt/paparazzi/arm-multilib/lib/gcc/arm-none-eabi/4.4.5/../../../../arm-none-eabi/lib/libstm32.a(stm32_i2c.o)
                0x080173f8                I2C_GenerateSTOP
 .text.I2C_AcknowledgeConfig
                0x08017412       0x1a /opt/paparazzi/arm-multilib/lib/gcc/arm-none-eabi/4.4.5/../../../../arm-none-eabi/lib/libstm32.a(stm32_i2c.o)
                0x08017412                I2C_AcknowledgeConfig
 .text.I2C_ITConfig
                0x0801742c       0x16 /opt/paparazzi/arm-multilib/lib/gcc/arm-none-eabi/4.4.5/../../../../arm-none-eabi/lib/libstm32.a(stm32_i2c.o)
                0x0801742c                I2C_ITConfig
 .text.I2C_SendData
                0x08017442        0x4 /opt/paparazzi/arm-multilib/lib/gcc/arm-none-eabi/4.4.5/../../../../arm-none-eabi/lib/libstm32.a(stm32_i2c.o)
                0x08017442                I2C_SendData
 .text.I2C_ReceiveData
                0x08017446        0x6 /opt/paparazzi/arm-multilib/lib/gcc/arm-none-eabi/4.4.5/../../../../arm-none-eabi/lib/libstm32.a(stm32_i2c.o)
                0x08017446                I2C_ReceiveData
 .text.I2C_Send7bitAddress
                0x0801744c       0x10 /opt/paparazzi/arm-multilib/lib/gcc/arm-none-eabi/4.4.5/../../../../arm-none-eabi/lib/libstm32.a(stm32_i2c.o)
                0x0801744c                I2C_Send7bitAddress
 .text.I2C_SoftwareResetCmd
                0x0801745c       0x1a /opt/paparazzi/arm-multilib/lib/gcc/arm-none-eabi/4.4.5/../../../../arm-none-eabi/lib/libstm32.a(stm32_i2c.o)
                0x0801745c                I2C_SoftwareResetCmd
 .text.I2C_GetLastEvent
                0x08017476       0x10 /opt/paparazzi/arm-multilib/lib/gcc/arm-none-eabi/4.4.5/../../../../arm-none-eabi/lib/libstm32.a(stm32_i2c.o)
                0x08017476                I2C_GetLastEvent
 .text.I2C_GetFlagStatus
                0x08017486       0x34 /opt/paparazzi/arm-multilib/lib/gcc/arm-none-eabi/4.4.5/../../../../arm-none-eabi/lib/libstm32.a(stm32_i2c.o)
                0x08017486                I2C_GetFlagStatus
 .text.I2C_GetITStatus
                0x080174ba       0x1c /opt/paparazzi/arm-multilib/lib/gcc/arm-none-eabi/4.4.5/../../../../arm-none-eabi/lib/libstm32.a(stm32_i2c.o)
                0x080174ba                I2C_GetITStatus
 .text.I2C_ClearITPendingBit
                0x080174d6        0x8 /opt/paparazzi/arm-multilib/lib/gcc/arm-none-eabi/4.4.5/../../../../arm-none-eabi/lib/libstm32.a(stm32_i2c.o)
                0x080174d6                I2C_ClearITPendingBit
 *fill*         0x080174de        0x2 00
 .text.I2C_Init
                0x080174e0       0xe8 /opt/paparazzi/arm-multilib/lib/gcc/arm-none-eabi/4.4.5/../../../../arm-none-eabi/lib/libstm32.a(stm32_i2c.o)
                0x080174e0                I2C_Init
 .text.I2C_DeInit
                0x080175c8       0x44 /opt/paparazzi/arm-multilib/lib/gcc/arm-none-eabi/4.4.5/../../../../arm-none-eabi/lib/libstm32.a(stm32_i2c.o)
                0x080175c8                I2C_DeInit
 .text.SPI_Init
                0x0801760c       0x5a /opt/paparazzi/arm-multilib/lib/gcc/arm-none-eabi/4.4.5/../../../../arm-none-eabi/lib/libstm32.a(stm32_spi.o)
                0x0801760c                SPI_Init
 .text.SPI_Cmd  0x08017666       0x1a /opt/paparazzi/arm-multilib/lib/gcc/arm-none-eabi/4.4.5/../../../../arm-none-eabi/lib/libstm32.a(stm32_spi.o)
                0x08017666                SPI_Cmd
 .text.SPI_I2S_DMACmd
                0x08017680       0x16 /opt/paparazzi/arm-multilib/lib/gcc/arm-none-eabi/4.4.5/../../../../arm-none-eabi/lib/libstm32.a(stm32_spi.o)
                0x08017680                SPI_I2S_DMACmd
 .text.SPI_I2S_SendData
                0x08017696        0x4 /opt/paparazzi/arm-multilib/lib/gcc/arm-none-eabi/4.4.5/../../../../arm-none-eabi/lib/libstm32.a(stm32_spi.o)
                0x08017696                SPI_I2S_SendData
 .text.SPI_I2S_ReceiveData
                0x0801769a        0x6 /opt/paparazzi/arm-multilib/lib/gcc/arm-none-eabi/4.4.5/../../../../arm-none-eabi/lib/libstm32.a(stm32_spi.o)
                0x0801769a                SPI_I2S_ReceiveData
 .text.SPI_I2S_GetFlagStatus
                0x080176a0        0xc /opt/paparazzi/arm-multilib/lib/gcc/arm-none-eabi/4.4.5/../../../../arm-none-eabi/lib/libstm32.a(stm32_spi.o)
                0x080176a0                SPI_I2S_GetFlagStatus
 .text.RCC_ADCCLKConfig
                0x080176ac       0x14 /opt/paparazzi/arm-multilib/lib/gcc/arm-none-eabi/4.4.5/../../../../arm-none-eabi/lib/libstm32.a(stm32_rcc.o)
                0x080176ac                RCC_ADCCLKConfig
 .text.RCC_GetClocksFreq
                0x080176c0       0xa0 /opt/paparazzi/arm-multilib/lib/gcc/arm-none-eabi/4.4.5/../../../../arm-none-eabi/lib/libstm32.a(stm32_rcc.o)
                0x080176c0                RCC_GetClocksFreq
 .text.RCC_AHBPeriphClockCmd
                0x08017760       0x1c /opt/paparazzi/arm-multilib/lib/gcc/arm-none-eabi/4.4.5/../../../../arm-none-eabi/lib/libstm32.a(stm32_rcc.o)
                0x08017760                RCC_AHBPeriphClockCmd
 .text.RCC_APB2PeriphClockCmd
                0x0801777c       0x1c /opt/paparazzi/arm-multilib/lib/gcc/arm-none-eabi/4.4.5/../../../../arm-none-eabi/lib/libstm32.a(stm32_rcc.o)
                0x0801777c                RCC_APB2PeriphClockCmd
 .text.RCC_APB1PeriphClockCmd
                0x08017798       0x1c /opt/paparazzi/arm-multilib/lib/gcc/arm-none-eabi/4.4.5/../../../../arm-none-eabi/lib/libstm32.a(stm32_rcc.o)
                0x08017798                RCC_APB1PeriphClockCmd
 .text.RCC_APB1PeriphResetCmd
                0x080177b4       0x1c /opt/paparazzi/arm-multilib/lib/gcc/arm-none-eabi/4.4.5/../../../../arm-none-eabi/lib/libstm32.a(stm32_rcc.o)
                0x080177b4                RCC_APB1PeriphResetCmd
 .text.NVIC_PriorityGroupConfig
                0x080177d0       0x14 /opt/paparazzi/arm-multilib/lib/gcc/arm-none-eabi/4.4.5/../../../../arm-none-eabi/lib/libstm32.a(stm32_misc.o)
                0x080177d0                NVIC_PriorityGroupConfig
 .text.NVIC_Init
                0x080177e4       0x64 /opt/paparazzi/arm-multilib/lib/gcc/arm-none-eabi/4.4.5/../../../../arm-none-eabi/lib/libstm32.a(stm32_misc.o)
                0x080177e4                NVIC_Init
 .text.NVIC_SetVectorTable
                0x08017848       0x14 /opt/paparazzi/arm-multilib/lib/gcc/arm-none-eabi/4.4.5/../../../../arm-none-eabi/lib/libstm32.a(stm32_misc.o)
                0x08017848                NVIC_SetVectorTable
 .text.rcc_wait_for_osc_ready
                0x0801785c       0x58 /opt/paparazzi/arm-multilib/lib/gcc/arm-none-eabi/4.4.5/../../../../arm-none-eabi/lib/libopencm3_stm32.a(rcc.o)
                0x0801785c                rcc_wait_for_osc_ready
 .text.rcc_osc_on
                0x080178b4       0x4c /opt/paparazzi/arm-multilib/lib/gcc/arm-none-eabi/4.4.5/../../../../arm-none-eabi/lib/libopencm3_stm32.a(rcc.o)
                0x080178b4                rcc_osc_on
 .text.rcc_set_sysclk_source
                0x08017900       0x14 /opt/paparazzi/arm-multilib/lib/gcc/arm-none-eabi/4.4.5/../../../../arm-none-eabi/lib/libopencm3_stm32.a(rcc.o)
                0x08017900                rcc_set_sysclk_source
 .text.rcc_set_pll_multiplication_factor
                0x08017914       0x14 /opt/paparazzi/arm-multilib/lib/gcc/arm-none-eabi/4.4.5/../../../../arm-none-eabi/lib/libopencm3_stm32.a(rcc.o)
                0x08017914                rcc_set_pll_multiplication_factor
 .text.rcc_set_pll_source
                0x08017928       0x14 /opt/paparazzi/arm-multilib/lib/gcc/arm-none-eabi/4.4.5/../../../../arm-none-eabi/lib/libopencm3_stm32.a(rcc.o)
                0x08017928                rcc_set_pll_source
 .text.rcc_set_pllxtpre
                0x0801793c       0x14 /opt/paparazzi/arm-multilib/lib/gcc/arm-none-eabi/4.4.5/../../../../arm-none-eabi/lib/libopencm3_stm32.a(rcc.o)
                0x0801793c                rcc_set_pllxtpre
 .text.rcc_set_adcpre
                0x08017950       0x14 /opt/paparazzi/arm-multilib/lib/gcc/arm-none-eabi/4.4.5/../../../../arm-none-eabi/lib/libopencm3_stm32.a(rcc.o)
                0x08017950                rcc_set_adcpre
 .text.rcc_set_ppre1
                0x08017964       0x14 /opt/paparazzi/arm-multilib/lib/gcc/arm-none-eabi/4.4.5/../../../../arm-none-eabi/lib/libopencm3_stm32.a(rcc.o)
                0x08017964                rcc_set_ppre1
 .text.T.0      0x08017978       0x10 /opt/paparazzi/arm-multilib/lib/gcc/arm-none-eabi/4.4.5/../../../../arm-none-eabi/lib/libopencm3_stm32.a(rcc.o)
 .text.T.1      0x08017988       0x10 /opt/paparazzi/arm-multilib/lib/gcc/arm-none-eabi/4.4.5/../../../../arm-none-eabi/lib/libopencm3_stm32.a(rcc.o)
 .text.rcc_clock_setup_in_hse_12mhz_out_72mhz
                0x08017998       0x84 /opt/paparazzi/arm-multilib/lib/gcc/arm-none-eabi/4.4.5/../../../../arm-none-eabi/lib/libopencm3_stm32.a(rcc.o)
                0x08017998                rcc_clock_setup_in_hse_12mhz_out_72mhz
 .text.usart_set_baudrate
                0x08017a1c       0x24 /opt/paparazzi/arm-multilib/lib/gcc/arm-none-eabi/4.4.5/../../../../arm-none-eabi/lib/libopencm3_stm32.a(usart.o)
                0x08017a1c                usart_set_baudrate
 .text.flash_set_ws
                0x08017a40       0x14 /opt/paparazzi/arm-multilib/lib/gcc/arm-none-eabi/4.4.5/../../../../arm-none-eabi/lib/libopencm3_stm32.a(flash.o)
                0x08017a40                flash_set_ws
 *(.rodata)
 *fill*         0x08017a54        0x4 00
 .rodata        0x08017a58       0x40 /opt/paparazzi/arm-multilib/lib/gcc/arm-none-eabi/4.4.5/../../../../arm-none-eabi/lib/thumb2/libm.a(lib_a-s_atan.o)
 .rodata        0x08017a98       0x10 /opt/paparazzi/arm-multilib/lib/gcc/arm-none-eabi/4.4.5/../../../../arm-none-eabi/lib/thumb2/libm.a(lib_a-s_rint.o)
 .rodata        0x08017aa8       0x20 /opt/paparazzi/arm-multilib/lib/gcc/arm-none-eabi/4.4.5/../../../../arm-none-eabi/lib/thumb2/libm.a(lib_a-sf_atan.o)
 .rodata        0x08017ac8       0x30 /opt/paparazzi/arm-multilib/lib/gcc/arm-none-eabi/4.4.5/../../../../arm-none-eabi/lib/thumb2/libm.a(lib_a-e_exp.o)
 .rodata        0x08017af8       0x30 /opt/paparazzi/arm-multilib/lib/gcc/arm-none-eabi/4.4.5/../../../../arm-none-eabi/lib/thumb2/libm.a(lib_a-e_pow.o)
 .rodata        0x08017b28      0x188 /opt/paparazzi/arm-multilib/lib/gcc/arm-none-eabi/4.4.5/../../../../arm-none-eabi/lib/thumb2/libm.a(lib_a-e_rem_pio2.o)
 .rodata        0x08017cb0      0x398 /opt/paparazzi/arm-multilib/lib/gcc/arm-none-eabi/4.4.5/../../../../arm-none-eabi/lib/thumb2/libm.a(lib_a-ef_rem_pio2.o)
 .rodata        0x08018048       0x50 /opt/paparazzi/arm-multilib/lib/gcc/arm-none-eabi/4.4.5/../../../../arm-none-eabi/lib/thumb2/libm.a(lib_a-k_rem_pio2.o)
 .rodata        0x08018098       0x38 /opt/paparazzi/arm-multilib/lib/gcc/arm-none-eabi/4.4.5/../../../../arm-none-eabi/lib/thumb2/libm.a(lib_a-kf_rem_pio2.o)
 *(.rodata*)
 .rodata.serie_coeff_proj_mercator
                0x080180d0       0x14 /home/woz/lisa-m-team4938/paparazzi/var/ECE_2012/ap/math/pprz_geodetic_float.o
 .rodata.commands_failsafe
                0x080180e4        0x8 /home/woz/lisa-m-team4938/paparazzi/var/ECE_2012/ap/./commands.o
                0x080180e4                commands_failsafe
 .rodata.version
                0x080180ec        0x2 /home/woz/lisa-m-team4938/paparazzi/var/ECE_2012/ap/firmwares/fixedwing/main_ap.o
 .rodata.str1.1
                0x080180ee       0x11 /home/woz/lisa-m-team4938/paparazzi/var/ECE_2012/ap/firmwares/fixedwing/main_ap.o
 *fill*         0x080180ff        0x1 00
 .rodata.C.11.4290
                0x08018100        0x4 /home/woz/lisa-m-team4938/paparazzi/var/ECE_2012/ap/arch/stm32/subsystems/imu/imu_aspirin_arch.o
 .rodata.C.13.4334
                0x08018104       0x2c /home/woz/lisa-m-team4938/paparazzi/var/ECE_2012/ap/arch/stm32/subsystems/imu/imu_aspirin_arch.o
 .rodata.C.12.4333
                0x08018130       0x2c /home/woz/lisa-m-team4938/paparazzi/var/ECE_2012/ap/arch/stm32/subsystems/imu/imu_aspirin_arch.o
 .rodata.nb_waypoint
                0x0801815c        0x1 /home/woz/lisa-m-team4938/paparazzi/var/ECE_2012/ap/subsystems/nav.o
                0x0801815c                nb_waypoint
 .rodata.str1.1
                0x0801815d        0x5 /opt/paparazzi/arm-multilib/lib/gcc/arm-none-eabi/4.4.5/../../../../arm-none-eabi/lib/thumb2/libm.a(lib_a-w_asin.o)
                                  0x6 (size before relaxing)
 .rodata.str1.1
                0x08018162        0x5 /opt/paparazzi/arm-multilib/lib/gcc/arm-none-eabi/4.4.5/../../../../arm-none-eabi/lib/thumb2/libm.a(lib_a-w_cosh.o)
 .rodata.str1.1
                0x08018167        0x4 /opt/paparazzi/arm-multilib/lib/gcc/arm-none-eabi/4.4.5/../../../../arm-none-eabi/lib/thumb2/libm.a(lib_a-w_exp.o)
 .rodata.str1.1
                0x0801816b        0x4 /opt/paparazzi/arm-multilib/lib/gcc/arm-none-eabi/4.4.5/../../../../arm-none-eabi/lib/thumb2/libm.a(lib_a-w_log.o)
                                  0x5 (size before relaxing)
 .rodata.str1.1
                0x0801816f        0x4 /opt/paparazzi/arm-multilib/lib/gcc/arm-none-eabi/4.4.5/../../../../arm-none-eabi/lib/thumb2/libm.a(lib_a-w_pow.o)
 .rodata.str1.1
                0x08018173        0x5 /opt/paparazzi/arm-multilib/lib/gcc/arm-none-eabi/4.4.5/../../../../arm-none-eabi/lib/thumb2/libm.a(lib_a-w_sinh.o)
 .rodata.str1.1
                0x08018178        0x5 /opt/paparazzi/arm-multilib/lib/gcc/arm-none-eabi/4.4.5/../../../../arm-none-eabi/lib/thumb2/libm.a(lib_a-w_sqrt.o)
 .rodata.str1.1
                0x0801817d        0x6 /opt/paparazzi/arm-multilib/lib/gcc/arm-none-eabi/4.4.5/../../../../arm-none-eabi/lib/thumb2/libm.a(lib_a-wf_asin.o)
                                  0x7 (size before relaxing)
 .rodata.str1.1
                0x00000000        0x1 /opt/paparazzi/arm-multilib/lib/gcc/arm-none-eabi/4.4.5/../../../../arm-none-eabi/lib/thumb2/libm.a(lib_a-e_pow.o)
 .rodata.str1.1
                0x08018183        0x2 /opt/paparazzi/arm-multilib/lib/gcc/arm-none-eabi/4.4.5/../../../../arm-none-eabi/lib/thumb2/libc.a(lib_a-impure.o)
 *(.glue_7)
 .glue_7        0x00000000        0x0 linker stubs
 *(.glue_7t)
 .glue_7t       0x00000000        0x0 linker stubs
                0x08018188                . = ALIGN (0x4)
 *fill*         0x08018185        0x3 00
                0x08018188                _etext = .
                0x08018188                _sidata = _etext

.vfp11_veneer   0x08018188        0x0
 .vfp11_veneer  0x00000000        0x0 linker stubs

.v4_bx          0x08018188        0x0
 .v4_bx         0x00000000        0x0 linker stubs

.data           0x20000000     0x37a8 load address 0x08018188
                0x20000000                . = ALIGN (0x4)
                0x20000000                _sdata = .
 *(.data)
 .data          0x20000000        0x1 /opt/paparazzi/arm-multilib/lib/gcc/arm-none-eabi/4.4.5/../../../../arm-none-eabi/lib/thumb2/libm.a(lib_a-s_lib_ver.o)
                0x20000000                __fdlib_version
 *fill*         0x20000001        0x7 00
 .data          0x20000008      0x430 /opt/paparazzi/arm-multilib/lib/gcc/arm-none-eabi/4.4.5/../../../../arm-none-eabi/lib/thumb2/libc.a(lib_a-impure.o)
                0x20000008                _impure_ptr
 *(.data.*)
 .data.fbw_state
                0x20000438        0x4 /home/woz/lisa-m-team4938/paparazzi/var/ECE_2012/ap/./inter_mcu.o
                0x20000438                fbw_state
 .data.ap_state
                0x2000043c        0x4 /home/woz/lisa-m-team4938/paparazzi/var/ECE_2012/ap/./inter_mcu.o
                0x2000043c                ap_state
 .data.pprz_trig_int
                0x20000440     0x3244 /home/woz/lisa-m-team4938/paparazzi/var/ECE_2012/ap/math/pprz_trig_int.o
                0x20000440                pprz_trig_int
 .data.I2C2_InitStruct
                0x20003684       0x10 /home/woz/lisa-m-team4938/paparazzi/var/ECE_2012/ap/arch/stm32/mcu_periph/i2c_arch.o
 .data.pprz_mode
                0x20003694        0x1 /home/woz/lisa-m-team4938/paparazzi/var/ECE_2012/ap/firmwares/fixedwing/main_ap.o
                0x20003694                pprz_mode
 .data.boot.5110
                0x20003695        0x1 /home/woz/lisa-m-team4938/paparazzi/var/ECE_2012/ap/firmwares/fixedwing/main_ap.o
 .data.telemetry_mode_Fbw_DefaultChannel
                0x20003696        0x1 /home/woz/lisa-m-team4938/paparazzi/var/ECE_2012/ap/downlink.o
                0x20003696                telemetry_mode_Fbw_DefaultChannel
 *fill*         0x20003697        0x1 00
 .data.v_ctl_auto_throttle_dash_trim
                0x20003698        0x4 /home/woz/lisa-m-team4938/paparazzi/var/ECE_2012/ap/firmwares/fixedwing/stabilization/stabilization_attitude.o
                0x20003698                v_ctl_auto_throttle_dash_trim
 .data.v_ctl_auto_throttle_loiter_trim
                0x2000369c        0x4 /home/woz/lisa-m-team4938/paparazzi/var/ECE_2012/ap/firmwares/fixedwing/stabilization/stabilization_attitude.o
                0x2000369c                v_ctl_auto_throttle_loiter_trim
 .data.Update_Matrix
                0x200036a0       0x24 /home/woz/lisa-m-team4938/paparazzi/var/ECE_2012/ap/subsystems/ahrs/ahrs_float_dcm.o
                0x200036a0                Update_Matrix
 .data.DCM_Matrix
                0x200036c4       0x24 /home/woz/lisa-m-team4938/paparazzi/var/ECE_2012/ap/subsystems/ahrs/ahrs_float_dcm.o
                0x200036c4                DCM_Matrix
 .data.max_dist_from_home
                0x200036e8        0x4 /home/woz/lisa-m-team4938/paparazzi/var/ECE_2012/ap/subsystems/nav.o
                0x200036e8                max_dist_from_home
 .data.nav_altitude
                0x200036ec        0x4 /home/woz/lisa-m-team4938/paparazzi/var/ECE_2012/ap/subsystems/nav.o
                0x200036ec                nav_altitude
 .data.nav_utm_zone0
                0x200036f0        0x1 /home/woz/lisa-m-team4938/paparazzi/var/ECE_2012/ap/subsystems/nav.o
                0x200036f0                nav_utm_zone0
 *fill*         0x200036f1        0x3 00
 .data.nav_utm_north0
                0x200036f4        0x4 /home/woz/lisa-m-team4938/paparazzi/var/ECE_2012/ap/subsystems/nav.o
                0x200036f4                nav_utm_north0
 .data.waypoints
                0x200036f8       0x90 /home/woz/lisa-m-team4938/paparazzi/var/ECE_2012/ap/subsystems/nav.o
                0x200036f8                waypoints
 .data.nav_utm_east0
                0x20003788        0x4 /home/woz/lisa-m-team4938/paparazzi/var/ECE_2012/ap/subsystems/nav.o
                0x20003788                nav_utm_east0
 .data.ADCPrescTable
                0x2000378c        0x4 /opt/paparazzi/arm-multilib/lib/gcc/arm-none-eabi/4.4.5/../../../../arm-none-eabi/lib/libstm32.a(stm32_rcc.o)
 .data.APBAHBPrescTable
                0x20003790       0x10 /opt/paparazzi/arm-multilib/lib/gcc/arm-none-eabi/4.4.5/../../../../arm-none-eabi/lib/libstm32.a(stm32_rcc.o)
 .data.rcc_ppre1_frequency
                0x200037a0        0x4 /opt/paparazzi/arm-multilib/lib/gcc/arm-none-eabi/4.4.5/../../../../arm-none-eabi/lib/libopencm3_stm32.a(rcc.o)
                0x200037a0                rcc_ppre1_frequency
 .data.rcc_ppre2_frequency
                0x200037a4        0x4 /opt/paparazzi/arm-multilib/lib/gcc/arm-none-eabi/4.4.5/../../../../arm-none-eabi/lib/libopencm3_stm32.a(rcc.o)
                0x200037a4                rcc_ppre2_frequency
                0x200037a8                . = ALIGN (0x4)
                0x200037a8                _edata = .

.bss            0x200037a8     0x12a8 load address 0x0801b930
                0x200037a8                . = ALIGN (0x4)
                0x200037a8                _sbss = .
 *(.dynbss)
 *(.bss .bss.* .gnu.linkonce.b.*)
 .bss.cpu_time_sec
                0x200037a8        0x2 /home/woz/lisa-m-team4938/paparazzi/var/ECE_2012/ap/sys_time.o
                0x200037a8                cpu_time_sec
 .bss.inter_mcu_received_ap
                0x200037aa        0x1 /home/woz/lisa-m-team4938/paparazzi/var/ECE_2012/ap/./inter_mcu.o
                0x200037aa                inter_mcu_received_ap
 *fill*         0x200037ab        0x1 00
 .bss._ap_state
                0x200037ac        0x8 /home/woz/lisa-m-team4938/paparazzi/var/ECE_2012/ap/./inter_mcu.o
 .bss.ap_ok     0x200037b4        0x1 /home/woz/lisa-m-team4938/paparazzi/var/ECE_2012/ap/./inter_mcu.o
                0x200037b4                ap_ok
 .bss.time_since_last_ap
                0x200037b5        0x1 /home/woz/lisa-m-team4938/paparazzi/var/ECE_2012/ap/./inter_mcu.o
                0x200037b5                time_since_last_ap
 .bss.inter_mcu_received_fbw
                0x200037b6        0x1 /home/woz/lisa-m-team4938/paparazzi/var/ECE_2012/ap/./inter_mcu.o
                0x200037b6                inter_mcu_received_fbw
 *fill*         0x200037b7        0x1 00
 .bss._fbw_state
                0x200037b8       0x18 /home/woz/lisa-m-team4938/paparazzi/var/ECE_2012/ap/./inter_mcu.o
 .bss.i2c2      0x200037d0       0x34 /home/woz/lisa-m-team4938/paparazzi/var/ECE_2012/ap/mcu_periph/i2c.o
                0x200037d0                i2c2
 .bss.i2c2_errors
                0x20003804       0x6c /home/woz/lisa-m-team4938/paparazzi/var/ECE_2012/ap/arch/stm32/mcu_periph/i2c_arch.o
                0x20003804                i2c2_errors
 .bss.counter.3511
                0x20003870        0x1 /home/woz/lisa-m-team4938/paparazzi/var/ECE_2012/ap/arch/stm32/mcu_periph/i2c_arch.o
 .bss.counter.3569
                0x20003871        0x1 /home/woz/lisa-m-team4938/paparazzi/var/ECE_2012/ap/arch/stm32/mcu_periph/i2c_arch.o
 .bss.counter.3601
                0x20003872        0x1 /home/woz/lisa-m-team4938/paparazzi/var/ECE_2012/ap/arch/stm32/mcu_periph/i2c_arch.o
 *fill*         0x20003873        0x1 00
 .bss.i300.3392
                0x20003874        0x2 /home/woz/lisa-m-team4938/paparazzi/var/ECE_2012/ap/firmwares/fixedwing/main_fbw.o
 .bss.fbw_mode  0x20003876        0x1 /home/woz/lisa-m-team4938/paparazzi/var/ECE_2012/ap/firmwares/fixedwing/main_fbw.o
                0x20003876                fbw_mode
 .bss._1Hz.3087
                0x20003877        0x1 /home/woz/lisa-m-team4938/paparazzi/var/ECE_2012/ap/firmwares/fixedwing/main_fbw.o
 .bss.fbw_new_actuators
                0x20003878        0x1 /home/woz/lisa-m-team4938/paparazzi/var/ECE_2012/ap/firmwares/fixedwing/main_fbw.o
                0x20003878                fbw_new_actuators
 .bss.i60.3417  0x20003879        0x1 /home/woz/lisa-m-team4938/paparazzi/var/ECE_2012/ap/firmwares/fixedwing/main_fbw.o
 .bss.i120.3391
                0x2000387a        0x1 /home/woz/lisa-m-team4938/paparazzi/var/ECE_2012/ap/firmwares/fixedwing/main_fbw.o
 .bss.i30.3416  0x2000387b        0x1 /home/woz/lisa-m-team4938/paparazzi/var/ECE_2012/ap/firmwares/fixedwing/main_fbw.o
 .bss._10Hz.3854
                0x2000387c        0x1 /home/woz/lisa-m-team4938/paparazzi/var/ECE_2012/ap/firmwares/fixedwing/main_fbw.o
 *fill*         0x2000387d        0x1 00
 .bss.i300.3418
                0x2000387e        0x2 /home/woz/lisa-m-team4938/paparazzi/var/ECE_2012/ap/firmwares/fixedwing/main_fbw.o
 .bss.electrical_priv
                0x20003880       0x4c /home/woz/lisa-m-team4938/paparazzi/var/ECE_2012/ap/subsystems/electrical.o
 .bss.electrical
                0x200038cc        0x8 /home/woz/lisa-m-team4938/paparazzi/var/ECE_2012/ap/subsystems/electrical.o
                0x200038cc                electrical
 .bss.commands  0x200038d4        0x8 /home/woz/lisa-m-team4938/paparazzi/var/ECE_2012/ap/./commands.o
                0x200038d4                commands
 .bss.command_roll_trim
                0x200038dc        0x2 /home/woz/lisa-m-team4938/paparazzi/var/ECE_2012/ap/./commands.o
                0x200038dc                command_roll_trim
 .bss.command_pitch_trim
                0x200038de        0x2 /home/woz/lisa-m-team4938/paparazzi/var/ECE_2012/ap/./commands.o
                0x200038de                command_pitch_trim
 .bss.i.5719    0x200038e0        0x1 /home/woz/lisa-m-team4938/paparazzi/var/ECE_2012/ap/firmwares/fixedwing/main_ap.o
 .bss.rc_settings_mode
                0x200038e1        0x1 /home/woz/lisa-m-team4938/paparazzi/var/ECE_2012/ap/firmwares/fixedwing/main_ap.o
                0x200038e1                rc_settings_mode
 .bss.vsupply   0x200038e2        0x1 /home/woz/lisa-m-team4938/paparazzi/var/ECE_2012/ap/firmwares/fixedwing/main_ap.o
                0x200038e2                vsupply
 .bss.i180.5423
                0x200038e3        0x1 /home/woz/lisa-m-team4938/paparazzi/var/ECE_2012/ap/firmwares/fixedwing/main_ap.o
 .bss.last_pprz_mode.7493
                0x200038e4        0x1 /home/woz/lisa-m-team4938/paparazzi/var/ECE_2012/ap/firmwares/fixedwing/main_ap.o
 .bss._4Hz.7697
                0x200038e5        0x1 /home/woz/lisa-m-team4938/paparazzi/var/ECE_2012/ap/firmwares/fixedwing/main_ap.o
 .bss.i.5517    0x200038e6        0x1 /home/woz/lisa-m-team4938/paparazzi/var/ECE_2012/ap/firmwares/fixedwing/main_ap.o
 .bss.i84.5420  0x200038e7        0x1 /home/woz/lisa-m-team4938/paparazzi/var/ECE_2012/ap/firmwares/fixedwing/main_ap.o
 .bss.i.5127    0x200038e8        0x1 /home/woz/lisa-m-team4938/paparazzi/var/ECE_2012/ap/firmwares/fixedwing/main_ap.o
 .bss.mcu1_ppm_cpt
                0x200038e9        0x1 /home/woz/lisa-m-team4938/paparazzi/var/ECE_2012/ap/firmwares/fixedwing/main_ap.o
 .bss.t.7699    0x200038ea        0x1 /home/woz/lisa-m-team4938/paparazzi/var/ECE_2012/ap/firmwares/fixedwing/main_ap.o
 .bss.ahrs_timeout_counter
                0x200038eb        0x1 /home/woz/lisa-m-team4938/paparazzi/var/ECE_2012/ap/firmwares/fixedwing/main_ap.o
                0x200038eb                ahrs_timeout_counter
 .bss.i78.5419  0x200038ec        0x1 /home/woz/lisa-m-team4938/paparazzi/var/ECE_2012/ap/firmwares/fixedwing/main_ap.o
 .bss._20Hz.7695
                0x200038ed        0x1 /home/woz/lisa-m-team4938/paparazzi/var/ECE_2012/ap/firmwares/fixedwing/main_ap.o
 .bss.launch    0x200038ee        0x1 /home/woz/lisa-m-team4938/paparazzi/var/ECE_2012/ap/firmwares/fixedwing/main_ap.o
                0x200038ee                launch
 *fill*         0x200038ef        0x1 00
 .bss.i312.5430
                0x200038f0        0x2 /home/woz/lisa-m-team4938/paparazzi/var/ECE_2012/ap/firmwares/fixedwing/main_ap.o
 .bss.i342.5709
                0x200038f2        0x2 /home/woz/lisa-m-team4938/paparazzi/var/ECE_2012/ap/firmwares/fixedwing/main_ap.o
 .bss.i72.5119  0x200038f4        0x1 /home/woz/lisa-m-team4938/paparazzi/var/ECE_2012/ap/firmwares/fixedwing/main_ap.o
 .bss.i30.5115  0x200038f5        0x1 /home/woz/lisa-m-team4938/paparazzi/var/ECE_2012/ap/firmwares/fixedwing/main_ap.o
 .bss.i324.5707
                0x200038f6        0x2 /home/woz/lisa-m-team4938/paparazzi/var/ECE_2012/ap/firmwares/fixedwing/main_ap.o
 .bss.i90.5120  0x200038f8        0x1 /home/woz/lisa-m-team4938/paparazzi/var/ECE_2012/ap/firmwares/fixedwing/main_ap.o
 .bss.lateral_mode
                0x200038f9        0x1 /home/woz/lisa-m-team4938/paparazzi/var/ECE_2012/ap/firmwares/fixedwing/main_ap.o
                0x200038f9                lateral_mode
 .bss.mcu1_status
                0x200038fa        0x1 /home/woz/lisa-m-team4938/paparazzi/var/ECE_2012/ap/firmwares/fixedwing/main_ap.o
 .bss.i90.5421  0x200038fb        0x1 /home/woz/lisa-m-team4938/paparazzi/var/ECE_2012/ap/firmwares/fixedwing/main_ap.o
 .bss.energy    0x200038fc        0x4 /home/woz/lisa-m-team4938/paparazzi/var/ECE_2012/ap/firmwares/fixedwing/main_ap.o
                0x200038fc                energy
 .bss.last.5797
                0x20003900        0x2 /home/woz/lisa-m-team4938/paparazzi/var/ECE_2012/ap/firmwares/fixedwing/main_ap.o
 .bss.i126.5122
                0x20003902        0x1 /home/woz/lisa-m-team4938/paparazzi/var/ECE_2012/ap/firmwares/fixedwing/main_ap.o
 .bss.gps_lost  0x20003903        0x1 /home/woz/lisa-m-team4938/paparazzi/var/ECE_2012/ap/firmwares/fixedwing/main_ap.o
                0x20003903                gps_lost
 .bss.i420.5710
                0x20003904        0x2 /home/woz/lisa-m-team4938/paparazzi/var/ECE_2012/ap/firmwares/fixedwing/main_ap.o
 .bss.i243.5427
                0x20003906        0x1 /home/woz/lisa-m-team4938/paparazzi/var/ECE_2012/ap/firmwares/fixedwing/main_ap.o
 .bss.i66.5118  0x20003907        0x1 /home/woz/lisa-m-team4938/paparazzi/var/ECE_2012/ap/firmwares/fixedwing/main_ap.o
 .bss.i.5305    0x20003908        0x1 /home/woz/lisa-m-team4938/paparazzi/var/ECE_2012/ap/firmwares/fixedwing/main_ap.o
 .bss.i66.5418  0x20003909        0x1 /home/woz/lisa-m-team4938/paparazzi/var/ECE_2012/ap/firmwares/fixedwing/main_ap.o
 .bss.i240.5426
                0x2000390a        0x1 /home/woz/lisa-m-team4938/paparazzi/var/ECE_2012/ap/firmwares/fixedwing/main_ap.o
 .bss.i63.5117  0x2000390b        0x1 /home/woz/lisa-m-team4938/paparazzi/var/ECE_2012/ap/firmwares/fixedwing/main_ap.o
 .bss.last.5686
                0x2000390c        0x2 /home/woz/lisa-m-team4938/paparazzi/var/ECE_2012/ap/firmwares/fixedwing/main_ap.o
 .bss.i120.5121
                0x2000390e        0x1 /home/woz/lisa-m-team4938/paparazzi/var/ECE_2012/ap/firmwares/fixedwing/main_ap.o
 .bss.i63.5417  0x2000390f        0x1 /home/woz/lisa-m-team4938/paparazzi/var/ECE_2012/ap/firmwares/fixedwing/main_ap.o
 .bss.i60.5116  0x20003910        0x1 /home/woz/lisa-m-team4938/paparazzi/var/ECE_2012/ap/firmwares/fixedwing/main_ap.o
 *fill*         0x20003911        0x1 00
 .bss.last.5399
                0x20003912        0x2 /home/woz/lisa-m-team4938/paparazzi/var/ECE_2012/ap/firmwares/fixedwing/main_ap.o
 .bss._ck_a.2892
                0x20003914        0x1 /home/woz/lisa-m-team4938/paparazzi/var/ECE_2012/ap/firmwares/fixedwing/main_ap.o
 *fill*         0x20003915        0x1 00
 .bss.i612.5712
                0x20003916        0x2 /home/woz/lisa-m-team4938/paparazzi/var/ECE_2012/ap/firmwares/fixedwing/main_ap.o
 .bss.kill_throttle
                0x20003918        0x1 /home/woz/lisa-m-team4938/paparazzi/var/ECE_2012/ap/firmwares/fixedwing/main_ap.o
                0x20003918                kill_throttle
 *fill*         0x20003919        0x1 00
 .bss.i306.5705
                0x2000391a        0x2 /home/woz/lisa-m-team4938/paparazzi/var/ECE_2012/ap/firmwares/fixedwing/main_ap.o
 .bss.i318.5706
                0x2000391c        0x2 /home/woz/lisa-m-team4938/paparazzi/var/ECE_2012/ap/firmwares/fixedwing/main_ap.o
 .bss.i540.5431
                0x2000391e        0x2 /home/woz/lisa-m-team4938/paparazzi/var/ECE_2012/ap/firmwares/fixedwing/main_ap.o
 .bss._10Hz.7696
                0x20003920        0x1 /home/woz/lisa-m-team4938/paparazzi/var/ECE_2012/ap/firmwares/fixedwing/main_ap.o
 *fill*         0x20003921        0x1 00
 .bss.i306.5429
                0x20003922        0x2 /home/woz/lisa-m-team4938/paparazzi/var/ECE_2012/ap/firmwares/fixedwing/main_ap.o
 .bss.i126.5422
                0x20003924        0x1 /home/woz/lisa-m-team4938/paparazzi/var/ECE_2012/ap/firmwares/fixedwing/main_ap.o
 *fill*         0x20003925        0x1 00
 .bss.i330.5708
                0x20003926        0x2 /home/woz/lisa-m-team4938/paparazzi/var/ECE_2012/ap/firmwares/fixedwing/main_ap.o
 .bss.i150.5123
                0x20003928        0x1 /home/woz/lisa-m-team4938/paparazzi/var/ECE_2012/ap/firmwares/fixedwing/main_ap.o
 .bss.power_switch
                0x20003929        0x1 /home/woz/lisa-m-team4938/paparazzi/var/ECE_2012/ap/firmwares/fixedwing/main_ap.o
                0x20003929                power_switch
 .bss.i15.5114  0x2000392a        0x1 /home/woz/lisa-m-team4938/paparazzi/var/ECE_2012/ap/firmwares/fixedwing/main_ap.o
 .bss._1Hz.7698
                0x2000392b        0x1 /home/woz/lisa-m-team4938/paparazzi/var/ECE_2012/ap/firmwares/fixedwing/main_ap.o
 .bss._60Hz.7694
                0x2000392c        0x1 /home/woz/lisa-m-team4938/paparazzi/var/ECE_2012/ap/firmwares/fixedwing/main_ap.o
 *fill*         0x2000392d        0x1 00
 .bss.i606.5711
                0x2000392e        0x2 /home/woz/lisa-m-team4938/paparazzi/var/ECE_2012/ap/firmwares/fixedwing/main_ap.o
 .bss.i.5499    0x20003930        0x1 /home/woz/lisa-m-team4938/paparazzi/var/ECE_2012/ap/firmwares/fixedwing/main_ap.o
 *fill*         0x20003931        0x1 00
 .bss.i606.5432
                0x20003932        0x2 /home/woz/lisa-m-team4938/paparazzi/var/ECE_2012/ap/firmwares/fixedwing/main_ap.o
 .bss._ck_b.2893
                0x20003934        0x1 /home/woz/lisa-m-team4938/paparazzi/var/ECE_2012/ap/firmwares/fixedwing/main_ap.o
 *fill*         0x20003935        0x3 00
 .bss.current   0x20003938        0x4 /home/woz/lisa-m-team4938/paparazzi/var/ECE_2012/ap/firmwares/fixedwing/main_ap.o
 .bss.i192.5425
                0x2000393c        0x1 /home/woz/lisa-m-team4938/paparazzi/var/ECE_2012/ap/firmwares/fixedwing/main_ap.o
 .bss.i.5433    0x2000393d        0x1 /home/woz/lisa-m-team4938/paparazzi/var/ECE_2012/ap/firmwares/fixedwing/main_ap.o
 .bss.payload_idx.2894
                0x2000393e        0x1 /home/woz/lisa-m-team4938/paparazzi/var/ECE_2012/ap/firmwares/fixedwing/main_ap.o
 *fill*         0x2000393f        0x1 00
 .bss.i300.5124
                0x20003940        0x2 /home/woz/lisa-m-team4938/paparazzi/var/ECE_2012/ap/firmwares/fixedwing/main_ap.o
 .bss.i306.5125
                0x20003942        0x2 /home/woz/lisa-m-team4938/paparazzi/var/ECE_2012/ap/firmwares/fixedwing/main_ap.o
 .bss.i300.5704
                0x20003944        0x2 /home/woz/lisa-m-team4938/paparazzi/var/ECE_2012/ap/firmwares/fixedwing/main_ap.o
 .bss.pprz_status.2891
                0x20003946        0x1 /home/woz/lisa-m-team4938/paparazzi/var/ECE_2012/ap/firmwares/fixedwing/main_ap.o
 *fill*         0x20003947        0x1 00
 .bss.i540.5126
                0x20003948        0x2 /home/woz/lisa-m-team4938/paparazzi/var/ECE_2012/ap/firmwares/fixedwing/main_ap.o
 .bss.i.5189    0x2000394a        0x1 /home/woz/lisa-m-team4938/paparazzi/var/ECE_2012/ap/firmwares/fixedwing/main_ap.o
 *fill*         0x2000394b        0x1 00
 .bss.i300.5428
                0x2000394c        0x2 /home/woz/lisa-m-team4938/paparazzi/var/ECE_2012/ap/firmwares/fixedwing/main_ap.o
 .bss.i183.5424
                0x2000394e        0x1 /home/woz/lisa-m-team4938/paparazzi/var/ECE_2012/ap/firmwares/fixedwing/main_ap.o
 *fill*         0x2000394f        0x1 00
 .bss.estimator_hspeed_dir
                0x20003950        0x4 /home/woz/lisa-m-team4938/paparazzi/var/ECE_2012/ap/./estimator.o
                0x20003950                estimator_hspeed_dir
 .bss.estimator_airspeed
                0x20003954        0x4 /home/woz/lisa-m-team4938/paparazzi/var/ECE_2012/ap/./estimator.o
                0x20003954                estimator_airspeed
 .bss.p         0x20003958       0x10 /home/woz/lisa-m-team4938/paparazzi/var/ECE_2012/ap/./estimator.o
 .bss.estimator_z_dot
                0x20003968        0x4 /home/woz/lisa-m-team4938/paparazzi/var/ECE_2012/ap/./estimator.o
                0x20003968                estimator_z_dot
 .bss.estimator_flight_time
                0x2000396c        0x2 /home/woz/lisa-m-team4938/paparazzi/var/ECE_2012/ap/./estimator.o
                0x2000396c                estimator_flight_time
 *fill*         0x2000396e        0x2 00
 .bss.wind_east
                0x20003970        0x4 /home/woz/lisa-m-team4938/paparazzi/var/ECE_2012/ap/./estimator.o
                0x20003970                wind_east
 .bss.alt_kalman_enabled
                0x20003974        0x1 /home/woz/lisa-m-team4938/paparazzi/var/ECE_2012/ap/./estimator.o
                0x20003974                alt_kalman_enabled
 *fill*         0x20003975        0x3 00
 .bss.estimator_psi
                0x20003978        0x4 /home/woz/lisa-m-team4938/paparazzi/var/ECE_2012/ap/./estimator.o
                0x20003978                estimator_psi
 .bss.wind_north
                0x2000397c        0x4 /home/woz/lisa-m-team4938/paparazzi/var/ECE_2012/ap/./estimator.o
                0x2000397c                wind_north
 .bss.estimator_p
                0x20003980        0x4 /home/woz/lisa-m-team4938/paparazzi/var/ECE_2012/ap/./estimator.o
                0x20003980                estimator_p
 .bss.estimator_theta
                0x20003984        0x4 /home/woz/lisa-m-team4938/paparazzi/var/ECE_2012/ap/./estimator.o
                0x20003984                estimator_theta
 .bss.estimator_q
                0x20003988        0x4 /home/woz/lisa-m-team4938/paparazzi/var/ECE_2012/ap/./estimator.o
                0x20003988                estimator_q
 .bss.estimator_x
                0x2000398c        0x4 /home/woz/lisa-m-team4938/paparazzi/var/ECE_2012/ap/./estimator.o
                0x2000398c                estimator_x
 .bss.estimator_y
                0x20003990        0x4 /home/woz/lisa-m-team4938/paparazzi/var/ECE_2012/ap/./estimator.o
                0x20003990                estimator_y
 .bss.estimator_z
                0x20003994        0x4 /home/woz/lisa-m-team4938/paparazzi/var/ECE_2012/ap/./estimator.o
                0x20003994                estimator_z
 .bss.estimator_hspeed_mod
                0x20003998        0x4 /home/woz/lisa-m-team4938/paparazzi/var/ECE_2012/ap/./estimator.o
                0x20003998                estimator_hspeed_mod
 .bss.estimator_phi
                0x2000399c        0x4 /home/woz/lisa-m-team4938/paparazzi/var/ECE_2012/ap/./estimator.o
                0x2000399c                estimator_phi
 .bss.cpu_time_ticks
                0x200039a0        0x4 /home/woz/lisa-m-team4938/paparazzi/var/ECE_2012/ap/arch/stm32/sys_time_hw.o
                0x200039a0                cpu_time_ticks
 .bss.sys_time_period_elapsed
                0x200039a4        0x1 /home/woz/lisa-m-team4938/paparazzi/var/ECE_2012/ap/arch/stm32/sys_time_hw.o
                0x200039a4                sys_time_period_elapsed
 *fill*         0x200039a5        0x3 00
 .bss.uart1     0x200039a8      0x120 /home/woz/lisa-m-team4938/paparazzi/var/ECE_2012/ap/mcu_periph/uart.o
                0x200039a8                uart1
 .bss.uart2     0x20003ac8      0x120 /home/woz/lisa-m-team4938/paparazzi/var/ECE_2012/ap/mcu_periph/uart.o
                0x20003ac8                uart2
 .bss.adc_new_data_trigger
                0x20003be8        0x1 /home/woz/lisa-m-team4938/paparazzi/var/ECE_2012/ap/arch/stm32/mcu_periph/adc_arch.o
                0x20003be8                adc_new_data_trigger
 *fill*         0x20003be9        0x3 00
 .bss.adc1_buffers
                0x20003bec       0x10 /home/woz/lisa-m-team4938/paparazzi/var/ECE_2012/ap/arch/stm32/mcu_periph/adc_arch.o
 .bss.adc_channel_map
                0x20003bfc        0x4 /home/woz/lisa-m-team4938/paparazzi/var/ECE_2012/ap/arch/stm32/mcu_periph/adc_arch.o
 .bss.adc_injected_channels
                0x20003c00        0x4 /home/woz/lisa-m-team4938/paparazzi/var/ECE_2012/ap/arch/stm32/mcu_periph/adc_arch.o
 .bss.actuators_pwm_values
                0x20003c04       0x18 /home/woz/lisa-m-team4938/paparazzi/var/ECE_2012/ap/arch/stm32/servos_direct_hw.o
                0x20003c04                actuators_pwm_values
 .bss.actuators
                0x20003c1c        0xc /home/woz/lisa-m-team4938/paparazzi/var/ECE_2012/ap/actuators.o
                0x20003c1c                actuators
 .bss.radio_control
                0x20003c28       0x14 /home/woz/lisa-m-team4938/paparazzi/var/ECE_2012/ap/subsystems/radio_control.o
                0x20003c28                radio_control
 .bss.ppm_pulses
                0x20003c3c       0x10 /home/woz/lisa-m-team4938/paparazzi/var/ECE_2012/ap/subsystems/radio_control/ppm.o
                0x20003c3c                ppm_pulses
 .bss.ppm_frame_available
                0x20003c4c        0x1 /home/woz/lisa-m-team4938/paparazzi/var/ECE_2012/ap/subsystems/radio_control/ppm.o
                0x20003c4c                ppm_frame_available
 .bss.ppm_data_valid
                0x20003c4d        0x1 /home/woz/lisa-m-team4938/paparazzi/var/ECE_2012/ap/arch/stm32/subsystems/radio_control/ppm_arch.o
                0x20003c4d                ppm_data_valid
 *fill*         0x20003c4e        0x2 00
 .bss.ppm_last_pulse_time
                0x20003c50        0x4 /home/woz/lisa-m-team4938/paparazzi/var/ECE_2012/ap/arch/stm32/subsystems/radio_control/ppm_arch.o
                0x20003c50                ppm_last_pulse_time
 .bss.timer_rollover_cnt
                0x20003c54        0x4 /home/woz/lisa-m-team4938/paparazzi/var/ECE_2012/ap/arch/stm32/subsystems/radio_control/ppm_arch.o
 .bss.ppm_cur_pulse
                0x20003c58        0x1 /home/woz/lisa-m-team4938/paparazzi/var/ECE_2012/ap/arch/stm32/subsystems/radio_control/ppm_arch.o
                0x20003c58                ppm_cur_pulse
 *fill*         0x20003c59        0x1 00
 .bss.downlink_nb_msgs
                0x20003c5a        0x2 /home/woz/lisa-m-team4938/paparazzi/var/ECE_2012/ap/downlink.o
                0x20003c5a                downlink_nb_msgs
 .bss.downlink_nb_ovrn
                0x20003c5c        0x1 /home/woz/lisa-m-team4938/paparazzi/var/ECE_2012/ap/downlink.o
                0x20003c5c                downlink_nb_ovrn
 *fill*         0x20003c5d        0x1 00
 .bss.downlink_nb_bytes
                0x20003c5e        0x2 /home/woz/lisa-m-team4938/paparazzi/var/ECE_2012/ap/downlink.o
                0x20003c5e                downlink_nb_bytes
 .bss.telemetry_mode_Ap_DefaultChannel
                0x20003c60        0x1 /home/woz/lisa-m-team4938/paparazzi/var/ECE_2012/ap/downlink.o
                0x20003c60                telemetry_mode_Ap_DefaultChannel
 .bss.pprz_error
                0x20003c61        0x1 /home/woz/lisa-m-team4938/paparazzi/var/ECE_2012/ap/pprz_transport.o
                0x20003c61                pprz_error
 *fill*         0x20003c62        0x2 00
 .bss.pprz_payload
                0x20003c64      0x100 /home/woz/lisa-m-team4938/paparazzi/var/ECE_2012/ap/pprz_transport.o
                0x20003c64                pprz_payload
 .bss.ck_a      0x20003d64        0x1 /home/woz/lisa-m-team4938/paparazzi/var/ECE_2012/ap/pprz_transport.o
                0x20003d64                ck_a
 .bss.ck_b      0x20003d65        0x1 /home/woz/lisa-m-team4938/paparazzi/var/ECE_2012/ap/pprz_transport.o
                0x20003d65                ck_b
 .bss.pprz_msg_received
                0x20003d66        0x1 /home/woz/lisa-m-team4938/paparazzi/var/ECE_2012/ap/pprz_transport.o
                0x20003d66                pprz_msg_received
 .bss.pprz_ovrn
                0x20003d67        0x1 /home/woz/lisa-m-team4938/paparazzi/var/ECE_2012/ap/pprz_transport.o
                0x20003d67                pprz_ovrn
 .bss.pprz_payload_len
                0x20003d68        0x1 /home/woz/lisa-m-team4938/paparazzi/var/ECE_2012/ap/pprz_transport.o
                0x20003d68                pprz_payload_len
 .bss.dl_msg_available
                0x20003d69        0x1 /home/woz/lisa-m-team4938/paparazzi/var/ECE_2012/ap/firmwares/fixedwing/datalink.o
                0x20003d69                dl_msg_available
 *fill*         0x20003d6a        0x6 00
 .bss.dl_buffer
                0x20003d70       0x80 /home/woz/lisa-m-team4938/paparazzi/var/ECE_2012/ap/firmwares/fixedwing/datalink.o
                0x20003d70                dl_buffer
 .bss.datalink_time
                0x20003df0        0x2 /home/woz/lisa-m-team4938/paparazzi/var/ECE_2012/ap/firmwares/fixedwing/datalink.o
                0x20003df0                datalink_time
 .bss.h_ctl_disabled
                0x20003df2        0x1 /home/woz/lisa-m-team4938/paparazzi/var/ECE_2012/ap/firmwares/fixedwing/stabilization/stabilization_attitude.o
                0x20003df2                h_ctl_disabled
 *fill*         0x20003df3        0x1 00
 .bss.h_ctl_aileron_setpoint
                0x20003df4        0x2 /home/woz/lisa-m-team4938/paparazzi/var/ECE_2012/ap/firmwares/fixedwing/stabilization/stabilization_attitude.o
                0x20003df4                h_ctl_aileron_setpoint
 *fill*         0x20003df6        0x2 00
 .bss.h_ctl_aileron_of_throttle
                0x20003df8        0x4 /home/woz/lisa-m-team4938/paparazzi/var/ECE_2012/ap/firmwares/fixedwing/stabilization/stabilization_attitude.o
                0x20003df8                h_ctl_aileron_of_throttle
 .bss.h_ctl_pitch_setpoint
                0x20003dfc        0x4 /home/woz/lisa-m-team4938/paparazzi/var/ECE_2012/ap/firmwares/fixedwing/stabilization/stabilization_attitude.o
                0x20003dfc                h_ctl_pitch_setpoint
 .bss.h_ctl_elevator_setpoint
                0x20003e00        0x2 /home/woz/lisa-m-team4938/paparazzi/var/ECE_2012/ap/firmwares/fixedwing/stabilization/stabilization_attitude.o
                0x20003e00                h_ctl_elevator_setpoint
 *fill*         0x20003e02        0x2 00
 .bss.h_ctl_elevator_of_roll
                0x20003e04        0x4 /home/woz/lisa-m-team4938/paparazzi/var/ECE_2012/ap/firmwares/fixedwing/stabilization/stabilization_attitude.o
                0x20003e04                h_ctl_elevator_of_roll
 .bss.h_ctl_roll_setpoint
                0x20003e08        0x4 /home/woz/lisa-m-team4938/paparazzi/var/ECE_2012/ap/firmwares/fixedwing/stabilization/stabilization_attitude.o
                0x20003e08                h_ctl_roll_setpoint
 .bss.h_ctl_course_setpoint
                0x20003e0c        0x4 /home/woz/lisa-m-team4938/paparazzi/var/ECE_2012/ap/firmwares/fixedwing/stabilization/stabilization_attitude.o
                0x20003e0c                h_ctl_course_setpoint
 .bss.h_ctl_pitch_dgain
                0x20003e10        0x4 /home/woz/lisa-m-team4938/paparazzi/var/ECE_2012/ap/firmwares/fixedwing/stabilization/stabilization_attitude.o
                0x20003e10                h_ctl_pitch_dgain
 .bss.h_ctl_pitch_pgain
                0x20003e14        0x4 /home/woz/lisa-m-team4938/paparazzi/var/ECE_2012/ap/firmwares/fixedwing/stabilization/stabilization_attitude.o
                0x20003e14                h_ctl_pitch_pgain
 .bss.h_ctl_course_pgain
                0x20003e18        0x4 /home/woz/lisa-m-team4938/paparazzi/var/ECE_2012/ap/firmwares/fixedwing/stabilization/stabilization_attitude.o
                0x20003e18                h_ctl_course_pgain
 .bss.h_ctl_course_pre_bank_correction
                0x20003e1c        0x4 /home/woz/lisa-m-team4938/paparazzi/var/ECE_2012/ap/firmwares/fixedwing/stabilization/stabilization_attitude.o
                0x20003e1c                h_ctl_course_pre_bank_correction
 .bss.h_ctl_roll_max_setpoint
                0x20003e20        0x4 /home/woz/lisa-m-team4938/paparazzi/var/ECE_2012/ap/firmwares/fixedwing/stabilization/stabilization_attitude.o
                0x20003e20                h_ctl_roll_max_setpoint
 .bss.h_ctl_course_dgain
                0x20003e24        0x4 /home/woz/lisa-m-team4938/paparazzi/var/ECE_2012/ap/firmwares/fixedwing/stabilization/stabilization_attitude.o
                0x20003e24                h_ctl_course_dgain
 .bss.nav_ratio
                0x20003e28        0x4 /home/woz/lisa-m-team4938/paparazzi/var/ECE_2012/ap/firmwares/fixedwing/stabilization/stabilization_attitude.o
 .bss.h_ctl_course_pre_bank
                0x20003e2c        0x4 /home/woz/lisa-m-team4938/paparazzi/var/ECE_2012/ap/firmwares/fixedwing/stabilization/stabilization_attitude.o
                0x20003e2c                h_ctl_course_pre_bank
 .bss.last_err.3526
                0x20003e30        0x4 /home/woz/lisa-m-team4938/paparazzi/var/ECE_2012/ap/firmwares/fixedwing/stabilization/stabilization_attitude.o
 .bss.last_err.3347
                0x20003e34        0x4 /home/woz/lisa-m-team4938/paparazzi/var/ECE_2012/ap/firmwares/fixedwing/stabilization/stabilization_attitude.o
 .bss.h_ctl_pitch_loop_setpoint
                0x20003e38        0x4 /home/woz/lisa-m-team4938/paparazzi/var/ECE_2012/ap/firmwares/fixedwing/stabilization/stabilization_attitude.o
                0x20003e38                h_ctl_pitch_loop_setpoint
 .bss.last_elevator_trim.3481
                0x20003e3c        0x4 /home/woz/lisa-m-team4938/paparazzi/var/ECE_2012/ap/firmwares/fixedwing/stabilization/stabilization_attitude.o
 .bss.h_ctl_roll_pgain
                0x20003e40        0x4 /home/woz/lisa-m-team4938/paparazzi/var/ECE_2012/ap/firmwares/fixedwing/stabilization/stabilization_attitude.o
                0x20003e40                h_ctl_roll_pgain
 .bss.v_ctl_throttle_setpoint
                0x20003e44        0x2 /home/woz/lisa-m-team4938/paparazzi/var/ECE_2012/ap/firmwares/fixedwing/guidance/guidance_v.o
                0x20003e44                v_ctl_throttle_setpoint
 .bss.v_ctl_auto_throttle_submode
                0x20003e46        0x1 /home/woz/lisa-m-team4938/paparazzi/var/ECE_2012/ap/firmwares/fixedwing/guidance/guidance_v.o
                0x20003e46                v_ctl_auto_throttle_submode
 *fill*         0x20003e47        0x1 00
 .bss.v_ctl_auto_pitch_sum_err
                0x20003e48        0x4 /home/woz/lisa-m-team4938/paparazzi/var/ECE_2012/ap/firmwares/fixedwing/guidance/guidance_v.o
                0x20003e48                v_ctl_auto_pitch_sum_err
 .bss.v_ctl_auto_pitch_pgain
                0x20003e4c        0x4 /home/woz/lisa-m-team4938/paparazzi/var/ECE_2012/ap/firmwares/fixedwing/guidance/guidance_v.o
                0x20003e4c                v_ctl_auto_pitch_pgain
 .bss.last_err.3363
                0x20003e50        0x4 /home/woz/lisa-m-team4938/paparazzi/var/ECE_2012/ap/firmwares/fixedwing/guidance/guidance_v.o
 .bss.v_ctl_auto_throttle_cruise_throttle
                0x20003e54        0x4 /home/woz/lisa-m-team4938/paparazzi/var/ECE_2012/ap/firmwares/fixedwing/guidance/guidance_v.o
                0x20003e54                v_ctl_auto_throttle_cruise_throttle
 .bss.v_ctl_climb_mode
                0x20003e58        0x1 /home/woz/lisa-m-team4938/paparazzi/var/ECE_2012/ap/firmwares/fixedwing/guidance/guidance_v.o
                0x20003e58                v_ctl_climb_mode
 .bss.v_ctl_mode
                0x20003e59        0x1 /home/woz/lisa-m-team4938/paparazzi/var/ECE_2012/ap/firmwares/fixedwing/guidance/guidance_v.o
                0x20003e59                v_ctl_mode
 *fill*         0x20003e5a        0x2 00
 .bss.v_ctl_auto_throttle_igain
                0x20003e5c        0x4 /home/woz/lisa-m-team4938/paparazzi/var/ECE_2012/ap/firmwares/fixedwing/guidance/guidance_v.o
                0x20003e5c                v_ctl_auto_throttle_igain
 .bss.v_ctl_altitude_error
                0x20003e60        0x4 /home/woz/lisa-m-team4938/paparazzi/var/ECE_2012/ap/firmwares/fixedwing/guidance/guidance_v.o
                0x20003e60                v_ctl_altitude_error
 .bss.v_ctl_altitude_setpoint
                0x20003e64        0x4 /home/woz/lisa-m-team4938/paparazzi/var/ECE_2012/ap/firmwares/fixedwing/guidance/guidance_v.o
                0x20003e64                v_ctl_altitude_setpoint
 .bss.v_ctl_auto_throttle_sum_err
                0x20003e68        0x4 /home/woz/lisa-m-team4938/paparazzi/var/ECE_2012/ap/firmwares/fixedwing/guidance/guidance_v.o
                0x20003e68                v_ctl_auto_throttle_sum_err
 .bss.v_ctl_auto_throttle_pitch_of_vz_pgain
                0x20003e6c        0x4 /home/woz/lisa-m-team4938/paparazzi/var/ECE_2012/ap/firmwares/fixedwing/guidance/guidance_v.o
                0x20003e6c                v_ctl_auto_throttle_pitch_of_vz_pgain
 .bss.v_ctl_auto_throttle_pgain
                0x20003e70        0x4 /home/woz/lisa-m-team4938/paparazzi/var/ECE_2012/ap/firmwares/fixedwing/guidance/guidance_v.o
                0x20003e70                v_ctl_auto_throttle_pgain
 .bss.v_ctl_altitude_pre_climb
                0x20003e74        0x4 /home/woz/lisa-m-team4938/paparazzi/var/ECE_2012/ap/firmwares/fixedwing/guidance/guidance_v.o
                0x20003e74                v_ctl_altitude_pre_climb
 .bss.v_ctl_auto_throttle_pitch_of_vz_dgain
                0x20003e78        0x4 /home/woz/lisa-m-team4938/paparazzi/var/ECE_2012/ap/firmwares/fixedwing/guidance/guidance_v.o
                0x20003e78                v_ctl_auto_throttle_pitch_of_vz_dgain
 .bss.v_ctl_auto_throttle_climb_throttle_increment
                0x20003e7c        0x4 /home/woz/lisa-m-team4938/paparazzi/var/ECE_2012/ap/firmwares/fixedwing/guidance/guidance_v.o
                0x20003e7c                v_ctl_auto_throttle_climb_throttle_increment
 .bss.v_ctl_auto_throttle_dgain
                0x20003e80        0x4 /home/woz/lisa-m-team4938/paparazzi/var/ECE_2012/ap/firmwares/fixedwing/guidance/guidance_v.o
                0x20003e80                v_ctl_auto_throttle_dgain
 .bss.v_ctl_auto_pitch_igain
                0x20003e84        0x4 /home/woz/lisa-m-team4938/paparazzi/var/ECE_2012/ap/firmwares/fixedwing/guidance/guidance_v.o
                0x20003e84                v_ctl_auto_pitch_igain
 .bss.v_ctl_auto_throttle_nominal_cruise_throttle
                0x20003e88        0x4 /home/woz/lisa-m-team4938/paparazzi/var/ECE_2012/ap/firmwares/fixedwing/guidance/guidance_v.o
                0x20003e88                v_ctl_auto_throttle_nominal_cruise_throttle
 .bss.v_ctl_throttle_slewed
                0x20003e8c        0x2 /home/woz/lisa-m-team4938/paparazzi/var/ECE_2012/ap/firmwares/fixedwing/guidance/guidance_v.o
                0x20003e8c                v_ctl_throttle_slewed
 *fill*         0x20003e8e        0x2 00
 .bss.v_ctl_climb_setpoint
                0x20003e90        0x4 /home/woz/lisa-m-team4938/paparazzi/var/ECE_2012/ap/firmwares/fixedwing/guidance/guidance_v.o
                0x20003e90                v_ctl_climb_setpoint
 .bss.v_ctl_altitude_pgain
                0x20003e94        0x4 /home/woz/lisa-m-team4938/paparazzi/var/ECE_2012/ap/firmwares/fixedwing/guidance/guidance_v.o
                0x20003e94                v_ctl_altitude_pgain
 .bss.imu       0x20003e98       0xb8 /home/woz/lisa-m-team4938/paparazzi/var/ECE_2012/ap/subsystems/imu.o
                0x20003e98                imu
 .bss.imu_aspirin
                0x20003f50       0x6c /home/woz/lisa-m-team4938/paparazzi/var/ECE_2012/ap/subsystems/imu/imu_aspirin.o
                0x20003f50                imu_aspirin
 .bss.hmc5843   0x20003fbc       0x38 /home/woz/lisa-m-team4938/paparazzi/var/ECE_2012/ap/peripherals/hmc5843.o
                0x20003fbc                hmc5843
 .bss.ahrs      0x20003ff4       0x9c /home/woz/lisa-m-team4938/paparazzi/var/ECE_2012/ap/subsystems/ahrs.o
                0x20003ff4                ahrs
 .bss.ahrs_float
                0x20004090       0xbc /home/woz/lisa-m-team4938/paparazzi/var/ECE_2012/ap/subsystems/ahrs.o
                0x20004090                ahrs_float
 .bss.gyro_sum  0x2000414c        0xc /home/woz/lisa-m-team4938/paparazzi/var/ECE_2012/ap/subsystems/ahrs/ahrs_aligner.o
 .bss.mag_sum   0x20004158        0xc /home/woz/lisa-m-team4938/paparazzi/var/ECE_2012/ap/subsystems/ahrs/ahrs_aligner.o
 .bss.samples_idx
                0x20004164        0x4 /home/woz/lisa-m-team4938/paparazzi/var/ECE_2012/ap/subsystems/ahrs/ahrs_aligner.o
 .bss.ahrs_aligner
                0x20004168       0x30 /home/woz/lisa-m-team4938/paparazzi/var/ECE_2012/ap/subsystems/ahrs/ahrs_aligner.o
                0x20004168                ahrs_aligner
 .bss.ref_sensor_samples
                0x20004198       0xf0 /home/woz/lisa-m-team4938/paparazzi/var/ECE_2012/ap/subsystems/ahrs/ahrs_aligner.o
 .bss.accel_sum
                0x20004288        0xc /home/woz/lisa-m-team4938/paparazzi/var/ECE_2012/ap/subsystems/ahrs/ahrs_aligner.o
 .bss.Omega_I   0x20004294        0xc /home/woz/lisa-m-team4938/paparazzi/var/ECE_2012/ap/subsystems/ahrs/ahrs_float_dcm.o
                0x20004294                Omega_I
 .bss.Scaled_Omega_P.5103
                0x200042a0        0xc /home/woz/lisa-m-team4938/paparazzi/var/ECE_2012/ap/subsystems/ahrs/ahrs_float_dcm.o
 .bss.Temporary_Matrix
                0x200042ac       0x24 /home/woz/lisa-m-team4938/paparazzi/var/ECE_2012/ap/subsystems/ahrs/ahrs_float_dcm.o
                0x200042ac                Temporary_Matrix
 .bss.ahrs_impl
                0x200042d0       0x4c /home/woz/lisa-m-team4938/paparazzi/var/ECE_2012/ap/subsystems/ahrs/ahrs_float_dcm.o
                0x200042d0                ahrs_impl
 .bss.Omega     0x2000431c        0xc /home/woz/lisa-m-team4938/paparazzi/var/ECE_2012/ap/subsystems/ahrs/ahrs_float_dcm.o
                0x2000431c                Omega
 .bss.renorm_sqrt_count
                0x20004328        0x4 /home/woz/lisa-m-team4938/paparazzi/var/ECE_2012/ap/subsystems/ahrs/ahrs_float_dcm.o
                0x20004328                renorm_sqrt_count
 .bss.renorm_blowup_count
                0x2000432c        0x4 /home/woz/lisa-m-team4938/paparazzi/var/ECE_2012/ap/subsystems/ahrs/ahrs_float_dcm.o
                0x2000432c                renorm_blowup_count
 .bss.ins_pitch_neutral
                0x20004330        0x4 /home/woz/lisa-m-team4938/paparazzi/var/ECE_2012/ap/subsystems/ahrs/ahrs_float_dcm.o
                0x20004330                ins_pitch_neutral
 .bss.Omega_Vector
                0x20004334        0xc /home/woz/lisa-m-team4938/paparazzi/var/ECE_2012/ap/subsystems/ahrs/ahrs_float_dcm.o
                0x20004334                Omega_Vector
 .bss.ins_roll_neutral
                0x20004340        0x4 /home/woz/lisa-m-team4938/paparazzi/var/ECE_2012/ap/subsystems/ahrs/ahrs_float_dcm.o
                0x20004340                ins_roll_neutral
 .bss.imu_health
                0x20004344        0x4 /home/woz/lisa-m-team4938/paparazzi/var/ECE_2012/ap/subsystems/ahrs/ahrs_float_dcm.o
                0x20004344                imu_health
 .bss.Scaled_Omega_I.5104
                0x20004348        0xc /home/woz/lisa-m-team4938/paparazzi/var/ECE_2012/ap/subsystems/ahrs/ahrs_float_dcm.o
 .bss.Omega_P   0x20004354        0xc /home/woz/lisa-m-team4938/paparazzi/var/ECE_2012/ap/subsystems/ahrs/ahrs_float_dcm.o
                0x20004354                Omega_P
 .bss.accel_float
                0x20004360        0xc /home/woz/lisa-m-team4938/paparazzi/var/ECE_2012/ap/subsystems/ahrs/ahrs_float_dcm.o
                0x20004360                accel_float
 *fill*         0x2000436c        0x4 00
 .bss.gps_ubx   0x20004370      0x118 /home/woz/lisa-m-team4938/paparazzi/var/ECE_2012/ap/subsystems/gps/gps_ubx.o
                0x20004370                gps_ubx
 .bss.gps       0x20004488       0xec /home/woz/lisa-m-team4938/paparazzi/var/ECE_2012/ap/subsystems/gps.o
                0x20004488                gps
 .bss.nav_circle_radians
                0x20004574        0x4 /home/woz/lisa-m-team4938/paparazzi/var/ECE_2012/ap/subsystems/nav.o
                0x20004574                nav_circle_radians
 .bss.ground_alt
                0x20004578        0x4 /home/woz/lisa-m-team4938/paparazzi/var/ECE_2012/ap/subsystems/nav.o
                0x20004578                ground_alt
 .bss.nav_survey_east
                0x2000457c        0x4 /home/woz/lisa-m-team4938/paparazzi/var/ECE_2012/ap/subsystems/nav.o
                0x2000457c                nav_survey_east
 .bss.nav_mode  0x20004580        0x4 /home/woz/lisa-m-team4938/paparazzi/var/ECE_2012/ap/subsystems/nav.o
                0x20004580                nav_mode
 .bss.desired_x
                0x20004584        0x4 /home/woz/lisa-m-team4938/paparazzi/var/ECE_2012/ap/subsystems/nav.o
                0x20004584                desired_x
 .bss.desired_y
                0x20004588        0x4 /home/woz/lisa-m-team4938/paparazzi/var/ECE_2012/ap/subsystems/nav.o
                0x20004588                desired_y
 .bss.previous_ground_alt
                0x2000458c        0x4 /home/woz/lisa-m-team4938/paparazzi/var/ECE_2012/ap/subsystems/nav.o
 .bss.nav_shift
                0x20004590        0x4 /home/woz/lisa-m-team4938/paparazzi/var/ECE_2012/ap/subsystems/nav.o
                0x20004590                nav_shift
 .bss.nav_throttle_setpoint
                0x20004594        0x2 /home/woz/lisa-m-team4938/paparazzi/var/ECE_2012/ap/subsystems/nav.o
                0x20004594                nav_throttle_setpoint
 *fill*         0x20004596        0x2 00
 .bss.flight_altitude
                0x20004598        0x4 /home/woz/lisa-m-team4938/paparazzi/var/ECE_2012/ap/subsystems/nav.o
                0x20004598                flight_altitude
 .bss.nav_survey_active
                0x2000459c        0x1 /home/woz/lisa-m-team4938/paparazzi/var/ECE_2012/ap/subsystems/nav.o
                0x2000459c                nav_survey_active
 *fill*         0x2000459d        0x3 00
 .bss.nav_survey_west
                0x200045a0        0x4 /home/woz/lisa-m-team4938/paparazzi/var/ECE_2012/ap/subsystems/nav.o
                0x200045a0                nav_survey_west
 .bss.nav_radius
                0x200045a4        0x4 /home/woz/lisa-m-team4938/paparazzi/var/ECE_2012/ap/subsystems/nav.o
                0x200045a4                nav_radius
 .bss.oval_status
                0x200045a8        0x1 /home/woz/lisa-m-team4938/paparazzi/var/ECE_2012/ap/subsystems/nav.o
                0x200045a8                oval_status
 *fill*         0x200045a9        0x3 00
 .bss.nav_segment_y_1
                0x200045ac        0x4 /home/woz/lisa-m-team4938/paparazzi/var/ECE_2012/ap/subsystems/nav.o
                0x200045ac                nav_segment_y_1
 .bss.nav_segment_y_2
                0x200045b0        0x4 /home/woz/lisa-m-team4938/paparazzi/var/ECE_2012/ap/subsystems/nav.o
                0x200045b0                nav_segment_y_2
 .bss.nav_in_segment
                0x200045b4        0x1 /home/woz/lisa-m-team4938/paparazzi/var/ECE_2012/ap/subsystems/nav.o
                0x200045b4                nav_in_segment
 *fill*         0x200045b5        0x3 00
 .bss.dist2_to_wp
                0x200045b8        0x4 /home/woz/lisa-m-team4938/paparazzi/var/ECE_2012/ap/subsystems/nav.o
                0x200045b8                dist2_to_wp
 .bss.nav_leg_progress
                0x200045bc        0x4 /home/woz/lisa-m-team4938/paparazzi/var/ECE_2012/ap/subsystems/nav.o
 .bss.nav_circle_trigo_qdr
                0x200045c0        0x4 /home/woz/lisa-m-team4938/paparazzi/var/ECE_2012/ap/subsystems/nav.o
                0x200045c0                nav_circle_trigo_qdr
 .bss.nav_circle_radius
                0x200045c4        0x4 /home/woz/lisa-m-team4938/paparazzi/var/ECE_2012/ap/subsystems/nav.o
                0x200045c4                nav_circle_radius
 .bss.nav_in_circle
                0x200045c8        0x1 /home/woz/lisa-m-team4938/paparazzi/var/ECE_2012/ap/subsystems/nav.o
                0x200045c8                nav_in_circle
 *fill*         0x200045c9        0x3 00
 .bss.nav_course
                0x200045cc        0x4 /home/woz/lisa-m-team4938/paparazzi/var/ECE_2012/ap/subsystems/nav.o
                0x200045cc                nav_course
 .bss.nav_survey_north
                0x200045d0        0x4 /home/woz/lisa-m-team4938/paparazzi/var/ECE_2012/ap/subsystems/nav.o
                0x200045d0                nav_survey_north
 .bss.nav_glide_pitch_trim
                0x200045d4        0x4 /home/woz/lisa-m-team4938/paparazzi/var/ECE_2012/ap/subsystems/nav.o
                0x200045d4                nav_glide_pitch_trim
 .bss.dist2_to_home
                0x200045d8        0x4 /home/woz/lisa-m-team4938/paparazzi/var/ECE_2012/ap/subsystems/nav.o
                0x200045d8                dist2_to_home
 .bss.last_wp   0x200045dc        0x1 /home/woz/lisa-m-team4938/paparazzi/var/ECE_2012/ap/subsystems/nav.o
 .bss.nav_oval_count
                0x200045dd        0x1 /home/woz/lisa-m-team4938/paparazzi/var/ECE_2012/ap/subsystems/nav.o
                0x200045dd                nav_oval_count
 .bss.too_far_from_home
                0x200045de        0x1 /home/woz/lisa-m-team4938/paparazzi/var/ECE_2012/ap/subsystems/nav.o
                0x200045de                too_far_from_home
 *fill*         0x200045df        0x1 00
 .bss.circle_bank
                0x200045e0        0x4 /home/woz/lisa-m-team4938/paparazzi/var/ECE_2012/ap/subsystems/nav.o
                0x200045e0                circle_bank
 .bss.nav_pitch
                0x200045e4        0x4 /home/woz/lisa-m-team4938/paparazzi/var/ECE_2012/ap/subsystems/nav.o
                0x200045e4                nav_pitch
 .bss.horizontal_mode
                0x200045e8        0x1 /home/woz/lisa-m-team4938/paparazzi/var/ECE_2012/ap/subsystems/nav.o
                0x200045e8                horizontal_mode
 *fill*         0x200045e9        0x3 00
 .bss.last_nav_altitude.5257
                0x200045ec        0x4 /home/woz/lisa-m-team4938/paparazzi/var/ECE_2012/ap/subsystems/nav.o
 .bss.last_x    0x200045f0        0x4 /home/woz/lisa-m-team4938/paparazzi/var/ECE_2012/ap/subsystems/nav.o
                0x200045f0                last_x
 .bss.nav_survey_south
                0x200045f4        0x4 /home/woz/lisa-m-team4938/paparazzi/var/ECE_2012/ap/subsystems/nav.o
                0x200045f4                nav_survey_south
 .bss.eight_status
                0x200045f8        0x1 /home/woz/lisa-m-team4938/paparazzi/var/ECE_2012/ap/subsystems/nav.o
 *fill*         0x200045f9        0x1 00
 .bss.prescaler.5208
                0x200045fa        0x2 /home/woz/lisa-m-team4938/paparazzi/var/ECE_2012/ap/subsystems/nav.o
 .bss.nav_circle_x
                0x200045fc        0x4 /home/woz/lisa-m-team4938/paparazzi/var/ECE_2012/ap/subsystems/nav.o
                0x200045fc                nav_circle_x
 .bss.nav_circle_y
                0x20004600        0x4 /home/woz/lisa-m-team4938/paparazzi/var/ECE_2012/ap/subsystems/nav.o
                0x20004600                nav_circle_y
 .bss.nav_leg_length
                0x20004604        0x4 /home/woz/lisa-m-team4938/paparazzi/var/ECE_2012/ap/subsystems/nav.o
 .bss.nav_survey_shift
                0x20004608        0x4 /home/woz/lisa-m-team4938/paparazzi/var/ECE_2012/ap/subsystems/nav.o
                0x20004608                nav_survey_shift
 .bss.baseleg_out_qdr
                0x2000460c        0x4 /home/woz/lisa-m-team4938/paparazzi/var/ECE_2012/ap/subsystems/nav.o
 .bss.last_y    0x20004610        0x4 /home/woz/lisa-m-team4938/paparazzi/var/ECE_2012/ap/subsystems/nav.o
                0x20004610                last_y
 .bss.nav_segment_x_1
                0x20004614        0x4 /home/woz/lisa-m-team4938/paparazzi/var/ECE_2012/ap/subsystems/nav.o
                0x20004614                nav_segment_x_1
 .bss.nav_segment_x_2
                0x20004618        0x4 /home/woz/lisa-m-team4938/paparazzi/var/ECE_2012/ap/subsystems/nav.o
                0x20004618                nav_segment_x_2
 .bss.stage_time
                0x2000461c        0x2 /home/woz/lisa-m-team4938/paparazzi/var/ECE_2012/ap/subsystems/navigation/common_flight_plan.o
                0x2000461c                stage_time
 .bss.last_block
                0x2000461e        0x1 /home/woz/lisa-m-team4938/paparazzi/var/ECE_2012/ap/subsystems/navigation/common_flight_plan.o
                0x2000461e                last_block
 *fill*         0x2000461f        0x1 00
 .bss.block_time
                0x20004620        0x2 /home/woz/lisa-m-team4938/paparazzi/var/ECE_2012/ap/subsystems/navigation/common_flight_plan.o
                0x20004620                block_time
 .bss.nav_block
                0x20004622        0x1 /home/woz/lisa-m-team4938/paparazzi/var/ECE_2012/ap/subsystems/navigation/common_flight_plan.o
                0x20004622                nav_block
 .bss.last_stage
                0x20004623        0x1 /home/woz/lisa-m-team4938/paparazzi/var/ECE_2012/ap/subsystems/navigation/common_flight_plan.o
                0x20004623                last_stage
 .bss.nav_stage
                0x20004624        0x1 /home/woz/lisa-m-team4938/paparazzi/var/ECE_2012/ap/subsystems/navigation/common_flight_plan.o
                0x20004624                nav_stage
 *fill*         0x20004625        0x3 00
 .bss.the_acs   0x20004628      0x300 /home/woz/lisa-m-team4938/paparazzi/var/ECE_2012/ap/subsystems/navigation/traffic_info.o
                0x20004628                the_acs
 .bss.acs_idx   0x20004928        0x1 /home/woz/lisa-m-team4938/paparazzi/var/ECE_2012/ap/subsystems/navigation/traffic_info.o
                0x20004928                acs_idx
 *fill*         0x20004929        0x3 00
 .bss.the_acs_id
                0x2000492c      0x100 /home/woz/lisa-m-team4938/paparazzi/var/ECE_2012/ap/subsystems/navigation/traffic_info.o
                0x2000492c                the_acs_id
 .bss.survey_from
                0x20004a2c        0xc /home/woz/lisa-m-team4938/paparazzi/var/ECE_2012/ap/subsystems/navigation/nav_survey_rectangle.o
 .bss.survey_orientation
                0x20004a38        0x1 /home/woz/lisa-m-team4938/paparazzi/var/ECE_2012/ap/subsystems/navigation/nav_survey_rectangle.o
 *fill*         0x20004a39        0x3 00
 .bss.survey_radius.2310
                0x20004a3c        0x4 /home/woz/lisa-m-team4938/paparazzi/var/ECE_2012/ap/subsystems/navigation/nav_survey_rectangle.o
 .bss.survey_to
                0x20004a40        0xc /home/woz/lisa-m-team4938/paparazzi/var/ECE_2012/ap/subsystems/navigation/nav_survey_rectangle.o
 .bss.survey_uturn
                0x20004a4c        0x1 /home/woz/lisa-m-team4938/paparazzi/var/ECE_2012/ap/subsystems/navigation/nav_survey_rectangle.o
 .bss.line_status
                0x20004a4d        0x1 /home/woz/lisa-m-team4938/paparazzi/var/ECE_2012/ap/subsystems/navigation/nav_line.o
 *(COMMON)
                0x20004a50                . = ALIGN (0x4)
 *fill*         0x20004a4e        0x2 00
                0x20004a50                _ebss = .
                0x20004a50                PROVIDE (end, _ebss)
                0x20004a50                PROVIDE (_end, _ebss)

._usrstack      0x20004a50      0x800 load address 0x0801cbd8
                0x20004a50                . = ALIGN (0x4)
                0x20004a50                _susrstack = .
                0x20005250                . = (. + _Minimum_Stack_Size)
 *fill*         0x20004a50      0x800 00
                0x20005250                . = ALIGN (0x4)
                0x20005250                _eusrstack = .

.b1text
 *(.b1text)
 *(.b1rodata)
 *(.b1rodata*)
                0x20005250                __exidx_start = .

.ARM.exidx
 *(.ARM.exidx* .gnu.linkonce.armexidx.*)
                0x20005250                __exidx_end = .

/DISCARD/
 libc.a(*)
 libm.a(*)
 libgcc.a(*)

.stab
 *(.stab)

.stabstr
 *(.stabstr)

.stab.excl
 *(.stab.excl)

.stab.exclstr
 *(.stab.exclstr)

.stab.index
 *(.stab.index)

.stab.indexstr
 *(.stab.indexstr)

.ARM.attributes
                0x00000000       0x31
 .ARM.attributes
                0x00000000       0x31 /home/woz/lisa-m-team4938/paparazzi/var/ECE_2012/ap/mcu.o
 .ARM.attributes
                0x00000031       0x31 /home/woz/lisa-m-team4938/paparazzi/var/ECE_2012/ap/arch/stm32/mcu_arch.o
 .ARM.attributes
                0x00000062       0x31 /home/woz/lisa-m-team4938/paparazzi/var/ECE_2012/ap/arch/stm32/led_hw.o
 .ARM.attributes
                0x00000093       0x31 /home/woz/lisa-m-team4938/paparazzi/var/ECE_2012/ap/sys_time.o
 .ARM.attributes
                0x000000c4       0x31 /home/woz/lisa-m-team4938/paparazzi/var/ECE_2012/ap/./inter_mcu.o
 .ARM.attributes
                0x000000f5       0x31 /home/woz/lisa-m-team4938/paparazzi/var/ECE_2012/ap/math/pprz_geodetic_int.o
 .ARM.attributes
                0x00000126       0x31 /home/woz/lisa-m-team4938/paparazzi/var/ECE_2012/ap/math/pprz_geodetic_float.o
 .ARM.attributes
                0x00000157       0x31 /home/woz/lisa-m-team4938/paparazzi/var/ECE_2012/ap/math/pprz_geodetic_double.o
 .ARM.attributes
                0x00000188       0x31 /home/woz/lisa-m-team4938/paparazzi/var/ECE_2012/ap/math/pprz_trig_int.o
 .ARM.attributes
                0x000001b9       0x31 /home/woz/lisa-m-team4938/paparazzi/var/ECE_2012/ap/mcu_periph/i2c.o
 .ARM.attributes
                0x000001ea       0x31 /home/woz/lisa-m-team4938/paparazzi/var/ECE_2012/ap/arch/stm32/mcu_periph/i2c_arch.o
 .ARM.attributes
                0x0000021b       0x31 /home/woz/lisa-m-team4938/paparazzi/var/ECE_2012/ap/firmwares/fixedwing/main_fbw.o
 .ARM.attributes
                0x0000024c       0x31 /home/woz/lisa-m-team4938/paparazzi/var/ECE_2012/ap/subsystems/electrical.o
 .ARM.attributes
                0x0000027d       0x31 /home/woz/lisa-m-team4938/paparazzi/var/ECE_2012/ap/./commands.o
 .ARM.attributes
                0x000002ae       0x31 /home/woz/lisa-m-team4938/paparazzi/var/ECE_2012/ap/firmwares/fixedwing/main_ap.o
 .ARM.attributes
                0x000002df       0x31 /home/woz/lisa-m-team4938/paparazzi/var/ECE_2012/ap/./estimator.o
 .ARM.attributes
                0x00000310       0x31 /home/woz/lisa-m-team4938/paparazzi/var/ECE_2012/ap/arch/stm32/stm32_exceptions.o
 .ARM.attributes
                0x00000341       0x31 /home/woz/lisa-m-team4938/paparazzi/var/ECE_2012/ap/arch/stm32/stm32_vector_table.o
 .ARM.attributes
                0x00000372       0x31 /home/woz/lisa-m-team4938/paparazzi/var/ECE_2012/ap/lisa/plug_sys.o
 .ARM.attributes
                0x000003a3       0x31 /home/woz/lisa-m-team4938/paparazzi/var/ECE_2012/ap/firmwares/fixedwing/main.o
 .ARM.attributes
                0x000003d4       0x31 /home/woz/lisa-m-team4938/paparazzi/var/ECE_2012/ap/arch/stm32/sys_time_hw.o
 .ARM.attributes
                0x00000405       0x31 /home/woz/lisa-m-team4938/paparazzi/var/ECE_2012/ap/mcu_periph/uart.o
 .ARM.attributes
                0x00000436       0x31 /home/woz/lisa-m-team4938/paparazzi/var/ECE_2012/ap/arch/stm32/mcu_periph/uart_arch.o
 .ARM.attributes
                0x00000467       0x31 /home/woz/lisa-m-team4938/paparazzi/var/ECE_2012/ap/subsystems/settings.o
 .ARM.attributes
                0x00000498       0x31 /home/woz/lisa-m-team4938/paparazzi/var/ECE_2012/ap/arch/stm32/subsystems/settings_arch.o
 .ARM.attributes
                0x000004c9       0x31 /home/woz/lisa-m-team4938/paparazzi/var/ECE_2012/ap/arch/stm32/mcu_periph/adc_arch.o
 .ARM.attributes
                0x000004fa       0x31 /home/woz/lisa-m-team4938/paparazzi/var/ECE_2012/ap/arch/stm32/servos_direct_hw.o
 .ARM.attributes
                0x0000052b       0x31 /home/woz/lisa-m-team4938/paparazzi/var/ECE_2012/ap/actuators.o
 .ARM.attributes
                0x0000055c       0x31 /home/woz/lisa-m-team4938/paparazzi/var/ECE_2012/ap/firmwares/rotorcraft/actuators/arch/stm32/actuators_pwm_arch.o
 .ARM.attributes
                0x0000058d       0x31 /home/woz/lisa-m-team4938/paparazzi/var/ECE_2012/ap/subsystems/radio_control.o
 .ARM.attributes
                0x000005be       0x31 /home/woz/lisa-m-team4938/paparazzi/var/ECE_2012/ap/subsystems/radio_control/ppm.o
 .ARM.attributes
                0x000005ef       0x31 /home/woz/lisa-m-team4938/paparazzi/var/ECE_2012/ap/arch/stm32/subsystems/radio_control/ppm_arch.o
 .ARM.attributes
                0x00000620       0x31 /home/woz/lisa-m-team4938/paparazzi/var/ECE_2012/ap/downlink.o
 .ARM.attributes
                0x00000651       0x31 /home/woz/lisa-m-team4938/paparazzi/var/ECE_2012/ap/pprz_transport.o
 .ARM.attributes
                0x00000682       0x31 /home/woz/lisa-m-team4938/paparazzi/var/ECE_2012/ap/firmwares/fixedwing/datalink.o
 .ARM.attributes
                0x000006b3       0x31 /home/woz/lisa-m-team4938/paparazzi/var/ECE_2012/ap/firmwares/fixedwing/stabilization/stabilization_attitude.o
 .ARM.attributes
                0x000006e4       0x31 /home/woz/lisa-m-team4938/paparazzi/var/ECE_2012/ap/firmwares/fixedwing/guidance/guidance_v.o
 .ARM.attributes
                0x00000715       0x31 /home/woz/lisa-m-team4938/paparazzi/var/ECE_2012/ap/subsystems/imu.o
 .ARM.attributes
                0x00000746       0x31 /home/woz/lisa-m-team4938/paparazzi/var/ECE_2012/ap/subsystems/imu/imu_aspirin.o
 .ARM.attributes
                0x00000777       0x31 /home/woz/lisa-m-team4938/paparazzi/var/ECE_2012/ap/arch/stm32/subsystems/imu/imu_aspirin_arch.o
 .ARM.attributes
                0x000007a8       0x31 /home/woz/lisa-m-team4938/paparazzi/var/ECE_2012/ap/peripherals/hmc5843.o
 .ARM.attributes
                0x000007d9       0x31 /home/woz/lisa-m-team4938/paparazzi/var/ECE_2012/ap/arch/stm32/peripherals/hmc5843_arch.o
 .ARM.attributes
                0x0000080a       0x31 /home/woz/lisa-m-team4938/paparazzi/var/ECE_2012/ap/subsystems/ahrs.o
 .ARM.attributes
                0x0000083b       0x31 /home/woz/lisa-m-team4938/paparazzi/var/ECE_2012/ap/subsystems/ahrs/ahrs_aligner.o
 .ARM.attributes
                0x0000086c       0x31 /home/woz/lisa-m-team4938/paparazzi/var/ECE_2012/ap/subsystems/ahrs/ahrs_float_dcm.o
 .ARM.attributes
                0x0000089d       0x31 /home/woz/lisa-m-team4938/paparazzi/var/ECE_2012/ap/subsystems/gps/gps_ubx.o
 .ARM.attributes
                0x000008ce       0x31 /home/woz/lisa-m-team4938/paparazzi/var/ECE_2012/ap/subsystems/gps.o
 .ARM.attributes
                0x000008ff       0x31 /home/woz/lisa-m-team4938/paparazzi/var/ECE_2012/ap/subsystems/nav.o
 .ARM.attributes
                0x00000930       0x31 /home/woz/lisa-m-team4938/paparazzi/var/ECE_2012/ap/subsystems/navigation/common_flight_plan.o
 .ARM.attributes
                0x00000961       0x31 /home/woz/lisa-m-team4938/paparazzi/var/ECE_2012/ap/subsystems/navigation/traffic_info.o
 .ARM.attributes
                0x00000992       0x31 /home/woz/lisa-m-team4938/paparazzi/var/ECE_2012/ap/subsystems/navigation/nav_survey_rectangle.o
 .ARM.attributes
                0x000009c3       0x31 /home/woz/lisa-m-team4938/paparazzi/var/ECE_2012/ap/subsystems/navigation/nav_line.o
 .ARM.attributes
                0x000009f4       0x29 /opt/paparazzi/arm-multilib/lib/gcc/arm-none-eabi/4.4.5/../../../../arm-none-eabi/lib/thumb2/libc.a(lib_a-memcpy.o)
 .ARM.attributes
                0x00000a1d       0x29 /opt/paparazzi/arm-multilib/lib/gcc/arm-none-eabi/4.4.5/../../../../arm-none-eabi/lib/thumb2/libm.a(lib_a-s_atan.o)
 .ARM.attributes
                0x00000a46       0x29 /opt/paparazzi/arm-multilib/lib/gcc/arm-none-eabi/4.4.5/../../../../arm-none-eabi/lib/thumb2/libm.a(lib_a-s_cos.o)
 .ARM.attributes
                0x00000a6f       0x29 /opt/paparazzi/arm-multilib/lib/gcc/arm-none-eabi/4.4.5/../../../../arm-none-eabi/lib/thumb2/libm.a(lib_a-s_fabs.o)
 .ARM.attributes
                0x00000a98       0x29 /opt/paparazzi/arm-multilib/lib/gcc/arm-none-eabi/4.4.5/../../../../arm-none-eabi/lib/thumb2/libm.a(lib_a-s_rint.o)
 .ARM.attributes
                0x00000ac1       0x29 /opt/paparazzi/arm-multilib/lib/gcc/arm-none-eabi/4.4.5/../../../../arm-none-eabi/lib/thumb2/libm.a(lib_a-s_sin.o)
 .ARM.attributes
                0x00000aea       0x29 /opt/paparazzi/arm-multilib/lib/gcc/arm-none-eabi/4.4.5/../../../../arm-none-eabi/lib/thumb2/libm.a(lib_a-s_tan.o)
 .ARM.attributes
                0x00000b13       0x29 /opt/paparazzi/arm-multilib/lib/gcc/arm-none-eabi/4.4.5/../../../../arm-none-eabi/lib/thumb2/libm.a(lib_a-sf_atan.o)
 .ARM.attributes
                0x00000b3c       0x29 /opt/paparazzi/arm-multilib/lib/gcc/arm-none-eabi/4.4.5/../../../../arm-none-eabi/lib/thumb2/libm.a(lib_a-sf_cos.o)
 .ARM.attributes
                0x00000b65       0x29 /opt/paparazzi/arm-multilib/lib/gcc/arm-none-eabi/4.4.5/../../../../arm-none-eabi/lib/thumb2/libm.a(lib_a-sf_fabs.o)
 .ARM.attributes
                0x00000b8e       0x29 /opt/paparazzi/arm-multilib/lib/gcc/arm-none-eabi/4.4.5/../../../../arm-none-eabi/lib/thumb2/libm.a(lib_a-sf_sin.o)
 .ARM.attributes
                0x00000bb7       0x29 /opt/paparazzi/arm-multilib/lib/gcc/arm-none-eabi/4.4.5/../../../../arm-none-eabi/lib/thumb2/libm.a(lib_a-w_asin.o)
 .ARM.attributes
                0x00000be0       0x29 /opt/paparazzi/arm-multilib/lib/gcc/arm-none-eabi/4.4.5/../../../../arm-none-eabi/lib/thumb2/libm.a(lib_a-w_atan2.o)
 .ARM.attributes
                0x00000c09       0x29 /opt/paparazzi/arm-multilib/lib/gcc/arm-none-eabi/4.4.5/../../../../arm-none-eabi/lib/thumb2/libm.a(lib_a-w_cosh.o)
 .ARM.attributes
                0x00000c32       0x29 /opt/paparazzi/arm-multilib/lib/gcc/arm-none-eabi/4.4.5/../../../../arm-none-eabi/lib/thumb2/libm.a(lib_a-w_exp.o)
 .ARM.attributes
                0x00000c5b       0x29 /opt/paparazzi/arm-multilib/lib/gcc/arm-none-eabi/4.4.5/../../../../arm-none-eabi/lib/thumb2/libm.a(lib_a-w_log.o)
 .ARM.attributes
                0x00000c84       0x29 /opt/paparazzi/arm-multilib/lib/gcc/arm-none-eabi/4.4.5/../../../../arm-none-eabi/lib/thumb2/libm.a(lib_a-w_pow.o)
 .ARM.attributes
                0x00000cad       0x29 /opt/paparazzi/arm-multilib/lib/gcc/arm-none-eabi/4.4.5/../../../../arm-none-eabi/lib/thumb2/libm.a(lib_a-w_sinh.o)
 .ARM.attributes
                0x00000cd6       0x29 /opt/paparazzi/arm-multilib/lib/gcc/arm-none-eabi/4.4.5/../../../../arm-none-eabi/lib/thumb2/libm.a(lib_a-w_sqrt.o)
 .ARM.attributes
                0x00000cff       0x29 /opt/paparazzi/arm-multilib/lib/gcc/arm-none-eabi/4.4.5/../../../../arm-none-eabi/lib/thumb2/libm.a(lib_a-wf_asin.o)
 .ARM.attributes
                0x00000d28       0x29 /opt/paparazzi/arm-multilib/lib/gcc/arm-none-eabi/4.4.5/../../../../arm-none-eabi/lib/thumb2/libm.a(lib_a-wf_atan2.o)
 .ARM.attributes
                0x00000d51       0x29 /opt/paparazzi/arm-multilib/lib/gcc/arm-none-eabi/4.4.5/../../../../arm-none-eabi/lib/thumb2/libm.a(lib_a-wf_pow.o)
 .ARM.attributes
                0x00000d7a       0x29 /opt/paparazzi/arm-multilib/lib/gcc/arm-none-eabi/4.4.5/../../../../arm-none-eabi/lib/thumb2/libm.a(lib_a-wf_sqrt.o)
 .ARM.attributes
                0x00000da3       0x29 /opt/paparazzi/arm-multilib/lib/gcc/arm-none-eabi/4.4.5/../../../../arm-none-eabi/lib/thumb2/libm.a(lib_a-e_asin.o)
 .ARM.attributes
                0x00000dcc       0x29 /opt/paparazzi/arm-multilib/lib/gcc/arm-none-eabi/4.4.5/../../../../arm-none-eabi/lib/thumb2/libm.a(lib_a-e_atan2.o)
 .ARM.attributes
                0x00000df5       0x29 /opt/paparazzi/arm-multilib/lib/gcc/arm-none-eabi/4.4.5/../../../../arm-none-eabi/lib/thumb2/libm.a(lib_a-e_cosh.o)
 .ARM.attributes
                0x00000e1e       0x29 /opt/paparazzi/arm-multilib/lib/gcc/arm-none-eabi/4.4.5/../../../../arm-none-eabi/lib/thumb2/libm.a(lib_a-e_exp.o)
 .ARM.attributes
                0x00000e47       0x29 /opt/paparazzi/arm-multilib/lib/gcc/arm-none-eabi/4.4.5/../../../../arm-none-eabi/lib/thumb2/libm.a(lib_a-e_log.o)
 .ARM.attributes
                0x00000e70       0x29 /opt/paparazzi/arm-multilib/lib/gcc/arm-none-eabi/4.4.5/../../../../arm-none-eabi/lib/thumb2/libm.a(lib_a-e_pow.o)
 .ARM.attributes
                0x00000e99       0x29 /opt/paparazzi/arm-multilib/lib/gcc/arm-none-eabi/4.4.5/../../../../arm-none-eabi/lib/thumb2/libm.a(lib_a-e_rem_pio2.o)
 .ARM.attributes
                0x00000ec2       0x29 /opt/paparazzi/arm-multilib/lib/gcc/arm-none-eabi/4.4.5/../../../../arm-none-eabi/lib/thumb2/libm.a(lib_a-e_sinh.o)
 .ARM.attributes
                0x00000eeb       0x29 /opt/paparazzi/arm-multilib/lib/gcc/arm-none-eabi/4.4.5/../../../../arm-none-eabi/lib/thumb2/libm.a(lib_a-e_sqrt.o)
 .ARM.attributes
                0x00000f14       0x29 /opt/paparazzi/arm-multilib/lib/gcc/arm-none-eabi/4.4.5/../../../../arm-none-eabi/lib/thumb2/libm.a(lib_a-ef_asin.o)
 .ARM.attributes
                0x00000f3d       0x29 /opt/paparazzi/arm-multilib/lib/gcc/arm-none-eabi/4.4.5/../../../../arm-none-eabi/lib/thumb2/libm.a(lib_a-ef_atan2.o)
 .ARM.attributes
                0x00000f66       0x29 /opt/paparazzi/arm-multilib/lib/gcc/arm-none-eabi/4.4.5/../../../../arm-none-eabi/lib/thumb2/libm.a(lib_a-ef_pow.o)
 .ARM.attributes
                0x00000f8f       0x29 /opt/paparazzi/arm-multilib/lib/gcc/arm-none-eabi/4.4.5/../../../../arm-none-eabi/lib/thumb2/libm.a(lib_a-ef_rem_pio2.o)
 .ARM.attributes
                0x00000fb8       0x29 /opt/paparazzi/arm-multilib/lib/gcc/arm-none-eabi/4.4.5/../../../../arm-none-eabi/lib/thumb2/libm.a(lib_a-ef_sqrt.o)
 .ARM.attributes
                0x00000fe1       0x29 /opt/paparazzi/arm-multilib/lib/gcc/arm-none-eabi/4.4.5/../../../../arm-none-eabi/lib/thumb2/libm.a(lib_a-k_cos.o)
 .ARM.attributes
                0x0000100a       0x29 /opt/paparazzi/arm-multilib/lib/gcc/arm-none-eabi/4.4.5/../../../../arm-none-eabi/lib/thumb2/libm.a(lib_a-k_rem_pio2.o)
 .ARM.attributes
                0x00001033       0x29 /opt/paparazzi/arm-multilib/lib/gcc/arm-none-eabi/4.4.5/../../../../arm-none-eabi/lib/thumb2/libm.a(lib_a-k_sin.o)
 .ARM.attributes
                0x0000105c       0x29 /opt/paparazzi/arm-multilib/lib/gcc/arm-none-eabi/4.4.5/../../../../arm-none-eabi/lib/thumb2/libm.a(lib_a-k_tan.o)
 .ARM.attributes
                0x00001085       0x29 /opt/paparazzi/arm-multilib/lib/gcc/arm-none-eabi/4.4.5/../../../../arm-none-eabi/lib/thumb2/libm.a(lib_a-kf_cos.o)
 .ARM.attributes
                0x000010ae       0x29 /opt/paparazzi/arm-multilib/lib/gcc/arm-none-eabi/4.4.5/../../../../arm-none-eabi/lib/thumb2/libm.a(lib_a-kf_rem_pio2.o)
 .ARM.attributes
                0x000010d7       0x29 /opt/paparazzi/arm-multilib/lib/gcc/arm-none-eabi/4.4.5/../../../../arm-none-eabi/lib/thumb2/libm.a(lib_a-kf_sin.o)
 .ARM.attributes
                0x00001100       0x29 /opt/paparazzi/arm-multilib/lib/gcc/arm-none-eabi/4.4.5/../../../../arm-none-eabi/lib/thumb2/libm.a(lib_a-s_expm1.o)
 .ARM.attributes
                0x00001129       0x29 /opt/paparazzi/arm-multilib/lib/gcc/arm-none-eabi/4.4.5/../../../../arm-none-eabi/lib/thumb2/libm.a(lib_a-s_finite.o)
 .ARM.attributes
                0x00001152       0x29 /opt/paparazzi/arm-multilib/lib/gcc/arm-none-eabi/4.4.5/../../../../arm-none-eabi/lib/thumb2/libm.a(lib_a-s_floor.o)
 .ARM.attributes
                0x0000117b       0x29 /opt/paparazzi/arm-multilib/lib/gcc/arm-none-eabi/4.4.5/../../../../arm-none-eabi/lib/thumb2/libm.a(lib_a-s_fpclassify.o)
 .ARM.attributes
                0x000011a4       0x29 /opt/paparazzi/arm-multilib/lib/gcc/arm-none-eabi/4.4.5/../../../../arm-none-eabi/lib/thumb2/libm.a(lib_a-s_lib_ver.o)
 .ARM.attributes
                0x000011cd       0x29 /opt/paparazzi/arm-multilib/lib/gcc/arm-none-eabi/4.4.5/../../../../arm-none-eabi/lib/thumb2/libm.a(lib_a-s_matherr.o)
 .ARM.attributes
                0x000011f6       0x29 /opt/paparazzi/arm-multilib/lib/gcc/arm-none-eabi/4.4.5/../../../../arm-none-eabi/lib/thumb2/libm.a(lib_a-s_nan.o)
 .ARM.attributes
                0x0000121f       0x29 /opt/paparazzi/arm-multilib/lib/gcc/arm-none-eabi/4.4.5/../../../../arm-none-eabi/lib/thumb2/libm.a(lib_a-s_scalbn.o)
 .ARM.attributes
                0x00001248       0x29 /opt/paparazzi/arm-multilib/lib/gcc/arm-none-eabi/4.4.5/../../../../arm-none-eabi/lib/thumb2/libm.a(lib_a-sf_finite.o)
 .ARM.attributes
                0x00001271       0x29 /opt/paparazzi/arm-multilib/lib/gcc/arm-none-eabi/4.4.5/../../../../arm-none-eabi/lib/thumb2/libm.a(lib_a-sf_floor.o)
 .ARM.attributes
                0x0000129a       0x29 /opt/paparazzi/arm-multilib/lib/gcc/arm-none-eabi/4.4.5/../../../../arm-none-eabi/lib/thumb2/libm.a(lib_a-sf_fpclassify.o)
 .ARM.attributes
                0x000012c3       0x29 /opt/paparazzi/arm-multilib/lib/gcc/arm-none-eabi/4.4.5/../../../../arm-none-eabi/lib/thumb2/libm.a(lib_a-sf_nan.o)
 .ARM.attributes
                0x000012ec       0x29 /opt/paparazzi/arm-multilib/lib/gcc/arm-none-eabi/4.4.5/../../../../arm-none-eabi/lib/thumb2/libm.a(lib_a-sf_scalbn.o)
 .ARM.attributes
                0x00001315       0x29 /opt/paparazzi/arm-multilib/lib/gcc/arm-none-eabi/4.4.5/../../../../arm-none-eabi/lib/thumb2/libm.a(lib_a-s_copysign.o)
 .ARM.attributes
                0x0000133e       0x29 /opt/paparazzi/arm-multilib/lib/gcc/arm-none-eabi/4.4.5/../../../../arm-none-eabi/lib/thumb2/libm.a(lib_a-sf_copysign.o)
 .ARM.attributes
                0x00001367       0x1b /opt/paparazzi/arm-multilib/lib/gcc/arm-none-eabi/4.4.5/thumb2/libgcc.a(_divsi3.o)
 .ARM.attributes
                0x00001382       0x1b /opt/paparazzi/arm-multilib/lib/gcc/arm-none-eabi/4.4.5/thumb2/libgcc.a(_dvmd_tls.o)
 .ARM.attributes
                0x0000139d       0x1b /opt/paparazzi/arm-multilib/lib/gcc/arm-none-eabi/4.4.5/thumb2/libgcc.a(_arm_addsubdf3.o)
 .ARM.attributes
                0x000013b8       0x1b /opt/paparazzi/arm-multilib/lib/gcc/arm-none-eabi/4.4.5/thumb2/libgcc.a(_arm_muldivdf3.o)
 .ARM.attributes
                0x000013d3       0x1b /opt/paparazzi/arm-multilib/lib/gcc/arm-none-eabi/4.4.5/thumb2/libgcc.a(_arm_cmpdf2.o)
 .ARM.attributes
                0x000013ee       0x1b /opt/paparazzi/arm-multilib/lib/gcc/arm-none-eabi/4.4.5/thumb2/libgcc.a(_arm_fixdfsi.o)
 .ARM.attributes
                0x00001409       0x1b /opt/paparazzi/arm-multilib/lib/gcc/arm-none-eabi/4.4.5/thumb2/libgcc.a(_arm_fixunsdfsi.o)
 .ARM.attributes
                0x00001424       0x1b /opt/paparazzi/arm-multilib/lib/gcc/arm-none-eabi/4.4.5/thumb2/libgcc.a(_arm_truncdfsf2.o)
 .ARM.attributes
                0x0000143f       0x1b /opt/paparazzi/arm-multilib/lib/gcc/arm-none-eabi/4.4.5/thumb2/libgcc.a(_arm_addsubsf3.o)
 .ARM.attributes
                0x0000145a       0x1b /opt/paparazzi/arm-multilib/lib/gcc/arm-none-eabi/4.4.5/thumb2/libgcc.a(_arm_muldivsf3.o)
 .ARM.attributes
                0x00001475       0x1b /opt/paparazzi/arm-multilib/lib/gcc/arm-none-eabi/4.4.5/thumb2/libgcc.a(_arm_cmpsf2.o)
 .ARM.attributes
                0x00001490       0x1b /opt/paparazzi/arm-multilib/lib/gcc/arm-none-eabi/4.4.5/thumb2/libgcc.a(_arm_fixsfsi.o)
 .ARM.attributes
                0x000014ab       0x1b /opt/paparazzi/arm-multilib/lib/gcc/arm-none-eabi/4.4.5/thumb2/libgcc.a(_arm_fixunssfsi.o)
 .ARM.attributes
                0x000014c6       0x31 /opt/paparazzi/arm-multilib/lib/gcc/arm-none-eabi/4.4.5/../../../../arm-none-eabi/lib/libstm32.a(stm32_adc.o)
 .ARM.attributes
                0x000014f7       0x31 /opt/paparazzi/arm-multilib/lib/gcc/arm-none-eabi/4.4.5/../../../../arm-none-eabi/lib/libstm32.a(stm32_tim.o)
 .ARM.attributes
                0x00001528       0x31 /opt/paparazzi/arm-multilib/lib/gcc/arm-none-eabi/4.4.5/../../../../arm-none-eabi/lib/libstm32.a(stm32_dma.o)
 .ARM.attributes
                0x00001559       0x31 /opt/paparazzi/arm-multilib/lib/gcc/arm-none-eabi/4.4.5/../../../../arm-none-eabi/lib/libstm32.a(stm32_gpio.o)
 .ARM.attributes
                0x0000158a       0x31 /opt/paparazzi/arm-multilib/lib/gcc/arm-none-eabi/4.4.5/../../../../arm-none-eabi/lib/libstm32.a(stm32_usart.o)
 .ARM.attributes
                0x000015bb       0x31 /opt/paparazzi/arm-multilib/lib/gcc/arm-none-eabi/4.4.5/../../../../arm-none-eabi/lib/libstm32.a(stm32_exti.o)
 .ARM.attributes
                0x000015ec       0x31 /opt/paparazzi/arm-multilib/lib/gcc/arm-none-eabi/4.4.5/../../../../arm-none-eabi/lib/libstm32.a(stm32_i2c.o)
 .ARM.attributes
                0x0000161d       0x31 /opt/paparazzi/arm-multilib/lib/gcc/arm-none-eabi/4.4.5/../../../../arm-none-eabi/lib/libstm32.a(stm32_spi.o)
 .ARM.attributes
                0x0000164e       0x31 /opt/paparazzi/arm-multilib/lib/gcc/arm-none-eabi/4.4.5/../../../../arm-none-eabi/lib/libstm32.a(stm32_rcc.o)
 .ARM.attributes
                0x0000167f       0x31 /opt/paparazzi/arm-multilib/lib/gcc/arm-none-eabi/4.4.5/../../../../arm-none-eabi/lib/libstm32.a(stm32_misc.o)
 .ARM.attributes
                0x000016b0       0x31 /opt/paparazzi/arm-multilib/lib/gcc/arm-none-eabi/4.4.5/../../../../arm-none-eabi/lib/libopencm3_stm32.a(rcc.o)
 .ARM.attributes
                0x000016e1       0x31 /opt/paparazzi/arm-multilib/lib/gcc/arm-none-eabi/4.4.5/../../../../arm-none-eabi/lib/libopencm3_stm32.a(usart.o)
 .ARM.attributes
                0x00001712       0x31 /opt/paparazzi/arm-multilib/lib/gcc/arm-none-eabi/4.4.5/../../../../arm-none-eabi/lib/libopencm3_stm32.a(flash.o)
 .ARM.attributes
                0x00001743       0x29 /opt/paparazzi/arm-multilib/lib/gcc/arm-none-eabi/4.4.5/../../../../arm-none-eabi/lib/thumb2/libc.a(lib_a-errno.o)
 .ARM.attributes
                0x0000176c       0x29 /opt/paparazzi/arm-multilib/lib/gcc/arm-none-eabi/4.4.5/../../../../arm-none-eabi/lib/thumb2/libc.a(lib_a-impure.o)

.comment        0x00000000       0x26
 *(.comment)
 .comment       0x00000000       0x26 /home/woz/lisa-m-team4938/paparazzi/var/ECE_2012/ap/mcu.o
                                 0x27 (size before relaxing)
 .comment       0x00000000       0x27 /home/woz/lisa-m-team4938/paparazzi/var/ECE_2012/ap/arch/stm32/mcu_arch.o
 .comment       0x00000000       0x27 /home/woz/lisa-m-team4938/paparazzi/var/ECE_2012/ap/arch/stm32/led_hw.o
 .comment       0x00000000       0x27 /home/woz/lisa-m-team4938/paparazzi/var/ECE_2012/ap/sys_time.o
 .comment       0x00000000       0x27 /home/woz/lisa-m-team4938/paparazzi/var/ECE_2012/ap/./inter_mcu.o
 .comment       0x00000000       0x27 /home/woz/lisa-m-team4938/paparazzi/var/ECE_2012/ap/math/pprz_geodetic_int.o
 .comment       0x00000000       0x27 /home/woz/lisa-m-team4938/paparazzi/var/ECE_2012/ap/math/pprz_geodetic_float.o
 .comment       0x00000000       0x27 /home/woz/lisa-m-team4938/paparazzi/var/ECE_2012/ap/math/pprz_geodetic_double.o
 .comment       0x00000000       0x27 /home/woz/lisa-m-team4938/paparazzi/var/ECE_2012/ap/math/pprz_trig_int.o
 .comment       0x00000000       0x27 /home/woz/lisa-m-team4938/paparazzi/var/ECE_2012/ap/mcu_periph/i2c.o
 .comment       0x00000000       0x27 /home/woz/lisa-m-team4938/paparazzi/var/ECE_2012/ap/arch/stm32/mcu_periph/i2c_arch.o
 .comment       0x00000000       0x27 /home/woz/lisa-m-team4938/paparazzi/var/ECE_2012/ap/firmwares/fixedwing/main_fbw.o
 .comment       0x00000000       0x27 /home/woz/lisa-m-team4938/paparazzi/var/ECE_2012/ap/subsystems/electrical.o
 .comment       0x00000000       0x27 /home/woz/lisa-m-team4938/paparazzi/var/ECE_2012/ap/./commands.o
 .comment       0x00000000       0x27 /home/woz/lisa-m-team4938/paparazzi/var/ECE_2012/ap/firmwares/fixedwing/main_ap.o
 .comment       0x00000000       0x27 /home/woz/lisa-m-team4938/paparazzi/var/ECE_2012/ap/./estimator.o
 .comment       0x00000000       0x27 /home/woz/lisa-m-team4938/paparazzi/var/ECE_2012/ap/arch/stm32/stm32_exceptions.o
 .comment       0x00000000       0x27 /home/woz/lisa-m-team4938/paparazzi/var/ECE_2012/ap/arch/stm32/stm32_vector_table.o
 .comment       0x00000000       0x27 /home/woz/lisa-m-team4938/paparazzi/var/ECE_2012/ap/lisa/plug_sys.o
 .comment       0x00000000       0x27 /home/woz/lisa-m-team4938/paparazzi/var/ECE_2012/ap/firmwares/fixedwing/main.o
 .comment       0x00000000       0x27 /home/woz/lisa-m-team4938/paparazzi/var/ECE_2012/ap/arch/stm32/sys_time_hw.o
 .comment       0x00000000       0x27 /home/woz/lisa-m-team4938/paparazzi/var/ECE_2012/ap/mcu_periph/uart.o
 .comment       0x00000000       0x27 /home/woz/lisa-m-team4938/paparazzi/var/ECE_2012/ap/arch/stm32/mcu_periph/uart_arch.o
 .comment       0x00000000       0x27 /home/woz/lisa-m-team4938/paparazzi/var/ECE_2012/ap/subsystems/settings.o
 .comment       0x00000000       0x27 /home/woz/lisa-m-team4938/paparazzi/var/ECE_2012/ap/arch/stm32/subsystems/settings_arch.o
 .comment       0x00000000       0x27 /home/woz/lisa-m-team4938/paparazzi/var/ECE_2012/ap/arch/stm32/mcu_periph/adc_arch.o
 .comment       0x00000000       0x27 /home/woz/lisa-m-team4938/paparazzi/var/ECE_2012/ap/arch/stm32/servos_direct_hw.o
 .comment       0x00000000       0x27 /home/woz/lisa-m-team4938/paparazzi/var/ECE_2012/ap/actuators.o
 .comment       0x00000000       0x27 /home/woz/lisa-m-team4938/paparazzi/var/ECE_2012/ap/firmwares/rotorcraft/actuators/arch/stm32/actuators_pwm_arch.o
 .comment       0x00000000       0x27 /home/woz/lisa-m-team4938/paparazzi/var/ECE_2012/ap/subsystems/radio_control.o
 .comment       0x00000000       0x27 /home/woz/lisa-m-team4938/paparazzi/var/ECE_2012/ap/subsystems/radio_control/ppm.o
 .comment       0x00000000       0x27 /home/woz/lisa-m-team4938/paparazzi/var/ECE_2012/ap/arch/stm32/subsystems/radio_control/ppm_arch.o
 .comment       0x00000000       0x27 /home/woz/lisa-m-team4938/paparazzi/var/ECE_2012/ap/downlink.o
 .comment       0x00000000       0x27 /home/woz/lisa-m-team4938/paparazzi/var/ECE_2012/ap/pprz_transport.o
 .comment       0x00000000       0x27 /home/woz/lisa-m-team4938/paparazzi/var/ECE_2012/ap/firmwares/fixedwing/datalink.o
 .comment       0x00000000       0x27 /home/woz/lisa-m-team4938/paparazzi/var/ECE_2012/ap/firmwares/fixedwing/stabilization/stabilization_attitude.o
 .comment       0x00000000       0x27 /home/woz/lisa-m-team4938/paparazzi/var/ECE_2012/ap/firmwares/fixedwing/guidance/guidance_v.o
 .comment       0x00000000       0x27 /home/woz/lisa-m-team4938/paparazzi/var/ECE_2012/ap/subsystems/imu.o
 .comment       0x00000000       0x27 /home/woz/lisa-m-team4938/paparazzi/var/ECE_2012/ap/subsystems/imu/imu_aspirin.o
 .comment       0x00000000       0x27 /home/woz/lisa-m-team4938/paparazzi/var/ECE_2012/ap/arch/stm32/subsystems/imu/imu_aspirin_arch.o
 .comment       0x00000000       0x27 /home/woz/lisa-m-team4938/paparazzi/var/ECE_2012/ap/peripherals/hmc5843.o
 .comment       0x00000000       0x27 /home/woz/lisa-m-team4938/paparazzi/var/ECE_2012/ap/arch/stm32/peripherals/hmc5843_arch.o
 .comment       0x00000000       0x27 /home/woz/lisa-m-team4938/paparazzi/var/ECE_2012/ap/subsystems/ahrs.o
 .comment       0x00000000       0x27 /home/woz/lisa-m-team4938/paparazzi/var/ECE_2012/ap/subsystems/ahrs/ahrs_aligner.o
 .comment       0x00000000       0x27 /home/woz/lisa-m-team4938/paparazzi/var/ECE_2012/ap/subsystems/ahrs/ahrs_float_dcm.o
 .comment       0x00000000       0x27 /home/woz/lisa-m-team4938/paparazzi/var/ECE_2012/ap/subsystems/gps/gps_ubx.o
 .comment       0x00000000       0x27 /home/woz/lisa-m-team4938/paparazzi/var/ECE_2012/ap/subsystems/gps.o
 .comment       0x00000000       0x27 /home/woz/lisa-m-team4938/paparazzi/var/ECE_2012/ap/subsystems/nav.o
 .comment       0x00000000       0x27 /home/woz/lisa-m-team4938/paparazzi/var/ECE_2012/ap/subsystems/navigation/common_flight_plan.o
 .comment       0x00000000       0x27 /home/woz/lisa-m-team4938/paparazzi/var/ECE_2012/ap/subsystems/navigation/traffic_info.o
 .comment       0x00000000       0x27 /home/woz/lisa-m-team4938/paparazzi/var/ECE_2012/ap/subsystems/navigation/nav_survey_rectangle.o
 .comment       0x00000000       0x27 /home/woz/lisa-m-team4938/paparazzi/var/ECE_2012/ap/subsystems/navigation/nav_line.o
 .comment       0x00000000       0x27 /opt/paparazzi/arm-multilib/lib/gcc/arm-none-eabi/4.4.5/../../../../arm-none-eabi/lib/thumb2/libc.a(lib_a-memcpy.o)
 .comment       0x00000000       0x27 /opt/paparazzi/arm-multilib/lib/gcc/arm-none-eabi/4.4.5/../../../../arm-none-eabi/lib/thumb2/libm.a(lib_a-s_atan.o)
 .comment       0x00000000       0x27 /opt/paparazzi/arm-multilib/lib/gcc/arm-none-eabi/4.4.5/../../../../arm-none-eabi/lib/thumb2/libm.a(lib_a-s_cos.o)
 .comment       0x00000000       0x27 /opt/paparazzi/arm-multilib/lib/gcc/arm-none-eabi/4.4.5/../../../../arm-none-eabi/lib/thumb2/libm.a(lib_a-s_fabs.o)
 .comment       0x00000000       0x27 /opt/paparazzi/arm-multilib/lib/gcc/arm-none-eabi/4.4.5/../../../../arm-none-eabi/lib/thumb2/libm.a(lib_a-s_rint.o)
 .comment       0x00000000       0x27 /opt/paparazzi/arm-multilib/lib/gcc/arm-none-eabi/4.4.5/../../../../arm-none-eabi/lib/thumb2/libm.a(lib_a-s_sin.o)
 .comment       0x00000000       0x27 /opt/paparazzi/arm-multilib/lib/gcc/arm-none-eabi/4.4.5/../../../../arm-none-eabi/lib/thumb2/libm.a(lib_a-s_tan.o)
 .comment       0x00000000       0x27 /opt/paparazzi/arm-multilib/lib/gcc/arm-none-eabi/4.4.5/../../../../arm-none-eabi/lib/thumb2/libm.a(lib_a-sf_atan.o)
 .comment       0x00000000       0x27 /opt/paparazzi/arm-multilib/lib/gcc/arm-none-eabi/4.4.5/../../../../arm-none-eabi/lib/thumb2/libm.a(lib_a-sf_cos.o)
 .comment       0x00000000       0x27 /opt/paparazzi/arm-multilib/lib/gcc/arm-none-eabi/4.4.5/../../../../arm-none-eabi/lib/thumb2/libm.a(lib_a-sf_fabs.o)
 .comment       0x00000000       0x27 /opt/paparazzi/arm-multilib/lib/gcc/arm-none-eabi/4.4.5/../../../../arm-none-eabi/lib/thumb2/libm.a(lib_a-sf_sin.o)
 .comment       0x00000000       0x27 /opt/paparazzi/arm-multilib/lib/gcc/arm-none-eabi/4.4.5/../../../../arm-none-eabi/lib/thumb2/libm.a(lib_a-w_asin.o)
 .comment       0x00000000       0x27 /opt/paparazzi/arm-multilib/lib/gcc/arm-none-eabi/4.4.5/../../../../arm-none-eabi/lib/thumb2/libm.a(lib_a-w_atan2.o)
 .comment       0x00000000       0x27 /opt/paparazzi/arm-multilib/lib/gcc/arm-none-eabi/4.4.5/../../../../arm-none-eabi/lib/thumb2/libm.a(lib_a-w_cosh.o)
 .comment       0x00000000       0x27 /opt/paparazzi/arm-multilib/lib/gcc/arm-none-eabi/4.4.5/../../../../arm-none-eabi/lib/thumb2/libm.a(lib_a-w_exp.o)
 .comment       0x00000000       0x27 /opt/paparazzi/arm-multilib/lib/gcc/arm-none-eabi/4.4.5/../../../../arm-none-eabi/lib/thumb2/libm.a(lib_a-w_log.o)
 .comment       0x00000000       0x27 /opt/paparazzi/arm-multilib/lib/gcc/arm-none-eabi/4.4.5/../../../../arm-none-eabi/lib/thumb2/libm.a(lib_a-w_pow.o)
 .comment       0x00000000       0x27 /opt/paparazzi/arm-multilib/lib/gcc/arm-none-eabi/4.4.5/../../../../arm-none-eabi/lib/thumb2/libm.a(lib_a-w_sinh.o)
 .comment       0x00000000       0x27 /opt/paparazzi/arm-multilib/lib/gcc/arm-none-eabi/4.4.5/../../../../arm-none-eabi/lib/thumb2/libm.a(lib_a-w_sqrt.o)
 .comment       0x00000000       0x27 /opt/paparazzi/arm-multilib/lib/gcc/arm-none-eabi/4.4.5/../../../../arm-none-eabi/lib/thumb2/libm.a(lib_a-wf_asin.o)
 .comment       0x00000000       0x27 /opt/paparazzi/arm-multilib/lib/gcc/arm-none-eabi/4.4.5/../../../../arm-none-eabi/lib/thumb2/libm.a(lib_a-wf_atan2.o)
 .comment       0x00000000       0x27 /opt/paparazzi/arm-multilib/lib/gcc/arm-none-eabi/4.4.5/../../../../arm-none-eabi/lib/thumb2/libm.a(lib_a-wf_pow.o)
 .comment       0x00000000       0x27 /opt/paparazzi/arm-multilib/lib/gcc/arm-none-eabi/4.4.5/../../../../arm-none-eabi/lib/thumb2/libm.a(lib_a-wf_sqrt.o)
 .comment       0x00000000       0x27 /opt/paparazzi/arm-multilib/lib/gcc/arm-none-eabi/4.4.5/../../../../arm-none-eabi/lib/thumb2/libm.a(lib_a-e_asin.o)
 .comment       0x00000000       0x27 /opt/paparazzi/arm-multilib/lib/gcc/arm-none-eabi/4.4.5/../../../../arm-none-eabi/lib/thumb2/libm.a(lib_a-e_atan2.o)
 .comment       0x00000000       0x27 /opt/paparazzi/arm-multilib/lib/gcc/arm-none-eabi/4.4.5/../../../../arm-none-eabi/lib/thumb2/libm.a(lib_a-e_cosh.o)
 .comment       0x00000000       0x27 /opt/paparazzi/arm-multilib/lib/gcc/arm-none-eabi/4.4.5/../../../../arm-none-eabi/lib/thumb2/libm.a(lib_a-e_exp.o)
 .comment       0x00000000       0x27 /opt/paparazzi/arm-multilib/lib/gcc/arm-none-eabi/4.4.5/../../../../arm-none-eabi/lib/thumb2/libm.a(lib_a-e_log.o)
 .comment       0x00000000       0x27 /opt/paparazzi/arm-multilib/lib/gcc/arm-none-eabi/4.4.5/../../../../arm-none-eabi/lib/thumb2/libm.a(lib_a-e_pow.o)
 .comment       0x00000000       0x27 /opt/paparazzi/arm-multilib/lib/gcc/arm-none-eabi/4.4.5/../../../../arm-none-eabi/lib/thumb2/libm.a(lib_a-e_rem_pio2.o)
 .comment       0x00000000       0x27 /opt/paparazzi/arm-multilib/lib/gcc/arm-none-eabi/4.4.5/../../../../arm-none-eabi/lib/thumb2/libm.a(lib_a-e_sinh.o)
 .comment       0x00000000       0x27 /opt/paparazzi/arm-multilib/lib/gcc/arm-none-eabi/4.4.5/../../../../arm-none-eabi/lib/thumb2/libm.a(lib_a-e_sqrt.o)
 .comment       0x00000000       0x27 /opt/paparazzi/arm-multilib/lib/gcc/arm-none-eabi/4.4.5/../../../../arm-none-eabi/lib/thumb2/libm.a(lib_a-ef_asin.o)
 .comment       0x00000000       0x27 /opt/paparazzi/arm-multilib/lib/gcc/arm-none-eabi/4.4.5/../../../../arm-none-eabi/lib/thumb2/libm.a(lib_a-ef_atan2.o)
 .comment       0x00000000       0x27 /opt/paparazzi/arm-multilib/lib/gcc/arm-none-eabi/4.4.5/../../../../arm-none-eabi/lib/thumb2/libm.a(lib_a-ef_pow.o)
 .comment       0x00000000       0x27 /opt/paparazzi/arm-multilib/lib/gcc/arm-none-eabi/4.4.5/../../../../arm-none-eabi/lib/thumb2/libm.a(lib_a-ef_rem_pio2.o)
 .comment       0x00000000       0x27 /opt/paparazzi/arm-multilib/lib/gcc/arm-none-eabi/4.4.5/../../../../arm-none-eabi/lib/thumb2/libm.a(lib_a-ef_sqrt.o)
 .comment       0x00000000       0x27 /opt/paparazzi/arm-multilib/lib/gcc/arm-none-eabi/4.4.5/../../../../arm-none-eabi/lib/thumb2/libm.a(lib_a-k_cos.o)
 .comment       0x00000000       0x27 /opt/paparazzi/arm-multilib/lib/gcc/arm-none-eabi/4.4.5/../../../../arm-none-eabi/lib/thumb2/libm.a(lib_a-k_rem_pio2.o)
 .comment       0x00000000       0x27 /opt/paparazzi/arm-multilib/lib/gcc/arm-none-eabi/4.4.5/../../../../arm-none-eabi/lib/thumb2/libm.a(lib_a-k_sin.o)
 .comment       0x00000000       0x27 /opt/paparazzi/arm-multilib/lib/gcc/arm-none-eabi/4.4.5/../../../../arm-none-eabi/lib/thumb2/libm.a(lib_a-k_tan.o)
 .comment       0x00000000       0x27 /opt/paparazzi/arm-multilib/lib/gcc/arm-none-eabi/4.4.5/../../../../arm-none-eabi/lib/thumb2/libm.a(lib_a-kf_cos.o)
 .comment       0x00000000       0x27 /opt/paparazzi/arm-multilib/lib/gcc/arm-none-eabi/4.4.5/../../../../arm-none-eabi/lib/thumb2/libm.a(lib_a-kf_rem_pio2.o)
 .comment       0x00000000       0x27 /opt/paparazzi/arm-multilib/lib/gcc/arm-none-eabi/4.4.5/../../../../arm-none-eabi/lib/thumb2/libm.a(lib_a-kf_sin.o)
 .comment       0x00000000       0x27 /opt/paparazzi/arm-multilib/lib/gcc/arm-none-eabi/4.4.5/../../../../arm-none-eabi/lib/thumb2/libm.a(lib_a-s_expm1.o)
 .comment       0x00000000       0x27 /opt/paparazzi/arm-multilib/lib/gcc/arm-none-eabi/4.4.5/../../../../arm-none-eabi/lib/thumb2/libm.a(lib_a-s_finite.o)
 .comment       0x00000000       0x27 /opt/paparazzi/arm-multilib/lib/gcc/arm-none-eabi/4.4.5/../../../../arm-none-eabi/lib/thumb2/libm.a(lib_a-s_floor.o)
 .comment       0x00000000       0x27 /opt/paparazzi/arm-multilib/lib/gcc/arm-none-eabi/4.4.5/../../../../arm-none-eabi/lib/thumb2/libm.a(lib_a-s_fpclassify.o)
 .comment       0x00000000       0x27 /opt/paparazzi/arm-multilib/lib/gcc/arm-none-eabi/4.4.5/../../../../arm-none-eabi/lib/thumb2/libm.a(lib_a-s_lib_ver.o)
 .comment       0x00000000       0x27 /opt/paparazzi/arm-multilib/lib/gcc/arm-none-eabi/4.4.5/../../../../arm-none-eabi/lib/thumb2/libm.a(lib_a-s_matherr.o)
 .comment       0x00000000       0x27 /opt/paparazzi/arm-multilib/lib/gcc/arm-none-eabi/4.4.5/../../../../arm-none-eabi/lib/thumb2/libm.a(lib_a-s_nan.o)
 .comment       0x00000000       0x27 /opt/paparazzi/arm-multilib/lib/gcc/arm-none-eabi/4.4.5/../../../../arm-none-eabi/lib/thumb2/libm.a(lib_a-s_scalbn.o)
 .comment       0x00000000       0x27 /opt/paparazzi/arm-multilib/lib/gcc/arm-none-eabi/4.4.5/../../../../arm-none-eabi/lib/thumb2/libm.a(lib_a-sf_finite.o)
 .comment       0x00000000       0x27 /opt/paparazzi/arm-multilib/lib/gcc/arm-none-eabi/4.4.5/../../../../arm-none-eabi/lib/thumb2/libm.a(lib_a-sf_floor.o)
 .comment       0x00000000       0x27 /opt/paparazzi/arm-multilib/lib/gcc/arm-none-eabi/4.4.5/../../../../arm-none-eabi/lib/thumb2/libm.a(lib_a-sf_fpclassify.o)
 .comment       0x00000000       0x27 /opt/paparazzi/arm-multilib/lib/gcc/arm-none-eabi/4.4.5/../../../../arm-none-eabi/lib/thumb2/libm.a(lib_a-sf_nan.o)
 .comment       0x00000000       0x27 /opt/paparazzi/arm-multilib/lib/gcc/arm-none-eabi/4.4.5/../../../../arm-none-eabi/lib/thumb2/libm.a(lib_a-sf_scalbn.o)
 .comment       0x00000000       0x27 /opt/paparazzi/arm-multilib/lib/gcc/arm-none-eabi/4.4.5/../../../../arm-none-eabi/lib/thumb2/libm.a(lib_a-s_copysign.o)
 .comment       0x00000000       0x27 /opt/paparazzi/arm-multilib/lib/gcc/arm-none-eabi/4.4.5/../../../../arm-none-eabi/lib/thumb2/libm.a(lib_a-sf_copysign.o)
 .comment       0x00000000       0x27 /opt/paparazzi/arm-multilib/lib/gcc/arm-none-eabi/4.4.5/../../../../arm-none-eabi/lib/libstm32.a(stm32_adc.o)
 .comment       0x00000000       0x27 /opt/paparazzi/arm-multilib/lib/gcc/arm-none-eabi/4.4.5/../../../../arm-none-eabi/lib/libstm32.a(stm32_tim.o)
 .comment       0x00000000       0x27 /opt/paparazzi/arm-multilib/lib/gcc/arm-none-eabi/4.4.5/../../../../arm-none-eabi/lib/libstm32.a(stm32_dma.o)
 .comment       0x00000000       0x27 /opt/paparazzi/arm-multilib/lib/gcc/arm-none-eabi/4.4.5/../../../../arm-none-eabi/lib/libstm32.a(stm32_gpio.o)
 .comment       0x00000000       0x27 /opt/paparazzi/arm-multilib/lib/gcc/arm-none-eabi/4.4.5/../../../../arm-none-eabi/lib/libstm32.a(stm32_usart.o)
 .comment       0x00000000       0x27 /opt/paparazzi/arm-multilib/lib/gcc/arm-none-eabi/4.4.5/../../../../arm-none-eabi/lib/libstm32.a(stm32_exti.o)
 .comment       0x00000000       0x27 /opt/paparazzi/arm-multilib/lib/gcc/arm-none-eabi/4.4.5/../../../../arm-none-eabi/lib/libstm32.a(stm32_i2c.o)
 .comment       0x00000000       0x27 /opt/paparazzi/arm-multilib/lib/gcc/arm-none-eabi/4.4.5/../../../../arm-none-eabi/lib/libstm32.a(stm32_spi.o)
 .comment       0x00000000       0x27 /opt/paparazzi/arm-multilib/lib/gcc/arm-none-eabi/4.4.5/../../../../arm-none-eabi/lib/libstm32.a(stm32_rcc.o)
 .comment       0x00000000       0x27 /opt/paparazzi/arm-multilib/lib/gcc/arm-none-eabi/4.4.5/../../../../arm-none-eabi/lib/libstm32.a(stm32_misc.o)
 .comment       0x00000000       0x27 /opt/paparazzi/arm-multilib/lib/gcc/arm-none-eabi/4.4.5/../../../../arm-none-eabi/lib/libopencm3_stm32.a(rcc.o)
 .comment       0x00000000       0x27 /opt/paparazzi/arm-multilib/lib/gcc/arm-none-eabi/4.4.5/../../../../arm-none-eabi/lib/libopencm3_stm32.a(usart.o)
 .comment       0x00000000       0x27 /opt/paparazzi/arm-multilib/lib/gcc/arm-none-eabi/4.4.5/../../../../arm-none-eabi/lib/libopencm3_stm32.a(flash.o)
 .comment       0x00000000       0x27 /opt/paparazzi/arm-multilib/lib/gcc/arm-none-eabi/4.4.5/../../../../arm-none-eabi/lib/thumb2/libc.a(lib_a-errno.o)
 .comment       0x00000000       0x27 /opt/paparazzi/arm-multilib/lib/gcc/arm-none-eabi/4.4.5/../../../../arm-none-eabi/lib/thumb2/libc.a(lib_a-impure.o)

.debug
 *(.debug)

.line
 *(.line)

.debug_srcinfo
 *(.debug_srcinfo)

.debug_sfnames
 *(.debug_sfnames)

.debug_aranges  0x00000000     0x1f78
 *(.debug_aranges)
 .debug_aranges
                0x00000000       0x20 /home/woz/lisa-m-team4938/paparazzi/var/ECE_2012/ap/mcu.o
 .debug_aranges
                0x00000020       0x20 /home/woz/lisa-m-team4938/paparazzi/var/ECE_2012/ap/arch/stm32/mcu_arch.o
 .debug_aranges
                0x00000040       0x98 /home/woz/lisa-m-team4938/paparazzi/var/ECE_2012/ap/math/pprz_geodetic_int.o
 .debug_aranges
                0x000000d8       0xa0 /home/woz/lisa-m-team4938/paparazzi/var/ECE_2012/ap/math/pprz_geodetic_float.o
 .debug_aranges
                0x00000178       0x80 /home/woz/lisa-m-team4938/paparazzi/var/ECE_2012/ap/math/pprz_geodetic_double.o
 .debug_aranges
                0x000001f8       0x28 /home/woz/lisa-m-team4938/paparazzi/var/ECE_2012/ap/mcu_periph/i2c.o
 .debug_aranges
                0x00000220       0x68 /home/woz/lisa-m-team4938/paparazzi/var/ECE_2012/ap/arch/stm32/mcu_periph/i2c_arch.o
 .debug_aranges
                0x00000288       0x38 /home/woz/lisa-m-team4938/paparazzi/var/ECE_2012/ap/firmwares/fixedwing/main_fbw.o
 .debug_aranges
                0x000002c0       0x28 /home/woz/lisa-m-team4938/paparazzi/var/ECE_2012/ap/subsystems/electrical.o
 .debug_aranges
                0x000002e8       0x60 /home/woz/lisa-m-team4938/paparazzi/var/ECE_2012/ap/firmwares/fixedwing/main_ap.o
 .debug_aranges
                0x00000348       0x48 /home/woz/lisa-m-team4938/paparazzi/var/ECE_2012/ap/./estimator.o
 .debug_aranges
                0x00000390       0x40 /home/woz/lisa-m-team4938/paparazzi/var/ECE_2012/ap/arch/stm32/stm32_exceptions.o
 .debug_aranges
                0x000003d0       0x38 /home/woz/lisa-m-team4938/paparazzi/var/ECE_2012/ap/arch/stm32/stm32_vector_table.o
 .debug_aranges
                0x00000408       0x58 /home/woz/lisa-m-team4938/paparazzi/var/ECE_2012/ap/lisa/plug_sys.o
 .debug_aranges
                0x00000460       0x20 /home/woz/lisa-m-team4938/paparazzi/var/ECE_2012/ap/firmwares/fixedwing/main.o
 .debug_aranges
                0x00000480       0x30 /home/woz/lisa-m-team4938/paparazzi/var/ECE_2012/ap/arch/stm32/sys_time_hw.o
 .debug_aranges
                0x000004b0       0x28 /home/woz/lisa-m-team4938/paparazzi/var/ECE_2012/ap/mcu_periph/uart.o
 .debug_aranges
                0x000004d8       0x58 /home/woz/lisa-m-team4938/paparazzi/var/ECE_2012/ap/arch/stm32/mcu_periph/uart_arch.o
 .debug_aranges
                0x00000530       0x28 /home/woz/lisa-m-team4938/paparazzi/var/ECE_2012/ap/subsystems/settings.o
 .debug_aranges
                0x00000558       0x38 /home/woz/lisa-m-team4938/paparazzi/var/ECE_2012/ap/arch/stm32/subsystems/settings_arch.o
 .debug_aranges
                0x00000590       0x30 /home/woz/lisa-m-team4938/paparazzi/var/ECE_2012/ap/arch/stm32/mcu_periph/adc_arch.o
 .debug_aranges
                0x000005c0       0x20 /home/woz/lisa-m-team4938/paparazzi/var/ECE_2012/ap/arch/stm32/servos_direct_hw.o
 .debug_aranges
                0x000005e0       0x28 /home/woz/lisa-m-team4938/paparazzi/var/ECE_2012/ap/firmwares/rotorcraft/actuators/arch/stm32/actuators_pwm_arch.o
 .debug_aranges
                0x00000608       0x20 /home/woz/lisa-m-team4938/paparazzi/var/ECE_2012/ap/subsystems/radio_control/ppm.o
 .debug_aranges
                0x00000628       0x28 /home/woz/lisa-m-team4938/paparazzi/var/ECE_2012/ap/arch/stm32/subsystems/radio_control/ppm_arch.o
 .debug_aranges
                0x00000650       0x20 /home/woz/lisa-m-team4938/paparazzi/var/ECE_2012/ap/firmwares/fixedwing/datalink.o
 .debug_aranges
                0x00000670       0x30 /home/woz/lisa-m-team4938/paparazzi/var/ECE_2012/ap/firmwares/fixedwing/stabilization/stabilization_attitude.o
 .debug_aranges
                0x000006a0       0x38 /home/woz/lisa-m-team4938/paparazzi/var/ECE_2012/ap/firmwares/fixedwing/guidance/guidance_v.o
 .debug_aranges
                0x000006d8       0x28 /home/woz/lisa-m-team4938/paparazzi/var/ECE_2012/ap/subsystems/imu.o
 .debug_aranges
                0x00000700       0x38 /home/woz/lisa-m-team4938/paparazzi/var/ECE_2012/ap/subsystems/imu/imu_aspirin.o
 .debug_aranges
                0x00000738       0x60 /home/woz/lisa-m-team4938/paparazzi/var/ECE_2012/ap/arch/stm32/subsystems/imu/imu_aspirin_arch.o
 .debug_aranges
                0x00000798       0x30 /home/woz/lisa-m-team4938/paparazzi/var/ECE_2012/ap/peripherals/hmc5843.o
 .debug_aranges
                0x000007c8       0x30 /home/woz/lisa-m-team4938/paparazzi/var/ECE_2012/ap/arch/stm32/peripherals/hmc5843_arch.o
 .debug_aranges
                0x000007f8       0x28 /home/woz/lisa-m-team4938/paparazzi/var/ECE_2012/ap/subsystems/ahrs/ahrs_aligner.o
 .debug_aranges
                0x00000820       0x90 /home/woz/lisa-m-team4938/paparazzi/var/ECE_2012/ap/subsystems/ahrs/ahrs_float_dcm.o
 .debug_aranges
                0x000008b0       0x38 /home/woz/lisa-m-team4938/paparazzi/var/ECE_2012/ap/subsystems/gps/gps_ubx.o
 .debug_aranges
                0x000008e8       0x20 /home/woz/lisa-m-team4938/paparazzi/var/ECE_2012/ap/subsystems/gps.o
 .debug_aranges
                0x00000908       0xb0 /home/woz/lisa-m-team4938/paparazzi/var/ECE_2012/ap/subsystems/nav.o
 .debug_aranges
                0x000009b8       0x28 /home/woz/lisa-m-team4938/paparazzi/var/ECE_2012/ap/subsystems/navigation/common_flight_plan.o
 .debug_aranges
                0x000009e0       0x28 /home/woz/lisa-m-team4938/paparazzi/var/ECE_2012/ap/subsystems/navigation/traffic_info.o
 .debug_aranges
                0x00000a08       0x28 /home/woz/lisa-m-team4938/paparazzi/var/ECE_2012/ap/subsystems/navigation/nav_survey_rectangle.o
 .debug_aranges
                0x00000a30       0x28 /home/woz/lisa-m-team4938/paparazzi/var/ECE_2012/ap/subsystems/navigation/nav_line.o
 .debug_aranges
                0x00000a58       0x20 /opt/paparazzi/arm-multilib/lib/gcc/arm-none-eabi/4.4.5/../../../../arm-none-eabi/lib/thumb2/libc.a(lib_a-memcpy.o)
 .debug_aranges
                0x00000a78       0x20 /opt/paparazzi/arm-multilib/lib/gcc/arm-none-eabi/4.4.5/../../../../arm-none-eabi/lib/thumb2/libm.a(lib_a-s_atan.o)
 .debug_aranges
                0x00000a98       0x20 /opt/paparazzi/arm-multilib/lib/gcc/arm-none-eabi/4.4.5/../../../../arm-none-eabi/lib/thumb2/libm.a(lib_a-s_cos.o)
 .debug_aranges
                0x00000ab8       0x20 /opt/paparazzi/arm-multilib/lib/gcc/arm-none-eabi/4.4.5/../../../../arm-none-eabi/lib/thumb2/libm.a(lib_a-s_fabs.o)
 .debug_aranges
                0x00000ad8       0x20 /opt/paparazzi/arm-multilib/lib/gcc/arm-none-eabi/4.4.5/../../../../arm-none-eabi/lib/thumb2/libm.a(lib_a-s_rint.o)
 .debug_aranges
                0x00000af8       0x20 /opt/paparazzi/arm-multilib/lib/gcc/arm-none-eabi/4.4.5/../../../../arm-none-eabi/lib/thumb2/libm.a(lib_a-s_sin.o)
 .debug_aranges
                0x00000b18       0x20 /opt/paparazzi/arm-multilib/lib/gcc/arm-none-eabi/4.4.5/../../../../arm-none-eabi/lib/thumb2/libm.a(lib_a-s_tan.o)
 .debug_aranges
                0x00000b38       0x20 /opt/paparazzi/arm-multilib/lib/gcc/arm-none-eabi/4.4.5/../../../../arm-none-eabi/lib/thumb2/libm.a(lib_a-sf_atan.o)
 .debug_aranges
                0x00000b58       0x20 /opt/paparazzi/arm-multilib/lib/gcc/arm-none-eabi/4.4.5/../../../../arm-none-eabi/lib/thumb2/libm.a(lib_a-sf_cos.o)
 .debug_aranges
                0x00000b78       0x20 /opt/paparazzi/arm-multilib/lib/gcc/arm-none-eabi/4.4.5/../../../../arm-none-eabi/lib/thumb2/libm.a(lib_a-sf_fabs.o)
 .debug_aranges
                0x00000b98       0x20 /opt/paparazzi/arm-multilib/lib/gcc/arm-none-eabi/4.4.5/../../../../arm-none-eabi/lib/thumb2/libm.a(lib_a-sf_sin.o)
 .debug_aranges
                0x00000bb8       0x20 /opt/paparazzi/arm-multilib/lib/gcc/arm-none-eabi/4.4.5/../../../../arm-none-eabi/lib/thumb2/libm.a(lib_a-w_asin.o)
 .debug_aranges
                0x00000bd8       0x20 /opt/paparazzi/arm-multilib/lib/gcc/arm-none-eabi/4.4.5/../../../../arm-none-eabi/lib/thumb2/libm.a(lib_a-w_atan2.o)
 .debug_aranges
                0x00000bf8       0x20 /opt/paparazzi/arm-multilib/lib/gcc/arm-none-eabi/4.4.5/../../../../arm-none-eabi/lib/thumb2/libm.a(lib_a-w_cosh.o)
 .debug_aranges
                0x00000c18       0x20 /opt/paparazzi/arm-multilib/lib/gcc/arm-none-eabi/4.4.5/../../../../arm-none-eabi/lib/thumb2/libm.a(lib_a-w_exp.o)
 .debug_aranges
                0x00000c38       0x20 /opt/paparazzi/arm-multilib/lib/gcc/arm-none-eabi/4.4.5/../../../../arm-none-eabi/lib/thumb2/libm.a(lib_a-w_log.o)
 .debug_aranges
                0x00000c58       0x20 /opt/paparazzi/arm-multilib/lib/gcc/arm-none-eabi/4.4.5/../../../../arm-none-eabi/lib/thumb2/libm.a(lib_a-w_pow.o)
 .debug_aranges
                0x00000c78       0x20 /opt/paparazzi/arm-multilib/lib/gcc/arm-none-eabi/4.4.5/../../../../arm-none-eabi/lib/thumb2/libm.a(lib_a-w_sinh.o)
 .debug_aranges
                0x00000c98       0x20 /opt/paparazzi/arm-multilib/lib/gcc/arm-none-eabi/4.4.5/../../../../arm-none-eabi/lib/thumb2/libm.a(lib_a-w_sqrt.o)
 .debug_aranges
                0x00000cb8       0x20 /opt/paparazzi/arm-multilib/lib/gcc/arm-none-eabi/4.4.5/../../../../arm-none-eabi/lib/thumb2/libm.a(lib_a-wf_asin.o)
 .debug_aranges
                0x00000cd8       0x20 /opt/paparazzi/arm-multilib/lib/gcc/arm-none-eabi/4.4.5/../../../../arm-none-eabi/lib/thumb2/libm.a(lib_a-wf_atan2.o)
 .debug_aranges
                0x00000cf8       0x20 /opt/paparazzi/arm-multilib/lib/gcc/arm-none-eabi/4.4.5/../../../../arm-none-eabi/lib/thumb2/libm.a(lib_a-wf_pow.o)
 .debug_aranges
                0x00000d18       0x20 /opt/paparazzi/arm-multilib/lib/gcc/arm-none-eabi/4.4.5/../../../../arm-none-eabi/lib/thumb2/libm.a(lib_a-wf_sqrt.o)
 .debug_aranges
                0x00000d38       0x20 /opt/paparazzi/arm-multilib/lib/gcc/arm-none-eabi/4.4.5/../../../../arm-none-eabi/lib/thumb2/libm.a(lib_a-e_asin.o)
 .debug_aranges
                0x00000d58       0x20 /opt/paparazzi/arm-multilib/lib/gcc/arm-none-eabi/4.4.5/../../../../arm-none-eabi/lib/thumb2/libm.a(lib_a-e_atan2.o)
 .debug_aranges
                0x00000d78       0x20 /opt/paparazzi/arm-multilib/lib/gcc/arm-none-eabi/4.4.5/../../../../arm-none-eabi/lib/thumb2/libm.a(lib_a-e_cosh.o)
 .debug_aranges
                0x00000d98       0x20 /opt/paparazzi/arm-multilib/lib/gcc/arm-none-eabi/4.4.5/../../../../arm-none-eabi/lib/thumb2/libm.a(lib_a-e_exp.o)
 .debug_aranges
                0x00000db8       0x20 /opt/paparazzi/arm-multilib/lib/gcc/arm-none-eabi/4.4.5/../../../../arm-none-eabi/lib/thumb2/libm.a(lib_a-e_log.o)
 .debug_aranges
                0x00000dd8       0x20 /opt/paparazzi/arm-multilib/lib/gcc/arm-none-eabi/4.4.5/../../../../arm-none-eabi/lib/thumb2/libm.a(lib_a-e_pow.o)
 .debug_aranges
                0x00000df8       0x20 /opt/paparazzi/arm-multilib/lib/gcc/arm-none-eabi/4.4.5/../../../../arm-none-eabi/lib/thumb2/libm.a(lib_a-e_rem_pio2.o)
 .debug_aranges
                0x00000e18       0x20 /opt/paparazzi/arm-multilib/lib/gcc/arm-none-eabi/4.4.5/../../../../arm-none-eabi/lib/thumb2/libm.a(lib_a-e_sinh.o)
 .debug_aranges
                0x00000e38       0x20 /opt/paparazzi/arm-multilib/lib/gcc/arm-none-eabi/4.4.5/../../../../arm-none-eabi/lib/thumb2/libm.a(lib_a-e_sqrt.o)
 .debug_aranges
                0x00000e58       0x20 /opt/paparazzi/arm-multilib/lib/gcc/arm-none-eabi/4.4.5/../../../../arm-none-eabi/lib/thumb2/libm.a(lib_a-ef_asin.o)
 .debug_aranges
                0x00000e78       0x20 /opt/paparazzi/arm-multilib/lib/gcc/arm-none-eabi/4.4.5/../../../../arm-none-eabi/lib/thumb2/libm.a(lib_a-ef_atan2.o)
 .debug_aranges
                0x00000e98       0x20 /opt/paparazzi/arm-multilib/lib/gcc/arm-none-eabi/4.4.5/../../../../arm-none-eabi/lib/thumb2/libm.a(lib_a-ef_pow.o)
 .debug_aranges
                0x00000eb8       0x20 /opt/paparazzi/arm-multilib/lib/gcc/arm-none-eabi/4.4.5/../../../../arm-none-eabi/lib/thumb2/libm.a(lib_a-ef_rem_pio2.o)
 .debug_aranges
                0x00000ed8       0x20 /opt/paparazzi/arm-multilib/lib/gcc/arm-none-eabi/4.4.5/../../../../arm-none-eabi/lib/thumb2/libm.a(lib_a-ef_sqrt.o)
 .debug_aranges
                0x00000ef8       0x20 /opt/paparazzi/arm-multilib/lib/gcc/arm-none-eabi/4.4.5/../../../../arm-none-eabi/lib/thumb2/libm.a(lib_a-k_cos.o)
 .debug_aranges
                0x00000f18       0x20 /opt/paparazzi/arm-multilib/lib/gcc/arm-none-eabi/4.4.5/../../../../arm-none-eabi/lib/thumb2/libm.a(lib_a-k_rem_pio2.o)
 .debug_aranges
                0x00000f38       0x20 /opt/paparazzi/arm-multilib/lib/gcc/arm-none-eabi/4.4.5/../../../../arm-none-eabi/lib/thumb2/libm.a(lib_a-k_sin.o)
 .debug_aranges
                0x00000f58       0x20 /opt/paparazzi/arm-multilib/lib/gcc/arm-none-eabi/4.4.5/../../../../arm-none-eabi/lib/thumb2/libm.a(lib_a-k_tan.o)
 .debug_aranges
                0x00000f78       0x20 /opt/paparazzi/arm-multilib/lib/gcc/arm-none-eabi/4.4.5/../../../../arm-none-eabi/lib/thumb2/libm.a(lib_a-kf_cos.o)
 .debug_aranges
                0x00000f98       0x20 /opt/paparazzi/arm-multilib/lib/gcc/arm-none-eabi/4.4.5/../../../../arm-none-eabi/lib/thumb2/libm.a(lib_a-kf_rem_pio2.o)
 .debug_aranges
                0x00000fb8       0x20 /opt/paparazzi/arm-multilib/lib/gcc/arm-none-eabi/4.4.5/../../../../arm-none-eabi/lib/thumb2/libm.a(lib_a-kf_sin.o)
 .debug_aranges
                0x00000fd8       0x20 /opt/paparazzi/arm-multilib/lib/gcc/arm-none-eabi/4.4.5/../../../../arm-none-eabi/lib/thumb2/libm.a(lib_a-s_expm1.o)
 .debug_aranges
                0x00000ff8       0x20 /opt/paparazzi/arm-multilib/lib/gcc/arm-none-eabi/4.4.5/../../../../arm-none-eabi/lib/thumb2/libm.a(lib_a-s_finite.o)
 .debug_aranges
                0x00001018       0x20 /opt/paparazzi/arm-multilib/lib/gcc/arm-none-eabi/4.4.5/../../../../arm-none-eabi/lib/thumb2/libm.a(lib_a-s_floor.o)
 .debug_aranges
                0x00001038       0x20 /opt/paparazzi/arm-multilib/lib/gcc/arm-none-eabi/4.4.5/../../../../arm-none-eabi/lib/thumb2/libm.a(lib_a-s_fpclassify.o)
 .debug_aranges
                0x00001058       0x20 /opt/paparazzi/arm-multilib/lib/gcc/arm-none-eabi/4.4.5/../../../../arm-none-eabi/lib/thumb2/libm.a(lib_a-s_matherr.o)
 .debug_aranges
                0x00001078       0x20 /opt/paparazzi/arm-multilib/lib/gcc/arm-none-eabi/4.4.5/../../../../arm-none-eabi/lib/thumb2/libm.a(lib_a-s_nan.o)
 .debug_aranges
                0x00001098       0x20 /opt/paparazzi/arm-multilib/lib/gcc/arm-none-eabi/4.4.5/../../../../arm-none-eabi/lib/thumb2/libm.a(lib_a-s_scalbn.o)
 .debug_aranges
                0x000010b8       0x20 /opt/paparazzi/arm-multilib/lib/gcc/arm-none-eabi/4.4.5/../../../../arm-none-eabi/lib/thumb2/libm.a(lib_a-sf_finite.o)
 .debug_aranges
                0x000010d8       0x20 /opt/paparazzi/arm-multilib/lib/gcc/arm-none-eabi/4.4.5/../../../../arm-none-eabi/lib/thumb2/libm.a(lib_a-sf_floor.o)
 .debug_aranges
                0x000010f8       0x20 /opt/paparazzi/arm-multilib/lib/gcc/arm-none-eabi/4.4.5/../../../../arm-none-eabi/lib/thumb2/libm.a(lib_a-sf_fpclassify.o)
 .debug_aranges
                0x00001118       0x20 /opt/paparazzi/arm-multilib/lib/gcc/arm-none-eabi/4.4.5/../../../../arm-none-eabi/lib/thumb2/libm.a(lib_a-sf_nan.o)
 .debug_aranges
                0x00001138       0x20 /opt/paparazzi/arm-multilib/lib/gcc/arm-none-eabi/4.4.5/../../../../arm-none-eabi/lib/thumb2/libm.a(lib_a-sf_scalbn.o)
 .debug_aranges
                0x00001158       0x20 /opt/paparazzi/arm-multilib/lib/gcc/arm-none-eabi/4.4.5/../../../../arm-none-eabi/lib/thumb2/libm.a(lib_a-s_copysign.o)
 .debug_aranges
                0x00001178       0x20 /opt/paparazzi/arm-multilib/lib/gcc/arm-none-eabi/4.4.5/../../../../arm-none-eabi/lib/thumb2/libm.a(lib_a-sf_copysign.o)
 .debug_aranges
                0x00001198       0x20 /opt/paparazzi/arm-multilib/lib/gcc/arm-none-eabi/4.4.5/thumb2/libgcc.a(_divsi3.o)
 .debug_aranges
                0x000011b8       0x20 /opt/paparazzi/arm-multilib/lib/gcc/arm-none-eabi/4.4.5/thumb2/libgcc.a(_dvmd_tls.o)
 .debug_aranges
                0x000011d8       0x20 /opt/paparazzi/arm-multilib/lib/gcc/arm-none-eabi/4.4.5/thumb2/libgcc.a(_arm_addsubdf3.o)
 .debug_aranges
                0x000011f8       0x20 /opt/paparazzi/arm-multilib/lib/gcc/arm-none-eabi/4.4.5/thumb2/libgcc.a(_arm_muldivdf3.o)
 .debug_aranges
                0x00001218       0x20 /opt/paparazzi/arm-multilib/lib/gcc/arm-none-eabi/4.4.5/thumb2/libgcc.a(_arm_cmpdf2.o)
 .debug_aranges
                0x00001238       0x20 /opt/paparazzi/arm-multilib/lib/gcc/arm-none-eabi/4.4.5/thumb2/libgcc.a(_arm_fixdfsi.o)
 .debug_aranges
                0x00001258       0x20 /opt/paparazzi/arm-multilib/lib/gcc/arm-none-eabi/4.4.5/thumb2/libgcc.a(_arm_fixunsdfsi.o)
 .debug_aranges
                0x00001278       0x20 /opt/paparazzi/arm-multilib/lib/gcc/arm-none-eabi/4.4.5/thumb2/libgcc.a(_arm_truncdfsf2.o)
 .debug_aranges
                0x00001298       0x20 /opt/paparazzi/arm-multilib/lib/gcc/arm-none-eabi/4.4.5/thumb2/libgcc.a(_arm_addsubsf3.o)
 .debug_aranges
                0x000012b8       0x20 /opt/paparazzi/arm-multilib/lib/gcc/arm-none-eabi/4.4.5/thumb2/libgcc.a(_arm_muldivsf3.o)
 .debug_aranges
                0x000012d8       0x20 /opt/paparazzi/arm-multilib/lib/gcc/arm-none-eabi/4.4.5/thumb2/libgcc.a(_arm_cmpsf2.o)
 .debug_aranges
                0x000012f8       0x20 /opt/paparazzi/arm-multilib/lib/gcc/arm-none-eabi/4.4.5/thumb2/libgcc.a(_arm_fixsfsi.o)
 .debug_aranges
                0x00001318       0x20 /opt/paparazzi/arm-multilib/lib/gcc/arm-none-eabi/4.4.5/thumb2/libgcc.a(_arm_fixunssfsi.o)
 .debug_aranges
                0x00001338      0x138 /opt/paparazzi/arm-multilib/lib/gcc/arm-none-eabi/4.4.5/../../../../arm-none-eabi/lib/libstm32.a(stm32_adc.o)
 .debug_aranges
                0x00001470      0x2e0 /opt/paparazzi/arm-multilib/lib/gcc/arm-none-eabi/4.4.5/../../../../arm-none-eabi/lib/libstm32.a(stm32_tim.o)
 .debug_aranges
                0x00001750       0x68 /opt/paparazzi/arm-multilib/lib/gcc/arm-none-eabi/4.4.5/../../../../arm-none-eabi/lib/libstm32.a(stm32_dma.o)
 .debug_aranges
                0x000017b8       0xa0 /opt/paparazzi/arm-multilib/lib/gcc/arm-none-eabi/4.4.5/../../../../arm-none-eabi/lib/libstm32.a(stm32_gpio.o)
 .debug_aranges
                0x00001858       0xf0 /opt/paparazzi/arm-multilib/lib/gcc/arm-none-eabi/4.4.5/../../../../arm-none-eabi/lib/libstm32.a(stm32_usart.o)
 .debug_aranges
                0x00001948       0x58 /opt/paparazzi/arm-multilib/lib/gcc/arm-none-eabi/4.4.5/../../../../arm-none-eabi/lib/libstm32.a(stm32_exti.o)
 .debug_aranges
                0x000019a0      0x118 /opt/paparazzi/arm-multilib/lib/gcc/arm-none-eabi/4.4.5/../../../../arm-none-eabi/lib/libstm32.a(stm32_i2c.o)
 .debug_aranges
                0x00001ab8       0xd0 /opt/paparazzi/arm-multilib/lib/gcc/arm-none-eabi/4.4.5/../../../../arm-none-eabi/lib/libstm32.a(stm32_spi.o)
 .debug_aranges
                0x00001b88      0x118 /opt/paparazzi/arm-multilib/lib/gcc/arm-none-eabi/4.4.5/../../../../arm-none-eabi/lib/libstm32.a(stm32_rcc.o)
 .debug_aranges
                0x00001ca0       0x40 /opt/paparazzi/arm-multilib/lib/gcc/arm-none-eabi/4.4.5/../../../../arm-none-eabi/lib/libstm32.a(stm32_misc.o)
 .debug_aranges
                0x00001ce0      0x138 /opt/paparazzi/arm-multilib/lib/gcc/arm-none-eabi/4.4.5/../../../../arm-none-eabi/lib/libopencm3_stm32.a(rcc.o)
 .debug_aranges
                0x00001e18       0x88 /opt/paparazzi/arm-multilib/lib/gcc/arm-none-eabi/4.4.5/../../../../arm-none-eabi/lib/libopencm3_stm32.a(usart.o)
 .debug_aranges
                0x00001ea0       0xb8 /opt/paparazzi/arm-multilib/lib/gcc/arm-none-eabi/4.4.5/../../../../arm-none-eabi/lib/libopencm3_stm32.a(flash.o)
 .debug_aranges
                0x00001f58       0x20 /opt/paparazzi/arm-multilib/lib/gcc/arm-none-eabi/4.4.5/../../../../arm-none-eabi/lib/thumb2/libc.a(lib_a-errno.o)

.debug_pubnames
                0x00000000     0x4a11
 *(.debug_pubnames)
 .debug_pubnames
                0x00000000       0x1f /home/woz/lisa-m-team4938/paparazzi/var/ECE_2012/ap/mcu.o
 .debug_pubnames
                0x0000001f       0x24 /home/woz/lisa-m-team4938/paparazzi/var/ECE_2012/ap/arch/stm32/mcu_arch.o
 .debug_pubnames
                0x00000043       0x23 /home/woz/lisa-m-team4938/paparazzi/var/ECE_2012/ap/sys_time.o
 .debug_pubnames
                0x00000066       0x83 /home/woz/lisa-m-team4938/paparazzi/var/ECE_2012/ap/./inter_mcu.o
 .debug_pubnames
                0x000000e9      0x17b /home/woz/lisa-m-team4938/paparazzi/var/ECE_2012/ap/math/pprz_geodetic_int.o
 .debug_pubnames
                0x00000264      0x171 /home/woz/lisa-m-team4938/paparazzi/var/ECE_2012/ap/math/pprz_geodetic_float.o
 .debug_pubnames
                0x000003d5      0x12e /home/woz/lisa-m-team4938/paparazzi/var/ECE_2012/ap/math/pprz_geodetic_double.o
 .debug_pubnames
                0x00000503       0x24 /home/woz/lisa-m-team4938/paparazzi/var/ECE_2012/ap/math/pprz_trig_int.o
 .debug_pubnames
                0x00000527       0x36 /home/woz/lisa-m-team4938/paparazzi/var/ECE_2012/ap/mcu_periph/i2c.o
 .debug_pubnames
                0x0000055d       0x7f /home/woz/lisa-m-team4938/paparazzi/var/ECE_2012/ap/arch/stm32/mcu_periph/i2c_arch.o
 .debug_pubnames
                0x000005dc       0x6b /home/woz/lisa-m-team4938/paparazzi/var/ECE_2012/ap/firmwares/fixedwing/main_fbw.o
 .debug_pubnames
                0x00000647       0x4d /home/woz/lisa-m-team4938/paparazzi/var/ECE_2012/ap/subsystems/electrical.o
 .debug_pubnames
                0x00000694       0x62 /home/woz/lisa-m-team4938/paparazzi/var/ECE_2012/ap/./commands.o
 .debug_pubnames
                0x000006f6      0x126 /home/woz/lisa-m-team4938/paparazzi/var/ECE_2012/ap/firmwares/fixedwing/main_ap.o
 .debug_pubnames
                0x0000081c      0x1ef /home/woz/lisa-m-team4938/paparazzi/var/ECE_2012/ap/./estimator.o
 .debug_pubnames
                0x00000a0b       0x88 /home/woz/lisa-m-team4938/paparazzi/var/ECE_2012/ap/arch/stm32/stm32_exceptions.o
 .debug_pubnames
                0x00000a93       0x77 /home/woz/lisa-m-team4938/paparazzi/var/ECE_2012/ap/arch/stm32/stm32_vector_table.o
 .debug_pubnames
                0x00000b0a       0x65 /home/woz/lisa-m-team4938/paparazzi/var/ECE_2012/ap/lisa/plug_sys.o
 .debug_pubnames
                0x00000b6f       0x1b /home/woz/lisa-m-team4938/paparazzi/var/ECE_2012/ap/firmwares/fixedwing/main.o
 .debug_pubnames
                0x00000b8a       0x6c /home/woz/lisa-m-team4938/paparazzi/var/ECE_2012/ap/arch/stm32/sys_time_hw.o
 .debug_pubnames
                0x00000bf6       0x55 /home/woz/lisa-m-team4938/paparazzi/var/ECE_2012/ap/mcu_periph/uart.o
 .debug_pubnames
                0x00000c4b       0x8d /home/woz/lisa-m-team4938/paparazzi/var/ECE_2012/ap/arch/stm32/mcu_periph/uart_arch.o
 .debug_pubnames
                0x00000cd8       0x60 /home/woz/lisa-m-team4938/paparazzi/var/ECE_2012/ap/subsystems/settings.o
 .debug_pubnames
                0x00000d38       0x3b /home/woz/lisa-m-team4938/paparazzi/var/ECE_2012/ap/arch/stm32/subsystems/settings_arch.o
 .debug_pubnames
                0x00000d73       0x63 /home/woz/lisa-m-team4938/paparazzi/var/ECE_2012/ap/arch/stm32/mcu_periph/adc_arch.o
 .debug_pubnames
                0x00000dd6       0x3e /home/woz/lisa-m-team4938/paparazzi/var/ECE_2012/ap/arch/stm32/servos_direct_hw.o
 .debug_pubnames
                0x00000e14       0x20 /home/woz/lisa-m-team4938/paparazzi/var/ECE_2012/ap/actuators.o
 .debug_pubnames
                0x00000e34       0x47 /home/woz/lisa-m-team4938/paparazzi/var/ECE_2012/ap/firmwares/rotorcraft/actuators/arch/stm32/actuators_pwm_arch.o
 .debug_pubnames
                0x00000e7b       0x24 /home/woz/lisa-m-team4938/paparazzi/var/ECE_2012/ap/subsystems/radio_control.o
 .debug_pubnames
                0x00000e9f       0x55 /home/woz/lisa-m-team4938/paparazzi/var/ECE_2012/ap/subsystems/radio_control/ppm.o
 .debug_pubnames
                0x00000ef4       0x76 /home/woz/lisa-m-team4938/paparazzi/var/ECE_2012/ap/arch/stm32/subsystems/radio_control/ppm_arch.o
 .debug_pubnames
                0x00000f6a       0x9d /home/woz/lisa-m-team4938/paparazzi/var/ECE_2012/ap/downlink.o
 .debug_pubnames
                0x00001007       0x7d /home/woz/lisa-m-team4938/paparazzi/var/ECE_2012/ap/pprz_transport.o
 .debug_pubnames
                0x00001084       0x58 /home/woz/lisa-m-team4938/paparazzi/var/ECE_2012/ap/firmwares/fixedwing/datalink.o
 .debug_pubnames
                0x000010dc      0x2aa /home/woz/lisa-m-team4938/paparazzi/var/ECE_2012/ap/firmwares/fixedwing/stabilization/stabilization_attitude.o
 .debug_pubnames
                0x00001386      0x30e /home/woz/lisa-m-team4938/paparazzi/var/ECE_2012/ap/firmwares/fixedwing/guidance/guidance_v.o
 .debug_pubnames
                0x00001694       0x3a /home/woz/lisa-m-team4938/paparazzi/var/ECE_2012/ap/subsystems/imu.o
 .debug_pubnames
                0x000016ce       0x45 /home/woz/lisa-m-team4938/paparazzi/var/ECE_2012/ap/subsystems/imu/imu_aspirin.o
 .debug_pubnames
                0x00001713      0x106 /home/woz/lisa-m-team4938/paparazzi/var/ECE_2012/ap/arch/stm32/subsystems/imu/imu_aspirin_arch.o
 .debug_pubnames
                0x00001819       0x5a /home/woz/lisa-m-team4938/paparazzi/var/ECE_2012/ap/peripherals/hmc5843.o
 .debug_pubnames
                0x00001873       0x57 /home/woz/lisa-m-team4938/paparazzi/var/ECE_2012/ap/arch/stm32/peripherals/hmc5843_arch.o
 .debug_pubnames
                0x000018ca       0x3e /home/woz/lisa-m-team4938/paparazzi/var/ECE_2012/ap/subsystems/ahrs.o
 .debug_pubnames
                0x00001908       0x4e /home/woz/lisa-m-team4938/paparazzi/var/ECE_2012/ap/subsystems/ahrs/ahrs_aligner.o
 .debug_pubnames
                0x00001956      0x1b6 /home/woz/lisa-m-team4938/paparazzi/var/ECE_2012/ap/subsystems/ahrs/ahrs_float_dcm.o
 .debug_pubnames
                0x00001b0c       0x6f /home/woz/lisa-m-team4938/paparazzi/var/ECE_2012/ap/subsystems/gps/gps_ubx.o
 .debug_pubnames
                0x00001b7b       0x27 /home/woz/lisa-m-team4938/paparazzi/var/ECE_2012/ap/subsystems/gps.o
 .debug_pubnames
                0x00001ba2      0x517 /home/woz/lisa-m-team4938/paparazzi/var/ECE_2012/ap/subsystems/nav.o
 .debug_pubnames
                0x000020b9       0x90 /home/woz/lisa-m-team4938/paparazzi/var/ECE_2012/ap/subsystems/navigation/common_flight_plan.o
 .debug_pubnames
                0x00002149       0x5f /home/woz/lisa-m-team4938/paparazzi/var/ECE_2012/ap/subsystems/navigation/traffic_info.o
 .debug_pubnames
                0x000021a8       0x49 /home/woz/lisa-m-team4938/paparazzi/var/ECE_2012/ap/subsystems/navigation/nav_survey_rectangle.o
 .debug_pubnames
                0x000021f1       0x31 /home/woz/lisa-m-team4938/paparazzi/var/ECE_2012/ap/subsystems/navigation/nav_line.o
 .debug_pubnames
                0x00002222       0x1d /opt/paparazzi/arm-multilib/lib/gcc/arm-none-eabi/4.4.5/../../../../arm-none-eabi/lib/thumb2/libc.a(lib_a-memcpy.o)
 .debug_pubnames
                0x0000223f       0x1b /opt/paparazzi/arm-multilib/lib/gcc/arm-none-eabi/4.4.5/../../../../arm-none-eabi/lib/thumb2/libm.a(lib_a-s_atan.o)
 .debug_pubnames
                0x0000225a       0x1a /opt/paparazzi/arm-multilib/lib/gcc/arm-none-eabi/4.4.5/../../../../arm-none-eabi/lib/thumb2/libm.a(lib_a-s_cos.o)
 .debug_pubnames
                0x00002274       0x1b /opt/paparazzi/arm-multilib/lib/gcc/arm-none-eabi/4.4.5/../../../../arm-none-eabi/lib/thumb2/libm.a(lib_a-s_fabs.o)
 .debug_pubnames
                0x0000228f       0x1b /opt/paparazzi/arm-multilib/lib/gcc/arm-none-eabi/4.4.5/../../../../arm-none-eabi/lib/thumb2/libm.a(lib_a-s_rint.o)
 .debug_pubnames
                0x000022aa       0x1a /opt/paparazzi/arm-multilib/lib/gcc/arm-none-eabi/4.4.5/../../../../arm-none-eabi/lib/thumb2/libm.a(lib_a-s_sin.o)
 .debug_pubnames
                0x000022c4       0x1a /opt/paparazzi/arm-multilib/lib/gcc/arm-none-eabi/4.4.5/../../../../arm-none-eabi/lib/thumb2/libm.a(lib_a-s_tan.o)
 .debug_pubnames
                0x000022de       0x1c /opt/paparazzi/arm-multilib/lib/gcc/arm-none-eabi/4.4.5/../../../../arm-none-eabi/lib/thumb2/libm.a(lib_a-sf_atan.o)
 .debug_pubnames
                0x000022fa       0x1b /opt/paparazzi/arm-multilib/lib/gcc/arm-none-eabi/4.4.5/../../../../arm-none-eabi/lib/thumb2/libm.a(lib_a-sf_cos.o)
 .debug_pubnames
                0x00002315       0x1c /opt/paparazzi/arm-multilib/lib/gcc/arm-none-eabi/4.4.5/../../../../arm-none-eabi/lib/thumb2/libm.a(lib_a-sf_fabs.o)
 .debug_pubnames
                0x00002331       0x1b /opt/paparazzi/arm-multilib/lib/gcc/arm-none-eabi/4.4.5/../../../../arm-none-eabi/lib/thumb2/libm.a(lib_a-sf_sin.o)
 .debug_pubnames
                0x0000234c       0x1b /opt/paparazzi/arm-multilib/lib/gcc/arm-none-eabi/4.4.5/../../../../arm-none-eabi/lib/thumb2/libm.a(lib_a-w_asin.o)
 .debug_pubnames
                0x00002367       0x1c /opt/paparazzi/arm-multilib/lib/gcc/arm-none-eabi/4.4.5/../../../../arm-none-eabi/lib/thumb2/libm.a(lib_a-w_atan2.o)
 .debug_pubnames
                0x00002383       0x1b /opt/paparazzi/arm-multilib/lib/gcc/arm-none-eabi/4.4.5/../../../../arm-none-eabi/lib/thumb2/libm.a(lib_a-w_cosh.o)
 .debug_pubnames
                0x0000239e       0x1a /opt/paparazzi/arm-multilib/lib/gcc/arm-none-eabi/4.4.5/../../../../arm-none-eabi/lib/thumb2/libm.a(lib_a-w_exp.o)
 .debug_pubnames
                0x000023b8       0x1a /opt/paparazzi/arm-multilib/lib/gcc/arm-none-eabi/4.4.5/../../../../arm-none-eabi/lib/thumb2/libm.a(lib_a-w_log.o)
 .debug_pubnames
                0x000023d2       0x1a /opt/paparazzi/arm-multilib/lib/gcc/arm-none-eabi/4.4.5/../../../../arm-none-eabi/lib/thumb2/libm.a(lib_a-w_pow.o)
 .debug_pubnames
                0x000023ec       0x1b /opt/paparazzi/arm-multilib/lib/gcc/arm-none-eabi/4.4.5/../../../../arm-none-eabi/lib/thumb2/libm.a(lib_a-w_sinh.o)
 .debug_pubnames
                0x00002407       0x1b /opt/paparazzi/arm-multilib/lib/gcc/arm-none-eabi/4.4.5/../../../../arm-none-eabi/lib/thumb2/libm.a(lib_a-w_sqrt.o)
 .debug_pubnames
                0x00002422       0x1c /opt/paparazzi/arm-multilib/lib/gcc/arm-none-eabi/4.4.5/../../../../arm-none-eabi/lib/thumb2/libm.a(lib_a-wf_asin.o)
 .debug_pubnames
                0x0000243e       0x1d /opt/paparazzi/arm-multilib/lib/gcc/arm-none-eabi/4.4.5/../../../../arm-none-eabi/lib/thumb2/libm.a(lib_a-wf_atan2.o)
 .debug_pubnames
                0x0000245b       0x1b /opt/paparazzi/arm-multilib/lib/gcc/arm-none-eabi/4.4.5/../../../../arm-none-eabi/lib/thumb2/libm.a(lib_a-wf_pow.o)
 .debug_pubnames
                0x00002476       0x1c /opt/paparazzi/arm-multilib/lib/gcc/arm-none-eabi/4.4.5/../../../../arm-none-eabi/lib/thumb2/libm.a(lib_a-wf_sqrt.o)
 .debug_pubnames
                0x00002492       0x25 /opt/paparazzi/arm-multilib/lib/gcc/arm-none-eabi/4.4.5/../../../../arm-none-eabi/lib/thumb2/libm.a(lib_a-e_asin.o)
 .debug_pubnames
                0x000024b7       0x26 /opt/paparazzi/arm-multilib/lib/gcc/arm-none-eabi/4.4.5/../../../../arm-none-eabi/lib/thumb2/libm.a(lib_a-e_atan2.o)
 .debug_pubnames
                0x000024dd       0x25 /opt/paparazzi/arm-multilib/lib/gcc/arm-none-eabi/4.4.5/../../../../arm-none-eabi/lib/thumb2/libm.a(lib_a-e_cosh.o)
 .debug_pubnames
                0x00002502       0x24 /opt/paparazzi/arm-multilib/lib/gcc/arm-none-eabi/4.4.5/../../../../arm-none-eabi/lib/thumb2/libm.a(lib_a-e_exp.o)
 .debug_pubnames
                0x00002526       0x24 /opt/paparazzi/arm-multilib/lib/gcc/arm-none-eabi/4.4.5/../../../../arm-none-eabi/lib/thumb2/libm.a(lib_a-e_log.o)
 .debug_pubnames
                0x0000254a       0x24 /opt/paparazzi/arm-multilib/lib/gcc/arm-none-eabi/4.4.5/../../../../arm-none-eabi/lib/thumb2/libm.a(lib_a-e_pow.o)
 .debug_pubnames
                0x0000256e       0x29 /opt/paparazzi/arm-multilib/lib/gcc/arm-none-eabi/4.4.5/../../../../arm-none-eabi/lib/thumb2/libm.a(lib_a-e_rem_pio2.o)
 .debug_pubnames
                0x00002597       0x25 /opt/paparazzi/arm-multilib/lib/gcc/arm-none-eabi/4.4.5/../../../../arm-none-eabi/lib/thumb2/libm.a(lib_a-e_sinh.o)
 .debug_pubnames
                0x000025bc       0x25 /opt/paparazzi/arm-multilib/lib/gcc/arm-none-eabi/4.4.5/../../../../arm-none-eabi/lib/thumb2/libm.a(lib_a-e_sqrt.o)
 .debug_pubnames
                0x000025e1       0x26 /opt/paparazzi/arm-multilib/lib/gcc/arm-none-eabi/4.4.5/../../../../arm-none-eabi/lib/thumb2/libm.a(lib_a-ef_asin.o)
 .debug_pubnames
                0x00002607       0x27 /opt/paparazzi/arm-multilib/lib/gcc/arm-none-eabi/4.4.5/../../../../arm-none-eabi/lib/thumb2/libm.a(lib_a-ef_atan2.o)
 .debug_pubnames
                0x0000262e       0x25 /opt/paparazzi/arm-multilib/lib/gcc/arm-none-eabi/4.4.5/../../../../arm-none-eabi/lib/thumb2/libm.a(lib_a-ef_pow.o)
 .debug_pubnames
                0x00002653       0x2a /opt/paparazzi/arm-multilib/lib/gcc/arm-none-eabi/4.4.5/../../../../arm-none-eabi/lib/thumb2/libm.a(lib_a-ef_rem_pio2.o)
 .debug_pubnames
                0x0000267d       0x26 /opt/paparazzi/arm-multilib/lib/gcc/arm-none-eabi/4.4.5/../../../../arm-none-eabi/lib/thumb2/libm.a(lib_a-ef_sqrt.o)
 .debug_pubnames
                0x000026a3       0x23 /opt/paparazzi/arm-multilib/lib/gcc/arm-none-eabi/4.4.5/../../../../arm-none-eabi/lib/thumb2/libm.a(lib_a-k_cos.o)
 .debug_pubnames
                0x000026c6       0x28 /opt/paparazzi/arm-multilib/lib/gcc/arm-none-eabi/4.4.5/../../../../arm-none-eabi/lib/thumb2/libm.a(lib_a-k_rem_pio2.o)
 .debug_pubnames
                0x000026ee       0x23 /opt/paparazzi/arm-multilib/lib/gcc/arm-none-eabi/4.4.5/../../../../arm-none-eabi/lib/thumb2/libm.a(lib_a-k_sin.o)
 .debug_pubnames
                0x00002711       0x23 /opt/paparazzi/arm-multilib/lib/gcc/arm-none-eabi/4.4.5/../../../../arm-none-eabi/lib/thumb2/libm.a(lib_a-k_tan.o)
 .debug_pubnames
                0x00002734       0x24 /opt/paparazzi/arm-multilib/lib/gcc/arm-none-eabi/4.4.5/../../../../arm-none-eabi/lib/thumb2/libm.a(lib_a-kf_cos.o)
 .debug_pubnames
                0x00002758       0x29 /opt/paparazzi/arm-multilib/lib/gcc/arm-none-eabi/4.4.5/../../../../arm-none-eabi/lib/thumb2/libm.a(lib_a-kf_rem_pio2.o)
 .debug_pubnames
                0x00002781       0x24 /opt/paparazzi/arm-multilib/lib/gcc/arm-none-eabi/4.4.5/../../../../arm-none-eabi/lib/thumb2/libm.a(lib_a-kf_sin.o)
 .debug_pubnames
                0x000027a5       0x1c /opt/paparazzi/arm-multilib/lib/gcc/arm-none-eabi/4.4.5/../../../../arm-none-eabi/lib/thumb2/libm.a(lib_a-s_expm1.o)
 .debug_pubnames
                0x000027c1       0x1d /opt/paparazzi/arm-multilib/lib/gcc/arm-none-eabi/4.4.5/../../../../arm-none-eabi/lib/thumb2/libm.a(lib_a-s_finite.o)
 .debug_pubnames
                0x000027de       0x1c /opt/paparazzi/arm-multilib/lib/gcc/arm-none-eabi/4.4.5/../../../../arm-none-eabi/lib/thumb2/libm.a(lib_a-s_floor.o)
 .debug_pubnames
                0x000027fa       0x24 /opt/paparazzi/arm-multilib/lib/gcc/arm-none-eabi/4.4.5/../../../../arm-none-eabi/lib/thumb2/libm.a(lib_a-s_fpclassify.o)
 .debug_pubnames
                0x0000281e       0x26 /opt/paparazzi/arm-multilib/lib/gcc/arm-none-eabi/4.4.5/../../../../arm-none-eabi/lib/thumb2/libm.a(lib_a-s_lib_ver.o)
 .debug_pubnames
                0x00002844       0x1e /opt/paparazzi/arm-multilib/lib/gcc/arm-none-eabi/4.4.5/../../../../arm-none-eabi/lib/thumb2/libm.a(lib_a-s_matherr.o)
 .debug_pubnames
                0x00002862       0x1a /opt/paparazzi/arm-multilib/lib/gcc/arm-none-eabi/4.4.5/../../../../arm-none-eabi/lib/thumb2/libm.a(lib_a-s_nan.o)
 .debug_pubnames
                0x0000287c       0x1d /opt/paparazzi/arm-multilib/lib/gcc/arm-none-eabi/4.4.5/../../../../arm-none-eabi/lib/thumb2/libm.a(lib_a-s_scalbn.o)
 .debug_pubnames
                0x00002899       0x1e /opt/paparazzi/arm-multilib/lib/gcc/arm-none-eabi/4.4.5/../../../../arm-none-eabi/lib/thumb2/libm.a(lib_a-sf_finite.o)
 .debug_pubnames
                0x000028b7       0x1d /opt/paparazzi/arm-multilib/lib/gcc/arm-none-eabi/4.4.5/../../../../arm-none-eabi/lib/thumb2/libm.a(lib_a-sf_floor.o)
 .debug_pubnames
                0x000028d4       0x24 /opt/paparazzi/arm-multilib/lib/gcc/arm-none-eabi/4.4.5/../../../../arm-none-eabi/lib/thumb2/libm.a(lib_a-sf_fpclassify.o)
 .debug_pubnames
                0x000028f8       0x1b /opt/paparazzi/arm-multilib/lib/gcc/arm-none-eabi/4.4.5/../../../../arm-none-eabi/lib/thumb2/libm.a(lib_a-sf_nan.o)
 .debug_pubnames
                0x00002913       0x1e /opt/paparazzi/arm-multilib/lib/gcc/arm-none-eabi/4.4.5/../../../../arm-none-eabi/lib/thumb2/libm.a(lib_a-sf_scalbn.o)
 .debug_pubnames
                0x00002931       0x1f /opt/paparazzi/arm-multilib/lib/gcc/arm-none-eabi/4.4.5/../../../../arm-none-eabi/lib/thumb2/libm.a(lib_a-s_copysign.o)
 .debug_pubnames
                0x00002950       0x20 /opt/paparazzi/arm-multilib/lib/gcc/arm-none-eabi/4.4.5/../../../../arm-none-eabi/lib/thumb2/libm.a(lib_a-sf_copysign.o)
 .debug_pubnames
                0x00002970      0x401 /opt/paparazzi/arm-multilib/lib/gcc/arm-none-eabi/4.4.5/../../../../arm-none-eabi/lib/libstm32.a(stm32_adc.o)
 .debug_pubnames
                0x00002d71      0x7b0 /opt/paparazzi/arm-multilib/lib/gcc/arm-none-eabi/4.4.5/../../../../arm-none-eabi/lib/libstm32.a(stm32_tim.o)
 .debug_pubnames
                0x00003521       0xcf /opt/paparazzi/arm-multilib/lib/gcc/arm-none-eabi/4.4.5/../../../../arm-none-eabi/lib/libstm32.a(stm32_dma.o)
 .debug_pubnames
                0x000035f0      0x17b /opt/paparazzi/arm-multilib/lib/gcc/arm-none-eabi/4.4.5/../../../../arm-none-eabi/lib/libstm32.a(stm32_gpio.o)
 .debug_pubnames
                0x0000376b      0x25f /opt/paparazzi/arm-multilib/lib/gcc/arm-none-eabi/4.4.5/../../../../arm-none-eabi/lib/libstm32.a(stm32_usart.o)
 .debug_pubnames
                0x000039ca       0xbb /opt/paparazzi/arm-multilib/lib/gcc/arm-none-eabi/4.4.5/../../../../arm-none-eabi/lib/libstm32.a(stm32_exti.o)
 .debug_pubnames
                0x00003a85      0x2b0 /opt/paparazzi/arm-multilib/lib/gcc/arm-none-eabi/4.4.5/../../../../arm-none-eabi/lib/libstm32.a(stm32_i2c.o)
 .debug_pubnames
                0x00003d35      0x1f6 /opt/paparazzi/arm-multilib/lib/gcc/arm-none-eabi/4.4.5/../../../../arm-none-eabi/lib/libstm32.a(stm32_spi.o)
 .debug_pubnames
                0x00003f2b      0x2c4 /opt/paparazzi/arm-multilib/lib/gcc/arm-none-eabi/4.4.5/../../../../arm-none-eabi/lib/libstm32.a(stm32_rcc.o)
 .debug_pubnames
                0x000041ef       0x89 /opt/paparazzi/arm-multilib/lib/gcc/arm-none-eabi/4.4.5/../../../../arm-none-eabi/lib/libstm32.a(stm32_misc.o)
 .debug_pubnames
                0x00004278      0x3e0 /opt/paparazzi/arm-multilib/lib/gcc/arm-none-eabi/4.4.5/../../../../arm-none-eabi/lib/libopencm3_stm32.a(rcc.o)
 .debug_pubnames
                0x00004658      0x13f /opt/paparazzi/arm-multilib/lib/gcc/arm-none-eabi/4.4.5/../../../../arm-none-eabi/lib/libopencm3_stm32.a(usart.o)
 .debug_pubnames
                0x00004797      0x223 /opt/paparazzi/arm-multilib/lib/gcc/arm-none-eabi/4.4.5/../../../../arm-none-eabi/lib/libopencm3_stm32.a(flash.o)
 .debug_pubnames
                0x000049ba       0x1e /opt/paparazzi/arm-multilib/lib/gcc/arm-none-eabi/4.4.5/../../../../arm-none-eabi/lib/thumb2/libc.a(lib_a-errno.o)
 .debug_pubnames
                0x000049d8       0x39 /opt/paparazzi/arm-multilib/lib/gcc/arm-none-eabi/4.4.5/../../../../arm-none-eabi/lib/thumb2/libc.a(lib_a-impure.o)

.debug_info     0x00000000    0x2aee7
 *(.debug_info .gnu.linkonce.wi.*)
 .debug_info    0x00000000      0x274 /home/woz/lisa-m-team4938/paparazzi/var/ECE_2012/ap/mcu.o
 .debug_info    0x00000274       0xde /home/woz/lisa-m-team4938/paparazzi/var/ECE_2012/ap/arch/stm32/mcu_arch.o
 .debug_info    0x00000352       0x8b /home/woz/lisa-m-team4938/paparazzi/var/ECE_2012/ap/arch/stm32/led_hw.o
 .debug_info    0x000003dd       0xe8 /home/woz/lisa-m-team4938/paparazzi/var/ECE_2012/ap/sys_time.o
 .debug_info    0x000004c5      0x2ae /home/woz/lisa-m-team4938/paparazzi/var/ECE_2012/ap/./inter_mcu.o
 .debug_info    0x00000773      0x7df /home/woz/lisa-m-team4938/paparazzi/var/ECE_2012/ap/math/pprz_geodetic_int.o
 .debug_info    0x00000f52      0xc10 /home/woz/lisa-m-team4938/paparazzi/var/ECE_2012/ap/math/pprz_geodetic_float.o
 .debug_info    0x00001b62      0x9ac /home/woz/lisa-m-team4938/paparazzi/var/ECE_2012/ap/math/pprz_geodetic_double.o
 .debug_info    0x0000250e       0xb9 /home/woz/lisa-m-team4938/paparazzi/var/ECE_2012/ap/math/pprz_trig_int.o
 .debug_info    0x000025c7      0x3d4 /home/woz/lisa-m-team4938/paparazzi/var/ECE_2012/ap/mcu_periph/i2c.o
 .debug_info    0x0000299b      0xfd9 /home/woz/lisa-m-team4938/paparazzi/var/ECE_2012/ap/arch/stm32/mcu_periph/i2c_arch.o
 .debug_info    0x00003974      0xe12 /home/woz/lisa-m-team4938/paparazzi/var/ECE_2012/ap/firmwares/fixedwing/main_fbw.o
 .debug_info    0x00004786      0x1f5 /home/woz/lisa-m-team4938/paparazzi/var/ECE_2012/ap/subsystems/electrical.o
 .debug_info    0x0000497b       0xe2 /home/woz/lisa-m-team4938/paparazzi/var/ECE_2012/ap/./commands.o
 .debug_info    0x00004a5d     0x82c7 /home/woz/lisa-m-team4938/paparazzi/var/ECE_2012/ap/firmwares/fixedwing/main_ap.o
 .debug_info    0x0000cd24      0xd07 /home/woz/lisa-m-team4938/paparazzi/var/ECE_2012/ap/./estimator.o
 .debug_info    0x0000da2b       0x89 /home/woz/lisa-m-team4938/paparazzi/var/ECE_2012/ap/arch/stm32/stm32_exceptions.o
 .debug_info    0x0000dab4      0x359 /home/woz/lisa-m-team4938/paparazzi/var/ECE_2012/ap/arch/stm32/stm32_vector_table.o
 .debug_info    0x0000de0d      0x22e /home/woz/lisa-m-team4938/paparazzi/var/ECE_2012/ap/lisa/plug_sys.o
 .debug_info    0x0000e03b      0x199 /home/woz/lisa-m-team4938/paparazzi/var/ECE_2012/ap/firmwares/fixedwing/main.o
 .debug_info    0x0000e1d4      0x656 /home/woz/lisa-m-team4938/paparazzi/var/ECE_2012/ap/arch/stm32/sys_time_hw.o
 .debug_info    0x0000e82a      0x203 /home/woz/lisa-m-team4938/paparazzi/var/ECE_2012/ap/mcu_periph/uart.o
 .debug_info    0x0000ea2d      0x78f /home/woz/lisa-m-team4938/paparazzi/var/ECE_2012/ap/arch/stm32/mcu_periph/uart_arch.o
 .debug_info    0x0000f1bc      0x5c4 /home/woz/lisa-m-team4938/paparazzi/var/ECE_2012/ap/subsystems/settings.o
 .debug_info    0x0000f780      0x74f /home/woz/lisa-m-team4938/paparazzi/var/ECE_2012/ap/arch/stm32/subsystems/settings_arch.o
 .debug_info    0x0000fecf      0xbb6 /home/woz/lisa-m-team4938/paparazzi/var/ECE_2012/ap/arch/stm32/mcu_periph/adc_arch.o
 .debug_info    0x00010a85       0xcf /home/woz/lisa-m-team4938/paparazzi/var/ECE_2012/ap/arch/stm32/servos_direct_hw.o
 .debug_info    0x00010b54       0xb8 /home/woz/lisa-m-team4938/paparazzi/var/ECE_2012/ap/actuators.o
 .debug_info    0x00010c0c      0x5ab /home/woz/lisa-m-team4938/paparazzi/var/ECE_2012/ap/firmwares/rotorcraft/actuators/arch/stm32/actuators_pwm_arch.o
 .debug_info    0x000111b7      0x12f /home/woz/lisa-m-team4938/paparazzi/var/ECE_2012/ap/subsystems/radio_control.o
 .debug_info    0x000112e6      0x190 /home/woz/lisa-m-team4938/paparazzi/var/ECE_2012/ap/subsystems/radio_control/ppm.o
 .debug_info    0x00011476      0x8e7 /home/woz/lisa-m-team4938/paparazzi/var/ECE_2012/ap/arch/stm32/subsystems/radio_control/ppm_arch.o
 .debug_info    0x00011d5d       0xfb /home/woz/lisa-m-team4938/paparazzi/var/ECE_2012/ap/downlink.o
 .debug_info    0x00011e58      0x163 /home/woz/lisa-m-team4938/paparazzi/var/ECE_2012/ap/pprz_transport.o
 .debug_info    0x00011fbb     0x14ef /home/woz/lisa-m-team4938/paparazzi/var/ECE_2012/ap/firmwares/fixedwing/datalink.o
 .debug_info    0x000134aa      0x5d1 /home/woz/lisa-m-team4938/paparazzi/var/ECE_2012/ap/firmwares/fixedwing/stabilization/stabilization_attitude.o
 .debug_info    0x00013a7b      0x4d5 /home/woz/lisa-m-team4938/paparazzi/var/ECE_2012/ap/firmwares/fixedwing/guidance/guidance_v.o
 .debug_info    0x00013f50      0xb8a /home/woz/lisa-m-team4938/paparazzi/var/ECE_2012/ap/subsystems/imu.o
 .debug_info    0x00014ada      0x8c4 /home/woz/lisa-m-team4938/paparazzi/var/ECE_2012/ap/subsystems/imu/imu_aspirin.o
 .debug_info    0x0001539e      0xedf /home/woz/lisa-m-team4938/paparazzi/var/ECE_2012/ap/arch/stm32/subsystems/imu/imu_aspirin_arch.o
 .debug_info    0x0001627d      0x55d /home/woz/lisa-m-team4938/paparazzi/var/ECE_2012/ap/peripherals/hmc5843.o
 .debug_info    0x000167da      0x23c /home/woz/lisa-m-team4938/paparazzi/var/ECE_2012/ap/arch/stm32/peripherals/hmc5843_arch.o
 .debug_info    0x00016a16      0x3b2 /home/woz/lisa-m-team4938/paparazzi/var/ECE_2012/ap/subsystems/ahrs.o
 .debug_info    0x00016dc8      0x824 /home/woz/lisa-m-team4938/paparazzi/var/ECE_2012/ap/subsystems/ahrs/ahrs_aligner.o
 .debug_info    0x000175ec     0x1771 /home/woz/lisa-m-team4938/paparazzi/var/ECE_2012/ap/subsystems/ahrs/ahrs_float_dcm.o
 .debug_info    0x00018d5d      0x7a8 /home/woz/lisa-m-team4938/paparazzi/var/ECE_2012/ap/subsystems/gps/gps_ubx.o
 .debug_info    0x00019505      0x37a /home/woz/lisa-m-team4938/paparazzi/var/ECE_2012/ap/subsystems/gps.o
 .debug_info    0x0001987f     0x157b /home/woz/lisa-m-team4938/paparazzi/var/ECE_2012/ap/subsystems/nav.o
 .debug_info    0x0001adfa      0x149 /home/woz/lisa-m-team4938/paparazzi/var/ECE_2012/ap/subsystems/navigation/common_flight_plan.o
 .debug_info    0x0001af43      0x1a6 /home/woz/lisa-m-team4938/paparazzi/var/ECE_2012/ap/subsystems/navigation/traffic_info.o
 .debug_info    0x0001b0e9      0x3e7 /home/woz/lisa-m-team4938/paparazzi/var/ECE_2012/ap/subsystems/navigation/nav_survey_rectangle.o
 .debug_info    0x0001b4d0      0x518 /home/woz/lisa-m-team4938/paparazzi/var/ECE_2012/ap/subsystems/navigation/nav_line.o
 .debug_info    0x0001b9e8       0xf4 /opt/paparazzi/arm-multilib/lib/gcc/arm-none-eabi/4.4.5/../../../../arm-none-eabi/lib/thumb2/libc.a(lib_a-memcpy.o)
 .debug_info    0x0001badc      0x289 /opt/paparazzi/arm-multilib/lib/gcc/arm-none-eabi/4.4.5/../../../../arm-none-eabi/lib/thumb2/libm.a(lib_a-s_atan.o)
 .debug_info    0x0001bd65      0x176 /opt/paparazzi/arm-multilib/lib/gcc/arm-none-eabi/4.4.5/../../../../arm-none-eabi/lib/thumb2/libm.a(lib_a-s_cos.o)
 .debug_info    0x0001bedb      0x138 /opt/paparazzi/arm-multilib/lib/gcc/arm-none-eabi/4.4.5/../../../../arm-none-eabi/lib/thumb2/libm.a(lib_a-s_fabs.o)
 .debug_info    0x0001c013      0x20b /opt/paparazzi/arm-multilib/lib/gcc/arm-none-eabi/4.4.5/../../../../arm-none-eabi/lib/thumb2/libm.a(lib_a-s_rint.o)
 .debug_info    0x0001c21e      0x176 /opt/paparazzi/arm-multilib/lib/gcc/arm-none-eabi/4.4.5/../../../../arm-none-eabi/lib/thumb2/libm.a(lib_a-s_sin.o)
 .debug_info    0x0001c394      0x176 /opt/paparazzi/arm-multilib/lib/gcc/arm-none-eabi/4.4.5/../../../../arm-none-eabi/lib/thumb2/libm.a(lib_a-s_tan.o)
 .debug_info    0x0001c50a      0x20f /opt/paparazzi/arm-multilib/lib/gcc/arm-none-eabi/4.4.5/../../../../arm-none-eabi/lib/thumb2/libm.a(lib_a-sf_atan.o)
 .debug_info    0x0001c719      0x113 /opt/paparazzi/arm-multilib/lib/gcc/arm-none-eabi/4.4.5/../../../../arm-none-eabi/lib/thumb2/libm.a(lib_a-sf_cos.o)
 .debug_info    0x0001c82c       0xc6 /opt/paparazzi/arm-multilib/lib/gcc/arm-none-eabi/4.4.5/../../../../arm-none-eabi/lib/thumb2/libm.a(lib_a-sf_fabs.o)
 .debug_info    0x0001c8f2       0xfa /opt/paparazzi/arm-multilib/lib/gcc/arm-none-eabi/4.4.5/../../../../arm-none-eabi/lib/thumb2/libm.a(lib_a-sf_sin.o)
 .debug_info    0x0001c9ec      0x173 /opt/paparazzi/arm-multilib/lib/gcc/arm-none-eabi/4.4.5/../../../../arm-none-eabi/lib/thumb2/libm.a(lib_a-w_asin.o)
 .debug_info    0x0001cb5f       0xbd /opt/paparazzi/arm-multilib/lib/gcc/arm-none-eabi/4.4.5/../../../../arm-none-eabi/lib/thumb2/libm.a(lib_a-w_atan2.o)
 .debug_info    0x0001cc1c      0x173 /opt/paparazzi/arm-multilib/lib/gcc/arm-none-eabi/4.4.5/../../../../arm-none-eabi/lib/thumb2/libm.a(lib_a-w_cosh.o)
 .debug_info    0x0001cd8f      0x1a0 /opt/paparazzi/arm-multilib/lib/gcc/arm-none-eabi/4.4.5/../../../../arm-none-eabi/lib/thumb2/libm.a(lib_a-w_exp.o)
 .debug_info    0x0001cf2f      0x173 /opt/paparazzi/arm-multilib/lib/gcc/arm-none-eabi/4.4.5/../../../../arm-none-eabi/lib/thumb2/libm.a(lib_a-w_log.o)
 .debug_info    0x0001d0a2      0x181 /opt/paparazzi/arm-multilib/lib/gcc/arm-none-eabi/4.4.5/../../../../arm-none-eabi/lib/thumb2/libm.a(lib_a-w_pow.o)
 .debug_info    0x0001d223      0x174 /opt/paparazzi/arm-multilib/lib/gcc/arm-none-eabi/4.4.5/../../../../arm-none-eabi/lib/thumb2/libm.a(lib_a-w_sinh.o)
 .debug_info    0x0001d397      0x174 /opt/paparazzi/arm-multilib/lib/gcc/arm-none-eabi/4.4.5/../../../../arm-none-eabi/lib/thumb2/libm.a(lib_a-w_sqrt.o)
 .debug_info    0x0001d50b      0x172 /opt/paparazzi/arm-multilib/lib/gcc/arm-none-eabi/4.4.5/../../../../arm-none-eabi/lib/thumb2/libm.a(lib_a-wf_asin.o)
 .debug_info    0x0001d67d       0xbe /opt/paparazzi/arm-multilib/lib/gcc/arm-none-eabi/4.4.5/../../../../arm-none-eabi/lib/thumb2/libm.a(lib_a-wf_atan2.o)
 .debug_info    0x0001d73b      0x17f /opt/paparazzi/arm-multilib/lib/gcc/arm-none-eabi/4.4.5/../../../../arm-none-eabi/lib/thumb2/libm.a(lib_a-wf_pow.o)
 .debug_info    0x0001d8ba      0x172 /opt/paparazzi/arm-multilib/lib/gcc/arm-none-eabi/4.4.5/../../../../arm-none-eabi/lib/thumb2/libm.a(lib_a-wf_sqrt.o)
 .debug_info    0x0001da2c      0x306 /opt/paparazzi/arm-multilib/lib/gcc/arm-none-eabi/4.4.5/../../../../arm-none-eabi/lib/thumb2/libm.a(lib_a-e_asin.o)
 .debug_info    0x0001dd32      0x282 /opt/paparazzi/arm-multilib/lib/gcc/arm-none-eabi/4.4.5/../../../../arm-none-eabi/lib/thumb2/libm.a(lib_a-e_atan2.o)
 .debug_info    0x0001dfb4      0x143 /opt/paparazzi/arm-multilib/lib/gcc/arm-none-eabi/4.4.5/../../../../arm-none-eabi/lib/thumb2/libm.a(lib_a-e_cosh.o)
 .debug_info    0x0001e0f7      0x325 /opt/paparazzi/arm-multilib/lib/gcc/arm-none-eabi/4.4.5/../../../../arm-none-eabi/lib/thumb2/libm.a(lib_a-e_exp.o)
 .debug_info    0x0001e41c      0x2f0 /opt/paparazzi/arm-multilib/lib/gcc/arm-none-eabi/4.4.5/../../../../arm-none-eabi/lib/thumb2/libm.a(lib_a-e_log.o)
 .debug_info    0x0001e70c      0x6b3 /opt/paparazzi/arm-multilib/lib/gcc/arm-none-eabi/4.4.5/../../../../arm-none-eabi/lib/thumb2/libm.a(lib_a-e_pow.o)
 .debug_info    0x0001edbf      0x35b /opt/paparazzi/arm-multilib/lib/gcc/arm-none-eabi/4.4.5/../../../../arm-none-eabi/lib/thumb2/libm.a(lib_a-e_rem_pio2.o)
 .debug_info    0x0001f11a      0x14d /opt/paparazzi/arm-multilib/lib/gcc/arm-none-eabi/4.4.5/../../../../arm-none-eabi/lib/thumb2/libm.a(lib_a-e_sinh.o)
 .debug_info    0x0001f267      0x227 /opt/paparazzi/arm-multilib/lib/gcc/arm-none-eabi/4.4.5/../../../../arm-none-eabi/lib/thumb2/libm.a(lib_a-e_sqrt.o)
 .debug_info    0x0001f48e      0x27b /opt/paparazzi/arm-multilib/lib/gcc/arm-none-eabi/4.4.5/../../../../arm-none-eabi/lib/thumb2/libm.a(lib_a-ef_asin.o)
 .debug_info    0x0001f709      0x189 /opt/paparazzi/arm-multilib/lib/gcc/arm-none-eabi/4.4.5/../../../../arm-none-eabi/lib/thumb2/libm.a(lib_a-ef_atan2.o)
 .debug_info    0x0001f892      0x4bd /opt/paparazzi/arm-multilib/lib/gcc/arm-none-eabi/4.4.5/../../../../arm-none-eabi/lib/thumb2/libm.a(lib_a-ef_pow.o)
 .debug_info    0x0001fd4f      0x2d8 /opt/paparazzi/arm-multilib/lib/gcc/arm-none-eabi/4.4.5/../../../../arm-none-eabi/lib/thumb2/libm.a(lib_a-ef_rem_pio2.o)
 .debug_info    0x00020027      0x15a /opt/paparazzi/arm-multilib/lib/gcc/arm-none-eabi/4.4.5/../../../../arm-none-eabi/lib/thumb2/libm.a(lib_a-ef_sqrt.o)
 .debug_info    0x00020181      0x21f /opt/paparazzi/arm-multilib/lib/gcc/arm-none-eabi/4.4.5/../../../../arm-none-eabi/lib/thumb2/libm.a(lib_a-k_cos.o)
 .debug_info    0x000203a0      0x2d8 /opt/paparazzi/arm-multilib/lib/gcc/arm-none-eabi/4.4.5/../../../../arm-none-eabi/lib/thumb2/libm.a(lib_a-k_rem_pio2.o)
 .debug_info    0x00020678      0x18c /opt/paparazzi/arm-multilib/lib/gcc/arm-none-eabi/4.4.5/../../../../arm-none-eabi/lib/thumb2/libm.a(lib_a-k_sin.o)
 .debug_info    0x00020804      0x2d3 /opt/paparazzi/arm-multilib/lib/gcc/arm-none-eabi/4.4.5/../../../../arm-none-eabi/lib/thumb2/libm.a(lib_a-k_tan.o)
 .debug_info    0x00020ad7      0x184 /opt/paparazzi/arm-multilib/lib/gcc/arm-none-eabi/4.4.5/../../../../arm-none-eabi/lib/thumb2/libm.a(lib_a-kf_cos.o)
 .debug_info    0x00020c5b      0x2c8 /opt/paparazzi/arm-multilib/lib/gcc/arm-none-eabi/4.4.5/../../../../arm-none-eabi/lib/thumb2/libm.a(lib_a-kf_rem_pio2.o)
 .debug_info    0x00020f23      0x174 /opt/paparazzi/arm-multilib/lib/gcc/arm-none-eabi/4.4.5/../../../../arm-none-eabi/lib/thumb2/libm.a(lib_a-kf_sin.o)
 .debug_info    0x00021097      0x36a /opt/paparazzi/arm-multilib/lib/gcc/arm-none-eabi/4.4.5/../../../../arm-none-eabi/lib/thumb2/libm.a(lib_a-s_expm1.o)
 .debug_info    0x00021401      0x13b /opt/paparazzi/arm-multilib/lib/gcc/arm-none-eabi/4.4.5/../../../../arm-none-eabi/lib/thumb2/libm.a(lib_a-s_finite.o)
 .debug_info    0x0002153c      0x1b4 /opt/paparazzi/arm-multilib/lib/gcc/arm-none-eabi/4.4.5/../../../../arm-none-eabi/lib/thumb2/libm.a(lib_a-s_floor.o)
 .debug_info    0x000216f0      0x14a /opt/paparazzi/arm-multilib/lib/gcc/arm-none-eabi/4.4.5/../../../../arm-none-eabi/lib/thumb2/libm.a(lib_a-s_fpclassify.o)
 .debug_info    0x0002183a       0xc4 /opt/paparazzi/arm-multilib/lib/gcc/arm-none-eabi/4.4.5/../../../../arm-none-eabi/lib/thumb2/libm.a(lib_a-s_lib_ver.o)
 .debug_info    0x000218fe      0x132 /opt/paparazzi/arm-multilib/lib/gcc/arm-none-eabi/4.4.5/../../../../arm-none-eabi/lib/thumb2/libm.a(lib_a-s_matherr.o)
 .debug_info    0x00021a30      0x13c /opt/paparazzi/arm-multilib/lib/gcc/arm-none-eabi/4.4.5/../../../../arm-none-eabi/lib/thumb2/libm.a(lib_a-s_nan.o)
 .debug_info    0x00021b6c      0x217 /opt/paparazzi/arm-multilib/lib/gcc/arm-none-eabi/4.4.5/../../../../arm-none-eabi/lib/thumb2/libm.a(lib_a-s_scalbn.o)
 .debug_info    0x00021d83      0x114 /opt/paparazzi/arm-multilib/lib/gcc/arm-none-eabi/4.4.5/../../../../arm-none-eabi/lib/thumb2/libm.a(lib_a-sf_finite.o)
 .debug_info    0x00021e97      0x119 /opt/paparazzi/arm-multilib/lib/gcc/arm-none-eabi/4.4.5/../../../../arm-none-eabi/lib/thumb2/libm.a(lib_a-sf_floor.o)
 .debug_info    0x00021fb0       0xc4 /opt/paparazzi/arm-multilib/lib/gcc/arm-none-eabi/4.4.5/../../../../arm-none-eabi/lib/thumb2/libm.a(lib_a-sf_fpclassify.o)
 .debug_info    0x00022074       0xc7 /opt/paparazzi/arm-multilib/lib/gcc/arm-none-eabi/4.4.5/../../../../arm-none-eabi/lib/thumb2/libm.a(lib_a-sf_nan.o)
 .debug_info    0x0002213b      0x18b /opt/paparazzi/arm-multilib/lib/gcc/arm-none-eabi/4.4.5/../../../../arm-none-eabi/lib/thumb2/libm.a(lib_a-sf_scalbn.o)
 .debug_info    0x000222c6      0x16c /opt/paparazzi/arm-multilib/lib/gcc/arm-none-eabi/4.4.5/../../../../arm-none-eabi/lib/thumb2/libm.a(lib_a-s_copysign.o)
 .debug_info    0x00022432       0xdd /opt/paparazzi/arm-multilib/lib/gcc/arm-none-eabi/4.4.5/../../../../arm-none-eabi/lib/thumb2/libm.a(lib_a-sf_copysign.o)
 .debug_info    0x0002250f       0xca /opt/paparazzi/arm-multilib/lib/gcc/arm-none-eabi/4.4.5/thumb2/libgcc.a(_divsi3.o)
 .debug_info    0x000225d9       0xca /opt/paparazzi/arm-multilib/lib/gcc/arm-none-eabi/4.4.5/thumb2/libgcc.a(_dvmd_tls.o)
 .debug_info    0x000226a3       0xc9 /opt/paparazzi/arm-multilib/lib/gcc/arm-none-eabi/4.4.5/thumb2/libgcc.a(_arm_addsubdf3.o)
 .debug_info    0x0002276c       0xc9 /opt/paparazzi/arm-multilib/lib/gcc/arm-none-eabi/4.4.5/thumb2/libgcc.a(_arm_muldivdf3.o)
 .debug_info    0x00022835       0xc9 /opt/paparazzi/arm-multilib/lib/gcc/arm-none-eabi/4.4.5/thumb2/libgcc.a(_arm_cmpdf2.o)
 .debug_info    0x000228fe       0xc9 /opt/paparazzi/arm-multilib/lib/gcc/arm-none-eabi/4.4.5/thumb2/libgcc.a(_arm_fixdfsi.o)
 .debug_info    0x000229c7       0xc9 /opt/paparazzi/arm-multilib/lib/gcc/arm-none-eabi/4.4.5/thumb2/libgcc.a(_arm_fixunsdfsi.o)
 .debug_info    0x00022a90       0xc9 /opt/paparazzi/arm-multilib/lib/gcc/arm-none-eabi/4.4.5/thumb2/libgcc.a(_arm_truncdfsf2.o)
 .debug_info    0x00022b59       0xc9 /opt/paparazzi/arm-multilib/lib/gcc/arm-none-eabi/4.4.5/thumb2/libgcc.a(_arm_addsubsf3.o)
 .debug_info    0x00022c22       0xc9 /opt/paparazzi/arm-multilib/lib/gcc/arm-none-eabi/4.4.5/thumb2/libgcc.a(_arm_muldivsf3.o)
 .debug_info    0x00022ceb       0xc9 /opt/paparazzi/arm-multilib/lib/gcc/arm-none-eabi/4.4.5/thumb2/libgcc.a(_arm_cmpsf2.o)
 .debug_info    0x00022db4       0xc9 /opt/paparazzi/arm-multilib/lib/gcc/arm-none-eabi/4.4.5/thumb2/libgcc.a(_arm_fixsfsi.o)
 .debug_info    0x00022e7d       0xc9 /opt/paparazzi/arm-multilib/lib/gcc/arm-none-eabi/4.4.5/thumb2/libgcc.a(_arm_fixunssfsi.o)
 .debug_info    0x00022f46      0xb48 /opt/paparazzi/arm-multilib/lib/gcc/arm-none-eabi/4.4.5/../../../../arm-none-eabi/lib/libstm32.a(stm32_adc.o)
 .debug_info    0x00023a8e     0x1cea /opt/paparazzi/arm-multilib/lib/gcc/arm-none-eabi/4.4.5/../../../../arm-none-eabi/lib/libstm32.a(stm32_tim.o)
 .debug_info    0x00025778      0x419 /opt/paparazzi/arm-multilib/lib/gcc/arm-none-eabi/4.4.5/../../../../arm-none-eabi/lib/libstm32.a(stm32_dma.o)
 .debug_info    0x00025b91      0x671 /opt/paparazzi/arm-multilib/lib/gcc/arm-none-eabi/4.4.5/../../../../arm-none-eabi/lib/libstm32.a(stm32_gpio.o)
 .debug_info    0x00026202      0x975 /opt/paparazzi/arm-multilib/lib/gcc/arm-none-eabi/4.4.5/../../../../arm-none-eabi/lib/libstm32.a(stm32_usart.o)
 .debug_info    0x00026b77      0x30e /opt/paparazzi/arm-multilib/lib/gcc/arm-none-eabi/4.4.5/../../../../arm-none-eabi/lib/libstm32.a(stm32_exti.o)
 .debug_info    0x00026e85      0xab3 /opt/paparazzi/arm-multilib/lib/gcc/arm-none-eabi/4.4.5/../../../../arm-none-eabi/lib/libstm32.a(stm32_i2c.o)
 .debug_info    0x00027938      0x901 /opt/paparazzi/arm-multilib/lib/gcc/arm-none-eabi/4.4.5/../../../../arm-none-eabi/lib/libstm32.a(stm32_spi.o)
 .debug_info    0x00028239      0x862 /opt/paparazzi/arm-multilib/lib/gcc/arm-none-eabi/4.4.5/../../../../arm-none-eabi/lib/libstm32.a(stm32_rcc.o)
 .debug_info    0x00028a9b      0x4f1 /opt/paparazzi/arm-multilib/lib/gcc/arm-none-eabi/4.4.5/../../../../arm-none-eabi/lib/libstm32.a(stm32_misc.o)
 .debug_info    0x00028f8c      0x658 /opt/paparazzi/arm-multilib/lib/gcc/arm-none-eabi/4.4.5/../../../../arm-none-eabi/lib/libopencm3_stm32.a(rcc.o)
 .debug_info    0x000295e4      0x387 /opt/paparazzi/arm-multilib/lib/gcc/arm-none-eabi/4.4.5/../../../../arm-none-eabi/lib/libopencm3_stm32.a(usart.o)
 .debug_info    0x0002996b      0x2bd /opt/paparazzi/arm-multilib/lib/gcc/arm-none-eabi/4.4.5/../../../../arm-none-eabi/lib/libopencm3_stm32.a(flash.o)
 .debug_info    0x00029c28      0x957 /opt/paparazzi/arm-multilib/lib/gcc/arm-none-eabi/4.4.5/../../../../arm-none-eabi/lib/thumb2/libc.a(lib_a-errno.o)
 .debug_info    0x0002a57f      0x968 /opt/paparazzi/arm-multilib/lib/gcc/arm-none-eabi/4.4.5/../../../../arm-none-eabi/lib/thumb2/libc.a(lib_a-impure.o)

.debug_abbrev   0x00000000     0x8e1c
 *(.debug_abbrev)
 .debug_abbrev  0x00000000      0x118 /home/woz/lisa-m-team4938/paparazzi/var/ECE_2012/ap/mcu.o
 .debug_abbrev  0x00000118       0x83 /home/woz/lisa-m-team4938/paparazzi/var/ECE_2012/ap/arch/stm32/mcu_arch.o
 .debug_abbrev  0x0000019b       0x33 /home/woz/lisa-m-team4938/paparazzi/var/ECE_2012/ap/arch/stm32/led_hw.o
 .debug_abbrev  0x000001ce       0x69 /home/woz/lisa-m-team4938/paparazzi/var/ECE_2012/ap/sys_time.o
 .debug_abbrev  0x00000237       0xb1 /home/woz/lisa-m-team4938/paparazzi/var/ECE_2012/ap/./inter_mcu.o
 .debug_abbrev  0x000002e8      0x133 /home/woz/lisa-m-team4938/paparazzi/var/ECE_2012/ap/math/pprz_geodetic_int.o
 .debug_abbrev  0x0000041b      0x23a /home/woz/lisa-m-team4938/paparazzi/var/ECE_2012/ap/math/pprz_geodetic_float.o
 .debug_abbrev  0x00000655      0x1de /home/woz/lisa-m-team4938/paparazzi/var/ECE_2012/ap/math/pprz_geodetic_double.o
 .debug_abbrev  0x00000833       0x63 /home/woz/lisa-m-team4938/paparazzi/var/ECE_2012/ap/math/pprz_trig_int.o
 .debug_abbrev  0x00000896      0x105 /home/woz/lisa-m-team4938/paparazzi/var/ECE_2012/ap/mcu_periph/i2c.o
 .debug_abbrev  0x0000099b      0x2f2 /home/woz/lisa-m-team4938/paparazzi/var/ECE_2012/ap/arch/stm32/mcu_periph/i2c_arch.o
 .debug_abbrev  0x00000c8d      0x1c5 /home/woz/lisa-m-team4938/paparazzi/var/ECE_2012/ap/firmwares/fixedwing/main_fbw.o
 .debug_abbrev  0x00000e52       0xf8 /home/woz/lisa-m-team4938/paparazzi/var/ECE_2012/ap/subsystems/electrical.o
 .debug_abbrev  0x00000f4a       0x6a /home/woz/lisa-m-team4938/paparazzi/var/ECE_2012/ap/./commands.o
 .debug_abbrev  0x00000fb4      0x3a0 /home/woz/lisa-m-team4938/paparazzi/var/ECE_2012/ap/firmwares/fixedwing/main_ap.o
 .debug_abbrev  0x00001354      0x1a4 /home/woz/lisa-m-team4938/paparazzi/var/ECE_2012/ap/./estimator.o
 .debug_abbrev  0x000014f8       0x2b /home/woz/lisa-m-team4938/paparazzi/var/ECE_2012/ap/arch/stm32/stm32_exceptions.o
 .debug_abbrev  0x00001523      0x12b /home/woz/lisa-m-team4938/paparazzi/var/ECE_2012/ap/arch/stm32/stm32_vector_table.o
 .debug_abbrev  0x0000164e       0xd1 /home/woz/lisa-m-team4938/paparazzi/var/ECE_2012/ap/lisa/plug_sys.o
 .debug_abbrev  0x0000171f       0xbe /home/woz/lisa-m-team4938/paparazzi/var/ECE_2012/ap/firmwares/fixedwing/main.o
 .debug_abbrev  0x000017dd      0x16f /home/woz/lisa-m-team4938/paparazzi/var/ECE_2012/ap/arch/stm32/sys_time_hw.o
 .debug_abbrev  0x0000194c       0xff /home/woz/lisa-m-team4938/paparazzi/var/ECE_2012/ap/mcu_periph/uart.o
 .debug_abbrev  0x00001a4b      0x186 /home/woz/lisa-m-team4938/paparazzi/var/ECE_2012/ap/arch/stm32/mcu_periph/uart_arch.o
 .debug_abbrev  0x00001bd1       0xdd /home/woz/lisa-m-team4938/paparazzi/var/ECE_2012/ap/subsystems/settings.o
 .debug_abbrev  0x00001cae      0x1a7 /home/woz/lisa-m-team4938/paparazzi/var/ECE_2012/ap/arch/stm32/subsystems/settings_arch.o
 .debug_abbrev  0x00001e55      0x247 /home/woz/lisa-m-team4938/paparazzi/var/ECE_2012/ap/arch/stm32/mcu_periph/adc_arch.o
 .debug_abbrev  0x0000209c       0x7a /home/woz/lisa-m-team4938/paparazzi/var/ECE_2012/ap/arch/stm32/servos_direct_hw.o
 .debug_abbrev  0x00002116       0x63 /home/woz/lisa-m-team4938/paparazzi/var/ECE_2012/ap/actuators.o
 .debug_abbrev  0x00002179      0x104 /home/woz/lisa-m-team4938/paparazzi/var/ECE_2012/ap/firmwares/rotorcraft/actuators/arch/stm32/actuators_pwm_arch.o
 .debug_abbrev  0x0000227d       0x81 /home/woz/lisa-m-team4938/paparazzi/var/ECE_2012/ap/subsystems/radio_control.o
 .debug_abbrev  0x000022fe       0xb0 /home/woz/lisa-m-team4938/paparazzi/var/ECE_2012/ap/subsystems/radio_control/ppm.o
 .debug_abbrev  0x000023ae      0x155 /home/woz/lisa-m-team4938/paparazzi/var/ECE_2012/ap/arch/stm32/subsystems/radio_control/ppm_arch.o
 .debug_abbrev  0x00002503       0x51 /home/woz/lisa-m-team4938/paparazzi/var/ECE_2012/ap/downlink.o
 .debug_abbrev  0x00002554       0x7b /home/woz/lisa-m-team4938/paparazzi/var/ECE_2012/ap/pprz_transport.o
 .debug_abbrev  0x000025cf      0x207 /home/woz/lisa-m-team4938/paparazzi/var/ECE_2012/ap/firmwares/fixedwing/datalink.o
 .debug_abbrev  0x000027d6      0x1d6 /home/woz/lisa-m-team4938/paparazzi/var/ECE_2012/ap/firmwares/fixedwing/stabilization/stabilization_attitude.o
 .debug_abbrev  0x000029ac      0x199 /home/woz/lisa-m-team4938/paparazzi/var/ECE_2012/ap/firmwares/fixedwing/guidance/guidance_v.o
 .debug_abbrev  0x00002b45      0x1b6 /home/woz/lisa-m-team4938/paparazzi/var/ECE_2012/ap/subsystems/imu.o
 .debug_abbrev  0x00002cfb      0x20b /home/woz/lisa-m-team4938/paparazzi/var/ECE_2012/ap/subsystems/imu/imu_aspirin.o
 .debug_abbrev  0x00002f06      0x1f1 /home/woz/lisa-m-team4938/paparazzi/var/ECE_2012/ap/arch/stm32/subsystems/imu/imu_aspirin_arch.o
 .debug_abbrev  0x000030f7      0x19e /home/woz/lisa-m-team4938/paparazzi/var/ECE_2012/ap/peripherals/hmc5843.o
 .debug_abbrev  0x00003295       0xfd /home/woz/lisa-m-team4938/paparazzi/var/ECE_2012/ap/arch/stm32/peripherals/hmc5843_arch.o
 .debug_abbrev  0x00003392       0x90 /home/woz/lisa-m-team4938/paparazzi/var/ECE_2012/ap/subsystems/ahrs.o
 .debug_abbrev  0x00003422      0x196 /home/woz/lisa-m-team4938/paparazzi/var/ECE_2012/ap/subsystems/ahrs/ahrs_aligner.o
 .debug_abbrev  0x000035b8      0x2fb /home/woz/lisa-m-team4938/paparazzi/var/ECE_2012/ap/subsystems/ahrs/ahrs_float_dcm.o
 .debug_abbrev  0x000038b3      0x1d8 /home/woz/lisa-m-team4938/paparazzi/var/ECE_2012/ap/subsystems/gps/gps_ubx.o
 .debug_abbrev  0x00003a8b       0xa7 /home/woz/lisa-m-team4938/paparazzi/var/ECE_2012/ap/subsystems/gps.o
 .debug_abbrev  0x00003b32      0x387 /home/woz/lisa-m-team4938/paparazzi/var/ECE_2012/ap/subsystems/nav.o
 .debug_abbrev  0x00003eb9       0x8e /home/woz/lisa-m-team4938/paparazzi/var/ECE_2012/ap/subsystems/navigation/common_flight_plan.o
 .debug_abbrev  0x00003f47       0xd8 /home/woz/lisa-m-team4938/paparazzi/var/ECE_2012/ap/subsystems/navigation/traffic_info.o
 .debug_abbrev  0x0000401f      0x10b /home/woz/lisa-m-team4938/paparazzi/var/ECE_2012/ap/subsystems/navigation/nav_survey_rectangle.o
 .debug_abbrev  0x0000412a      0x140 /home/woz/lisa-m-team4938/paparazzi/var/ECE_2012/ap/subsystems/navigation/nav_line.o
 .debug_abbrev  0x0000426a       0x97 /opt/paparazzi/arm-multilib/lib/gcc/arm-none-eabi/4.4.5/../../../../arm-none-eabi/lib/thumb2/libc.a(lib_a-memcpy.o)
 .debug_abbrev  0x00004301      0x12e /opt/paparazzi/arm-multilib/lib/gcc/arm-none-eabi/4.4.5/../../../../arm-none-eabi/lib/thumb2/libm.a(lib_a-s_atan.o)
 .debug_abbrev  0x0000442f       0xfe /opt/paparazzi/arm-multilib/lib/gcc/arm-none-eabi/4.4.5/../../../../arm-none-eabi/lib/thumb2/libm.a(lib_a-s_cos.o)
 .debug_abbrev  0x0000452d       0xce /opt/paparazzi/arm-multilib/lib/gcc/arm-none-eabi/4.4.5/../../../../arm-none-eabi/lib/thumb2/libm.a(lib_a-s_fabs.o)
 .debug_abbrev  0x000045fb      0x115 /opt/paparazzi/arm-multilib/lib/gcc/arm-none-eabi/4.4.5/../../../../arm-none-eabi/lib/thumb2/libm.a(lib_a-s_rint.o)
 .debug_abbrev  0x00004710       0xfe /opt/paparazzi/arm-multilib/lib/gcc/arm-none-eabi/4.4.5/../../../../arm-none-eabi/lib/thumb2/libm.a(lib_a-s_sin.o)
 .debug_abbrev  0x0000480e       0xfe /opt/paparazzi/arm-multilib/lib/gcc/arm-none-eabi/4.4.5/../../../../arm-none-eabi/lib/thumb2/libm.a(lib_a-s_tan.o)
 .debug_abbrev  0x0000490c      0x116 /opt/paparazzi/arm-multilib/lib/gcc/arm-none-eabi/4.4.5/../../../../arm-none-eabi/lib/thumb2/libm.a(lib_a-sf_atan.o)
 .debug_abbrev  0x00004a22       0xbb /opt/paparazzi/arm-multilib/lib/gcc/arm-none-eabi/4.4.5/../../../../arm-none-eabi/lib/thumb2/libm.a(lib_a-sf_cos.o)
 .debug_abbrev  0x00004add       0x73 /opt/paparazzi/arm-multilib/lib/gcc/arm-none-eabi/4.4.5/../../../../arm-none-eabi/lib/thumb2/libm.a(lib_a-sf_fabs.o)
 .debug_abbrev  0x00004b50       0xa3 /opt/paparazzi/arm-multilib/lib/gcc/arm-none-eabi/4.4.5/../../../../arm-none-eabi/lib/thumb2/libm.a(lib_a-sf_sin.o)
 .debug_abbrev  0x00004bf3       0xd8 /opt/paparazzi/arm-multilib/lib/gcc/arm-none-eabi/4.4.5/../../../../arm-none-eabi/lib/thumb2/libm.a(lib_a-w_asin.o)
 .debug_abbrev  0x00004ccb       0x59 /opt/paparazzi/arm-multilib/lib/gcc/arm-none-eabi/4.4.5/../../../../arm-none-eabi/lib/thumb2/libm.a(lib_a-w_atan2.o)
 .debug_abbrev  0x00004d24       0xd8 /opt/paparazzi/arm-multilib/lib/gcc/arm-none-eabi/4.4.5/../../../../arm-none-eabi/lib/thumb2/libm.a(lib_a-w_cosh.o)
 .debug_abbrev  0x00004dfc       0xee /opt/paparazzi/arm-multilib/lib/gcc/arm-none-eabi/4.4.5/../../../../arm-none-eabi/lib/thumb2/libm.a(lib_a-w_exp.o)
 .debug_abbrev  0x00004eea       0xd8 /opt/paparazzi/arm-multilib/lib/gcc/arm-none-eabi/4.4.5/../../../../arm-none-eabi/lib/thumb2/libm.a(lib_a-w_log.o)
 .debug_abbrev  0x00004fc2       0xd8 /opt/paparazzi/arm-multilib/lib/gcc/arm-none-eabi/4.4.5/../../../../arm-none-eabi/lib/thumb2/libm.a(lib_a-w_pow.o)
 .debug_abbrev  0x0000509a       0xd8 /opt/paparazzi/arm-multilib/lib/gcc/arm-none-eabi/4.4.5/../../../../arm-none-eabi/lib/thumb2/libm.a(lib_a-w_sinh.o)
 .debug_abbrev  0x00005172       0xd8 /opt/paparazzi/arm-multilib/lib/gcc/arm-none-eabi/4.4.5/../../../../arm-none-eabi/lib/thumb2/libm.a(lib_a-w_sqrt.o)
 .debug_abbrev  0x0000524a       0xc9 /opt/paparazzi/arm-multilib/lib/gcc/arm-none-eabi/4.4.5/../../../../arm-none-eabi/lib/thumb2/libm.a(lib_a-wf_asin.o)
 .debug_abbrev  0x00005313       0x59 /opt/paparazzi/arm-multilib/lib/gcc/arm-none-eabi/4.4.5/../../../../arm-none-eabi/lib/thumb2/libm.a(lib_a-wf_atan2.o)
 .debug_abbrev  0x0000536c       0xc9 /opt/paparazzi/arm-multilib/lib/gcc/arm-none-eabi/4.4.5/../../../../arm-none-eabi/lib/thumb2/libm.a(lib_a-wf_pow.o)
 .debug_abbrev  0x00005435       0xc9 /opt/paparazzi/arm-multilib/lib/gcc/arm-none-eabi/4.4.5/../../../../arm-none-eabi/lib/thumb2/libm.a(lib_a-wf_sqrt.o)
 .debug_abbrev  0x000054fe      0x129 /opt/paparazzi/arm-multilib/lib/gcc/arm-none-eabi/4.4.5/../../../../arm-none-eabi/lib/thumb2/libm.a(lib_a-e_asin.o)
 .debug_abbrev  0x00005627      0x136 /opt/paparazzi/arm-multilib/lib/gcc/arm-none-eabi/4.4.5/../../../../arm-none-eabi/lib/thumb2/libm.a(lib_a-e_atan2.o)
 .debug_abbrev  0x0000575d       0x9c /opt/paparazzi/arm-multilib/lib/gcc/arm-none-eabi/4.4.5/../../../../arm-none-eabi/lib/thumb2/libm.a(lib_a-e_cosh.o)
 .debug_abbrev  0x000057f9      0x146 /opt/paparazzi/arm-multilib/lib/gcc/arm-none-eabi/4.4.5/../../../../arm-none-eabi/lib/thumb2/libm.a(lib_a-e_exp.o)
 .debug_abbrev  0x0000593f      0x11a /opt/paparazzi/arm-multilib/lib/gcc/arm-none-eabi/4.4.5/../../../../arm-none-eabi/lib/thumb2/libm.a(lib_a-e_log.o)
 .debug_abbrev  0x00005a59      0x16d /opt/paparazzi/arm-multilib/lib/gcc/arm-none-eabi/4.4.5/../../../../arm-none-eabi/lib/thumb2/libm.a(lib_a-e_pow.o)
 .debug_abbrev  0x00005bc6      0x135 /opt/paparazzi/arm-multilib/lib/gcc/arm-none-eabi/4.4.5/../../../../arm-none-eabi/lib/thumb2/libm.a(lib_a-e_rem_pio2.o)
 .debug_abbrev  0x00005cfb       0xab /opt/paparazzi/arm-multilib/lib/gcc/arm-none-eabi/4.4.5/../../../../arm-none-eabi/lib/thumb2/libm.a(lib_a-e_sinh.o)
 .debug_abbrev  0x00005da6      0x138 /opt/paparazzi/arm-multilib/lib/gcc/arm-none-eabi/4.4.5/../../../../arm-none-eabi/lib/thumb2/libm.a(lib_a-e_sqrt.o)
 .debug_abbrev  0x00005ede       0xef /opt/paparazzi/arm-multilib/lib/gcc/arm-none-eabi/4.4.5/../../../../arm-none-eabi/lib/thumb2/libm.a(lib_a-ef_asin.o)
 .debug_abbrev  0x00005fcd       0xb8 /opt/paparazzi/arm-multilib/lib/gcc/arm-none-eabi/4.4.5/../../../../arm-none-eabi/lib/thumb2/libm.a(lib_a-ef_atan2.o)
 .debug_abbrev  0x00006085      0x12e /opt/paparazzi/arm-multilib/lib/gcc/arm-none-eabi/4.4.5/../../../../arm-none-eabi/lib/thumb2/libm.a(lib_a-ef_pow.o)
 .debug_abbrev  0x000061b3      0x11b /opt/paparazzi/arm-multilib/lib/gcc/arm-none-eabi/4.4.5/../../../../arm-none-eabi/lib/thumb2/libm.a(lib_a-ef_rem_pio2.o)
 .debug_abbrev  0x000062ce       0xb8 /opt/paparazzi/arm-multilib/lib/gcc/arm-none-eabi/4.4.5/../../../../arm-none-eabi/lib/thumb2/libm.a(lib_a-ef_sqrt.o)
 .debug_abbrev  0x00006386      0x104 /opt/paparazzi/arm-multilib/lib/gcc/arm-none-eabi/4.4.5/../../../../arm-none-eabi/lib/thumb2/libm.a(lib_a-k_cos.o)
 .debug_abbrev  0x0000648a      0x10b /opt/paparazzi/arm-multilib/lib/gcc/arm-none-eabi/4.4.5/../../../../arm-none-eabi/lib/thumb2/libm.a(lib_a-k_rem_pio2.o)
 .debug_abbrev  0x00006595       0x9a /opt/paparazzi/arm-multilib/lib/gcc/arm-none-eabi/4.4.5/../../../../arm-none-eabi/lib/thumb2/libm.a(lib_a-k_sin.o)
 .debug_abbrev  0x0000662f      0x14d /opt/paparazzi/arm-multilib/lib/gcc/arm-none-eabi/4.4.5/../../../../arm-none-eabi/lib/thumb2/libm.a(lib_a-k_tan.o)
 .debug_abbrev  0x0000677c       0xa9 /opt/paparazzi/arm-multilib/lib/gcc/arm-none-eabi/4.4.5/../../../../arm-none-eabi/lib/thumb2/libm.a(lib_a-kf_cos.o)
 .debug_abbrev  0x00006825      0x10b /opt/paparazzi/arm-multilib/lib/gcc/arm-none-eabi/4.4.5/../../../../arm-none-eabi/lib/thumb2/libm.a(lib_a-kf_rem_pio2.o)
 .debug_abbrev  0x00006930       0xa9 /opt/paparazzi/arm-multilib/lib/gcc/arm-none-eabi/4.4.5/../../../../arm-none-eabi/lib/thumb2/libm.a(lib_a-kf_sin.o)
 .debug_abbrev  0x000069d9      0x15d /opt/paparazzi/arm-multilib/lib/gcc/arm-none-eabi/4.4.5/../../../../arm-none-eabi/lib/thumb2/libm.a(lib_a-s_expm1.o)
 .debug_abbrev  0x00006b36       0xcc /opt/paparazzi/arm-multilib/lib/gcc/arm-none-eabi/4.4.5/../../../../arm-none-eabi/lib/thumb2/libm.a(lib_a-s_finite.o)
 .debug_abbrev  0x00006c02      0x10f /opt/paparazzi/arm-multilib/lib/gcc/arm-none-eabi/4.4.5/../../../../arm-none-eabi/lib/thumb2/libm.a(lib_a-s_floor.o)
 .debug_abbrev  0x00006d11       0xd0 /opt/paparazzi/arm-multilib/lib/gcc/arm-none-eabi/4.4.5/../../../../arm-none-eabi/lib/thumb2/libm.a(lib_a-s_fpclassify.o)
 .debug_abbrev  0x00006de1       0x5c /opt/paparazzi/arm-multilib/lib/gcc/arm-none-eabi/4.4.5/../../../../arm-none-eabi/lib/thumb2/libm.a(lib_a-s_lib_ver.o)
 .debug_abbrev  0x00006e3d       0x9e /opt/paparazzi/arm-multilib/lib/gcc/arm-none-eabi/4.4.5/../../../../arm-none-eabi/lib/thumb2/libm.a(lib_a-s_matherr.o)
 .debug_abbrev  0x00006edb       0xdc /opt/paparazzi/arm-multilib/lib/gcc/arm-none-eabi/4.4.5/../../../../arm-none-eabi/lib/thumb2/libm.a(lib_a-s_nan.o)
 .debug_abbrev  0x00006fb7      0x116 /opt/paparazzi/arm-multilib/lib/gcc/arm-none-eabi/4.4.5/../../../../arm-none-eabi/lib/thumb2/libm.a(lib_a-s_scalbn.o)
 .debug_abbrev  0x000070cd       0xb0 /opt/paparazzi/arm-multilib/lib/gcc/arm-none-eabi/4.4.5/../../../../arm-none-eabi/lib/thumb2/libm.a(lib_a-sf_finite.o)
 .debug_abbrev  0x0000717d       0x8d /opt/paparazzi/arm-multilib/lib/gcc/arm-none-eabi/4.4.5/../../../../arm-none-eabi/lib/thumb2/libm.a(lib_a-sf_floor.o)
 .debug_abbrev  0x0000720a       0x73 /opt/paparazzi/arm-multilib/lib/gcc/arm-none-eabi/4.4.5/../../../../arm-none-eabi/lib/thumb2/libm.a(lib_a-sf_fpclassify.o)
 .debug_abbrev  0x0000727d       0x76 /opt/paparazzi/arm-multilib/lib/gcc/arm-none-eabi/4.4.5/../../../../arm-none-eabi/lib/thumb2/libm.a(lib_a-sf_nan.o)
 .debug_abbrev  0x000072f3       0xca /opt/paparazzi/arm-multilib/lib/gcc/arm-none-eabi/4.4.5/../../../../arm-none-eabi/lib/thumb2/libm.a(lib_a-sf_scalbn.o)
 .debug_abbrev  0x000073bd       0xd7 /opt/paparazzi/arm-multilib/lib/gcc/arm-none-eabi/4.4.5/../../../../arm-none-eabi/lib/thumb2/libm.a(lib_a-s_copysign.o)
 .debug_abbrev  0x00007494       0x73 /opt/paparazzi/arm-multilib/lib/gcc/arm-none-eabi/4.4.5/../../../../arm-none-eabi/lib/thumb2/libm.a(lib_a-sf_copysign.o)
 .debug_abbrev  0x00007507       0x14 /opt/paparazzi/arm-multilib/lib/gcc/arm-none-eabi/4.4.5/thumb2/libgcc.a(_divsi3.o)
 .debug_abbrev  0x0000751b       0x14 /opt/paparazzi/arm-multilib/lib/gcc/arm-none-eabi/4.4.5/thumb2/libgcc.a(_dvmd_tls.o)
 .debug_abbrev  0x0000752f       0x14 /opt/paparazzi/arm-multilib/lib/gcc/arm-none-eabi/4.4.5/thumb2/libgcc.a(_arm_addsubdf3.o)
 .debug_abbrev  0x00007543       0x14 /opt/paparazzi/arm-multilib/lib/gcc/arm-none-eabi/4.4.5/thumb2/libgcc.a(_arm_muldivdf3.o)
 .debug_abbrev  0x00007557       0x14 /opt/paparazzi/arm-multilib/lib/gcc/arm-none-eabi/4.4.5/thumb2/libgcc.a(_arm_cmpdf2.o)
 .debug_abbrev  0x0000756b       0x14 /opt/paparazzi/arm-multilib/lib/gcc/arm-none-eabi/4.4.5/thumb2/libgcc.a(_arm_fixdfsi.o)
 .debug_abbrev  0x0000757f       0x14 /opt/paparazzi/arm-multilib/lib/gcc/arm-none-eabi/4.4.5/thumb2/libgcc.a(_arm_fixunsdfsi.o)
 .debug_abbrev  0x00007593       0x14 /opt/paparazzi/arm-multilib/lib/gcc/arm-none-eabi/4.4.5/thumb2/libgcc.a(_arm_truncdfsf2.o)
 .debug_abbrev  0x000075a7       0x14 /opt/paparazzi/arm-multilib/lib/gcc/arm-none-eabi/4.4.5/thumb2/libgcc.a(_arm_addsubsf3.o)
 .debug_abbrev  0x000075bb       0x14 /opt/paparazzi/arm-multilib/lib/gcc/arm-none-eabi/4.4.5/thumb2/libgcc.a(_arm_muldivsf3.o)
 .debug_abbrev  0x000075cf       0x14 /opt/paparazzi/arm-multilib/lib/gcc/arm-none-eabi/4.4.5/thumb2/libgcc.a(_arm_cmpsf2.o)
 .debug_abbrev  0x000075e3       0x14 /opt/paparazzi/arm-multilib/lib/gcc/arm-none-eabi/4.4.5/thumb2/libgcc.a(_arm_fixsfsi.o)
 .debug_abbrev  0x000075f7       0x14 /opt/paparazzi/arm-multilib/lib/gcc/arm-none-eabi/4.4.5/thumb2/libgcc.a(_arm_fixunssfsi.o)
 .debug_abbrev  0x0000760b      0x1d2 /opt/paparazzi/arm-multilib/lib/gcc/arm-none-eabi/4.4.5/../../../../arm-none-eabi/lib/libstm32.a(stm32_adc.o)
 .debug_abbrev  0x000077dd      0x21f /opt/paparazzi/arm-multilib/lib/gcc/arm-none-eabi/4.4.5/../../../../arm-none-eabi/lib/libstm32.a(stm32_tim.o)
 .debug_abbrev  0x000079fc      0x190 /opt/paparazzi/arm-multilib/lib/gcc/arm-none-eabi/4.4.5/../../../../arm-none-eabi/lib/libstm32.a(stm32_dma.o)
 .debug_abbrev  0x00007b8c      0x222 /opt/paparazzi/arm-multilib/lib/gcc/arm-none-eabi/4.4.5/../../../../arm-none-eabi/lib/libstm32.a(stm32_gpio.o)
 .debug_abbrev  0x00007dae      0x1ca /opt/paparazzi/arm-multilib/lib/gcc/arm-none-eabi/4.4.5/../../../../arm-none-eabi/lib/libstm32.a(stm32_usart.o)
 .debug_abbrev  0x00007f78      0x163 /opt/paparazzi/arm-multilib/lib/gcc/arm-none-eabi/4.4.5/../../../../arm-none-eabi/lib/libstm32.a(stm32_exti.o)
 .debug_abbrev  0x000080db      0x1b0 /opt/paparazzi/arm-multilib/lib/gcc/arm-none-eabi/4.4.5/../../../../arm-none-eabi/lib/libstm32.a(stm32_i2c.o)
 .debug_abbrev  0x0000828b      0x1bd /opt/paparazzi/arm-multilib/lib/gcc/arm-none-eabi/4.4.5/../../../../arm-none-eabi/lib/libstm32.a(stm32_spi.o)
 .debug_abbrev  0x00008448      0x21b /opt/paparazzi/arm-multilib/lib/gcc/arm-none-eabi/4.4.5/../../../../arm-none-eabi/lib/libstm32.a(stm32_rcc.o)
 .debug_abbrev  0x00008663      0x128 /opt/paparazzi/arm-multilib/lib/gcc/arm-none-eabi/4.4.5/../../../../arm-none-eabi/lib/libstm32.a(stm32_misc.o)
 .debug_abbrev  0x0000878b      0x205 /opt/paparazzi/arm-multilib/lib/gcc/arm-none-eabi/4.4.5/../../../../arm-none-eabi/lib/libopencm3_stm32.a(rcc.o)
 .debug_abbrev  0x00008990       0xe4 /opt/paparazzi/arm-multilib/lib/gcc/arm-none-eabi/4.4.5/../../../../arm-none-eabi/lib/libopencm3_stm32.a(usart.o)
 .debug_abbrev  0x00008a74       0xe0 /opt/paparazzi/arm-multilib/lib/gcc/arm-none-eabi/4.4.5/../../../../arm-none-eabi/lib/libopencm3_stm32.a(flash.o)
 .debug_abbrev  0x00008b54      0x168 /opt/paparazzi/arm-multilib/lib/gcc/arm-none-eabi/4.4.5/../../../../arm-none-eabi/lib/thumb2/libc.a(lib_a-errno.o)
 .debug_abbrev  0x00008cbc      0x160 /opt/paparazzi/arm-multilib/lib/gcc/arm-none-eabi/4.4.5/../../../../arm-none-eabi/lib/thumb2/libc.a(lib_a-impure.o)

.debug_line     0x00000000    0x1016b
 *(.debug_line)
 .debug_line    0x00000000      0x19b /home/woz/lisa-m-team4938/paparazzi/var/ECE_2012/ap/mcu.o
 .debug_line    0x0000019b       0xb8 /home/woz/lisa-m-team4938/paparazzi/var/ECE_2012/ap/arch/stm32/mcu_arch.o
 .debug_line    0x00000253       0x1d /home/woz/lisa-m-team4938/paparazzi/var/ECE_2012/ap/arch/stm32/led_hw.o
 .debug_line    0x00000270      0x115 /home/woz/lisa-m-team4938/paparazzi/var/ECE_2012/ap/sys_time.o
 .debug_line    0x00000385      0x138 /home/woz/lisa-m-team4938/paparazzi/var/ECE_2012/ap/./inter_mcu.o
 .debug_line    0x000004bd      0x2a1 /home/woz/lisa-m-team4938/paparazzi/var/ECE_2012/ap/math/pprz_geodetic_int.o
 .debug_line    0x0000075e      0x366 /home/woz/lisa-m-team4938/paparazzi/var/ECE_2012/ap/math/pprz_geodetic_float.o
 .debug_line    0x00000ac4      0x2a1 /home/woz/lisa-m-team4938/paparazzi/var/ECE_2012/ap/math/pprz_geodetic_double.o
 .debug_line    0x00000d65       0x9b /home/woz/lisa-m-team4938/paparazzi/var/ECE_2012/ap/math/pprz_trig_int.o
 .debug_line    0x00000e00      0x126 /home/woz/lisa-m-team4938/paparazzi/var/ECE_2012/ap/mcu_periph/i2c.o
 .debug_line    0x00000f26      0x440 /home/woz/lisa-m-team4938/paparazzi/var/ECE_2012/ap/arch/stm32/mcu_periph/i2c_arch.o
 .debug_line    0x00001366      0x399 /home/woz/lisa-m-team4938/paparazzi/var/ECE_2012/ap/firmwares/fixedwing/main_fbw.o
 .debug_line    0x000016ff      0x125 /home/woz/lisa-m-team4938/paparazzi/var/ECE_2012/ap/subsystems/electrical.o
 .debug_line    0x00001824       0xa0 /home/woz/lisa-m-team4938/paparazzi/var/ECE_2012/ap/./commands.o
 .debug_line    0x000018c4      0x745 /home/woz/lisa-m-team4938/paparazzi/var/ECE_2012/ap/firmwares/fixedwing/main_ap.o
 .debug_line    0x00002009      0x2d4 /home/woz/lisa-m-team4938/paparazzi/var/ECE_2012/ap/./estimator.o
 .debug_line    0x000022dd       0x8a /home/woz/lisa-m-team4938/paparazzi/var/ECE_2012/ap/arch/stm32/stm32_exceptions.o
 .debug_line    0x00002367      0x1fb /home/woz/lisa-m-team4938/paparazzi/var/ECE_2012/ap/arch/stm32/stm32_vector_table.o
 .debug_line    0x00002562      0x17c /home/woz/lisa-m-team4938/paparazzi/var/ECE_2012/ap/lisa/plug_sys.o
 .debug_line    0x000026de      0x1c9 /home/woz/lisa-m-team4938/paparazzi/var/ECE_2012/ap/firmwares/fixedwing/main.o
 .debug_line    0x000028a7      0x1b6 /home/woz/lisa-m-team4938/paparazzi/var/ECE_2012/ap/arch/stm32/sys_time_hw.o
 .debug_line    0x00002a5d      0x10f /home/woz/lisa-m-team4938/paparazzi/var/ECE_2012/ap/mcu_periph/uart.o
 .debug_line    0x00002b6c      0x291 /home/woz/lisa-m-team4938/paparazzi/var/ECE_2012/ap/arch/stm32/mcu_periph/uart_arch.o
 .debug_line    0x00002dfd      0x262 /home/woz/lisa-m-team4938/paparazzi/var/ECE_2012/ap/subsystems/settings.o
 .debug_line    0x0000305f      0x29b /home/woz/lisa-m-team4938/paparazzi/var/ECE_2012/ap/arch/stm32/subsystems/settings_arch.o
 .debug_line    0x000032fa      0x2bf /home/woz/lisa-m-team4938/paparazzi/var/ECE_2012/ap/arch/stm32/mcu_periph/adc_arch.o
 .debug_line    0x000035b9       0xb3 /home/woz/lisa-m-team4938/paparazzi/var/ECE_2012/ap/arch/stm32/servos_direct_hw.o
 .debug_line    0x0000366c       0x92 /home/woz/lisa-m-team4938/paparazzi/var/ECE_2012/ap/actuators.o
 .debug_line    0x000036fe      0x249 /home/woz/lisa-m-team4938/paparazzi/var/ECE_2012/ap/firmwares/rotorcraft/actuators/arch/stm32/actuators_pwm_arch.o
 .debug_line    0x00003947       0xd2 /home/woz/lisa-m-team4938/paparazzi/var/ECE_2012/ap/subsystems/radio_control.o
 .debug_line    0x00003a19      0x120 /home/woz/lisa-m-team4938/paparazzi/var/ECE_2012/ap/subsystems/radio_control/ppm.o
 .debug_line    0x00003b39      0x2ea /home/woz/lisa-m-team4938/paparazzi/var/ECE_2012/ap/arch/stm32/subsystems/radio_control/ppm_arch.o
 .debug_line    0x00003e23       0x91 /home/woz/lisa-m-team4938/paparazzi/var/ECE_2012/ap/downlink.o
 .debug_line    0x00003eb4       0xdd /home/woz/lisa-m-team4938/paparazzi/var/ECE_2012/ap/pprz_transport.o
 .debug_line    0x00003f91      0x41d /home/woz/lisa-m-team4938/paparazzi/var/ECE_2012/ap/firmwares/fixedwing/datalink.o
 .debug_line    0x000043ae      0x2b3 /home/woz/lisa-m-team4938/paparazzi/var/ECE_2012/ap/firmwares/fixedwing/stabilization/stabilization_attitude.o
 .debug_line    0x00004661      0x27e /home/woz/lisa-m-team4938/paparazzi/var/ECE_2012/ap/firmwares/fixedwing/guidance/guidance_v.o
 .debug_line    0x000048df      0x1e4 /home/woz/lisa-m-team4938/paparazzi/var/ECE_2012/ap/subsystems/imu.o
 .debug_line    0x00004ac3      0x270 /home/woz/lisa-m-team4938/paparazzi/var/ECE_2012/ap/subsystems/imu/imu_aspirin.o
 .debug_line    0x00004d33      0x3c1 /home/woz/lisa-m-team4938/paparazzi/var/ECE_2012/ap/arch/stm32/subsystems/imu/imu_aspirin_arch.o
 .debug_line    0x000050f4      0x27c /home/woz/lisa-m-team4938/paparazzi/var/ECE_2012/ap/peripherals/hmc5843.o
 .debug_line    0x00005370      0x1c0 /home/woz/lisa-m-team4938/paparazzi/var/ECE_2012/ap/arch/stm32/peripherals/hmc5843_arch.o
 .debug_line    0x00005530       0xe4 /home/woz/lisa-m-team4938/paparazzi/var/ECE_2012/ap/subsystems/ahrs.o
 .debug_line    0x00005614      0x1fe /home/woz/lisa-m-team4938/paparazzi/var/ECE_2012/ap/subsystems/ahrs/ahrs_aligner.o
 .debug_line    0x00005812      0x52a /home/woz/lisa-m-team4938/paparazzi/var/ECE_2012/ap/subsystems/ahrs/ahrs_float_dcm.o
 .debug_line    0x00005d3c      0x25f /home/woz/lisa-m-team4938/paparazzi/var/ECE_2012/ap/subsystems/gps/gps_ubx.o
 .debug_line    0x00005f9b       0xdd /home/woz/lisa-m-team4938/paparazzi/var/ECE_2012/ap/subsystems/gps.o
 .debug_line    0x00006078      0x734 /home/woz/lisa-m-team4938/paparazzi/var/ECE_2012/ap/subsystems/nav.o
 .debug_line    0x000067ac       0xdb /home/woz/lisa-m-team4938/paparazzi/var/ECE_2012/ap/subsystems/navigation/common_flight_plan.o
 .debug_line    0x00006887       0xfc /home/woz/lisa-m-team4938/paparazzi/var/ECE_2012/ap/subsystems/navigation/traffic_info.o
 .debug_line    0x00006983      0x255 /home/woz/lisa-m-team4938/paparazzi/var/ECE_2012/ap/subsystems/navigation/nav_survey_rectangle.o
 .debug_line    0x00006bd8      0x1dc /home/woz/lisa-m-team4938/paparazzi/var/ECE_2012/ap/subsystems/navigation/nav_line.o
 .debug_line    0x00006db4      0x13b /opt/paparazzi/arm-multilib/lib/gcc/arm-none-eabi/4.4.5/../../../../arm-none-eabi/lib/thumb2/libc.a(lib_a-memcpy.o)
 .debug_line    0x00006eef      0x1e9 /opt/paparazzi/arm-multilib/lib/gcc/arm-none-eabi/4.4.5/../../../../arm-none-eabi/lib/thumb2/libm.a(lib_a-s_atan.o)
 .debug_line    0x000070d8      0x1c8 /opt/paparazzi/arm-multilib/lib/gcc/arm-none-eabi/4.4.5/../../../../arm-none-eabi/lib/thumb2/libm.a(lib_a-s_cos.o)
 .debug_line    0x000072a0      0x1b5 /opt/paparazzi/arm-multilib/lib/gcc/arm-none-eabi/4.4.5/../../../../arm-none-eabi/lib/thumb2/libm.a(lib_a-s_fabs.o)
 .debug_line    0x00007455      0x19f /opt/paparazzi/arm-multilib/lib/gcc/arm-none-eabi/4.4.5/../../../../arm-none-eabi/lib/thumb2/libm.a(lib_a-s_rint.o)
 .debug_line    0x000075f4      0x1c9 /opt/paparazzi/arm-multilib/lib/gcc/arm-none-eabi/4.4.5/../../../../arm-none-eabi/lib/thumb2/libm.a(lib_a-s_sin.o)
 .debug_line    0x000077bd      0x1c5 /opt/paparazzi/arm-multilib/lib/gcc/arm-none-eabi/4.4.5/../../../../arm-none-eabi/lib/thumb2/libm.a(lib_a-s_tan.o)
 .debug_line    0x00007982      0x1e2 /opt/paparazzi/arm-multilib/lib/gcc/arm-none-eabi/4.4.5/../../../../arm-none-eabi/lib/thumb2/libm.a(lib_a-sf_atan.o)
 .debug_line    0x00007b64      0x167 /opt/paparazzi/arm-multilib/lib/gcc/arm-none-eabi/4.4.5/../../../../arm-none-eabi/lib/thumb2/libm.a(lib_a-sf_cos.o)
 .debug_line    0x00007ccb      0x15c /opt/paparazzi/arm-multilib/lib/gcc/arm-none-eabi/4.4.5/../../../../arm-none-eabi/lib/thumb2/libm.a(lib_a-sf_fabs.o)
 .debug_line    0x00007e27      0x167 /opt/paparazzi/arm-multilib/lib/gcc/arm-none-eabi/4.4.5/../../../../arm-none-eabi/lib/thumb2/libm.a(lib_a-sf_sin.o)
 .debug_line    0x00007f8e       0xfa /opt/paparazzi/arm-multilib/lib/gcc/arm-none-eabi/4.4.5/../../../../arm-none-eabi/lib/thumb2/libm.a(lib_a-w_asin.o)
 .debug_line    0x00008088       0xe5 /opt/paparazzi/arm-multilib/lib/gcc/arm-none-eabi/4.4.5/../../../../arm-none-eabi/lib/thumb2/libm.a(lib_a-w_atan2.o)
 .debug_line    0x0000816d       0xf9 /opt/paparazzi/arm-multilib/lib/gcc/arm-none-eabi/4.4.5/../../../../arm-none-eabi/lib/thumb2/libm.a(lib_a-w_cosh.o)
 .debug_line    0x00008266      0x101 /opt/paparazzi/arm-multilib/lib/gcc/arm-none-eabi/4.4.5/../../../../arm-none-eabi/lib/thumb2/libm.a(lib_a-w_exp.o)
 .debug_line    0x00008367      0x100 /opt/paparazzi/arm-multilib/lib/gcc/arm-none-eabi/4.4.5/../../../../arm-none-eabi/lib/thumb2/libm.a(lib_a-w_log.o)
 .debug_line    0x00008467      0x148 /opt/paparazzi/arm-multilib/lib/gcc/arm-none-eabi/4.4.5/../../../../arm-none-eabi/lib/thumb2/libm.a(lib_a-w_pow.o)
 .debug_line    0x000085af       0xfa /opt/paparazzi/arm-multilib/lib/gcc/arm-none-eabi/4.4.5/../../../../arm-none-eabi/lib/thumb2/libm.a(lib_a-w_sinh.o)
 .debug_line    0x000086a9       0xf9 /opt/paparazzi/arm-multilib/lib/gcc/arm-none-eabi/4.4.5/../../../../arm-none-eabi/lib/thumb2/libm.a(lib_a-w_sqrt.o)
 .debug_line    0x000087a2       0xf8 /opt/paparazzi/arm-multilib/lib/gcc/arm-none-eabi/4.4.5/../../../../arm-none-eabi/lib/thumb2/libm.a(lib_a-wf_asin.o)
 .debug_line    0x0000889a       0xe5 /opt/paparazzi/arm-multilib/lib/gcc/arm-none-eabi/4.4.5/../../../../arm-none-eabi/lib/thumb2/libm.a(lib_a-wf_atan2.o)
 .debug_line    0x0000897f      0x151 /opt/paparazzi/arm-multilib/lib/gcc/arm-none-eabi/4.4.5/../../../../arm-none-eabi/lib/thumb2/libm.a(lib_a-wf_pow.o)
 .debug_line    0x00008ad0       0xfc /opt/paparazzi/arm-multilib/lib/gcc/arm-none-eabi/4.4.5/../../../../arm-none-eabi/lib/thumb2/libm.a(lib_a-wf_sqrt.o)
 .debug_line    0x00008bcc      0x184 /opt/paparazzi/arm-multilib/lib/gcc/arm-none-eabi/4.4.5/../../../../arm-none-eabi/lib/thumb2/libm.a(lib_a-e_asin.o)
 .debug_line    0x00008d50      0x182 /opt/paparazzi/arm-multilib/lib/gcc/arm-none-eabi/4.4.5/../../../../arm-none-eabi/lib/thumb2/libm.a(lib_a-e_atan2.o)
 .debug_line    0x00008ed2      0x11c /opt/paparazzi/arm-multilib/lib/gcc/arm-none-eabi/4.4.5/../../../../arm-none-eabi/lib/thumb2/libm.a(lib_a-e_cosh.o)
 .debug_line    0x00008fee      0x187 /opt/paparazzi/arm-multilib/lib/gcc/arm-none-eabi/4.4.5/../../../../arm-none-eabi/lib/thumb2/libm.a(lib_a-e_exp.o)
 .debug_line    0x00009175      0x193 /opt/paparazzi/arm-multilib/lib/gcc/arm-none-eabi/4.4.5/../../../../arm-none-eabi/lib/thumb2/libm.a(lib_a-e_log.o)
 .debug_line    0x00009308      0x240 /opt/paparazzi/arm-multilib/lib/gcc/arm-none-eabi/4.4.5/../../../../arm-none-eabi/lib/thumb2/libm.a(lib_a-e_pow.o)
 .debug_line    0x00009548      0x1c0 /opt/paparazzi/arm-multilib/lib/gcc/arm-none-eabi/4.4.5/../../../../arm-none-eabi/lib/thumb2/libm.a(lib_a-e_rem_pio2.o)
 .debug_line    0x00009708      0x115 /opt/paparazzi/arm-multilib/lib/gcc/arm-none-eabi/4.4.5/../../../../arm-none-eabi/lib/thumb2/libm.a(lib_a-e_sinh.o)
 .debug_line    0x0000981d      0x1b3 /opt/paparazzi/arm-multilib/lib/gcc/arm-none-eabi/4.4.5/../../../../arm-none-eabi/lib/thumb2/libm.a(lib_a-e_sqrt.o)
 .debug_line    0x000099d0      0x17f /opt/paparazzi/arm-multilib/lib/gcc/arm-none-eabi/4.4.5/../../../../arm-none-eabi/lib/thumb2/libm.a(lib_a-ef_asin.o)
 .debug_line    0x00009b4f      0x11b /opt/paparazzi/arm-multilib/lib/gcc/arm-none-eabi/4.4.5/../../../../arm-none-eabi/lib/thumb2/libm.a(lib_a-ef_atan2.o)
 .debug_line    0x00009c6a      0x21d /opt/paparazzi/arm-multilib/lib/gcc/arm-none-eabi/4.4.5/../../../../arm-none-eabi/lib/thumb2/libm.a(lib_a-ef_pow.o)
 .debug_line    0x00009e87      0x1a2 /opt/paparazzi/arm-multilib/lib/gcc/arm-none-eabi/4.4.5/../../../../arm-none-eabi/lib/thumb2/libm.a(lib_a-ef_rem_pio2.o)
 .debug_line    0x0000a029      0x11d /opt/paparazzi/arm-multilib/lib/gcc/arm-none-eabi/4.4.5/../../../../arm-none-eabi/lib/thumb2/libm.a(lib_a-ef_sqrt.o)
 .debug_line    0x0000a146      0x164 /opt/paparazzi/arm-multilib/lib/gcc/arm-none-eabi/4.4.5/../../../../arm-none-eabi/lib/thumb2/libm.a(lib_a-k_cos.o)
 .debug_line    0x0000a2aa      0x1a9 /opt/paparazzi/arm-multilib/lib/gcc/arm-none-eabi/4.4.5/../../../../arm-none-eabi/lib/thumb2/libm.a(lib_a-k_rem_pio2.o)
 .debug_line    0x0000a453      0x107 /opt/paparazzi/arm-multilib/lib/gcc/arm-none-eabi/4.4.5/../../../../arm-none-eabi/lib/thumb2/libm.a(lib_a-k_sin.o)
 .debug_line    0x0000a55a      0x193 /opt/paparazzi/arm-multilib/lib/gcc/arm-none-eabi/4.4.5/../../../../arm-none-eabi/lib/thumb2/libm.a(lib_a-k_tan.o)
 .debug_line    0x0000a6ed      0x10c /opt/paparazzi/arm-multilib/lib/gcc/arm-none-eabi/4.4.5/../../../../arm-none-eabi/lib/thumb2/libm.a(lib_a-kf_cos.o)
 .debug_line    0x0000a7f9      0x19c /opt/paparazzi/arm-multilib/lib/gcc/arm-none-eabi/4.4.5/../../../../arm-none-eabi/lib/thumb2/libm.a(lib_a-kf_rem_pio2.o)
 .debug_line    0x0000a995      0x105 /opt/paparazzi/arm-multilib/lib/gcc/arm-none-eabi/4.4.5/../../../../arm-none-eabi/lib/thumb2/libm.a(lib_a-kf_sin.o)
 .debug_line    0x0000aa9a      0x1c0 /opt/paparazzi/arm-multilib/lib/gcc/arm-none-eabi/4.4.5/../../../../arm-none-eabi/lib/thumb2/libm.a(lib_a-s_expm1.o)
 .debug_line    0x0000ac5a      0x16b /opt/paparazzi/arm-multilib/lib/gcc/arm-none-eabi/4.4.5/../../../../arm-none-eabi/lib/thumb2/libm.a(lib_a-s_finite.o)
 .debug_line    0x0000adc5      0x1cf /opt/paparazzi/arm-multilib/lib/gcc/arm-none-eabi/4.4.5/../../../../arm-none-eabi/lib/thumb2/libm.a(lib_a-s_floor.o)
 .debug_line    0x0000af94      0x174 /opt/paparazzi/arm-multilib/lib/gcc/arm-none-eabi/4.4.5/../../../../arm-none-eabi/lib/thumb2/libm.a(lib_a-s_fpclassify.o)
 .debug_line    0x0000b108       0x83 /opt/paparazzi/arm-multilib/lib/gcc/arm-none-eabi/4.4.5/../../../../arm-none-eabi/lib/thumb2/libm.a(lib_a-s_lib_ver.o)
 .debug_line    0x0000b18b       0xe8 /opt/paparazzi/arm-multilib/lib/gcc/arm-none-eabi/4.4.5/../../../../arm-none-eabi/lib/thumb2/libm.a(lib_a-s_matherr.o)
 .debug_line    0x0000b273      0x168 /opt/paparazzi/arm-multilib/lib/gcc/arm-none-eabi/4.4.5/../../../../arm-none-eabi/lib/thumb2/libm.a(lib_a-s_nan.o)
 .debug_line    0x0000b3db      0x186 /opt/paparazzi/arm-multilib/lib/gcc/arm-none-eabi/4.4.5/../../../../arm-none-eabi/lib/thumb2/libm.a(lib_a-s_scalbn.o)
 .debug_line    0x0000b561      0x16c /opt/paparazzi/arm-multilib/lib/gcc/arm-none-eabi/4.4.5/../../../../arm-none-eabi/lib/thumb2/libm.a(lib_a-sf_finite.o)
 .debug_line    0x0000b6cd      0x16a /opt/paparazzi/arm-multilib/lib/gcc/arm-none-eabi/4.4.5/../../../../arm-none-eabi/lib/thumb2/libm.a(lib_a-sf_floor.o)
 .debug_line    0x0000b837      0x167 /opt/paparazzi/arm-multilib/lib/gcc/arm-none-eabi/4.4.5/../../../../arm-none-eabi/lib/thumb2/libm.a(lib_a-sf_fpclassify.o)
 .debug_line    0x0000b99e       0xe2 /opt/paparazzi/arm-multilib/lib/gcc/arm-none-eabi/4.4.5/../../../../arm-none-eabi/lib/thumb2/libm.a(lib_a-sf_nan.o)
 .debug_line    0x0000ba80      0x189 /opt/paparazzi/arm-multilib/lib/gcc/arm-none-eabi/4.4.5/../../../../arm-none-eabi/lib/thumb2/libm.a(lib_a-sf_scalbn.o)
 .debug_line    0x0000bc09      0x171 /opt/paparazzi/arm-multilib/lib/gcc/arm-none-eabi/4.4.5/../../../../arm-none-eabi/lib/thumb2/libm.a(lib_a-s_copysign.o)
 .debug_line    0x0000bd7a      0x162 /opt/paparazzi/arm-multilib/lib/gcc/arm-none-eabi/4.4.5/../../../../arm-none-eabi/lib/thumb2/libm.a(lib_a-sf_copysign.o)
 .debug_line    0x0000bedc       0xbe /opt/paparazzi/arm-multilib/lib/gcc/arm-none-eabi/4.4.5/thumb2/libgcc.a(_divsi3.o)
 .debug_line    0x0000bf9a       0x83 /opt/paparazzi/arm-multilib/lib/gcc/arm-none-eabi/4.4.5/thumb2/libgcc.a(_dvmd_tls.o)
 .debug_line    0x0000c01d      0x21c /opt/paparazzi/arm-multilib/lib/gcc/arm-none-eabi/4.4.5/thumb2/libgcc.a(_arm_addsubdf3.o)
 .debug_line    0x0000c239      0x23c /opt/paparazzi/arm-multilib/lib/gcc/arm-none-eabi/4.4.5/thumb2/libgcc.a(_arm_muldivdf3.o)
 .debug_line    0x0000c475      0x122 /opt/paparazzi/arm-multilib/lib/gcc/arm-none-eabi/4.4.5/thumb2/libgcc.a(_arm_cmpdf2.o)
 .debug_line    0x0000c597       0x9a /opt/paparazzi/arm-multilib/lib/gcc/arm-none-eabi/4.4.5/thumb2/libgcc.a(_arm_fixdfsi.o)
 .debug_line    0x0000c631       0x96 /opt/paparazzi/arm-multilib/lib/gcc/arm-none-eabi/4.4.5/thumb2/libgcc.a(_arm_fixunsdfsi.o)
 .debug_line    0x0000c6c7       0xae /opt/paparazzi/arm-multilib/lib/gcc/arm-none-eabi/4.4.5/thumb2/libgcc.a(_arm_truncdfsf2.o)
 .debug_line    0x0000c775      0x13c /opt/paparazzi/arm-multilib/lib/gcc/arm-none-eabi/4.4.5/thumb2/libgcc.a(_arm_addsubsf3.o)
 .debug_line    0x0000c8b1      0x15d /opt/paparazzi/arm-multilib/lib/gcc/arm-none-eabi/4.4.5/thumb2/libgcc.a(_arm_muldivsf3.o)
 .debug_line    0x0000ca0e      0x116 /opt/paparazzi/arm-multilib/lib/gcc/arm-none-eabi/4.4.5/thumb2/libgcc.a(_arm_cmpsf2.o)
 .debug_line    0x0000cb24       0x9a /opt/paparazzi/arm-multilib/lib/gcc/arm-none-eabi/4.4.5/thumb2/libgcc.a(_arm_fixsfsi.o)
 .debug_line    0x0000cbbe       0x96 /opt/paparazzi/arm-multilib/lib/gcc/arm-none-eabi/4.4.5/thumb2/libgcc.a(_arm_fixunssfsi.o)
 .debug_line    0x0000cc54      0x4c3 /opt/paparazzi/arm-multilib/lib/gcc/arm-none-eabi/4.4.5/../../../../arm-none-eabi/lib/libstm32.a(stm32_adc.o)
 .debug_line    0x0000d117      0xa46 /opt/paparazzi/arm-multilib/lib/gcc/arm-none-eabi/4.4.5/../../../../arm-none-eabi/lib/libstm32.a(stm32_tim.o)
 .debug_line    0x0000db5d      0x290 /opt/paparazzi/arm-multilib/lib/gcc/arm-none-eabi/4.4.5/../../../../arm-none-eabi/lib/libstm32.a(stm32_dma.o)
 .debug_line    0x0000dded      0x33d /opt/paparazzi/arm-multilib/lib/gcc/arm-none-eabi/4.4.5/../../../../arm-none-eabi/lib/libstm32.a(stm32_gpio.o)
 .debug_line    0x0000e12a      0x422 /opt/paparazzi/arm-multilib/lib/gcc/arm-none-eabi/4.4.5/../../../../arm-none-eabi/lib/libstm32.a(stm32_usart.o)
 .debug_line    0x0000e54c      0x246 /opt/paparazzi/arm-multilib/lib/gcc/arm-none-eabi/4.4.5/../../../../arm-none-eabi/lib/libstm32.a(stm32_exti.o)
 .debug_line    0x0000e792      0x45c /opt/paparazzi/arm-multilib/lib/gcc/arm-none-eabi/4.4.5/../../../../arm-none-eabi/lib/libstm32.a(stm32_i2c.o)
 .debug_line    0x0000ebee      0x3ba /opt/paparazzi/arm-multilib/lib/gcc/arm-none-eabi/4.4.5/../../../../arm-none-eabi/lib/libstm32.a(stm32_spi.o)
 .debug_line    0x0000efa8      0x432 /opt/paparazzi/arm-multilib/lib/gcc/arm-none-eabi/4.4.5/../../../../arm-none-eabi/lib/libstm32.a(stm32_rcc.o)
 .debug_line    0x0000f3da      0x20e /opt/paparazzi/arm-multilib/lib/gcc/arm-none-eabi/4.4.5/../../../../arm-none-eabi/lib/libstm32.a(stm32_misc.o)
 .debug_line    0x0000f5e8      0x43b /opt/paparazzi/arm-multilib/lib/gcc/arm-none-eabi/4.4.5/../../../../arm-none-eabi/lib/libopencm3_stm32.a(rcc.o)
 .debug_line    0x0000fa23      0x22d /opt/paparazzi/arm-multilib/lib/gcc/arm-none-eabi/4.4.5/../../../../arm-none-eabi/lib/libopencm3_stm32.a(usart.o)
 .debug_line    0x0000fc50      0x287 /opt/paparazzi/arm-multilib/lib/gcc/arm-none-eabi/4.4.5/../../../../arm-none-eabi/lib/libopencm3_stm32.a(flash.o)
 .debug_line    0x0000fed7      0x157 /opt/paparazzi/arm-multilib/lib/gcc/arm-none-eabi/4.4.5/../../../../arm-none-eabi/lib/thumb2/libc.a(lib_a-errno.o)
 .debug_line    0x0001002e      0x13d /opt/paparazzi/arm-multilib/lib/gcc/arm-none-eabi/4.4.5/../../../../arm-none-eabi/lib/thumb2/libc.a(lib_a-impure.o)

.debug_frame    0x00000000     0x40dc
 *(.debug_frame)
 .debug_frame   0x00000000       0x44 /home/woz/lisa-m-team4938/paparazzi/var/ECE_2012/ap/mcu.o
 .debug_frame   0x00000044       0x2c /home/woz/lisa-m-team4938/paparazzi/var/ECE_2012/ap/arch/stm32/mcu_arch.o
 .debug_frame   0x00000070      0x2a4 /home/woz/lisa-m-team4938/paparazzi/var/ECE_2012/ap/math/pprz_geodetic_int.o
 .debug_frame   0x00000314      0x304 /home/woz/lisa-m-team4938/paparazzi/var/ECE_2012/ap/math/pprz_geodetic_float.o
 .debug_frame   0x00000618      0x26c /home/woz/lisa-m-team4938/paparazzi/var/ECE_2012/ap/math/pprz_geodetic_double.o
 .debug_frame   0x00000884       0x3c /home/woz/lisa-m-team4938/paparazzi/var/ECE_2012/ap/mcu_periph/i2c.o
 .debug_frame   0x000008c0      0x138 /home/woz/lisa-m-team4938/paparazzi/var/ECE_2012/ap/arch/stm32/mcu_periph/i2c_arch.o
 .debug_frame   0x000009f8       0xa0 /home/woz/lisa-m-team4938/paparazzi/var/ECE_2012/ap/firmwares/fixedwing/main_fbw.o
 .debug_frame   0x00000a98       0x58 /home/woz/lisa-m-team4938/paparazzi/var/ECE_2012/ap/subsystems/electrical.o
 .debug_frame   0x00000af0      0x11c /home/woz/lisa-m-team4938/paparazzi/var/ECE_2012/ap/firmwares/fixedwing/main_ap.o
 .debug_frame   0x00000c0c       0xb0 /home/woz/lisa-m-team4938/paparazzi/var/ECE_2012/ap/./estimator.o
 .debug_frame   0x00000cbc       0x60 /home/woz/lisa-m-team4938/paparazzi/var/ECE_2012/ap/arch/stm32/stm32_exceptions.o
 .debug_frame   0x00000d1c       0x60 /home/woz/lisa-m-team4938/paparazzi/var/ECE_2012/ap/arch/stm32/stm32_vector_table.o
 .debug_frame   0x00000d7c       0x90 /home/woz/lisa-m-team4938/paparazzi/var/ECE_2012/ap/lisa/plug_sys.o
 .debug_frame   0x00000e0c       0x2c /home/woz/lisa-m-team4938/paparazzi/var/ECE_2012/ap/firmwares/fixedwing/main.o
 .debug_frame   0x00000e38       0x50 /home/woz/lisa-m-team4938/paparazzi/var/ECE_2012/ap/arch/stm32/sys_time_hw.o
 .debug_frame   0x00000e88       0x30 /home/woz/lisa-m-team4938/paparazzi/var/ECE_2012/ap/mcu_periph/uart.o
 .debug_frame   0x00000eb8      0x100 /home/woz/lisa-m-team4938/paparazzi/var/ECE_2012/ap/arch/stm32/mcu_periph/uart_arch.o
 .debug_frame   0x00000fb8       0x30 /home/woz/lisa-m-team4938/paparazzi/var/ECE_2012/ap/subsystems/settings.o
 .debug_frame   0x00000fe8       0x90 /home/woz/lisa-m-team4938/paparazzi/var/ECE_2012/ap/arch/stm32/subsystems/settings_arch.o
 .debug_frame   0x00001078       0x68 /home/woz/lisa-m-team4938/paparazzi/var/ECE_2012/ap/arch/stm32/mcu_periph/adc_arch.o
 .debug_frame   0x000010e0       0x20 /home/woz/lisa-m-team4938/paparazzi/var/ECE_2012/ap/arch/stm32/servos_direct_hw.o
 .debug_frame   0x00001100       0x4c /home/woz/lisa-m-team4938/paparazzi/var/ECE_2012/ap/firmwares/rotorcraft/actuators/arch/stm32/actuators_pwm_arch.o
 .debug_frame   0x0000114c       0x20 /home/woz/lisa-m-team4938/paparazzi/var/ECE_2012/ap/subsystems/radio_control/ppm.o
 .debug_frame   0x0000116c       0x54 /home/woz/lisa-m-team4938/paparazzi/var/ECE_2012/ap/arch/stm32/subsystems/radio_control/ppm_arch.o
 .debug_frame   0x000011c0       0x44 /home/woz/lisa-m-team4938/paparazzi/var/ECE_2012/ap/firmwares/fixedwing/datalink.o
 .debug_frame   0x00001204       0x7c /home/woz/lisa-m-team4938/paparazzi/var/ECE_2012/ap/firmwares/fixedwing/stabilization/stabilization_attitude.o
 .debug_frame   0x00001280       0xa4 /home/woz/lisa-m-team4938/paparazzi/var/ECE_2012/ap/firmwares/fixedwing/guidance/guidance_v.o
 .debug_frame   0x00001324       0x54 /home/woz/lisa-m-team4938/paparazzi/var/ECE_2012/ap/subsystems/imu.o
 .debug_frame   0x00001378       0x8c /home/woz/lisa-m-team4938/paparazzi/var/ECE_2012/ap/subsystems/imu/imu_aspirin.o
 .debug_frame   0x00001404      0x118 /home/woz/lisa-m-team4938/paparazzi/var/ECE_2012/ap/arch/stm32/subsystems/imu/imu_aspirin_arch.o
 .debug_frame   0x0000151c       0x60 /home/woz/lisa-m-team4938/paparazzi/var/ECE_2012/ap/peripherals/hmc5843.o
 .debug_frame   0x0000157c       0x5c /home/woz/lisa-m-team4938/paparazzi/var/ECE_2012/ap/arch/stm32/peripherals/hmc5843_arch.o
 .debug_frame   0x000015d8       0x50 /home/woz/lisa-m-team4938/paparazzi/var/ECE_2012/ap/subsystems/ahrs/ahrs_aligner.o
 .debug_frame   0x00001628      0x25c /home/woz/lisa-m-team4938/paparazzi/var/ECE_2012/ap/subsystems/ahrs/ahrs_float_dcm.o
 .debug_frame   0x00001884       0x84 /home/woz/lisa-m-team4938/paparazzi/var/ECE_2012/ap/subsystems/gps/gps_ubx.o
 .debug_frame   0x00001908       0x20 /home/woz/lisa-m-team4938/paparazzi/var/ECE_2012/ap/subsystems/gps.o
 .debug_frame   0x00001928      0x298 /home/woz/lisa-m-team4938/paparazzi/var/ECE_2012/ap/subsystems/nav.o
 .debug_frame   0x00001bc0       0x30 /home/woz/lisa-m-team4938/paparazzi/var/ECE_2012/ap/subsystems/navigation/common_flight_plan.o
 .debug_frame   0x00001bf0       0x30 /home/woz/lisa-m-team4938/paparazzi/var/ECE_2012/ap/subsystems/navigation/traffic_info.o
 .debug_frame   0x00001c20       0x7c /home/woz/lisa-m-team4938/paparazzi/var/ECE_2012/ap/subsystems/navigation/nav_survey_rectangle.o
 .debug_frame   0x00001c9c       0x54 /home/woz/lisa-m-team4938/paparazzi/var/ECE_2012/ap/subsystems/navigation/nav_line.o
 .debug_frame   0x00001cf0       0x20 /opt/paparazzi/arm-multilib/lib/gcc/arm-none-eabi/4.4.5/../../../../arm-none-eabi/lib/thumb2/libc.a(lib_a-memcpy.o)
 .debug_frame   0x00001d10       0x38 /opt/paparazzi/arm-multilib/lib/gcc/arm-none-eabi/4.4.5/../../../../arm-none-eabi/lib/thumb2/libm.a(lib_a-s_atan.o)
 .debug_frame   0x00001d48       0x30 /opt/paparazzi/arm-multilib/lib/gcc/arm-none-eabi/4.4.5/../../../../arm-none-eabi/lib/thumb2/libm.a(lib_a-s_cos.o)
 .debug_frame   0x00001d78       0x20 /opt/paparazzi/arm-multilib/lib/gcc/arm-none-eabi/4.4.5/../../../../arm-none-eabi/lib/thumb2/libm.a(lib_a-s_fabs.o)
 .debug_frame   0x00001d98       0x34 /opt/paparazzi/arm-multilib/lib/gcc/arm-none-eabi/4.4.5/../../../../arm-none-eabi/lib/thumb2/libm.a(lib_a-s_rint.o)
 .debug_frame   0x00001dcc       0x30 /opt/paparazzi/arm-multilib/lib/gcc/arm-none-eabi/4.4.5/../../../../arm-none-eabi/lib/thumb2/libm.a(lib_a-s_sin.o)
 .debug_frame   0x00001dfc       0x30 /opt/paparazzi/arm-multilib/lib/gcc/arm-none-eabi/4.4.5/../../../../arm-none-eabi/lib/thumb2/libm.a(lib_a-s_tan.o)
 .debug_frame   0x00001e2c       0x30 /opt/paparazzi/arm-multilib/lib/gcc/arm-none-eabi/4.4.5/../../../../arm-none-eabi/lib/thumb2/libm.a(lib_a-sf_atan.o)
 .debug_frame   0x00001e5c       0x2c /opt/paparazzi/arm-multilib/lib/gcc/arm-none-eabi/4.4.5/../../../../arm-none-eabi/lib/thumb2/libm.a(lib_a-sf_cos.o)
 .debug_frame   0x00001e88       0x20 /opt/paparazzi/arm-multilib/lib/gcc/arm-none-eabi/4.4.5/../../../../arm-none-eabi/lib/thumb2/libm.a(lib_a-sf_fabs.o)
 .debug_frame   0x00001ea8       0x2c /opt/paparazzi/arm-multilib/lib/gcc/arm-none-eabi/4.4.5/../../../../arm-none-eabi/lib/thumb2/libm.a(lib_a-sf_sin.o)
 .debug_frame   0x00001ed4       0x34 /opt/paparazzi/arm-multilib/lib/gcc/arm-none-eabi/4.4.5/../../../../arm-none-eabi/lib/thumb2/libm.a(lib_a-w_asin.o)
 .debug_frame   0x00001f08       0x20 /opt/paparazzi/arm-multilib/lib/gcc/arm-none-eabi/4.4.5/../../../../arm-none-eabi/lib/thumb2/libm.a(lib_a-w_atan2.o)
 .debug_frame   0x00001f28       0x34 /opt/paparazzi/arm-multilib/lib/gcc/arm-none-eabi/4.4.5/../../../../arm-none-eabi/lib/thumb2/libm.a(lib_a-w_cosh.o)
 .debug_frame   0x00001f5c       0x34 /opt/paparazzi/arm-multilib/lib/gcc/arm-none-eabi/4.4.5/../../../../arm-none-eabi/lib/thumb2/libm.a(lib_a-w_exp.o)
 .debug_frame   0x00001f90       0x34 /opt/paparazzi/arm-multilib/lib/gcc/arm-none-eabi/4.4.5/../../../../arm-none-eabi/lib/thumb2/libm.a(lib_a-w_log.o)
 .debug_frame   0x00001fc4       0x3c /opt/paparazzi/arm-multilib/lib/gcc/arm-none-eabi/4.4.5/../../../../arm-none-eabi/lib/thumb2/libm.a(lib_a-w_pow.o)
 .debug_frame   0x00002000       0x38 /opt/paparazzi/arm-multilib/lib/gcc/arm-none-eabi/4.4.5/../../../../arm-none-eabi/lib/thumb2/libm.a(lib_a-w_sinh.o)
 .debug_frame   0x00002038       0x38 /opt/paparazzi/arm-multilib/lib/gcc/arm-none-eabi/4.4.5/../../../../arm-none-eabi/lib/thumb2/libm.a(lib_a-w_sqrt.o)
 .debug_frame   0x00002070       0x30 /opt/paparazzi/arm-multilib/lib/gcc/arm-none-eabi/4.4.5/../../../../arm-none-eabi/lib/thumb2/libm.a(lib_a-wf_asin.o)
 .debug_frame   0x000020a0       0x20 /opt/paparazzi/arm-multilib/lib/gcc/arm-none-eabi/4.4.5/../../../../arm-none-eabi/lib/thumb2/libm.a(lib_a-wf_atan2.o)
 .debug_frame   0x000020c0       0x34 /opt/paparazzi/arm-multilib/lib/gcc/arm-none-eabi/4.4.5/../../../../arm-none-eabi/lib/thumb2/libm.a(lib_a-wf_pow.o)
 .debug_frame   0x000020f4       0x30 /opt/paparazzi/arm-multilib/lib/gcc/arm-none-eabi/4.4.5/../../../../arm-none-eabi/lib/thumb2/libm.a(lib_a-wf_sqrt.o)
 .debug_frame   0x00002124       0x3c /opt/paparazzi/arm-multilib/lib/gcc/arm-none-eabi/4.4.5/../../../../arm-none-eabi/lib/thumb2/libm.a(lib_a-e_asin.o)
 .debug_frame   0x00002160       0x3c /opt/paparazzi/arm-multilib/lib/gcc/arm-none-eabi/4.4.5/../../../../arm-none-eabi/lib/thumb2/libm.a(lib_a-e_atan2.o)
 .debug_frame   0x0000219c       0x34 /opt/paparazzi/arm-multilib/lib/gcc/arm-none-eabi/4.4.5/../../../../arm-none-eabi/lib/thumb2/libm.a(lib_a-e_cosh.o)
 .debug_frame   0x000021d0       0x3c /opt/paparazzi/arm-multilib/lib/gcc/arm-none-eabi/4.4.5/../../../../arm-none-eabi/lib/thumb2/libm.a(lib_a-e_exp.o)
 .debug_frame   0x0000220c       0x3c /opt/paparazzi/arm-multilib/lib/gcc/arm-none-eabi/4.4.5/../../../../arm-none-eabi/lib/thumb2/libm.a(lib_a-e_log.o)
 .debug_frame   0x00002248       0x3c /opt/paparazzi/arm-multilib/lib/gcc/arm-none-eabi/4.4.5/../../../../arm-none-eabi/lib/thumb2/libm.a(lib_a-e_pow.o)
 .debug_frame   0x00002284       0x3c /opt/paparazzi/arm-multilib/lib/gcc/arm-none-eabi/4.4.5/../../../../arm-none-eabi/lib/thumb2/libm.a(lib_a-e_rem_pio2.o)
 .debug_frame   0x000022c0       0x38 /opt/paparazzi/arm-multilib/lib/gcc/arm-none-eabi/4.4.5/../../../../arm-none-eabi/lib/thumb2/libm.a(lib_a-e_sinh.o)
 .debug_frame   0x000022f8       0x34 /opt/paparazzi/arm-multilib/lib/gcc/arm-none-eabi/4.4.5/../../../../arm-none-eabi/lib/thumb2/libm.a(lib_a-e_sqrt.o)
 .debug_frame   0x0000232c       0x34 /opt/paparazzi/arm-multilib/lib/gcc/arm-none-eabi/4.4.5/../../../../arm-none-eabi/lib/thumb2/libm.a(lib_a-ef_asin.o)
 .debug_frame   0x00002360       0x2c /opt/paparazzi/arm-multilib/lib/gcc/arm-none-eabi/4.4.5/../../../../arm-none-eabi/lib/thumb2/libm.a(lib_a-ef_atan2.o)
 .debug_frame   0x0000238c       0x3c /opt/paparazzi/arm-multilib/lib/gcc/arm-none-eabi/4.4.5/../../../../arm-none-eabi/lib/thumb2/libm.a(lib_a-ef_pow.o)
 .debug_frame   0x000023c8       0x3c /opt/paparazzi/arm-multilib/lib/gcc/arm-none-eabi/4.4.5/../../../../arm-none-eabi/lib/thumb2/libm.a(lib_a-ef_rem_pio2.o)
 .debug_frame   0x00002404       0x2c /opt/paparazzi/arm-multilib/lib/gcc/arm-none-eabi/4.4.5/../../../../arm-none-eabi/lib/thumb2/libm.a(lib_a-ef_sqrt.o)
 .debug_frame   0x00002430       0x3c /opt/paparazzi/arm-multilib/lib/gcc/arm-none-eabi/4.4.5/../../../../arm-none-eabi/lib/thumb2/libm.a(lib_a-k_cos.o)
 .debug_frame   0x0000246c       0x3c /opt/paparazzi/arm-multilib/lib/gcc/arm-none-eabi/4.4.5/../../../../arm-none-eabi/lib/thumb2/libm.a(lib_a-k_rem_pio2.o)
 .debug_frame   0x000024a8       0x3c /opt/paparazzi/arm-multilib/lib/gcc/arm-none-eabi/4.4.5/../../../../arm-none-eabi/lib/thumb2/libm.a(lib_a-k_sin.o)
 .debug_frame   0x000024e4       0x3c /opt/paparazzi/arm-multilib/lib/gcc/arm-none-eabi/4.4.5/../../../../arm-none-eabi/lib/thumb2/libm.a(lib_a-k_tan.o)
 .debug_frame   0x00002520       0x34 /opt/paparazzi/arm-multilib/lib/gcc/arm-none-eabi/4.4.5/../../../../arm-none-eabi/lib/thumb2/libm.a(lib_a-kf_cos.o)
 .debug_frame   0x00002554       0x3c /opt/paparazzi/arm-multilib/lib/gcc/arm-none-eabi/4.4.5/../../../../arm-none-eabi/lib/thumb2/libm.a(lib_a-kf_rem_pio2.o)
 .debug_frame   0x00002590       0x34 /opt/paparazzi/arm-multilib/lib/gcc/arm-none-eabi/4.4.5/../../../../arm-none-eabi/lib/thumb2/libm.a(lib_a-kf_sin.o)
 .debug_frame   0x000025c4       0x3c /opt/paparazzi/arm-multilib/lib/gcc/arm-none-eabi/4.4.5/../../../../arm-none-eabi/lib/thumb2/libm.a(lib_a-s_expm1.o)
 .debug_frame   0x00002600       0x20 /opt/paparazzi/arm-multilib/lib/gcc/arm-none-eabi/4.4.5/../../../../arm-none-eabi/lib/thumb2/libm.a(lib_a-s_finite.o)
 .debug_frame   0x00002620       0x30 /opt/paparazzi/arm-multilib/lib/gcc/arm-none-eabi/4.4.5/../../../../arm-none-eabi/lib/thumb2/libm.a(lib_a-s_floor.o)
 .debug_frame   0x00002650       0x2c /opt/paparazzi/arm-multilib/lib/gcc/arm-none-eabi/4.4.5/../../../../arm-none-eabi/lib/thumb2/libm.a(lib_a-s_fpclassify.o)
 .debug_frame   0x0000267c       0x20 /opt/paparazzi/arm-multilib/lib/gcc/arm-none-eabi/4.4.5/../../../../arm-none-eabi/lib/thumb2/libm.a(lib_a-s_matherr.o)
 .debug_frame   0x0000269c       0x20 /opt/paparazzi/arm-multilib/lib/gcc/arm-none-eabi/4.4.5/../../../../arm-none-eabi/lib/thumb2/libm.a(lib_a-s_nan.o)
 .debug_frame   0x000026bc       0x34 /opt/paparazzi/arm-multilib/lib/gcc/arm-none-eabi/4.4.5/../../../../arm-none-eabi/lib/thumb2/libm.a(lib_a-s_scalbn.o)
 .debug_frame   0x000026f0       0x20 /opt/paparazzi/arm-multilib/lib/gcc/arm-none-eabi/4.4.5/../../../../arm-none-eabi/lib/thumb2/libm.a(lib_a-sf_finite.o)
 .debug_frame   0x00002710       0x2c /opt/paparazzi/arm-multilib/lib/gcc/arm-none-eabi/4.4.5/../../../../arm-none-eabi/lib/thumb2/libm.a(lib_a-sf_floor.o)
 .debug_frame   0x0000273c       0x20 /opt/paparazzi/arm-multilib/lib/gcc/arm-none-eabi/4.4.5/../../../../arm-none-eabi/lib/thumb2/libm.a(lib_a-sf_fpclassify.o)
 .debug_frame   0x0000275c       0x20 /opt/paparazzi/arm-multilib/lib/gcc/arm-none-eabi/4.4.5/../../../../arm-none-eabi/lib/thumb2/libm.a(lib_a-sf_nan.o)
 .debug_frame   0x0000277c       0x28 /opt/paparazzi/arm-multilib/lib/gcc/arm-none-eabi/4.4.5/../../../../arm-none-eabi/lib/thumb2/libm.a(lib_a-sf_scalbn.o)
 .debug_frame   0x000027a4       0x2c /opt/paparazzi/arm-multilib/lib/gcc/arm-none-eabi/4.4.5/../../../../arm-none-eabi/lib/thumb2/libm.a(lib_a-s_copysign.o)
 .debug_frame   0x000027d0       0x20 /opt/paparazzi/arm-multilib/lib/gcc/arm-none-eabi/4.4.5/../../../../arm-none-eabi/lib/thumb2/libm.a(lib_a-sf_copysign.o)
 .debug_frame   0x000027f0       0x20 /opt/paparazzi/arm-multilib/lib/gcc/arm-none-eabi/4.4.5/thumb2/libgcc.a(_divsi3.o)
 .debug_frame   0x00002810      0x278 /opt/paparazzi/arm-multilib/lib/gcc/arm-none-eabi/4.4.5/../../../../arm-none-eabi/lib/libstm32.a(stm32_adc.o)
 .debug_frame   0x00002a88      0x648 /opt/paparazzi/arm-multilib/lib/gcc/arm-none-eabi/4.4.5/../../../../arm-none-eabi/lib/libstm32.a(stm32_tim.o)
 .debug_frame   0x000030d0       0xb8 /opt/paparazzi/arm-multilib/lib/gcc/arm-none-eabi/4.4.5/../../../../arm-none-eabi/lib/libstm32.a(stm32_dma.o)
 .debug_frame   0x00003188      0x15c /opt/paparazzi/arm-multilib/lib/gcc/arm-none-eabi/4.4.5/../../../../arm-none-eabi/lib/libstm32.a(stm32_gpio.o)
 .debug_frame   0x000032e4      0x1d8 /opt/paparazzi/arm-multilib/lib/gcc/arm-none-eabi/4.4.5/../../../../arm-none-eabi/lib/libstm32.a(stm32_usart.o)
 .debug_frame   0x000034bc       0x98 /opt/paparazzi/arm-multilib/lib/gcc/arm-none-eabi/4.4.5/../../../../arm-none-eabi/lib/libstm32.a(stm32_exti.o)
 .debug_frame   0x00003554      0x230 /opt/paparazzi/arm-multilib/lib/gcc/arm-none-eabi/4.4.5/../../../../arm-none-eabi/lib/libstm32.a(stm32_i2c.o)
 .debug_frame   0x00003784      0x19c /opt/paparazzi/arm-multilib/lib/gcc/arm-none-eabi/4.4.5/../../../../arm-none-eabi/lib/libstm32.a(stm32_spi.o)
 .debug_frame   0x00003920      0x224 /opt/paparazzi/arm-multilib/lib/gcc/arm-none-eabi/4.4.5/../../../../arm-none-eabi/lib/libstm32.a(stm32_rcc.o)
 .debug_frame   0x00003b44       0x60 /opt/paparazzi/arm-multilib/lib/gcc/arm-none-eabi/4.4.5/../../../../arm-none-eabi/lib/libstm32.a(stm32_misc.o)
 .debug_frame   0x00003ba4      0x280 /opt/paparazzi/arm-multilib/lib/gcc/arm-none-eabi/4.4.5/../../../../arm-none-eabi/lib/libopencm3_stm32.a(rcc.o)
 .debug_frame   0x00003e24      0x100 /opt/paparazzi/arm-multilib/lib/gcc/arm-none-eabi/4.4.5/../../../../arm-none-eabi/lib/libopencm3_stm32.a(usart.o)
 .debug_frame   0x00003f24      0x198 /opt/paparazzi/arm-multilib/lib/gcc/arm-none-eabi/4.4.5/../../../../arm-none-eabi/lib/libopencm3_stm32.a(flash.o)
 .debug_frame   0x000040bc       0x20 /opt/paparazzi/arm-multilib/lib/gcc/arm-none-eabi/4.4.5/../../../../arm-none-eabi/lib/thumb2/libc.a(lib_a-errno.o)

.debug_str      0x00000000     0x881b
 *(.debug_str)
 .debug_str     0x00000000      0x1dc /home/woz/lisa-m-team4938/paparazzi/var/ECE_2012/ap/mcu.o
                                0x23a (size before relaxing)
 .debug_str     0x000001dc       0x4f /home/woz/lisa-m-team4938/paparazzi/var/ECE_2012/ap/arch/stm32/mcu_arch.o
                                0x124 (size before relaxing)
 .debug_str     0x0000022b       0x14 /home/woz/lisa-m-team4938/paparazzi/var/ECE_2012/ap/arch/stm32/led_hw.o
                                 0xf2 (size before relaxing)
 .debug_str     0x0000023f       0x4e /home/woz/lisa-m-team4938/paparazzi/var/ECE_2012/ap/sys_time.o
                                0x13e (size before relaxing)
 .debug_str     0x0000028d       0xec /home/woz/lisa-m-team4938/paparazzi/var/ECE_2012/ap/./inter_mcu.o
                                0x22f (size before relaxing)
 .debug_str     0x00000379      0x1ed /home/woz/lisa-m-team4938/paparazzi/var/ECE_2012/ap/math/pprz_geodetic_int.o
                                0x2d8 (size before relaxing)
 .debug_str     0x00000566      0x27e /home/woz/lisa-m-team4938/paparazzi/var/ECE_2012/ap/math/pprz_geodetic_float.o
                                0x3d2 (size before relaxing)
 .debug_str     0x000007e4      0x17b /home/woz/lisa-m-team4938/paparazzi/var/ECE_2012/ap/math/pprz_geodetic_double.o
                                0x348 (size before relaxing)
 .debug_str     0x0000095f       0x23 /home/woz/lisa-m-team4938/paparazzi/var/ECE_2012/ap/math/pprz_trig_int.o
                                0x109 (size before relaxing)
 .debug_str     0x00000982      0x2a8 /home/woz/lisa-m-team4938/paparazzi/var/ECE_2012/ap/mcu_periph/i2c.o
                                0x3cd (size before relaxing)
 .debug_str     0x00000c2a      0x729 /home/woz/lisa-m-team4938/paparazzi/var/ECE_2012/ap/arch/stm32/mcu_periph/i2c_arch.o
                                0xc25 (size before relaxing)
 .debug_str     0x00001353      0x33f /home/woz/lisa-m-team4938/paparazzi/var/ECE_2012/ap/firmwares/fixedwing/main_fbw.o
                                0x5c8 (size before relaxing)
 .debug_str     0x00001692       0x77 /home/woz/lisa-m-team4938/paparazzi/var/ECE_2012/ap/subsystems/electrical.o
                                0x1c9 (size before relaxing)
 .debug_str     0x00001709        0xb /home/woz/lisa-m-team4938/paparazzi/var/ECE_2012/ap/./commands.o
                                0x11a (size before relaxing)
 .debug_str     0x00001714      0xb61 /home/woz/lisa-m-team4938/paparazzi/var/ECE_2012/ap/firmwares/fixedwing/main_ap.o
                               0x12fa (size before relaxing)
 .debug_str     0x00002275      0x139 /home/woz/lisa-m-team4938/paparazzi/var/ECE_2012/ap/./estimator.o
                                0x98b (size before relaxing)
 .debug_str     0x000023ae       0x80 /home/woz/lisa-m-team4938/paparazzi/var/ECE_2012/ap/arch/stm32/stm32_exceptions.o
                                 0xbc (size before relaxing)
 .debug_str     0x0000242e       0xf1 /home/woz/lisa-m-team4938/paparazzi/var/ECE_2012/ap/arch/stm32/stm32_vector_table.o
                                0x224 (size before relaxing)
 .debug_str     0x0000251f       0x4c /home/woz/lisa-m-team4938/paparazzi/var/ECE_2012/ap/lisa/plug_sys.o
                                0x133 (size before relaxing)
 .debug_str     0x0000256b       0x20 /home/woz/lisa-m-team4938/paparazzi/var/ECE_2012/ap/firmwares/fixedwing/main.o
                                0x16f (size before relaxing)
 .debug_str     0x0000258b       0x9d /home/woz/lisa-m-team4938/paparazzi/var/ECE_2012/ap/arch/stm32/sys_time_hw.o
                                0x60c (size before relaxing)
 .debug_str     0x00002628       0x39 /home/woz/lisa-m-team4938/paparazzi/var/ECE_2012/ap/mcu_periph/uart.o
                                0x1b1 (size before relaxing)
 .debug_str     0x00002661      0x135 /home/woz/lisa-m-team4938/paparazzi/var/ECE_2012/ap/arch/stm32/mcu_periph/uart_arch.o
                                0x84f (size before relaxing)
 .debug_str     0x00002796       0x67 /home/woz/lisa-m-team4938/paparazzi/var/ECE_2012/ap/subsystems/settings.o
                                0x466 (size before relaxing)
 .debug_str     0x000027fd       0xb8 /home/woz/lisa-m-team4938/paparazzi/var/ECE_2012/ap/arch/stm32/subsystems/settings_arch.o
                                0x4c1 (size before relaxing)
 .debug_str     0x000028b5      0x36a /home/woz/lisa-m-team4938/paparazzi/var/ECE_2012/ap/arch/stm32/mcu_periph/adc_arch.o
                                0xa43 (size before relaxing)
 .debug_str     0x00002c1f       0x2d /home/woz/lisa-m-team4938/paparazzi/var/ECE_2012/ap/arch/stm32/servos_direct_hw.o
                                0x128 (size before relaxing)
 .debug_str     0x00002c4c        0xc /home/woz/lisa-m-team4938/paparazzi/var/ECE_2012/ap/actuators.o
                                 0xfd (size before relaxing)
 .debug_str     0x00002c58      0x108 /home/woz/lisa-m-team4938/paparazzi/var/ECE_2012/ap/firmwares/rotorcraft/actuators/arch/stm32/actuators_pwm_arch.o
                                0x4d9 (size before relaxing)
 .debug_str     0x00002d60       0x1b /home/woz/lisa-m-team4938/paparazzi/var/ECE_2012/ap/subsystems/radio_control.o
                                0x171 (size before relaxing)
 .debug_str     0x00002d7b       0x37 /home/woz/lisa-m-team4938/paparazzi/var/ECE_2012/ap/subsystems/radio_control/ppm.o
                                0x1bc (size before relaxing)
 .debug_str     0x00002db2      0x100 /home/woz/lisa-m-team4938/paparazzi/var/ECE_2012/ap/arch/stm32/subsystems/radio_control/ppm_arch.o
                                0x9cd (size before relaxing)
 .debug_str     0x00002eb2        0xb /home/woz/lisa-m-team4938/paparazzi/var/ECE_2012/ap/downlink.o
                                0x171 (size before relaxing)
 .debug_str     0x00002ebd       0x11 /home/woz/lisa-m-team4938/paparazzi/var/ECE_2012/ap/pprz_transport.o
                                0x168 (size before relaxing)
 .debug_str     0x00002ece       0x8b /home/woz/lisa-m-team4938/paparazzi/var/ECE_2012/ap/firmwares/fixedwing/datalink.o
                                0xb25 (size before relaxing)
 .debug_str     0x00002f59      0x2cd /home/woz/lisa-m-team4938/paparazzi/var/ECE_2012/ap/firmwares/fixedwing/stabilization/stabilization_attitude.o
                                0x59a (size before relaxing)
 .debug_str     0x00003226      0x23f /home/woz/lisa-m-team4938/paparazzi/var/ECE_2012/ap/firmwares/fixedwing/guidance/guidance_v.o
                                0x550 (size before relaxing)
 .debug_str     0x00003465      0x1a1 /home/woz/lisa-m-team4938/paparazzi/var/ECE_2012/ap/subsystems/imu.o
                                0x7eb (size before relaxing)
 .debug_str     0x00003606       0x82 /home/woz/lisa-m-team4938/paparazzi/var/ECE_2012/ap/subsystems/imu/imu_aspirin.o
                                0x6e3 (size before relaxing)
 .debug_str     0x00003688      0x396 /home/woz/lisa-m-team4938/paparazzi/var/ECE_2012/ap/arch/stm32/subsystems/imu/imu_aspirin_arch.o
                                0xf66 (size before relaxing)
 .debug_str     0x00003a1e       0x5a /home/woz/lisa-m-team4938/paparazzi/var/ECE_2012/ap/peripherals/hmc5843.o
                                0x46d (size before relaxing)
 .debug_str     0x00003a78       0x5f /home/woz/lisa-m-team4938/paparazzi/var/ECE_2012/ap/arch/stm32/peripherals/hmc5843_arch.o
                                0x287 (size before relaxing)
 .debug_str     0x00003ad7       0x60 /home/woz/lisa-m-team4938/paparazzi/var/ECE_2012/ap/subsystems/ahrs.o
                                0x233 (size before relaxing)
 .debug_str     0x00003b37       0x8b /home/woz/lisa-m-team4938/paparazzi/var/ECE_2012/ap/subsystems/ahrs/ahrs_aligner.o
                                0x6cc (size before relaxing)
 .debug_str     0x00003bc2      0x36b /home/woz/lisa-m-team4938/paparazzi/var/ECE_2012/ap/subsystems/ahrs/ahrs_float_dcm.o
                                0xd22 (size before relaxing)
 .debug_str     0x00003f2d       0x73 /home/woz/lisa-m-team4938/paparazzi/var/ECE_2012/ap/subsystems/gps/gps_ubx.o
                                0x3cb (size before relaxing)
 .debug_str     0x00003fa0       0x1a /home/woz/lisa-m-team4938/paparazzi/var/ECE_2012/ap/subsystems/gps.o
                                0x21f (size before relaxing)
 .debug_str     0x00003fba      0x4b9 /home/woz/lisa-m-team4938/paparazzi/var/ECE_2012/ap/subsystems/nav.o
                                0xbc3 (size before relaxing)
 .debug_str     0x00004473       0x5f /home/woz/lisa-m-team4938/paparazzi/var/ECE_2012/ap/subsystems/navigation/common_flight_plan.o
                                0x178 (size before relaxing)
 .debug_str     0x000044d2       0x43 /home/woz/lisa-m-team4938/paparazzi/var/ECE_2012/ap/subsystems/navigation/traffic_info.o
                                0x168 (size before relaxing)
 .debug_str     0x00004515       0xc0 /home/woz/lisa-m-team4938/paparazzi/var/ECE_2012/ap/subsystems/navigation/nav_survey_rectangle.o
                                0x2d0 (size before relaxing)
 .debug_str     0x000045d5       0xc8 /home/woz/lisa-m-team4938/paparazzi/var/ECE_2012/ap/subsystems/navigation/nav_line.o
                                0x245 (size before relaxing)
 .debug_str     0x0000469d       0xc6 /opt/paparazzi/arm-multilib/lib/gcc/arm-none-eabi/4.4.5/../../../../arm-none-eabi/lib/thumb2/libc.a(lib_a-memcpy.o)
                                0x162 (size before relaxing)
 .debug_str     0x00004763       0xf1 /opt/paparazzi/arm-multilib/lib/gcc/arm-none-eabi/4.4.5/../../../../arm-none-eabi/lib/thumb2/libm.a(lib_a-s_atan.o)
                                0x1aa (size before relaxing)
 .debug_str     0x00004854       0x4b /opt/paparazzi/arm-multilib/lib/gcc/arm-none-eabi/4.4.5/../../../../arm-none-eabi/lib/thumb2/libm.a(lib_a-s_cos.o)
                                0x191 (size before relaxing)
 .debug_str     0x0000489f       0x5b /opt/paparazzi/arm-multilib/lib/gcc/arm-none-eabi/4.4.5/../../../../arm-none-eabi/lib/thumb2/libm.a(lib_a-s_fabs.o)
                                0x192 (size before relaxing)
 .debug_str     0x000048fa       0xc0 /opt/paparazzi/arm-multilib/lib/gcc/arm-none-eabi/4.4.5/../../../../arm-none-eabi/lib/thumb2/libm.a(lib_a-s_rint.o)
                                0x1ab (size before relaxing)
 .debug_str     0x000049ba       0x4b /opt/paparazzi/arm-multilib/lib/gcc/arm-none-eabi/4.4.5/../../../../arm-none-eabi/lib/thumb2/libm.a(lib_a-s_sin.o)
                                0x191 (size before relaxing)
 .debug_str     0x00004a05       0x4b /opt/paparazzi/arm-multilib/lib/gcc/arm-none-eabi/4.4.5/../../../../arm-none-eabi/lib/thumb2/libm.a(lib_a-s_tan.o)
                                0x191 (size before relaxing)
 .debug_str     0x00004a50       0x6e /opt/paparazzi/arm-multilib/lib/gcc/arm-none-eabi/4.4.5/../../../../arm-none-eabi/lib/thumb2/libm.a(lib_a-sf_atan.o)
                                0x1aa (size before relaxing)
 .debug_str     0x00004abe       0x4c /opt/paparazzi/arm-multilib/lib/gcc/arm-none-eabi/4.4.5/../../../../arm-none-eabi/lib/thumb2/libm.a(lib_a-sf_cos.o)
                                0x164 (size before relaxing)
 .debug_str     0x00004b0a       0x53 /opt/paparazzi/arm-multilib/lib/gcc/arm-none-eabi/4.4.5/../../../../arm-none-eabi/lib/thumb2/libm.a(lib_a-sf_fabs.o)
                                0x167 (size before relaxing)
 .debug_str     0x00004b5d       0x4c /opt/paparazzi/arm-multilib/lib/gcc/arm-none-eabi/4.4.5/../../../../arm-none-eabi/lib/thumb2/libm.a(lib_a-sf_sin.o)
                                0x164 (size before relaxing)
 .debug_str     0x00004ba9       0xbd /opt/paparazzi/arm-multilib/lib/gcc/arm-none-eabi/4.4.5/../../../../arm-none-eabi/lib/thumb2/libm.a(lib_a-w_asin.o)
                                0x1da (size before relaxing)
 .debug_str     0x00004c66       0x4d /opt/paparazzi/arm-multilib/lib/gcc/arm-none-eabi/4.4.5/../../../../arm-none-eabi/lib/thumb2/libm.a(lib_a-w_atan2.o)
                                0x15c (size before relaxing)
 .debug_str     0x00004cb3       0x4c /opt/paparazzi/arm-multilib/lib/gcc/arm-none-eabi/4.4.5/../../../../arm-none-eabi/lib/thumb2/libm.a(lib_a-w_cosh.o)
                                0x1da (size before relaxing)
 .debug_str     0x00004cff       0x63 /opt/paparazzi/arm-multilib/lib/gcc/arm-none-eabi/4.4.5/../../../../arm-none-eabi/lib/thumb2/libm.a(lib_a-w_exp.o)
                                0x1ec (size before relaxing)
 .debug_str     0x00004d62       0x4b /opt/paparazzi/arm-multilib/lib/gcc/arm-none-eabi/4.4.5/../../../../arm-none-eabi/lib/thumb2/libm.a(lib_a-w_log.o)
                                0x1d4 (size before relaxing)
 .debug_str     0x00004dad       0x4b /opt/paparazzi/arm-multilib/lib/gcc/arm-none-eabi/4.4.5/../../../../arm-none-eabi/lib/thumb2/libm.a(lib_a-w_pow.o)
                                0x1d4 (size before relaxing)
 .debug_str     0x00004df8       0x4c /opt/paparazzi/arm-multilib/lib/gcc/arm-none-eabi/4.4.5/../../../../arm-none-eabi/lib/thumb2/libm.a(lib_a-w_sinh.o)
                                0x1da (size before relaxing)
 .debug_str     0x00004e44       0x4c /opt/paparazzi/arm-multilib/lib/gcc/arm-none-eabi/4.4.5/../../../../arm-none-eabi/lib/thumb2/libm.a(lib_a-w_sqrt.o)
                                0x1da (size before relaxing)
 .debug_str     0x00004e90       0x4d /opt/paparazzi/arm-multilib/lib/gcc/arm-none-eabi/4.4.5/../../../../arm-none-eabi/lib/thumb2/libm.a(lib_a-wf_asin.o)
                                0x1dc (size before relaxing)
 .debug_str     0x00004edd       0x4e /opt/paparazzi/arm-multilib/lib/gcc/arm-none-eabi/4.4.5/../../../../arm-none-eabi/lib/thumb2/libm.a(lib_a-wf_atan2.o)
                                0x15e (size before relaxing)
 .debug_str     0x00004f2b       0x4c /opt/paparazzi/arm-multilib/lib/gcc/arm-none-eabi/4.4.5/../../../../arm-none-eabi/lib/thumb2/libm.a(lib_a-wf_pow.o)
                                0x1da (size before relaxing)
 .debug_str     0x00004f77       0x4d /opt/paparazzi/arm-multilib/lib/gcc/arm-none-eabi/4.4.5/../../../../arm-none-eabi/lib/thumb2/libm.a(lib_a-wf_sqrt.o)
                                0x1dc (size before relaxing)
 .debug_str     0x00004fc4       0x78 /opt/paparazzi/arm-multilib/lib/gcc/arm-none-eabi/4.4.5/../../../../arm-none-eabi/lib/thumb2/libm.a(lib_a-e_asin.o)
                                0x1c3 (size before relaxing)
 .debug_str     0x0000503c       0x7b /opt/paparazzi/arm-multilib/lib/gcc/arm-none-eabi/4.4.5/../../../../arm-none-eabi/lib/thumb2/libm.a(lib_a-e_atan2.o)
                                0x1c6 (size before relaxing)
 .debug_str     0x000050b7       0x60 /opt/paparazzi/arm-multilib/lib/gcc/arm-none-eabi/4.4.5/../../../../arm-none-eabi/lib/thumb2/libm.a(lib_a-e_cosh.o)
                                0x183 (size before relaxing)
 .debug_str     0x00005117       0x7a /opt/paparazzi/arm-multilib/lib/gcc/arm-none-eabi/4.4.5/../../../../arm-none-eabi/lib/thumb2/libm.a(lib_a-e_exp.o)
                                0x1dd (size before relaxing)
 .debug_str     0x00005191       0x72 /opt/paparazzi/arm-multilib/lib/gcc/arm-none-eabi/4.4.5/../../../../arm-none-eabi/lib/thumb2/libm.a(lib_a-e_log.o)
                                0x1c7 (size before relaxing)
 .debug_str     0x00005203       0x9c /opt/paparazzi/arm-multilib/lib/gcc/arm-none-eabi/4.4.5/../../../../arm-none-eabi/lib/thumb2/libm.a(lib_a-e_pow.o)
                                0x200 (size before relaxing)
 .debug_str     0x0000529f       0xb3 /opt/paparazzi/arm-multilib/lib/gcc/arm-none-eabi/4.4.5/../../../../arm-none-eabi/lib/thumb2/libm.a(lib_a-e_rem_pio2.o)
                                0x20d (size before relaxing)
 .debug_str     0x00005352       0x61 /opt/paparazzi/arm-multilib/lib/gcc/arm-none-eabi/4.4.5/../../../../arm-none-eabi/lib/thumb2/libm.a(lib_a-e_sinh.o)
                                0x17f (size before relaxing)
 .debug_str     0x000053b3       0x5b /opt/paparazzi/arm-multilib/lib/gcc/arm-none-eabi/4.4.5/../../../../arm-none-eabi/lib/thumb2/libm.a(lib_a-e_sqrt.o)
                                0x1b0 (size before relaxing)
 .debug_str     0x0000540e       0x5d /opt/paparazzi/arm-multilib/lib/gcc/arm-none-eabi/4.4.5/../../../../arm-none-eabi/lib/thumb2/libm.a(lib_a-ef_asin.o)
                                0x1be (size before relaxing)
 .debug_str     0x0000546b       0x5f /opt/paparazzi/arm-multilib/lib/gcc/arm-none-eabi/4.4.5/../../../../arm-none-eabi/lib/thumb2/libm.a(lib_a-ef_atan2.o)
                                0x190 (size before relaxing)
 .debug_str     0x000054ca       0x60 /opt/paparazzi/arm-multilib/lib/gcc/arm-none-eabi/4.4.5/../../../../arm-none-eabi/lib/thumb2/libm.a(lib_a-ef_pow.o)
                                0x1f6 (size before relaxing)
 .debug_str     0x0000552a       0x6a /opt/paparazzi/arm-multilib/lib/gcc/arm-none-eabi/4.4.5/../../../../arm-none-eabi/lib/thumb2/libm.a(lib_a-ef_rem_pio2.o)
                                0x207 (size before relaxing)
 .debug_str     0x00005594       0x5d /opt/paparazzi/arm-multilib/lib/gcc/arm-none-eabi/4.4.5/../../../../arm-none-eabi/lib/thumb2/libm.a(lib_a-ef_sqrt.o)
                                0x180 (size before relaxing)
 .debug_str     0x000055f1       0x58 /opt/paparazzi/arm-multilib/lib/gcc/arm-none-eabi/4.4.5/../../../../arm-none-eabi/lib/thumb2/libm.a(lib_a-k_cos.o)
                                0x19e (size before relaxing)
 .debug_str     0x00005649       0x91 /opt/paparazzi/arm-multilib/lib/gcc/arm-none-eabi/4.4.5/../../../../arm-none-eabi/lib/thumb2/libm.a(lib_a-k_rem_pio2.o)
                                0x1af (size before relaxing)
 .debug_str     0x000056da       0x58 /opt/paparazzi/arm-multilib/lib/gcc/arm-none-eabi/4.4.5/../../../../arm-none-eabi/lib/thumb2/libm.a(lib_a-k_sin.o)
                                0x170 (size before relaxing)
 .debug_str     0x00005732       0x64 /opt/paparazzi/arm-multilib/lib/gcc/arm-none-eabi/4.4.5/../../../../arm-none-eabi/lib/thumb2/libm.a(lib_a-k_tan.o)
                                0x1af (size before relaxing)
 .debug_str     0x00005796       0x5a /opt/paparazzi/arm-multilib/lib/gcc/arm-none-eabi/4.4.5/../../../../arm-none-eabi/lib/thumb2/libm.a(lib_a-kf_cos.o)
                                0x16d (size before relaxing)
 .debug_str     0x000057f0       0x6a /opt/paparazzi/arm-multilib/lib/gcc/arm-none-eabi/4.4.5/../../../../arm-none-eabi/lib/thumb2/libm.a(lib_a-kf_rem_pio2.o)
                                0x1af (size before relaxing)
 .debug_str     0x0000585a       0x5a /opt/paparazzi/arm-multilib/lib/gcc/arm-none-eabi/4.4.5/../../../../arm-none-eabi/lib/thumb2/libm.a(lib_a-kf_sin.o)
                                0x172 (size before relaxing)
 .debug_str     0x000058b4       0x55 /opt/paparazzi/arm-multilib/lib/gcc/arm-none-eabi/4.4.5/../../../../arm-none-eabi/lib/thumb2/libm.a(lib_a-s_expm1.o)
                                0x1cd (size before relaxing)
 .debug_str     0x00005909       0x57 /opt/paparazzi/arm-multilib/lib/gcc/arm-none-eabi/4.4.5/../../../../arm-none-eabi/lib/thumb2/libm.a(lib_a-s_finite.o)
                                0x19f (size before relaxing)
 .debug_str     0x00005960       0x53 /opt/paparazzi/arm-multilib/lib/gcc/arm-none-eabi/4.4.5/../../../../arm-none-eabi/lib/thumb2/libm.a(lib_a-s_floor.o)
                                0x1a3 (size before relaxing)
 .debug_str     0x000059b3       0x62 /opt/paparazzi/arm-multilib/lib/gcc/arm-none-eabi/4.4.5/../../../../arm-none-eabi/lib/thumb2/libm.a(lib_a-s_fpclassify.o)
                                0x1a0 (size before relaxing)
 .debug_str     0x00005a15       0x51 /opt/paparazzi/arm-multilib/lib/gcc/arm-none-eabi/4.4.5/../../../../arm-none-eabi/lib/thumb2/libm.a(lib_a-s_lib_ver.o)
                                0x1b7 (size before relaxing)
 .debug_str     0x00005a66       0x59 /opt/paparazzi/arm-multilib/lib/gcc/arm-none-eabi/4.4.5/../../../../arm-none-eabi/lib/thumb2/libm.a(lib_a-s_matherr.o)
                                0x189 (size before relaxing)
 .debug_str     0x00005abf       0x4d /opt/paparazzi/arm-multilib/lib/gcc/arm-none-eabi/4.4.5/../../../../arm-none-eabi/lib/thumb2/libm.a(lib_a-s_nan.o)
                                0x192 (size before relaxing)
 .debug_str     0x00005b0c       0x5e /opt/paparazzi/arm-multilib/lib/gcc/arm-none-eabi/4.4.5/../../../../arm-none-eabi/lib/thumb2/libm.a(lib_a-s_scalbn.o)
                                0x1c0 (size before relaxing)
 .debug_str     0x00005b6a       0x59 /opt/paparazzi/arm-multilib/lib/gcc/arm-none-eabi/4.4.5/../../../../arm-none-eabi/lib/thumb2/libm.a(lib_a-sf_finite.o)
                                0x19f (size before relaxing)
 .debug_str     0x00005bc3       0x55 /opt/paparazzi/arm-multilib/lib/gcc/arm-none-eabi/4.4.5/../../../../arm-none-eabi/lib/thumb2/libm.a(lib_a-sf_floor.o)
                                0x178 (size before relaxing)
 .debug_str     0x00005c18       0x63 /opt/paparazzi/arm-multilib/lib/gcc/arm-none-eabi/4.4.5/../../../../arm-none-eabi/lib/thumb2/libm.a(lib_a-sf_fpclassify.o)
                                0x179 (size before relaxing)
 .debug_str     0x00005c7b       0x53 /opt/paparazzi/arm-multilib/lib/gcc/arm-none-eabi/4.4.5/../../../../arm-none-eabi/lib/thumb2/libm.a(lib_a-sf_nan.o)
                                0x165 (size before relaxing)
 .debug_str     0x00005cce       0x66 /opt/paparazzi/arm-multilib/lib/gcc/arm-none-eabi/4.4.5/../../../../arm-none-eabi/lib/thumb2/libm.a(lib_a-sf_scalbn.o)
                                0x1b6 (size before relaxing)
 .debug_str     0x00005d34       0x5b /opt/paparazzi/arm-multilib/lib/gcc/arm-none-eabi/4.4.5/../../../../arm-none-eabi/lib/thumb2/libm.a(lib_a-s_copysign.o)
                                0x19e (size before relaxing)
 .debug_str     0x00005d8f       0x5d /opt/paparazzi/arm-multilib/lib/gcc/arm-none-eabi/4.4.5/../../../../arm-none-eabi/lib/thumb2/libm.a(lib_a-sf_copysign.o)
                                0x173 (size before relaxing)
 .debug_str     0x00005dec      0x49d /opt/paparazzi/arm-multilib/lib/gcc/arm-none-eabi/4.4.5/../../../../arm-none-eabi/lib/libstm32.a(stm32_adc.o)
                                0x65b (size before relaxing)
 .debug_str     0x00006289      0x948 /opt/paparazzi/arm-multilib/lib/gcc/arm-none-eabi/4.4.5/../../../../arm-none-eabi/lib/libstm32.a(stm32_tim.o)
                                0xd2f (size before relaxing)
 .debug_str     0x00006bd1       0xe7 /opt/paparazzi/arm-multilib/lib/gcc/arm-none-eabi/4.4.5/../../../../arm-none-eabi/lib/libstm32.a(stm32_dma.o)
                                0x2ea (size before relaxing)
 .debug_str     0x00006cb8      0x1dc /opt/paparazzi/arm-multilib/lib/gcc/arm-none-eabi/4.4.5/../../../../arm-none-eabi/lib/libstm32.a(stm32_gpio.o)
                                0x426 (size before relaxing)
 .debug_str     0x00006e94      0x3b1 /opt/paparazzi/arm-multilib/lib/gcc/arm-none-eabi/4.4.5/../../../../arm-none-eabi/lib/libstm32.a(stm32_usart.o)
                                0x5c3 (size before relaxing)
 .debug_str     0x00007245       0xb6 /opt/paparazzi/arm-multilib/lib/gcc/arm-none-eabi/4.4.5/../../../../arm-none-eabi/lib/libstm32.a(stm32_exti.o)
                                0x2b1 (size before relaxing)
 .debug_str     0x000072fb      0x2db /opt/paparazzi/arm-multilib/lib/gcc/arm-none-eabi/4.4.5/../../../../arm-none-eabi/lib/libstm32.a(stm32_i2c.o)
                                0x59e (size before relaxing)
 .debug_str     0x000075d6      0x28e /opt/paparazzi/arm-multilib/lib/gcc/arm-none-eabi/4.4.5/../../../../arm-none-eabi/lib/libstm32.a(stm32_spi.o)
                                0x551 (size before relaxing)
 .debug_str     0x00007864      0x384 /opt/paparazzi/arm-multilib/lib/gcc/arm-none-eabi/4.4.5/../../../../arm-none-eabi/lib/libstm32.a(stm32_rcc.o)
                                0x565 (size before relaxing)
 .debug_str     0x00007be8       0xd9 /opt/paparazzi/arm-multilib/lib/gcc/arm-none-eabi/4.4.5/../../../../arm-none-eabi/lib/libstm32.a(stm32_misc.o)
                                0x30d (size before relaxing)
 .debug_str     0x00007cc1      0x39e /opt/paparazzi/arm-multilib/lib/gcc/arm-none-eabi/4.4.5/../../../../arm-none-eabi/lib/libopencm3_stm32.a(rcc.o)
                                0x477 (size before relaxing)
 .debug_str     0x0000805f      0x101 /opt/paparazzi/arm-multilib/lib/gcc/arm-none-eabi/4.4.5/../../../../arm-none-eabi/lib/libopencm3_stm32.a(usart.o)
                                0x256 (size before relaxing)
 .debug_str     0x00008160      0x1d6 /opt/paparazzi/arm-multilib/lib/gcc/arm-none-eabi/4.4.5/../../../../arm-none-eabi/lib/libopencm3_stm32.a(flash.o)
                                0x2d8 (size before relaxing)
 .debug_str     0x00008336      0x41d /opt/paparazzi/arm-multilib/lib/gcc/arm-none-eabi/4.4.5/../../../../arm-none-eabi/lib/thumb2/libc.a(lib_a-errno.o)
                                0x500 (size before relaxing)
 .debug_str     0x00008753       0xc8 /opt/paparazzi/arm-multilib/lib/gcc/arm-none-eabi/4.4.5/../../../../arm-none-eabi/lib/thumb2/libc.a(lib_a-impure.o)
                                0x518 (size before relaxing)

.debug_loc      0x00000000     0xe55d
 *(.debug_loc)
 .debug_loc     0x00000000       0x1f /home/woz/lisa-m-team4938/paparazzi/var/ECE_2012/ap/mcu.o
 .debug_loc     0x0000001f       0x1f /home/woz/lisa-m-team4938/paparazzi/var/ECE_2012/ap/arch/stm32/mcu_arch.o
 .debug_loc     0x0000003e      0x67a /home/woz/lisa-m-team4938/paparazzi/var/ECE_2012/ap/math/pprz_geodetic_int.o
 .debug_loc     0x000006b8      0x7a5 /home/woz/lisa-m-team4938/paparazzi/var/ECE_2012/ap/math/pprz_geodetic_float.o
 .debug_loc     0x00000e5d      0x68f /home/woz/lisa-m-team4938/paparazzi/var/ECE_2012/ap/math/pprz_geodetic_double.o
 .debug_loc     0x000014ec       0x1f /home/woz/lisa-m-team4938/paparazzi/var/ECE_2012/ap/mcu_periph/i2c.o
 .debug_loc     0x0000150b      0x30b /home/woz/lisa-m-team4938/paparazzi/var/ECE_2012/ap/arch/stm32/mcu_periph/i2c_arch.o
 .debug_loc     0x00001816      0x41b /home/woz/lisa-m-team4938/paparazzi/var/ECE_2012/ap/firmwares/fixedwing/main_fbw.o
 .debug_loc     0x00001c31       0x3e /home/woz/lisa-m-team4938/paparazzi/var/ECE_2012/ap/subsystems/electrical.o
 .debug_loc     0x00001c6f     0x328a /home/woz/lisa-m-team4938/paparazzi/var/ECE_2012/ap/firmwares/fixedwing/main_ap.o
 .debug_loc     0x00004ef9       0x92 /home/woz/lisa-m-team4938/paparazzi/var/ECE_2012/ap/./estimator.o
 .debug_loc     0x00004f8b       0x32 /home/woz/lisa-m-team4938/paparazzi/var/ECE_2012/ap/arch/stm32/stm32_vector_table.o
 .debug_loc     0x00004fbd       0x72 /home/woz/lisa-m-team4938/paparazzi/var/ECE_2012/ap/lisa/plug_sys.o
 .debug_loc     0x0000502f       0x1f /home/woz/lisa-m-team4938/paparazzi/var/ECE_2012/ap/firmwares/fixedwing/main.o
 .debug_loc     0x0000504e       0x32 /home/woz/lisa-m-team4938/paparazzi/var/ECE_2012/ap/arch/stm32/sys_time_hw.o
 .debug_loc     0x00005080       0x3c /home/woz/lisa-m-team4938/paparazzi/var/ECE_2012/ap/mcu_periph/uart.o
 .debug_loc     0x000050bc      0x17a /home/woz/lisa-m-team4938/paparazzi/var/ECE_2012/ap/arch/stm32/mcu_periph/uart_arch.o
 .debug_loc     0x00005236      0x1d7 /home/woz/lisa-m-team4938/paparazzi/var/ECE_2012/ap/arch/stm32/subsystems/settings_arch.o
 .debug_loc     0x0000540d       0x7c /home/woz/lisa-m-team4938/paparazzi/var/ECE_2012/ap/arch/stm32/mcu_periph/adc_arch.o
 .debug_loc     0x00005489       0x4a /home/woz/lisa-m-team4938/paparazzi/var/ECE_2012/ap/firmwares/rotorcraft/actuators/arch/stm32/actuators_pwm_arch.o
 .debug_loc     0x000054d3       0x86 /home/woz/lisa-m-team4938/paparazzi/var/ECE_2012/ap/arch/stm32/subsystems/radio_control/ppm_arch.o
 .debug_loc     0x00005559      0x41d /home/woz/lisa-m-team4938/paparazzi/var/ECE_2012/ap/firmwares/fixedwing/datalink.o
 .debug_loc     0x00005976      0x123 /home/woz/lisa-m-team4938/paparazzi/var/ECE_2012/ap/firmwares/fixedwing/stabilization/stabilization_attitude.o
 .debug_loc     0x00005a99       0xd2 /home/woz/lisa-m-team4938/paparazzi/var/ECE_2012/ap/firmwares/fixedwing/guidance/guidance_v.o
 .debug_loc     0x00005b6b       0xf7 /home/woz/lisa-m-team4938/paparazzi/var/ECE_2012/ap/subsystems/imu.o
 .debug_loc     0x00005c62       0xc4 /home/woz/lisa-m-team4938/paparazzi/var/ECE_2012/ap/subsystems/imu/imu_aspirin.o
 .debug_loc     0x00005d26      0x14e /home/woz/lisa-m-team4938/paparazzi/var/ECE_2012/ap/arch/stm32/subsystems/imu/imu_aspirin_arch.o
 .debug_loc     0x00005e74       0x3e /home/woz/lisa-m-team4938/paparazzi/var/ECE_2012/ap/peripherals/hmc5843.o
 .debug_loc     0x00005eb2       0x3e /home/woz/lisa-m-team4938/paparazzi/var/ECE_2012/ap/arch/stm32/peripherals/hmc5843_arch.o
 .debug_loc     0x00005ef0       0x3d /home/woz/lisa-m-team4938/paparazzi/var/ECE_2012/ap/subsystems/ahrs/ahrs_aligner.o
 .debug_loc     0x00005f2d      0x539 /home/woz/lisa-m-team4938/paparazzi/var/ECE_2012/ap/subsystems/ahrs/ahrs_float_dcm.o
 .debug_loc     0x00006466      0x109 /home/woz/lisa-m-team4938/paparazzi/var/ECE_2012/ap/subsystems/gps/gps_ubx.o
 .debug_loc     0x0000656f      0xa94 /home/woz/lisa-m-team4938/paparazzi/var/ECE_2012/ap/subsystems/nav.o
 .debug_loc     0x00007003       0x13 /home/woz/lisa-m-team4938/paparazzi/var/ECE_2012/ap/subsystems/navigation/common_flight_plan.o
 .debug_loc     0x00007016       0x13 /home/woz/lisa-m-team4938/paparazzi/var/ECE_2012/ap/subsystems/navigation/traffic_info.o
 .debug_loc     0x00007029      0x26a /home/woz/lisa-m-team4938/paparazzi/var/ECE_2012/ap/subsystems/navigation/nav_survey_rectangle.o
 .debug_loc     0x00007293      0x406 /home/woz/lisa-m-team4938/paparazzi/var/ECE_2012/ap/subsystems/navigation/nav_line.o
 .debug_loc     0x00007699      0x276 /opt/paparazzi/arm-multilib/lib/gcc/arm-none-eabi/4.4.5/../../../../arm-none-eabi/lib/thumb2/libm.a(lib_a-s_atan.o)
 .debug_loc     0x0000790f       0xcc /opt/paparazzi/arm-multilib/lib/gcc/arm-none-eabi/4.4.5/../../../../arm-none-eabi/lib/thumb2/libm.a(lib_a-s_cos.o)
 .debug_loc     0x000079db       0x18 /opt/paparazzi/arm-multilib/lib/gcc/arm-none-eabi/4.4.5/../../../../arm-none-eabi/lib/thumb2/libm.a(lib_a-s_fabs.o)
 .debug_loc     0x000079f3      0x256 /opt/paparazzi/arm-multilib/lib/gcc/arm-none-eabi/4.4.5/../../../../arm-none-eabi/lib/thumb2/libm.a(lib_a-s_rint.o)
 .debug_loc     0x00007c49       0xcc /opt/paparazzi/arm-multilib/lib/gcc/arm-none-eabi/4.4.5/../../../../arm-none-eabi/lib/thumb2/libm.a(lib_a-s_sin.o)
 .debug_loc     0x00007d15       0xcc /opt/paparazzi/arm-multilib/lib/gcc/arm-none-eabi/4.4.5/../../../../arm-none-eabi/lib/thumb2/libm.a(lib_a-s_tan.o)
 .debug_loc     0x00007de1      0x131 /opt/paparazzi/arm-multilib/lib/gcc/arm-none-eabi/4.4.5/../../../../arm-none-eabi/lib/thumb2/libm.a(lib_a-sf_atan.o)
 .debug_loc     0x00007f12       0xa8 /opt/paparazzi/arm-multilib/lib/gcc/arm-none-eabi/4.4.5/../../../../arm-none-eabi/lib/thumb2/libm.a(lib_a-sf_cos.o)
 .debug_loc     0x00007fba       0x13 /opt/paparazzi/arm-multilib/lib/gcc/arm-none-eabi/4.4.5/../../../../arm-none-eabi/lib/thumb2/libm.a(lib_a-sf_fabs.o)
 .debug_loc     0x00007fcd       0xa8 /opt/paparazzi/arm-multilib/lib/gcc/arm-none-eabi/4.4.5/../../../../arm-none-eabi/lib/thumb2/libm.a(lib_a-sf_sin.o)
 .debug_loc     0x00008075       0x8c /opt/paparazzi/arm-multilib/lib/gcc/arm-none-eabi/4.4.5/../../../../arm-none-eabi/lib/thumb2/libm.a(lib_a-w_asin.o)
 .debug_loc     0x00008101       0x30 /opt/paparazzi/arm-multilib/lib/gcc/arm-none-eabi/4.4.5/../../../../arm-none-eabi/lib/thumb2/libm.a(lib_a-w_atan2.o)
 .debug_loc     0x00008131       0x8c /opt/paparazzi/arm-multilib/lib/gcc/arm-none-eabi/4.4.5/../../../../arm-none-eabi/lib/thumb2/libm.a(lib_a-w_cosh.o)
 .debug_loc     0x000081bd       0x8c /opt/paparazzi/arm-multilib/lib/gcc/arm-none-eabi/4.4.5/../../../../arm-none-eabi/lib/thumb2/libm.a(lib_a-w_exp.o)
 .debug_loc     0x00008249       0x8c /opt/paparazzi/arm-multilib/lib/gcc/arm-none-eabi/4.4.5/../../../../arm-none-eabi/lib/thumb2/libm.a(lib_a-w_log.o)
 .debug_loc     0x000082d5       0xf4 /opt/paparazzi/arm-multilib/lib/gcc/arm-none-eabi/4.4.5/../../../../arm-none-eabi/lib/thumb2/libm.a(lib_a-w_pow.o)
 .debug_loc     0x000083c9       0x8c /opt/paparazzi/arm-multilib/lib/gcc/arm-none-eabi/4.4.5/../../../../arm-none-eabi/lib/thumb2/libm.a(lib_a-w_sinh.o)
 .debug_loc     0x00008455       0x9c /opt/paparazzi/arm-multilib/lib/gcc/arm-none-eabi/4.4.5/../../../../arm-none-eabi/lib/thumb2/libm.a(lib_a-w_sqrt.o)
 .debug_loc     0x000084f1       0x49 /opt/paparazzi/arm-multilib/lib/gcc/arm-none-eabi/4.4.5/../../../../arm-none-eabi/lib/thumb2/libm.a(lib_a-wf_asin.o)
 .debug_loc     0x0000853a       0x26 /opt/paparazzi/arm-multilib/lib/gcc/arm-none-eabi/4.4.5/../../../../arm-none-eabi/lib/thumb2/libm.a(lib_a-wf_atan2.o)
 .debug_loc     0x00008560       0xaa /opt/paparazzi/arm-multilib/lib/gcc/arm-none-eabi/4.4.5/../../../../arm-none-eabi/lib/thumb2/libm.a(lib_a-wf_pow.o)
 .debug_loc     0x0000860a       0x54 /opt/paparazzi/arm-multilib/lib/gcc/arm-none-eabi/4.4.5/../../../../arm-none-eabi/lib/thumb2/libm.a(lib_a-wf_sqrt.o)
 .debug_loc     0x0000865e      0x172 /opt/paparazzi/arm-multilib/lib/gcc/arm-none-eabi/4.4.5/../../../../arm-none-eabi/lib/thumb2/libm.a(lib_a-e_asin.o)
 .debug_loc     0x000087d0      0x358 /opt/paparazzi/arm-multilib/lib/gcc/arm-none-eabi/4.4.5/../../../../arm-none-eabi/lib/thumb2/libm.a(lib_a-e_atan2.o)
 .debug_loc     0x00008b28      0x19e /opt/paparazzi/arm-multilib/lib/gcc/arm-none-eabi/4.4.5/../../../../arm-none-eabi/lib/thumb2/libm.a(lib_a-e_cosh.o)
 .debug_loc     0x00008cc6      0x1eb /opt/paparazzi/arm-multilib/lib/gcc/arm-none-eabi/4.4.5/../../../../arm-none-eabi/lib/thumb2/libm.a(lib_a-e_exp.o)
 .debug_loc     0x00008eb1      0x16a /opt/paparazzi/arm-multilib/lib/gcc/arm-none-eabi/4.4.5/../../../../arm-none-eabi/lib/thumb2/libm.a(lib_a-e_log.o)
 .debug_loc     0x0000901b      0x84a /opt/paparazzi/arm-multilib/lib/gcc/arm-none-eabi/4.4.5/../../../../arm-none-eabi/lib/thumb2/libm.a(lib_a-e_pow.o)
 .debug_loc     0x00009865      0x247 /opt/paparazzi/arm-multilib/lib/gcc/arm-none-eabi/4.4.5/../../../../arm-none-eabi/lib/thumb2/libm.a(lib_a-e_rem_pio2.o)
 .debug_loc     0x00009aac      0x14d /opt/paparazzi/arm-multilib/lib/gcc/arm-none-eabi/4.4.5/../../../../arm-none-eabi/lib/thumb2/libm.a(lib_a-e_sinh.o)
 .debug_loc     0x00009bf9      0x26f /opt/paparazzi/arm-multilib/lib/gcc/arm-none-eabi/4.4.5/../../../../arm-none-eabi/lib/thumb2/libm.a(lib_a-e_sqrt.o)
 .debug_loc     0x00009e68      0x10d /opt/paparazzi/arm-multilib/lib/gcc/arm-none-eabi/4.4.5/../../../../arm-none-eabi/lib/thumb2/libm.a(lib_a-ef_asin.o)
 .debug_loc     0x00009f75      0x1c5 /opt/paparazzi/arm-multilib/lib/gcc/arm-none-eabi/4.4.5/../../../../arm-none-eabi/lib/thumb2/libm.a(lib_a-ef_atan2.o)
 .debug_loc     0x0000a13a      0x461 /opt/paparazzi/arm-multilib/lib/gcc/arm-none-eabi/4.4.5/../../../../arm-none-eabi/lib/thumb2/libm.a(lib_a-ef_pow.o)
 .debug_loc     0x0000a59b      0x1c9 /opt/paparazzi/arm-multilib/lib/gcc/arm-none-eabi/4.4.5/../../../../arm-none-eabi/lib/thumb2/libm.a(lib_a-ef_rem_pio2.o)
 .debug_loc     0x0000a764      0x144 /opt/paparazzi/arm-multilib/lib/gcc/arm-none-eabi/4.4.5/../../../../arm-none-eabi/lib/thumb2/libm.a(lib_a-ef_sqrt.o)
 .debug_loc     0x0000a8a8      0x127 /opt/paparazzi/arm-multilib/lib/gcc/arm-none-eabi/4.4.5/../../../../arm-none-eabi/lib/thumb2/libm.a(lib_a-k_cos.o)
 .debug_loc     0x0000a9cf      0x5bb /opt/paparazzi/arm-multilib/lib/gcc/arm-none-eabi/4.4.5/../../../../arm-none-eabi/lib/thumb2/libm.a(lib_a-k_rem_pio2.o)
 .debug_loc     0x0000af8a       0xcd /opt/paparazzi/arm-multilib/lib/gcc/arm-none-eabi/4.4.5/../../../../arm-none-eabi/lib/thumb2/libm.a(lib_a-k_sin.o)
 .debug_loc     0x0000b057      0x176 /opt/paparazzi/arm-multilib/lib/gcc/arm-none-eabi/4.4.5/../../../../arm-none-eabi/lib/thumb2/libm.a(lib_a-k_tan.o)
 .debug_loc     0x0000b1cd       0xaa /opt/paparazzi/arm-multilib/lib/gcc/arm-none-eabi/4.4.5/../../../../arm-none-eabi/lib/thumb2/libm.a(lib_a-kf_cos.o)
 .debug_loc     0x0000b277      0x511 /opt/paparazzi/arm-multilib/lib/gcc/arm-none-eabi/4.4.5/../../../../arm-none-eabi/lib/thumb2/libm.a(lib_a-kf_rem_pio2.o)
 .debug_loc     0x0000b788       0xad /opt/paparazzi/arm-multilib/lib/gcc/arm-none-eabi/4.4.5/../../../../arm-none-eabi/lib/thumb2/libm.a(lib_a-kf_sin.o)
 .debug_loc     0x0000b835      0x2d6 /opt/paparazzi/arm-multilib/lib/gcc/arm-none-eabi/4.4.5/../../../../arm-none-eabi/lib/thumb2/libm.a(lib_a-s_expm1.o)
 .debug_loc     0x0000bb0b       0x18 /opt/paparazzi/arm-multilib/lib/gcc/arm-none-eabi/4.4.5/../../../../arm-none-eabi/lib/thumb2/libm.a(lib_a-s_finite.o)
 .debug_loc     0x0000bb23      0x1b3 /opt/paparazzi/arm-multilib/lib/gcc/arm-none-eabi/4.4.5/../../../../arm-none-eabi/lib/thumb2/libm.a(lib_a-s_floor.o)
 .debug_loc     0x0000bcd6      0x127 /opt/paparazzi/arm-multilib/lib/gcc/arm-none-eabi/4.4.5/../../../../arm-none-eabi/lib/thumb2/libm.a(lib_a-s_fpclassify.o)
 .debug_loc     0x0000bdfd       0x13 /opt/paparazzi/arm-multilib/lib/gcc/arm-none-eabi/4.4.5/../../../../arm-none-eabi/lib/thumb2/libm.a(lib_a-s_matherr.o)
 .debug_loc     0x0000be10       0x13 /opt/paparazzi/arm-multilib/lib/gcc/arm-none-eabi/4.4.5/../../../../arm-none-eabi/lib/thumb2/libm.a(lib_a-s_nan.o)
 .debug_loc     0x0000be23      0x2a6 /opt/paparazzi/arm-multilib/lib/gcc/arm-none-eabi/4.4.5/../../../../arm-none-eabi/lib/thumb2/libm.a(lib_a-s_scalbn.o)
 .debug_loc     0x0000c0c9       0x13 /opt/paparazzi/arm-multilib/lib/gcc/arm-none-eabi/4.4.5/../../../../arm-none-eabi/lib/thumb2/libm.a(lib_a-sf_finite.o)
 .debug_loc     0x0000c0dc      0x10d /opt/paparazzi/arm-multilib/lib/gcc/arm-none-eabi/4.4.5/../../../../arm-none-eabi/lib/thumb2/libm.a(lib_a-sf_floor.o)
 .debug_loc     0x0000c1e9       0x1e /opt/paparazzi/arm-multilib/lib/gcc/arm-none-eabi/4.4.5/../../../../arm-none-eabi/lib/thumb2/libm.a(lib_a-sf_fpclassify.o)
 .debug_loc     0x0000c207       0x13 /opt/paparazzi/arm-multilib/lib/gcc/arm-none-eabi/4.4.5/../../../../arm-none-eabi/lib/thumb2/libm.a(lib_a-sf_nan.o)
 .debug_loc     0x0000c21a      0x19c /opt/paparazzi/arm-multilib/lib/gcc/arm-none-eabi/4.4.5/../../../../arm-none-eabi/lib/thumb2/libm.a(lib_a-sf_scalbn.o)
 .debug_loc     0x0000c3b6       0x4f /opt/paparazzi/arm-multilib/lib/gcc/arm-none-eabi/4.4.5/../../../../arm-none-eabi/lib/thumb2/libm.a(lib_a-s_copysign.o)
 .debug_loc     0x0000c405       0x26 /opt/paparazzi/arm-multilib/lib/gcc/arm-none-eabi/4.4.5/../../../../arm-none-eabi/lib/thumb2/libm.a(lib_a-sf_copysign.o)
 .debug_loc     0x0000c42b      0x3d8 /opt/paparazzi/arm-multilib/lib/gcc/arm-none-eabi/4.4.5/../../../../arm-none-eabi/lib/libstm32.a(stm32_adc.o)
 .debug_loc     0x0000c803      0xa23 /opt/paparazzi/arm-multilib/lib/gcc/arm-none-eabi/4.4.5/../../../../arm-none-eabi/lib/libstm32.a(stm32_tim.o)
 .debug_loc     0x0000d226       0x89 /opt/paparazzi/arm-multilib/lib/gcc/arm-none-eabi/4.4.5/../../../../arm-none-eabi/lib/libstm32.a(stm32_dma.o)
 .debug_loc     0x0000d2af      0x26c /opt/paparazzi/arm-multilib/lib/gcc/arm-none-eabi/4.4.5/../../../../arm-none-eabi/lib/libstm32.a(stm32_gpio.o)
 .debug_loc     0x0000d51b      0x307 /opt/paparazzi/arm-multilib/lib/gcc/arm-none-eabi/4.4.5/../../../../arm-none-eabi/lib/libstm32.a(stm32_usart.o)
 .debug_loc     0x0000d822       0x6e /opt/paparazzi/arm-multilib/lib/gcc/arm-none-eabi/4.4.5/../../../../arm-none-eabi/lib/libstm32.a(stm32_exti.o)
 .debug_loc     0x0000d890      0x304 /opt/paparazzi/arm-multilib/lib/gcc/arm-none-eabi/4.4.5/../../../../arm-none-eabi/lib/libstm32.a(stm32_i2c.o)
 .debug_loc     0x0000db94      0x2c2 /opt/paparazzi/arm-multilib/lib/gcc/arm-none-eabi/4.4.5/../../../../arm-none-eabi/lib/libstm32.a(stm32_spi.o)
 .debug_loc     0x0000de56      0x1d9 /opt/paparazzi/arm-multilib/lib/gcc/arm-none-eabi/4.4.5/../../../../arm-none-eabi/lib/libstm32.a(stm32_rcc.o)
 .debug_loc     0x0000e02f       0x8b /opt/paparazzi/arm-multilib/lib/gcc/arm-none-eabi/4.4.5/../../../../arm-none-eabi/lib/libstm32.a(stm32_misc.o)
 .debug_loc     0x0000e0ba      0x1af /opt/paparazzi/arm-multilib/lib/gcc/arm-none-eabi/4.4.5/../../../../arm-none-eabi/lib/libopencm3_stm32.a(rcc.o)
 .debug_loc     0x0000e269      0x149 /opt/paparazzi/arm-multilib/lib/gcc/arm-none-eabi/4.4.5/../../../../arm-none-eabi/lib/libopencm3_stm32.a(usart.o)
 .debug_loc     0x0000e3b2      0x1ab /opt/paparazzi/arm-multilib/lib/gcc/arm-none-eabi/4.4.5/../../../../arm-none-eabi/lib/libopencm3_stm32.a(flash.o)

.debug_macinfo
 *(.debug_macinfo)

.debug_weaknames
 *(.debug_weaknames)

.debug_funcnames
 *(.debug_funcnames)

.debug_typenames
 *(.debug_typenames)

.debug_varnames
 *(.debug_varnames)
OUTPUT(/home/woz/lisa-m-team4938/paparazzi/var/ECE_2012/ap/ap.elf elf32-littlearm)

.debug_ranges   0x00000000     0x3c58
 .debug_ranges  0x00000000       0x50 /home/woz/lisa-m-team4938/paparazzi/var/ECE_2012/ap/mcu.o
 .debug_ranges  0x00000050       0x18 /home/woz/lisa-m-team4938/paparazzi/var/ECE_2012/ap/arch/stm32/mcu_arch.o
 .debug_ranges  0x00000068       0x90 /home/woz/lisa-m-team4938/paparazzi/var/ECE_2012/ap/math/pprz_geodetic_int.o
 .debug_ranges  0x000000f8       0xf8 /home/woz/lisa-m-team4938/paparazzi/var/ECE_2012/ap/math/pprz_geodetic_float.o
 .debug_ranges  0x000001f0       0xc8 /home/woz/lisa-m-team4938/paparazzi/var/ECE_2012/ap/math/pprz_geodetic_double.o
 .debug_ranges  0x000002b8       0x20 /home/woz/lisa-m-team4938/paparazzi/var/ECE_2012/ap/mcu_periph/i2c.o
 .debug_ranges  0x000002d8      0x100 /home/woz/lisa-m-team4938/paparazzi/var/ECE_2012/ap/arch/stm32/mcu_periph/i2c_arch.o
 .debug_ranges  0x000003d8      0x260 /home/woz/lisa-m-team4938/paparazzi/var/ECE_2012/ap/firmwares/fixedwing/main_fbw.o
 .debug_ranges  0x00000638       0x20 /home/woz/lisa-m-team4938/paparazzi/var/ECE_2012/ap/subsystems/electrical.o
 .debug_ranges  0x00000658     0x18f0 /home/woz/lisa-m-team4938/paparazzi/var/ECE_2012/ap/firmwares/fixedwing/main_ap.o
 .debug_ranges  0x00001f48       0x40 /home/woz/lisa-m-team4938/paparazzi/var/ECE_2012/ap/./estimator.o
 .debug_ranges  0x00001f88       0x38 /home/woz/lisa-m-team4938/paparazzi/var/ECE_2012/ap/arch/stm32/stm32_exceptions.o
 .debug_ranges  0x00001fc0       0x30 /home/woz/lisa-m-team4938/paparazzi/var/ECE_2012/ap/arch/stm32/stm32_vector_table.o
 .debug_ranges  0x00001ff0       0x50 /home/woz/lisa-m-team4938/paparazzi/var/ECE_2012/ap/lisa/plug_sys.o
 .debug_ranges  0x00002040       0x18 /home/woz/lisa-m-team4938/paparazzi/var/ECE_2012/ap/firmwares/fixedwing/main.o
 .debug_ranges  0x00002058       0x58 /home/woz/lisa-m-team4938/paparazzi/var/ECE_2012/ap/arch/stm32/sys_time_hw.o
 .debug_ranges  0x000020b0       0x20 /home/woz/lisa-m-team4938/paparazzi/var/ECE_2012/ap/mcu_periph/uart.o
 .debug_ranges  0x000020d0       0x50 /home/woz/lisa-m-team4938/paparazzi/var/ECE_2012/ap/arch/stm32/mcu_periph/uart_arch.o
 .debug_ranges  0x00002120       0x20 /home/woz/lisa-m-team4938/paparazzi/var/ECE_2012/ap/subsystems/settings.o
 .debug_ranges  0x00002140       0x30 /home/woz/lisa-m-team4938/paparazzi/var/ECE_2012/ap/arch/stm32/subsystems/settings_arch.o
 .debug_ranges  0x00002170       0xd8 /home/woz/lisa-m-team4938/paparazzi/var/ECE_2012/ap/arch/stm32/mcu_periph/adc_arch.o
 .debug_ranges  0x00002248       0x18 /home/woz/lisa-m-team4938/paparazzi/var/ECE_2012/ap/arch/stm32/servos_direct_hw.o
 .debug_ranges  0x00002260       0x20 /home/woz/lisa-m-team4938/paparazzi/var/ECE_2012/ap/firmwares/rotorcraft/actuators/arch/stm32/actuators_pwm_arch.o
 .debug_ranges  0x00002280       0x18 /home/woz/lisa-m-team4938/paparazzi/var/ECE_2012/ap/subsystems/radio_control/ppm.o
 .debug_ranges  0x00002298       0x40 /home/woz/lisa-m-team4938/paparazzi/var/ECE_2012/ap/arch/stm32/subsystems/radio_control/ppm_arch.o
 .debug_ranges  0x000022d8      0x1a8 /home/woz/lisa-m-team4938/paparazzi/var/ECE_2012/ap/firmwares/fixedwing/datalink.o
 .debug_ranges  0x00002480       0xd0 /home/woz/lisa-m-team4938/paparazzi/var/ECE_2012/ap/firmwares/fixedwing/stabilization/stabilization_attitude.o
 .debug_ranges  0x00002550       0x30 /home/woz/lisa-m-team4938/paparazzi/var/ECE_2012/ap/firmwares/fixedwing/guidance/guidance_v.o
 .debug_ranges  0x00002580      0x118 /home/woz/lisa-m-team4938/paparazzi/var/ECE_2012/ap/subsystems/imu.o
 .debug_ranges  0x00002698       0x30 /home/woz/lisa-m-team4938/paparazzi/var/ECE_2012/ap/subsystems/imu/imu_aspirin.o
 .debug_ranges  0x000026c8       0x58 /home/woz/lisa-m-team4938/paparazzi/var/ECE_2012/ap/arch/stm32/subsystems/imu/imu_aspirin_arch.o
 .debug_ranges  0x00002720       0x28 /home/woz/lisa-m-team4938/paparazzi/var/ECE_2012/ap/peripherals/hmc5843.o
 .debug_ranges  0x00002748       0x28 /home/woz/lisa-m-team4938/paparazzi/var/ECE_2012/ap/arch/stm32/peripherals/hmc5843_arch.o
 .debug_ranges  0x00002770       0x38 /home/woz/lisa-m-team4938/paparazzi/var/ECE_2012/ap/subsystems/ahrs/ahrs_aligner.o
 .debug_ranges  0x000027a8      0x1a0 /home/woz/lisa-m-team4938/paparazzi/var/ECE_2012/ap/subsystems/ahrs/ahrs_float_dcm.o
 .debug_ranges  0x00002948      0x1f8 /home/woz/lisa-m-team4938/paparazzi/var/ECE_2012/ap/subsystems/gps/gps_ubx.o
 .debug_ranges  0x00002b40       0x18 /home/woz/lisa-m-team4938/paparazzi/var/ECE_2012/ap/subsystems/gps.o
 .debug_ranges  0x00002b58      0x138 /home/woz/lisa-m-team4938/paparazzi/var/ECE_2012/ap/subsystems/nav.o
 .debug_ranges  0x00002c90       0x20 /home/woz/lisa-m-team4938/paparazzi/var/ECE_2012/ap/subsystems/navigation/common_flight_plan.o
 .debug_ranges  0x00002cb0       0x20 /home/woz/lisa-m-team4938/paparazzi/var/ECE_2012/ap/subsystems/navigation/traffic_info.o
 .debug_ranges  0x00002cd0       0x20 /home/woz/lisa-m-team4938/paparazzi/var/ECE_2012/ap/subsystems/navigation/nav_survey_rectangle.o
 .debug_ranges  0x00002cf0       0x20 /home/woz/lisa-m-team4938/paparazzi/var/ECE_2012/ap/subsystems/navigation/nav_line.o
 .debug_ranges  0x00002d10       0x80 /opt/paparazzi/arm-multilib/lib/gcc/arm-none-eabi/4.4.5/../../../../arm-none-eabi/lib/thumb2/libm.a(lib_a-s_rint.o)
 .debug_ranges  0x00002d90       0x18 /opt/paparazzi/arm-multilib/lib/gcc/arm-none-eabi/4.4.5/../../../../arm-none-eabi/lib/thumb2/libm.a(lib_a-e_asin.o)
 .debug_ranges  0x00002da8       0x30 /opt/paparazzi/arm-multilib/lib/gcc/arm-none-eabi/4.4.5/../../../../arm-none-eabi/lib/thumb2/libm.a(lib_a-e_atan2.o)
 .debug_ranges  0x00002dd8       0x18 /opt/paparazzi/arm-multilib/lib/gcc/arm-none-eabi/4.4.5/../../../../arm-none-eabi/lib/thumb2/libm.a(lib_a-e_exp.o)
 .debug_ranges  0x00002df0       0x18 /opt/paparazzi/arm-multilib/lib/gcc/arm-none-eabi/4.4.5/../../../../arm-none-eabi/lib/thumb2/libm.a(lib_a-e_log.o)
 .debug_ranges  0x00002e08      0x148 /opt/paparazzi/arm-multilib/lib/gcc/arm-none-eabi/4.4.5/../../../../arm-none-eabi/lib/thumb2/libm.a(lib_a-e_pow.o)
 .debug_ranges  0x00002f50       0x18 /opt/paparazzi/arm-multilib/lib/gcc/arm-none-eabi/4.4.5/../../../../arm-none-eabi/lib/thumb2/libm.a(lib_a-e_rem_pio2.o)
 .debug_ranges  0x00002f68       0x18 /opt/paparazzi/arm-multilib/lib/gcc/arm-none-eabi/4.4.5/../../../../arm-none-eabi/lib/thumb2/libm.a(lib_a-e_sqrt.o)
 .debug_ranges  0x00002f80       0x20 /opt/paparazzi/arm-multilib/lib/gcc/arm-none-eabi/4.4.5/../../../../arm-none-eabi/lib/thumb2/libm.a(lib_a-ef_asin.o)
 .debug_ranges  0x00002fa0       0x50 /opt/paparazzi/arm-multilib/lib/gcc/arm-none-eabi/4.4.5/../../../../arm-none-eabi/lib/thumb2/libm.a(lib_a-ef_pow.o)
 .debug_ranges  0x00002ff0       0x30 /opt/paparazzi/arm-multilib/lib/gcc/arm-none-eabi/4.4.5/../../../../arm-none-eabi/lib/thumb2/libm.a(lib_a-k_tan.o)
 .debug_ranges  0x00003020       0x38 /opt/paparazzi/arm-multilib/lib/gcc/arm-none-eabi/4.4.5/../../../../arm-none-eabi/lib/thumb2/libm.a(lib_a-s_expm1.o)
 .debug_ranges  0x00003058       0x30 /opt/paparazzi/arm-multilib/lib/gcc/arm-none-eabi/4.4.5/../../../../arm-none-eabi/lib/thumb2/libm.a(lib_a-s_scalbn.o)
 .debug_ranges  0x00003088       0x18 /opt/paparazzi/arm-multilib/lib/gcc/arm-none-eabi/4.4.5/../../../../arm-none-eabi/lib/thumb2/libm.a(lib_a-s_copysign.o)
 .debug_ranges  0x000030a0      0x130 /opt/paparazzi/arm-multilib/lib/gcc/arm-none-eabi/4.4.5/../../../../arm-none-eabi/lib/libstm32.a(stm32_adc.o)
 .debug_ranges  0x000031d0      0x2d8 /opt/paparazzi/arm-multilib/lib/gcc/arm-none-eabi/4.4.5/../../../../arm-none-eabi/lib/libstm32.a(stm32_tim.o)
 .debug_ranges  0x000034a8       0x60 /opt/paparazzi/arm-multilib/lib/gcc/arm-none-eabi/4.4.5/../../../../arm-none-eabi/lib/libstm32.a(stm32_dma.o)
 .debug_ranges  0x00003508       0x98 /opt/paparazzi/arm-multilib/lib/gcc/arm-none-eabi/4.4.5/../../../../arm-none-eabi/lib/libstm32.a(stm32_gpio.o)
 .debug_ranges  0x000035a0       0xe8 /opt/paparazzi/arm-multilib/lib/gcc/arm-none-eabi/4.4.5/../../../../arm-none-eabi/lib/libstm32.a(stm32_usart.o)
 .debug_ranges  0x00003688       0x50 /opt/paparazzi/arm-multilib/lib/gcc/arm-none-eabi/4.4.5/../../../../arm-none-eabi/lib/libstm32.a(stm32_exti.o)
 .debug_ranges  0x000036d8      0x110 /opt/paparazzi/arm-multilib/lib/gcc/arm-none-eabi/4.4.5/../../../../arm-none-eabi/lib/libstm32.a(stm32_i2c.o)
 .debug_ranges  0x000037e8       0xc8 /opt/paparazzi/arm-multilib/lib/gcc/arm-none-eabi/4.4.5/../../../../arm-none-eabi/lib/libstm32.a(stm32_spi.o)
 .debug_ranges  0x000038b0      0x110 /opt/paparazzi/arm-multilib/lib/gcc/arm-none-eabi/4.4.5/../../../../arm-none-eabi/lib/libstm32.a(stm32_rcc.o)
 .debug_ranges  0x000039c0       0x38 /opt/paparazzi/arm-multilib/lib/gcc/arm-none-eabi/4.4.5/../../../../arm-none-eabi/lib/libstm32.a(stm32_misc.o)
 .debug_ranges  0x000039f8      0x130 /opt/paparazzi/arm-multilib/lib/gcc/arm-none-eabi/4.4.5/../../../../arm-none-eabi/lib/libopencm3_stm32.a(rcc.o)
 .debug_ranges  0x00003b28       0x80 /opt/paparazzi/arm-multilib/lib/gcc/arm-none-eabi/4.4.5/../../../../arm-none-eabi/lib/libopencm3_stm32.a(usart.o)
 .debug_ranges  0x00003ba8       0xb0 /opt/paparazzi/arm-multilib/lib/gcc/arm-none-eabi/4.4.5/../../../../arm-none-eabi/lib/libopencm3_stm32.a(flash.o)

Cross Reference Table

Symbol                                            File
ADC_AnalogWatchdogCmd                             /opt/paparazzi/arm-multilib/lib/gcc/arm-none-eabi/4.4.5/../../../../arm-none-eabi/lib/libstm32.a(stm32_adc.o)
ADC_AnalogWatchdogSingleChannelConfig             /opt/paparazzi/arm-multilib/lib/gcc/arm-none-eabi/4.4.5/../../../../arm-none-eabi/lib/libstm32.a(stm32_adc.o)
ADC_AnalogWatchdogThresholdsConfig                /opt/paparazzi/arm-multilib/lib/gcc/arm-none-eabi/4.4.5/../../../../arm-none-eabi/lib/libstm32.a(stm32_adc.o)
ADC_AutoInjectedConvCmd                           /opt/paparazzi/arm-multilib/lib/gcc/arm-none-eabi/4.4.5/../../../../arm-none-eabi/lib/libstm32.a(stm32_adc.o)
ADC_ClearFlag                                     /opt/paparazzi/arm-multilib/lib/gcc/arm-none-eabi/4.4.5/../../../../arm-none-eabi/lib/libstm32.a(stm32_adc.o)
ADC_ClearITPendingBit                             /opt/paparazzi/arm-multilib/lib/gcc/arm-none-eabi/4.4.5/../../../../arm-none-eabi/lib/libstm32.a(stm32_adc.o)
                                                  /home/woz/lisa-m-team4938/paparazzi/var/ECE_2012/ap/arch/stm32/mcu_periph/adc_arch.o
ADC_Cmd                                           /opt/paparazzi/arm-multilib/lib/gcc/arm-none-eabi/4.4.5/../../../../arm-none-eabi/lib/libstm32.a(stm32_adc.o)
                                                  /home/woz/lisa-m-team4938/paparazzi/var/ECE_2012/ap/arch/stm32/mcu_periph/adc_arch.o
ADC_DMACmd                                        /opt/paparazzi/arm-multilib/lib/gcc/arm-none-eabi/4.4.5/../../../../arm-none-eabi/lib/libstm32.a(stm32_adc.o)
ADC_DeInit                                        /opt/paparazzi/arm-multilib/lib/gcc/arm-none-eabi/4.4.5/../../../../arm-none-eabi/lib/libstm32.a(stm32_adc.o)
ADC_DiscModeChannelCountConfig                    /opt/paparazzi/arm-multilib/lib/gcc/arm-none-eabi/4.4.5/../../../../arm-none-eabi/lib/libstm32.a(stm32_adc.o)
ADC_DiscModeCmd                                   /opt/paparazzi/arm-multilib/lib/gcc/arm-none-eabi/4.4.5/../../../../arm-none-eabi/lib/libstm32.a(stm32_adc.o)
ADC_ExternalTrigConvCmd                           /opt/paparazzi/arm-multilib/lib/gcc/arm-none-eabi/4.4.5/../../../../arm-none-eabi/lib/libstm32.a(stm32_adc.o)
ADC_ExternalTrigInjectedConvCmd                   /opt/paparazzi/arm-multilib/lib/gcc/arm-none-eabi/4.4.5/../../../../arm-none-eabi/lib/libstm32.a(stm32_adc.o)
                                                  /home/woz/lisa-m-team4938/paparazzi/var/ECE_2012/ap/arch/stm32/mcu_periph/adc_arch.o
ADC_ExternalTrigInjectedConvConfig                /opt/paparazzi/arm-multilib/lib/gcc/arm-none-eabi/4.4.5/../../../../arm-none-eabi/lib/libstm32.a(stm32_adc.o)
                                                  /home/woz/lisa-m-team4938/paparazzi/var/ECE_2012/ap/arch/stm32/mcu_periph/adc_arch.o
ADC_GetCalibrationStatus                          /opt/paparazzi/arm-multilib/lib/gcc/arm-none-eabi/4.4.5/../../../../arm-none-eabi/lib/libstm32.a(stm32_adc.o)
                                                  /home/woz/lisa-m-team4938/paparazzi/var/ECE_2012/ap/arch/stm32/mcu_periph/adc_arch.o
ADC_GetConversionValue                            /opt/paparazzi/arm-multilib/lib/gcc/arm-none-eabi/4.4.5/../../../../arm-none-eabi/lib/libstm32.a(stm32_adc.o)
ADC_GetDualModeConversionValue                    /opt/paparazzi/arm-multilib/lib/gcc/arm-none-eabi/4.4.5/../../../../arm-none-eabi/lib/libstm32.a(stm32_adc.o)
ADC_GetFlagStatus                                 /opt/paparazzi/arm-multilib/lib/gcc/arm-none-eabi/4.4.5/../../../../arm-none-eabi/lib/libstm32.a(stm32_adc.o)
ADC_GetITStatus                                   /opt/paparazzi/arm-multilib/lib/gcc/arm-none-eabi/4.4.5/../../../../arm-none-eabi/lib/libstm32.a(stm32_adc.o)
ADC_GetInjectedConversionValue                    /opt/paparazzi/arm-multilib/lib/gcc/arm-none-eabi/4.4.5/../../../../arm-none-eabi/lib/libstm32.a(stm32_adc.o)
                                                  /home/woz/lisa-m-team4938/paparazzi/var/ECE_2012/ap/arch/stm32/mcu_periph/adc_arch.o
ADC_GetResetCalibrationStatus                     /opt/paparazzi/arm-multilib/lib/gcc/arm-none-eabi/4.4.5/../../../../arm-none-eabi/lib/libstm32.a(stm32_adc.o)
                                                  /home/woz/lisa-m-team4938/paparazzi/var/ECE_2012/ap/arch/stm32/mcu_periph/adc_arch.o
ADC_GetSoftwareStartConvStatus                    /opt/paparazzi/arm-multilib/lib/gcc/arm-none-eabi/4.4.5/../../../../arm-none-eabi/lib/libstm32.a(stm32_adc.o)
ADC_GetSoftwareStartInjectedConvCmdStatus         /opt/paparazzi/arm-multilib/lib/gcc/arm-none-eabi/4.4.5/../../../../arm-none-eabi/lib/libstm32.a(stm32_adc.o)
ADC_ITConfig                                      /opt/paparazzi/arm-multilib/lib/gcc/arm-none-eabi/4.4.5/../../../../arm-none-eabi/lib/libstm32.a(stm32_adc.o)
                                                  /home/woz/lisa-m-team4938/paparazzi/var/ECE_2012/ap/arch/stm32/mcu_periph/adc_arch.o
ADC_Init                                          /opt/paparazzi/arm-multilib/lib/gcc/arm-none-eabi/4.4.5/../../../../arm-none-eabi/lib/libstm32.a(stm32_adc.o)
                                                  /home/woz/lisa-m-team4938/paparazzi/var/ECE_2012/ap/arch/stm32/mcu_periph/adc_arch.o
ADC_InjectedChannelConfig                         /opt/paparazzi/arm-multilib/lib/gcc/arm-none-eabi/4.4.5/../../../../arm-none-eabi/lib/libstm32.a(stm32_adc.o)
                                                  /home/woz/lisa-m-team4938/paparazzi/var/ECE_2012/ap/arch/stm32/mcu_periph/adc_arch.o
ADC_InjectedDiscModeCmd                           /opt/paparazzi/arm-multilib/lib/gcc/arm-none-eabi/4.4.5/../../../../arm-none-eabi/lib/libstm32.a(stm32_adc.o)
ADC_InjectedSequencerLengthConfig                 /opt/paparazzi/arm-multilib/lib/gcc/arm-none-eabi/4.4.5/../../../../arm-none-eabi/lib/libstm32.a(stm32_adc.o)
                                                  /home/woz/lisa-m-team4938/paparazzi/var/ECE_2012/ap/arch/stm32/mcu_periph/adc_arch.o
ADC_RegularChannelConfig                          /opt/paparazzi/arm-multilib/lib/gcc/arm-none-eabi/4.4.5/../../../../arm-none-eabi/lib/libstm32.a(stm32_adc.o)
ADC_ResetCalibration                              /opt/paparazzi/arm-multilib/lib/gcc/arm-none-eabi/4.4.5/../../../../arm-none-eabi/lib/libstm32.a(stm32_adc.o)
                                                  /home/woz/lisa-m-team4938/paparazzi/var/ECE_2012/ap/arch/stm32/mcu_periph/adc_arch.o
ADC_SetInjectedOffset                             /opt/paparazzi/arm-multilib/lib/gcc/arm-none-eabi/4.4.5/../../../../arm-none-eabi/lib/libstm32.a(stm32_adc.o)
ADC_SoftwareStartConvCmd                          /opt/paparazzi/arm-multilib/lib/gcc/arm-none-eabi/4.4.5/../../../../arm-none-eabi/lib/libstm32.a(stm32_adc.o)
ADC_SoftwareStartInjectedConvCmd                  /opt/paparazzi/arm-multilib/lib/gcc/arm-none-eabi/4.4.5/../../../../arm-none-eabi/lib/libstm32.a(stm32_adc.o)
ADC_StartCalibration                              /opt/paparazzi/arm-multilib/lib/gcc/arm-none-eabi/4.4.5/../../../../arm-none-eabi/lib/libstm32.a(stm32_adc.o)
                                                  /home/woz/lisa-m-team4938/paparazzi/var/ECE_2012/ap/arch/stm32/mcu_periph/adc_arch.o
ADC_StructInit                                    /opt/paparazzi/arm-multilib/lib/gcc/arm-none-eabi/4.4.5/../../../../arm-none-eabi/lib/libstm32.a(stm32_adc.o)
ADC_TempSensorVrefintCmd                          /opt/paparazzi/arm-multilib/lib/gcc/arm-none-eabi/4.4.5/../../../../arm-none-eabi/lib/libstm32.a(stm32_adc.o)
DCM_Matrix                                        /home/woz/lisa-m-team4938/paparazzi/var/ECE_2012/ap/subsystems/ahrs/ahrs_float_dcm.o
DMA_ClearFlag                                     /opt/paparazzi/arm-multilib/lib/gcc/arm-none-eabi/4.4.5/../../../../arm-none-eabi/lib/libstm32.a(stm32_dma.o)
DMA_ClearITPendingBit                             /opt/paparazzi/arm-multilib/lib/gcc/arm-none-eabi/4.4.5/../../../../arm-none-eabi/lib/libstm32.a(stm32_dma.o)
                                                  /home/woz/lisa-m-team4938/paparazzi/var/ECE_2012/ap/arch/stm32/subsystems/imu/imu_aspirin_arch.o
DMA_Cmd                                           /opt/paparazzi/arm-multilib/lib/gcc/arm-none-eabi/4.4.5/../../../../arm-none-eabi/lib/libstm32.a(stm32_dma.o)
                                                  /home/woz/lisa-m-team4938/paparazzi/var/ECE_2012/ap/arch/stm32/subsystems/imu/imu_aspirin_arch.o
DMA_DeInit                                        /opt/paparazzi/arm-multilib/lib/gcc/arm-none-eabi/4.4.5/../../../../arm-none-eabi/lib/libstm32.a(stm32_dma.o)
                                                  /home/woz/lisa-m-team4938/paparazzi/var/ECE_2012/ap/arch/stm32/subsystems/imu/imu_aspirin_arch.o
DMA_GetCurrDataCounter                            /opt/paparazzi/arm-multilib/lib/gcc/arm-none-eabi/4.4.5/../../../../arm-none-eabi/lib/libstm32.a(stm32_dma.o)
DMA_GetFlagStatus                                 /opt/paparazzi/arm-multilib/lib/gcc/arm-none-eabi/4.4.5/../../../../arm-none-eabi/lib/libstm32.a(stm32_dma.o)
DMA_GetITStatus                                   /opt/paparazzi/arm-multilib/lib/gcc/arm-none-eabi/4.4.5/../../../../arm-none-eabi/lib/libstm32.a(stm32_dma.o)
                                                  /home/woz/lisa-m-team4938/paparazzi/var/ECE_2012/ap/arch/stm32/subsystems/imu/imu_aspirin_arch.o
DMA_ITConfig                                      /opt/paparazzi/arm-multilib/lib/gcc/arm-none-eabi/4.4.5/../../../../arm-none-eabi/lib/libstm32.a(stm32_dma.o)
                                                  /home/woz/lisa-m-team4938/paparazzi/var/ECE_2012/ap/arch/stm32/subsystems/imu/imu_aspirin_arch.o
DMA_Init                                          /opt/paparazzi/arm-multilib/lib/gcc/arm-none-eabi/4.4.5/../../../../arm-none-eabi/lib/libstm32.a(stm32_dma.o)
                                                  /home/woz/lisa-m-team4938/paparazzi/var/ECE_2012/ap/arch/stm32/subsystems/imu/imu_aspirin_arch.o
DMA_StructInit                                    /opt/paparazzi/arm-multilib/lib/gcc/arm-none-eabi/4.4.5/../../../../arm-none-eabi/lib/libstm32.a(stm32_dma.o)
Drift_correction                                  /home/woz/lisa-m-team4938/paparazzi/var/ECE_2012/ap/subsystems/ahrs/ahrs_float_dcm.o
EXTI_ClearFlag                                    /opt/paparazzi/arm-multilib/lib/gcc/arm-none-eabi/4.4.5/../../../../arm-none-eabi/lib/libstm32.a(stm32_exti.o)
EXTI_ClearITPendingBit                            /opt/paparazzi/arm-multilib/lib/gcc/arm-none-eabi/4.4.5/../../../../arm-none-eabi/lib/libstm32.a(stm32_exti.o)
                                                  /home/woz/lisa-m-team4938/paparazzi/var/ECE_2012/ap/arch/stm32/peripherals/hmc5843_arch.o
                                                  /home/woz/lisa-m-team4938/paparazzi/var/ECE_2012/ap/arch/stm32/subsystems/imu/imu_aspirin_arch.o
EXTI_DeInit                                       /opt/paparazzi/arm-multilib/lib/gcc/arm-none-eabi/4.4.5/../../../../arm-none-eabi/lib/libstm32.a(stm32_exti.o)
EXTI_GenerateSWInterrupt                          /opt/paparazzi/arm-multilib/lib/gcc/arm-none-eabi/4.4.5/../../../../arm-none-eabi/lib/libstm32.a(stm32_exti.o)
EXTI_GetFlagStatus                                /opt/paparazzi/arm-multilib/lib/gcc/arm-none-eabi/4.4.5/../../../../arm-none-eabi/lib/libstm32.a(stm32_exti.o)
EXTI_GetITStatus                                  /opt/paparazzi/arm-multilib/lib/gcc/arm-none-eabi/4.4.5/../../../../arm-none-eabi/lib/libstm32.a(stm32_exti.o)
                                                  /home/woz/lisa-m-team4938/paparazzi/var/ECE_2012/ap/arch/stm32/peripherals/hmc5843_arch.o
                                                  /home/woz/lisa-m-team4938/paparazzi/var/ECE_2012/ap/arch/stm32/subsystems/imu/imu_aspirin_arch.o
EXTI_Init                                         /opt/paparazzi/arm-multilib/lib/gcc/arm-none-eabi/4.4.5/../../../../arm-none-eabi/lib/libstm32.a(stm32_exti.o)
                                                  /home/woz/lisa-m-team4938/paparazzi/var/ECE_2012/ap/arch/stm32/subsystems/imu/imu_aspirin_arch.o
EXTI_StructInit                                   /opt/paparazzi/arm-multilib/lib/gcc/arm-none-eabi/4.4.5/../../../../arm-none-eabi/lib/libstm32.a(stm32_exti.o)
GPIO_AFIODeInit                                   /opt/paparazzi/arm-multilib/lib/gcc/arm-none-eabi/4.4.5/../../../../arm-none-eabi/lib/libstm32.a(stm32_gpio.o)
GPIO_DeInit                                       /opt/paparazzi/arm-multilib/lib/gcc/arm-none-eabi/4.4.5/../../../../arm-none-eabi/lib/libstm32.a(stm32_gpio.o)
GPIO_EXTILineConfig                               /opt/paparazzi/arm-multilib/lib/gcc/arm-none-eabi/4.4.5/../../../../arm-none-eabi/lib/libstm32.a(stm32_gpio.o)
                                                  /home/woz/lisa-m-team4938/paparazzi/var/ECE_2012/ap/arch/stm32/subsystems/imu/imu_aspirin_arch.o
GPIO_EventOutputCmd                               /opt/paparazzi/arm-multilib/lib/gcc/arm-none-eabi/4.4.5/../../../../arm-none-eabi/lib/libstm32.a(stm32_gpio.o)
GPIO_EventOutputConfig                            /opt/paparazzi/arm-multilib/lib/gcc/arm-none-eabi/4.4.5/../../../../arm-none-eabi/lib/libstm32.a(stm32_gpio.o)
GPIO_Init                                         /opt/paparazzi/arm-multilib/lib/gcc/arm-none-eabi/4.4.5/../../../../arm-none-eabi/lib/libstm32.a(stm32_gpio.o)
                                                  /home/woz/lisa-m-team4938/paparazzi/var/ECE_2012/ap/arch/stm32/peripherals/hmc5843_arch.o
                                                  /home/woz/lisa-m-team4938/paparazzi/var/ECE_2012/ap/arch/stm32/subsystems/imu/imu_aspirin_arch.o
                                                  /home/woz/lisa-m-team4938/paparazzi/var/ECE_2012/ap/arch/stm32/subsystems/radio_control/ppm_arch.o
                                                  /home/woz/lisa-m-team4938/paparazzi/var/ECE_2012/ap/firmwares/rotorcraft/actuators/arch/stm32/actuators_pwm_arch.o
                                                  /home/woz/lisa-m-team4938/paparazzi/var/ECE_2012/ap/arch/stm32/mcu_periph/adc_arch.o
                                                  /home/woz/lisa-m-team4938/paparazzi/var/ECE_2012/ap/arch/stm32/mcu_periph/uart_arch.o
                                                  /home/woz/lisa-m-team4938/paparazzi/var/ECE_2012/ap/arch/stm32/mcu_periph/i2c_arch.o
                                                  /home/woz/lisa-m-team4938/paparazzi/var/ECE_2012/ap/mcu.o
GPIO_PinLockConfig                                /opt/paparazzi/arm-multilib/lib/gcc/arm-none-eabi/4.4.5/../../../../arm-none-eabi/lib/libstm32.a(stm32_gpio.o)
GPIO_PinRemapConfig                               /opt/paparazzi/arm-multilib/lib/gcc/arm-none-eabi/4.4.5/../../../../arm-none-eabi/lib/libstm32.a(stm32_gpio.o)
                                                  /home/woz/lisa-m-team4938/paparazzi/var/ECE_2012/ap/firmwares/rotorcraft/actuators/arch/stm32/actuators_pwm_arch.o
                                                  /home/woz/lisa-m-team4938/paparazzi/var/ECE_2012/ap/mcu.o
GPIO_ReadInputData                                /opt/paparazzi/arm-multilib/lib/gcc/arm-none-eabi/4.4.5/../../../../arm-none-eabi/lib/libstm32.a(stm32_gpio.o)
GPIO_ReadInputDataBit                             /opt/paparazzi/arm-multilib/lib/gcc/arm-none-eabi/4.4.5/../../../../arm-none-eabi/lib/libstm32.a(stm32_gpio.o)
                                                  /home/woz/lisa-m-team4938/paparazzi/var/ECE_2012/ap/peripherals/hmc5843.o
                                                  /home/woz/lisa-m-team4938/paparazzi/var/ECE_2012/ap/firmwares/fixedwing/main_ap.o
                                                  /home/woz/lisa-m-team4938/paparazzi/var/ECE_2012/ap/arch/stm32/mcu_periph/i2c_arch.o
GPIO_ReadOutputData                               /opt/paparazzi/arm-multilib/lib/gcc/arm-none-eabi/4.4.5/../../../../arm-none-eabi/lib/libstm32.a(stm32_gpio.o)
GPIO_ReadOutputDataBit                            /opt/paparazzi/arm-multilib/lib/gcc/arm-none-eabi/4.4.5/../../../../arm-none-eabi/lib/libstm32.a(stm32_gpio.o)
GPIO_ResetBits                                    /opt/paparazzi/arm-multilib/lib/gcc/arm-none-eabi/4.4.5/../../../../arm-none-eabi/lib/libstm32.a(stm32_gpio.o)
                                                  /home/woz/lisa-m-team4938/paparazzi/var/ECE_2012/ap/arch/stm32/mcu_periph/i2c_arch.o
GPIO_SetBits                                      /opt/paparazzi/arm-multilib/lib/gcc/arm-none-eabi/4.4.5/../../../../arm-none-eabi/lib/libstm32.a(stm32_gpio.o)
                                                  /home/woz/lisa-m-team4938/paparazzi/var/ECE_2012/ap/arch/stm32/mcu_periph/i2c_arch.o
GPIO_StructInit                                   /opt/paparazzi/arm-multilib/lib/gcc/arm-none-eabi/4.4.5/../../../../arm-none-eabi/lib/libstm32.a(stm32_gpio.o)
GPIO_Write                                        /opt/paparazzi/arm-multilib/lib/gcc/arm-none-eabi/4.4.5/../../../../arm-none-eabi/lib/libstm32.a(stm32_gpio.o)
GPIO_WriteBit                                     /opt/paparazzi/arm-multilib/lib/gcc/arm-none-eabi/4.4.5/../../../../arm-none-eabi/lib/libstm32.a(stm32_gpio.o)
G_Dt                                              /home/woz/lisa-m-team4938/paparazzi/var/ECE_2012/ap/subsystems/ahrs/ahrs_float_dcm.o
I2C_ARPCmd                                        /opt/paparazzi/arm-multilib/lib/gcc/arm-none-eabi/4.4.5/../../../../arm-none-eabi/lib/libstm32.a(stm32_i2c.o)
I2C_AcknowledgeConfig                             /opt/paparazzi/arm-multilib/lib/gcc/arm-none-eabi/4.4.5/../../../../arm-none-eabi/lib/libstm32.a(stm32_i2c.o)
                                                  /home/woz/lisa-m-team4938/paparazzi/var/ECE_2012/ap/arch/stm32/mcu_periph/i2c_arch.o
I2C_CalculatePEC                                  /opt/paparazzi/arm-multilib/lib/gcc/arm-none-eabi/4.4.5/../../../../arm-none-eabi/lib/libstm32.a(stm32_i2c.o)
I2C_CheckEvent                                    /opt/paparazzi/arm-multilib/lib/gcc/arm-none-eabi/4.4.5/../../../../arm-none-eabi/lib/libstm32.a(stm32_i2c.o)
I2C_ClearFlag                                     /opt/paparazzi/arm-multilib/lib/gcc/arm-none-eabi/4.4.5/../../../../arm-none-eabi/lib/libstm32.a(stm32_i2c.o)
I2C_ClearITPendingBit                             /opt/paparazzi/arm-multilib/lib/gcc/arm-none-eabi/4.4.5/../../../../arm-none-eabi/lib/libstm32.a(stm32_i2c.o)
                                                  /home/woz/lisa-m-team4938/paparazzi/var/ECE_2012/ap/arch/stm32/mcu_periph/i2c_arch.o
I2C_Cmd                                           /opt/paparazzi/arm-multilib/lib/gcc/arm-none-eabi/4.4.5/../../../../arm-none-eabi/lib/libstm32.a(stm32_i2c.o)
                                                  /home/woz/lisa-m-team4938/paparazzi/var/ECE_2012/ap/arch/stm32/mcu_periph/i2c_arch.o
I2C_DMACmd                                        /opt/paparazzi/arm-multilib/lib/gcc/arm-none-eabi/4.4.5/../../../../arm-none-eabi/lib/libstm32.a(stm32_i2c.o)
I2C_DMALastTransferCmd                            /opt/paparazzi/arm-multilib/lib/gcc/arm-none-eabi/4.4.5/../../../../arm-none-eabi/lib/libstm32.a(stm32_i2c.o)
I2C_DeInit                                        /opt/paparazzi/arm-multilib/lib/gcc/arm-none-eabi/4.4.5/../../../../arm-none-eabi/lib/libstm32.a(stm32_i2c.o)
                                                  /home/woz/lisa-m-team4938/paparazzi/var/ECE_2012/ap/arch/stm32/mcu_periph/i2c_arch.o
I2C_DualAddressCmd                                /opt/paparazzi/arm-multilib/lib/gcc/arm-none-eabi/4.4.5/../../../../arm-none-eabi/lib/libstm32.a(stm32_i2c.o)
I2C_FastModeDutyCycleConfig                       /opt/paparazzi/arm-multilib/lib/gcc/arm-none-eabi/4.4.5/../../../../arm-none-eabi/lib/libstm32.a(stm32_i2c.o)
I2C_GeneralCallCmd                                /opt/paparazzi/arm-multilib/lib/gcc/arm-none-eabi/4.4.5/../../../../arm-none-eabi/lib/libstm32.a(stm32_i2c.o)
I2C_GenerateSTART                                 /opt/paparazzi/arm-multilib/lib/gcc/arm-none-eabi/4.4.5/../../../../arm-none-eabi/lib/libstm32.a(stm32_i2c.o)
                                                  /home/woz/lisa-m-team4938/paparazzi/var/ECE_2012/ap/arch/stm32/mcu_periph/i2c_arch.o
I2C_GenerateSTOP                                  /opt/paparazzi/arm-multilib/lib/gcc/arm-none-eabi/4.4.5/../../../../arm-none-eabi/lib/libstm32.a(stm32_i2c.o)
                                                  /home/woz/lisa-m-team4938/paparazzi/var/ECE_2012/ap/arch/stm32/mcu_periph/i2c_arch.o
I2C_GetFlagStatus                                 /opt/paparazzi/arm-multilib/lib/gcc/arm-none-eabi/4.4.5/../../../../arm-none-eabi/lib/libstm32.a(stm32_i2c.o)
                                                  /home/woz/lisa-m-team4938/paparazzi/var/ECE_2012/ap/subsystems/imu/imu_aspirin.o
                                                  /home/woz/lisa-m-team4938/paparazzi/var/ECE_2012/ap/arch/stm32/mcu_periph/i2c_arch.o
I2C_GetITStatus                                   /opt/paparazzi/arm-multilib/lib/gcc/arm-none-eabi/4.4.5/../../../../arm-none-eabi/lib/libstm32.a(stm32_i2c.o)
                                                  /home/woz/lisa-m-team4938/paparazzi/var/ECE_2012/ap/arch/stm32/mcu_periph/i2c_arch.o
I2C_GetLastEvent                                  /opt/paparazzi/arm-multilib/lib/gcc/arm-none-eabi/4.4.5/../../../../arm-none-eabi/lib/libstm32.a(stm32_i2c.o)
                                                  /home/woz/lisa-m-team4938/paparazzi/var/ECE_2012/ap/arch/stm32/mcu_periph/i2c_arch.o
I2C_GetPEC                                        /opt/paparazzi/arm-multilib/lib/gcc/arm-none-eabi/4.4.5/../../../../arm-none-eabi/lib/libstm32.a(stm32_i2c.o)
I2C_ITConfig                                      /opt/paparazzi/arm-multilib/lib/gcc/arm-none-eabi/4.4.5/../../../../arm-none-eabi/lib/libstm32.a(stm32_i2c.o)
                                                  /home/woz/lisa-m-team4938/paparazzi/var/ECE_2012/ap/arch/stm32/mcu_periph/i2c_arch.o
I2C_Init                                          /opt/paparazzi/arm-multilib/lib/gcc/arm-none-eabi/4.4.5/../../../../arm-none-eabi/lib/libstm32.a(stm32_i2c.o)
                                                  /home/woz/lisa-m-team4938/paparazzi/var/ECE_2012/ap/arch/stm32/mcu_periph/i2c_arch.o
I2C_OwnAddress2Config                             /opt/paparazzi/arm-multilib/lib/gcc/arm-none-eabi/4.4.5/../../../../arm-none-eabi/lib/libstm32.a(stm32_i2c.o)
I2C_PECPositionConfig                             /opt/paparazzi/arm-multilib/lib/gcc/arm-none-eabi/4.4.5/../../../../arm-none-eabi/lib/libstm32.a(stm32_i2c.o)
I2C_ReadRegister                                  /opt/paparazzi/arm-multilib/lib/gcc/arm-none-eabi/4.4.5/../../../../arm-none-eabi/lib/libstm32.a(stm32_i2c.o)
I2C_ReceiveData                                   /opt/paparazzi/arm-multilib/lib/gcc/arm-none-eabi/4.4.5/../../../../arm-none-eabi/lib/libstm32.a(stm32_i2c.o)
                                                  /home/woz/lisa-m-team4938/paparazzi/var/ECE_2012/ap/arch/stm32/mcu_periph/i2c_arch.o
I2C_SMBusAlertConfig                              /opt/paparazzi/arm-multilib/lib/gcc/arm-none-eabi/4.4.5/../../../../arm-none-eabi/lib/libstm32.a(stm32_i2c.o)
I2C_Send7bitAddress                               /opt/paparazzi/arm-multilib/lib/gcc/arm-none-eabi/4.4.5/../../../../arm-none-eabi/lib/libstm32.a(stm32_i2c.o)
                                                  /home/woz/lisa-m-team4938/paparazzi/var/ECE_2012/ap/arch/stm32/mcu_periph/i2c_arch.o
I2C_SendData                                      /opt/paparazzi/arm-multilib/lib/gcc/arm-none-eabi/4.4.5/../../../../arm-none-eabi/lib/libstm32.a(stm32_i2c.o)
                                                  /home/woz/lisa-m-team4938/paparazzi/var/ECE_2012/ap/arch/stm32/mcu_periph/i2c_arch.o
I2C_SoftwareResetCmd                              /opt/paparazzi/arm-multilib/lib/gcc/arm-none-eabi/4.4.5/../../../../arm-none-eabi/lib/libstm32.a(stm32_i2c.o)
                                                  /home/woz/lisa-m-team4938/paparazzi/var/ECE_2012/ap/arch/stm32/mcu_periph/i2c_arch.o
I2C_StretchClockCmd                               /opt/paparazzi/arm-multilib/lib/gcc/arm-none-eabi/4.4.5/../../../../arm-none-eabi/lib/libstm32.a(stm32_i2c.o)
I2C_StructInit                                    /opt/paparazzi/arm-multilib/lib/gcc/arm-none-eabi/4.4.5/../../../../arm-none-eabi/lib/libstm32.a(stm32_i2c.o)
I2C_TransmitPEC                                   /opt/paparazzi/arm-multilib/lib/gcc/arm-none-eabi/4.4.5/../../../../arm-none-eabi/lib/libstm32.a(stm32_i2c.o)
I2S_Cmd                                           /opt/paparazzi/arm-multilib/lib/gcc/arm-none-eabi/4.4.5/../../../../arm-none-eabi/lib/libstm32.a(stm32_spi.o)
I2S_Init                                          /opt/paparazzi/arm-multilib/lib/gcc/arm-none-eabi/4.4.5/../../../../arm-none-eabi/lib/libstm32.a(stm32_spi.o)
I2S_StructInit                                    /opt/paparazzi/arm-multilib/lib/gcc/arm-none-eabi/4.4.5/../../../../arm-none-eabi/lib/libstm32.a(stm32_spi.o)
Matrix_update                                     /home/woz/lisa-m-team4938/paparazzi/var/ECE_2012/ap/subsystems/ahrs/ahrs_float_dcm.o
NVIC_Init                                         /opt/paparazzi/arm-multilib/lib/gcc/arm-none-eabi/4.4.5/../../../../arm-none-eabi/lib/libstm32.a(stm32_misc.o)
                                                  /home/woz/lisa-m-team4938/paparazzi/var/ECE_2012/ap/arch/stm32/subsystems/imu/imu_aspirin_arch.o
                                                  /home/woz/lisa-m-team4938/paparazzi/var/ECE_2012/ap/arch/stm32/subsystems/radio_control/ppm_arch.o
                                                  /home/woz/lisa-m-team4938/paparazzi/var/ECE_2012/ap/arch/stm32/mcu_periph/adc_arch.o
                                                  /home/woz/lisa-m-team4938/paparazzi/var/ECE_2012/ap/arch/stm32/mcu_periph/uart_arch.o
                                                  /home/woz/lisa-m-team4938/paparazzi/var/ECE_2012/ap/arch/stm32/mcu_periph/i2c_arch.o
NVIC_PriorityGroupConfig                          /opt/paparazzi/arm-multilib/lib/gcc/arm-none-eabi/4.4.5/../../../../arm-none-eabi/lib/libstm32.a(stm32_misc.o)
                                                  /home/woz/lisa-m-team4938/paparazzi/var/ECE_2012/ap/arch/stm32/mcu_periph/i2c_arch.o
NVIC_SetVectorTable                               /opt/paparazzi/arm-multilib/lib/gcc/arm-none-eabi/4.4.5/../../../../arm-none-eabi/lib/libstm32.a(stm32_misc.o)
                                                  /home/woz/lisa-m-team4938/paparazzi/var/ECE_2012/ap/arch/stm32/mcu_arch.o
NVIC_SystemLPConfig                               /opt/paparazzi/arm-multilib/lib/gcc/arm-none-eabi/4.4.5/../../../../arm-none-eabi/lib/libstm32.a(stm32_misc.o)
Normalize                                         /home/woz/lisa-m-team4938/paparazzi/var/ECE_2012/ap/subsystems/ahrs/ahrs_float_dcm.o
Omega                                             /home/woz/lisa-m-team4938/paparazzi/var/ECE_2012/ap/subsystems/ahrs/ahrs_float_dcm.o
Omega_I                                           /home/woz/lisa-m-team4938/paparazzi/var/ECE_2012/ap/subsystems/ahrs/ahrs_float_dcm.o
Omega_P                                           /home/woz/lisa-m-team4938/paparazzi/var/ECE_2012/ap/subsystems/ahrs/ahrs_float_dcm.o
Omega_Vector                                      /home/woz/lisa-m-team4938/paparazzi/var/ECE_2012/ap/subsystems/ahrs/ahrs_float_dcm.o
RCC_ADCCLKConfig                                  /opt/paparazzi/arm-multilib/lib/gcc/arm-none-eabi/4.4.5/../../../../arm-none-eabi/lib/libstm32.a(stm32_rcc.o)
                                                  /home/woz/lisa-m-team4938/paparazzi/var/ECE_2012/ap/arch/stm32/mcu_periph/adc_arch.o
RCC_AHBPeriphClockCmd                             /opt/paparazzi/arm-multilib/lib/gcc/arm-none-eabi/4.4.5/../../../../arm-none-eabi/lib/libstm32.a(stm32_rcc.o)
                                                  /home/woz/lisa-m-team4938/paparazzi/var/ECE_2012/ap/arch/stm32/subsystems/imu/imu_aspirin_arch.o
RCC_APB1PeriphClockCmd                            /opt/paparazzi/arm-multilib/lib/gcc/arm-none-eabi/4.4.5/../../../../arm-none-eabi/lib/libstm32.a(stm32_rcc.o)
                                                  /home/woz/lisa-m-team4938/paparazzi/var/ECE_2012/ap/arch/stm32/subsystems/imu/imu_aspirin_arch.o
                                                  /home/woz/lisa-m-team4938/paparazzi/var/ECE_2012/ap/arch/stm32/subsystems/radio_control/ppm_arch.o
                                                  /home/woz/lisa-m-team4938/paparazzi/var/ECE_2012/ap/firmwares/rotorcraft/actuators/arch/stm32/actuators_pwm_arch.o
                                                  /home/woz/lisa-m-team4938/paparazzi/var/ECE_2012/ap/arch/stm32/mcu_periph/adc_arch.o
                                                  /home/woz/lisa-m-team4938/paparazzi/var/ECE_2012/ap/arch/stm32/mcu_periph/uart_arch.o
                                                  /home/woz/lisa-m-team4938/paparazzi/var/ECE_2012/ap/arch/stm32/mcu_periph/i2c_arch.o
RCC_APB1PeriphResetCmd                            /opt/paparazzi/arm-multilib/lib/gcc/arm-none-eabi/4.4.5/../../../../arm-none-eabi/lib/libstm32.a(stm32_rcc.o)
                                                  /opt/paparazzi/arm-multilib/lib/gcc/arm-none-eabi/4.4.5/../../../../arm-none-eabi/lib/libstm32.a(stm32_spi.o)
                                                  /opt/paparazzi/arm-multilib/lib/gcc/arm-none-eabi/4.4.5/../../../../arm-none-eabi/lib/libstm32.a(stm32_i2c.o)
                                                  /opt/paparazzi/arm-multilib/lib/gcc/arm-none-eabi/4.4.5/../../../../arm-none-eabi/lib/libstm32.a(stm32_usart.o)
                                                  /opt/paparazzi/arm-multilib/lib/gcc/arm-none-eabi/4.4.5/../../../../arm-none-eabi/lib/libstm32.a(stm32_tim.o)
RCC_APB2PeriphClockCmd                            /opt/paparazzi/arm-multilib/lib/gcc/arm-none-eabi/4.4.5/../../../../arm-none-eabi/lib/libstm32.a(stm32_rcc.o)
                                                  /home/woz/lisa-m-team4938/paparazzi/var/ECE_2012/ap/arch/stm32/peripherals/hmc5843_arch.o
                                                  /home/woz/lisa-m-team4938/paparazzi/var/ECE_2012/ap/arch/stm32/subsystems/imu/imu_aspirin_arch.o
                                                  /home/woz/lisa-m-team4938/paparazzi/var/ECE_2012/ap/arch/stm32/subsystems/radio_control/ppm_arch.o
                                                  /home/woz/lisa-m-team4938/paparazzi/var/ECE_2012/ap/firmwares/rotorcraft/actuators/arch/stm32/actuators_pwm_arch.o
                                                  /home/woz/lisa-m-team4938/paparazzi/var/ECE_2012/ap/arch/stm32/mcu_periph/adc_arch.o
                                                  /home/woz/lisa-m-team4938/paparazzi/var/ECE_2012/ap/arch/stm32/mcu_periph/uart_arch.o
                                                  /home/woz/lisa-m-team4938/paparazzi/var/ECE_2012/ap/arch/stm32/mcu_periph/i2c_arch.o
                                                  /home/woz/lisa-m-team4938/paparazzi/var/ECE_2012/ap/mcu.o
RCC_APB2PeriphResetCmd                            /opt/paparazzi/arm-multilib/lib/gcc/arm-none-eabi/4.4.5/../../../../arm-none-eabi/lib/libstm32.a(stm32_rcc.o)
                                                  /opt/paparazzi/arm-multilib/lib/gcc/arm-none-eabi/4.4.5/../../../../arm-none-eabi/lib/libstm32.a(stm32_spi.o)
                                                  /opt/paparazzi/arm-multilib/lib/gcc/arm-none-eabi/4.4.5/../../../../arm-none-eabi/lib/libstm32.a(stm32_usart.o)
                                                  /opt/paparazzi/arm-multilib/lib/gcc/arm-none-eabi/4.4.5/../../../../arm-none-eabi/lib/libstm32.a(stm32_gpio.o)
                                                  /opt/paparazzi/arm-multilib/lib/gcc/arm-none-eabi/4.4.5/../../../../arm-none-eabi/lib/libstm32.a(stm32_tim.o)
                                                  /opt/paparazzi/arm-multilib/lib/gcc/arm-none-eabi/4.4.5/../../../../arm-none-eabi/lib/libstm32.a(stm32_adc.o)
RCC_AdjustHSICalibrationValue                     /opt/paparazzi/arm-multilib/lib/gcc/arm-none-eabi/4.4.5/../../../../arm-none-eabi/lib/libstm32.a(stm32_rcc.o)
RCC_BackupResetCmd                                /opt/paparazzi/arm-multilib/lib/gcc/arm-none-eabi/4.4.5/../../../../arm-none-eabi/lib/libstm32.a(stm32_rcc.o)
RCC_ClearFlag                                     /opt/paparazzi/arm-multilib/lib/gcc/arm-none-eabi/4.4.5/../../../../arm-none-eabi/lib/libstm32.a(stm32_rcc.o)
RCC_ClearITPendingBit                             /opt/paparazzi/arm-multilib/lib/gcc/arm-none-eabi/4.4.5/../../../../arm-none-eabi/lib/libstm32.a(stm32_rcc.o)
RCC_ClockSecuritySystemCmd                        /opt/paparazzi/arm-multilib/lib/gcc/arm-none-eabi/4.4.5/../../../../arm-none-eabi/lib/libstm32.a(stm32_rcc.o)
RCC_DeInit                                        /opt/paparazzi/arm-multilib/lib/gcc/arm-none-eabi/4.4.5/../../../../arm-none-eabi/lib/libstm32.a(stm32_rcc.o)
RCC_GetClocksFreq                                 /opt/paparazzi/arm-multilib/lib/gcc/arm-none-eabi/4.4.5/../../../../arm-none-eabi/lib/libstm32.a(stm32_rcc.o)
                                                  /opt/paparazzi/arm-multilib/lib/gcc/arm-none-eabi/4.4.5/../../../../arm-none-eabi/lib/libstm32.a(stm32_spi.o)
                                                  /opt/paparazzi/arm-multilib/lib/gcc/arm-none-eabi/4.4.5/../../../../arm-none-eabi/lib/libstm32.a(stm32_i2c.o)
                                                  /opt/paparazzi/arm-multilib/lib/gcc/arm-none-eabi/4.4.5/../../../../arm-none-eabi/lib/libstm32.a(stm32_usart.o)
RCC_GetFlagStatus                                 /opt/paparazzi/arm-multilib/lib/gcc/arm-none-eabi/4.4.5/../../../../arm-none-eabi/lib/libstm32.a(stm32_rcc.o)
RCC_GetITStatus                                   /opt/paparazzi/arm-multilib/lib/gcc/arm-none-eabi/4.4.5/../../../../arm-none-eabi/lib/libstm32.a(stm32_rcc.o)
RCC_GetSYSCLKSource                               /opt/paparazzi/arm-multilib/lib/gcc/arm-none-eabi/4.4.5/../../../../arm-none-eabi/lib/libstm32.a(stm32_rcc.o)
RCC_HCLKConfig                                    /opt/paparazzi/arm-multilib/lib/gcc/arm-none-eabi/4.4.5/../../../../arm-none-eabi/lib/libstm32.a(stm32_rcc.o)
RCC_HSEConfig                                     /opt/paparazzi/arm-multilib/lib/gcc/arm-none-eabi/4.4.5/../../../../arm-none-eabi/lib/libstm32.a(stm32_rcc.o)
RCC_HSICmd                                        /opt/paparazzi/arm-multilib/lib/gcc/arm-none-eabi/4.4.5/../../../../arm-none-eabi/lib/libstm32.a(stm32_rcc.o)
RCC_ITConfig                                      /opt/paparazzi/arm-multilib/lib/gcc/arm-none-eabi/4.4.5/../../../../arm-none-eabi/lib/libstm32.a(stm32_rcc.o)
RCC_LSEConfig                                     /opt/paparazzi/arm-multilib/lib/gcc/arm-none-eabi/4.4.5/../../../../arm-none-eabi/lib/libstm32.a(stm32_rcc.o)
RCC_LSICmd                                        /opt/paparazzi/arm-multilib/lib/gcc/arm-none-eabi/4.4.5/../../../../arm-none-eabi/lib/libstm32.a(stm32_rcc.o)
RCC_MCOConfig                                     /opt/paparazzi/arm-multilib/lib/gcc/arm-none-eabi/4.4.5/../../../../arm-none-eabi/lib/libstm32.a(stm32_rcc.o)
RCC_PCLK1Config                                   /opt/paparazzi/arm-multilib/lib/gcc/arm-none-eabi/4.4.5/../../../../arm-none-eabi/lib/libstm32.a(stm32_rcc.o)
RCC_PCLK2Config                                   /opt/paparazzi/arm-multilib/lib/gcc/arm-none-eabi/4.4.5/../../../../arm-none-eabi/lib/libstm32.a(stm32_rcc.o)
RCC_PLLCmd                                        /opt/paparazzi/arm-multilib/lib/gcc/arm-none-eabi/4.4.5/../../../../arm-none-eabi/lib/libstm32.a(stm32_rcc.o)
RCC_PLLConfig                                     /opt/paparazzi/arm-multilib/lib/gcc/arm-none-eabi/4.4.5/../../../../arm-none-eabi/lib/libstm32.a(stm32_rcc.o)
RCC_RTCCLKCmd                                     /opt/paparazzi/arm-multilib/lib/gcc/arm-none-eabi/4.4.5/../../../../arm-none-eabi/lib/libstm32.a(stm32_rcc.o)
RCC_RTCCLKConfig                                  /opt/paparazzi/arm-multilib/lib/gcc/arm-none-eabi/4.4.5/../../../../arm-none-eabi/lib/libstm32.a(stm32_rcc.o)
RCC_SYSCLKConfig                                  /opt/paparazzi/arm-multilib/lib/gcc/arm-none-eabi/4.4.5/../../../../arm-none-eabi/lib/libstm32.a(stm32_rcc.o)
RCC_USBCLKConfig                                  /opt/paparazzi/arm-multilib/lib/gcc/arm-none-eabi/4.4.5/../../../../arm-none-eabi/lib/libstm32.a(stm32_rcc.o)
RCC_WaitForHSEStartUp                             /opt/paparazzi/arm-multilib/lib/gcc/arm-none-eabi/4.4.5/../../../../arm-none-eabi/lib/libstm32.a(stm32_rcc.o)
SPI_BiDirectionalLineConfig                       /opt/paparazzi/arm-multilib/lib/gcc/arm-none-eabi/4.4.5/../../../../arm-none-eabi/lib/libstm32.a(stm32_spi.o)
SPI_CalculateCRC                                  /opt/paparazzi/arm-multilib/lib/gcc/arm-none-eabi/4.4.5/../../../../arm-none-eabi/lib/libstm32.a(stm32_spi.o)
SPI_Cmd                                           /opt/paparazzi/arm-multilib/lib/gcc/arm-none-eabi/4.4.5/../../../../arm-none-eabi/lib/libstm32.a(stm32_spi.o)
                                                  /home/woz/lisa-m-team4938/paparazzi/var/ECE_2012/ap/arch/stm32/subsystems/imu/imu_aspirin_arch.o
SPI_DataSizeConfig                                /opt/paparazzi/arm-multilib/lib/gcc/arm-none-eabi/4.4.5/../../../../arm-none-eabi/lib/libstm32.a(stm32_spi.o)
SPI_GetCRC                                        /opt/paparazzi/arm-multilib/lib/gcc/arm-none-eabi/4.4.5/../../../../arm-none-eabi/lib/libstm32.a(stm32_spi.o)
SPI_GetCRCPolynomial                              /opt/paparazzi/arm-multilib/lib/gcc/arm-none-eabi/4.4.5/../../../../arm-none-eabi/lib/libstm32.a(stm32_spi.o)
SPI_I2S_ClearFlag                                 /opt/paparazzi/arm-multilib/lib/gcc/arm-none-eabi/4.4.5/../../../../arm-none-eabi/lib/libstm32.a(stm32_spi.o)
SPI_I2S_ClearITPendingBit                         /opt/paparazzi/arm-multilib/lib/gcc/arm-none-eabi/4.4.5/../../../../arm-none-eabi/lib/libstm32.a(stm32_spi.o)
SPI_I2S_DMACmd                                    /opt/paparazzi/arm-multilib/lib/gcc/arm-none-eabi/4.4.5/../../../../arm-none-eabi/lib/libstm32.a(stm32_spi.o)
                                                  /home/woz/lisa-m-team4938/paparazzi/var/ECE_2012/ap/arch/stm32/subsystems/imu/imu_aspirin_arch.o
SPI_I2S_DeInit                                    /opt/paparazzi/arm-multilib/lib/gcc/arm-none-eabi/4.4.5/../../../../arm-none-eabi/lib/libstm32.a(stm32_spi.o)
SPI_I2S_GetFlagStatus                             /opt/paparazzi/arm-multilib/lib/gcc/arm-none-eabi/4.4.5/../../../../arm-none-eabi/lib/libstm32.a(stm32_spi.o)
                                                  /home/woz/lisa-m-team4938/paparazzi/var/ECE_2012/ap/arch/stm32/subsystems/imu/imu_aspirin_arch.o
SPI_I2S_GetITStatus                               /opt/paparazzi/arm-multilib/lib/gcc/arm-none-eabi/4.4.5/../../../../arm-none-eabi/lib/libstm32.a(stm32_spi.o)
SPI_I2S_ITConfig                                  /opt/paparazzi/arm-multilib/lib/gcc/arm-none-eabi/4.4.5/../../../../arm-none-eabi/lib/libstm32.a(stm32_spi.o)
SPI_I2S_ReceiveData                               /opt/paparazzi/arm-multilib/lib/gcc/arm-none-eabi/4.4.5/../../../../arm-none-eabi/lib/libstm32.a(stm32_spi.o)
                                                  /home/woz/lisa-m-team4938/paparazzi/var/ECE_2012/ap/arch/stm32/subsystems/imu/imu_aspirin_arch.o
SPI_I2S_SendData                                  /opt/paparazzi/arm-multilib/lib/gcc/arm-none-eabi/4.4.5/../../../../arm-none-eabi/lib/libstm32.a(stm32_spi.o)
                                                  /home/woz/lisa-m-team4938/paparazzi/var/ECE_2012/ap/arch/stm32/subsystems/imu/imu_aspirin_arch.o
SPI_Init                                          /opt/paparazzi/arm-multilib/lib/gcc/arm-none-eabi/4.4.5/../../../../arm-none-eabi/lib/libstm32.a(stm32_spi.o)
                                                  /home/woz/lisa-m-team4938/paparazzi/var/ECE_2012/ap/arch/stm32/subsystems/imu/imu_aspirin_arch.o
SPI_NSSInternalSoftwareConfig                     /opt/paparazzi/arm-multilib/lib/gcc/arm-none-eabi/4.4.5/../../../../arm-none-eabi/lib/libstm32.a(stm32_spi.o)
SPI_SSOutputCmd                                   /opt/paparazzi/arm-multilib/lib/gcc/arm-none-eabi/4.4.5/../../../../arm-none-eabi/lib/libstm32.a(stm32_spi.o)
SPI_StructInit                                    /opt/paparazzi/arm-multilib/lib/gcc/arm-none-eabi/4.4.5/../../../../arm-none-eabi/lib/libstm32.a(stm32_spi.o)
SPI_TransmitCRC                                   /opt/paparazzi/arm-multilib/lib/gcc/arm-none-eabi/4.4.5/../../../../arm-none-eabi/lib/libstm32.a(stm32_spi.o)
SysTick_CLKSourceConfig                           /opt/paparazzi/arm-multilib/lib/gcc/arm-none-eabi/4.4.5/../../../../arm-none-eabi/lib/libstm32.a(stm32_misc.o)
TIM_ARRPreloadConfig                              /opt/paparazzi/arm-multilib/lib/gcc/arm-none-eabi/4.4.5/../../../../arm-none-eabi/lib/libstm32.a(stm32_tim.o)
                                                  /home/woz/lisa-m-team4938/paparazzi/var/ECE_2012/ap/firmwares/rotorcraft/actuators/arch/stm32/actuators_pwm_arch.o
TIM_BDTRConfig                                    /opt/paparazzi/arm-multilib/lib/gcc/arm-none-eabi/4.4.5/../../../../arm-none-eabi/lib/libstm32.a(stm32_tim.o)
TIM_BDTRStructInit                                /opt/paparazzi/arm-multilib/lib/gcc/arm-none-eabi/4.4.5/../../../../arm-none-eabi/lib/libstm32.a(stm32_tim.o)
TIM_CCPreloadControl                              /opt/paparazzi/arm-multilib/lib/gcc/arm-none-eabi/4.4.5/../../../../arm-none-eabi/lib/libstm32.a(stm32_tim.o)
TIM_CCxCmd                                        /opt/paparazzi/arm-multilib/lib/gcc/arm-none-eabi/4.4.5/../../../../arm-none-eabi/lib/libstm32.a(stm32_tim.o)
TIM_CCxNCmd                                       /opt/paparazzi/arm-multilib/lib/gcc/arm-none-eabi/4.4.5/../../../../arm-none-eabi/lib/libstm32.a(stm32_tim.o)
TIM_ClearFlag                                     /opt/paparazzi/arm-multilib/lib/gcc/arm-none-eabi/4.4.5/../../../../arm-none-eabi/lib/libstm32.a(stm32_tim.o)
TIM_ClearITPendingBit                             /opt/paparazzi/arm-multilib/lib/gcc/arm-none-eabi/4.4.5/../../../../arm-none-eabi/lib/libstm32.a(stm32_tim.o)
                                                  /home/woz/lisa-m-team4938/paparazzi/var/ECE_2012/ap/arch/stm32/subsystems/radio_control/ppm_arch.o
TIM_ClearOC1Ref                                   /opt/paparazzi/arm-multilib/lib/gcc/arm-none-eabi/4.4.5/../../../../arm-none-eabi/lib/libstm32.a(stm32_tim.o)
TIM_ClearOC2Ref                                   /opt/paparazzi/arm-multilib/lib/gcc/arm-none-eabi/4.4.5/../../../../arm-none-eabi/lib/libstm32.a(stm32_tim.o)
TIM_ClearOC3Ref                                   /opt/paparazzi/arm-multilib/lib/gcc/arm-none-eabi/4.4.5/../../../../arm-none-eabi/lib/libstm32.a(stm32_tim.o)
TIM_ClearOC4Ref                                   /opt/paparazzi/arm-multilib/lib/gcc/arm-none-eabi/4.4.5/../../../../arm-none-eabi/lib/libstm32.a(stm32_tim.o)
TIM_Cmd                                           /opt/paparazzi/arm-multilib/lib/gcc/arm-none-eabi/4.4.5/../../../../arm-none-eabi/lib/libstm32.a(stm32_tim.o)
                                                  /home/woz/lisa-m-team4938/paparazzi/var/ECE_2012/ap/arch/stm32/subsystems/radio_control/ppm_arch.o
                                                  /home/woz/lisa-m-team4938/paparazzi/var/ECE_2012/ap/firmwares/rotorcraft/actuators/arch/stm32/actuators_pwm_arch.o
                                                  /home/woz/lisa-m-team4938/paparazzi/var/ECE_2012/ap/arch/stm32/mcu_periph/adc_arch.o
TIM_CounterModeConfig                             /opt/paparazzi/arm-multilib/lib/gcc/arm-none-eabi/4.4.5/../../../../arm-none-eabi/lib/libstm32.a(stm32_tim.o)
TIM_CtrlPWMOutputs                                /opt/paparazzi/arm-multilib/lib/gcc/arm-none-eabi/4.4.5/../../../../arm-none-eabi/lib/libstm32.a(stm32_tim.o)
                                                  /home/woz/lisa-m-team4938/paparazzi/var/ECE_2012/ap/firmwares/rotorcraft/actuators/arch/stm32/actuators_pwm_arch.o
TIM_DMACmd                                        /opt/paparazzi/arm-multilib/lib/gcc/arm-none-eabi/4.4.5/../../../../arm-none-eabi/lib/libstm32.a(stm32_tim.o)
TIM_DMAConfig                                     /opt/paparazzi/arm-multilib/lib/gcc/arm-none-eabi/4.4.5/../../../../arm-none-eabi/lib/libstm32.a(stm32_tim.o)
TIM_DeInit                                        /opt/paparazzi/arm-multilib/lib/gcc/arm-none-eabi/4.4.5/../../../../arm-none-eabi/lib/libstm32.a(stm32_tim.o)
TIM_ETRClockMode1Config                           /opt/paparazzi/arm-multilib/lib/gcc/arm-none-eabi/4.4.5/../../../../arm-none-eabi/lib/libstm32.a(stm32_tim.o)
TIM_ETRClockMode2Config                           /opt/paparazzi/arm-multilib/lib/gcc/arm-none-eabi/4.4.5/../../../../arm-none-eabi/lib/libstm32.a(stm32_tim.o)
TIM_ETRConfig                                     /opt/paparazzi/arm-multilib/lib/gcc/arm-none-eabi/4.4.5/../../../../arm-none-eabi/lib/libstm32.a(stm32_tim.o)
TIM_EncoderInterfaceConfig                        /opt/paparazzi/arm-multilib/lib/gcc/arm-none-eabi/4.4.5/../../../../arm-none-eabi/lib/libstm32.a(stm32_tim.o)
TIM_ForcedOC1Config                               /opt/paparazzi/arm-multilib/lib/gcc/arm-none-eabi/4.4.5/../../../../arm-none-eabi/lib/libstm32.a(stm32_tim.o)
TIM_ForcedOC2Config                               /opt/paparazzi/arm-multilib/lib/gcc/arm-none-eabi/4.4.5/../../../../arm-none-eabi/lib/libstm32.a(stm32_tim.o)
TIM_ForcedOC3Config                               /opt/paparazzi/arm-multilib/lib/gcc/arm-none-eabi/4.4.5/../../../../arm-none-eabi/lib/libstm32.a(stm32_tim.o)
TIM_ForcedOC4Config                               /opt/paparazzi/arm-multilib/lib/gcc/arm-none-eabi/4.4.5/../../../../arm-none-eabi/lib/libstm32.a(stm32_tim.o)
TIM_GenerateEvent                                 /opt/paparazzi/arm-multilib/lib/gcc/arm-none-eabi/4.4.5/../../../../arm-none-eabi/lib/libstm32.a(stm32_tim.o)
TIM_GetCapture1                                   /opt/paparazzi/arm-multilib/lib/gcc/arm-none-eabi/4.4.5/../../../../arm-none-eabi/lib/libstm32.a(stm32_tim.o)
TIM_GetCapture2                                   /opt/paparazzi/arm-multilib/lib/gcc/arm-none-eabi/4.4.5/../../../../arm-none-eabi/lib/libstm32.a(stm32_tim.o)
                                                  /home/woz/lisa-m-team4938/paparazzi/var/ECE_2012/ap/arch/stm32/subsystems/radio_control/ppm_arch.o
TIM_GetCapture3                                   /opt/paparazzi/arm-multilib/lib/gcc/arm-none-eabi/4.4.5/../../../../arm-none-eabi/lib/libstm32.a(stm32_tim.o)
TIM_GetCapture4                                   /opt/paparazzi/arm-multilib/lib/gcc/arm-none-eabi/4.4.5/../../../../arm-none-eabi/lib/libstm32.a(stm32_tim.o)
TIM_GetCounter                                    /opt/paparazzi/arm-multilib/lib/gcc/arm-none-eabi/4.4.5/../../../../arm-none-eabi/lib/libstm32.a(stm32_tim.o)
TIM_GetFlagStatus                                 /opt/paparazzi/arm-multilib/lib/gcc/arm-none-eabi/4.4.5/../../../../arm-none-eabi/lib/libstm32.a(stm32_tim.o)
TIM_GetITStatus                                   /opt/paparazzi/arm-multilib/lib/gcc/arm-none-eabi/4.4.5/../../../../arm-none-eabi/lib/libstm32.a(stm32_tim.o)
                                                  /home/woz/lisa-m-team4938/paparazzi/var/ECE_2012/ap/arch/stm32/subsystems/radio_control/ppm_arch.o
TIM_GetPrescaler                                  /opt/paparazzi/arm-multilib/lib/gcc/arm-none-eabi/4.4.5/../../../../arm-none-eabi/lib/libstm32.a(stm32_tim.o)
TIM_ICInit                                        /opt/paparazzi/arm-multilib/lib/gcc/arm-none-eabi/4.4.5/../../../../arm-none-eabi/lib/libstm32.a(stm32_tim.o)
                                                  /home/woz/lisa-m-team4938/paparazzi/var/ECE_2012/ap/arch/stm32/subsystems/radio_control/ppm_arch.o
TIM_ICStructInit                                  /opt/paparazzi/arm-multilib/lib/gcc/arm-none-eabi/4.4.5/../../../../arm-none-eabi/lib/libstm32.a(stm32_tim.o)
TIM_ITConfig                                      /opt/paparazzi/arm-multilib/lib/gcc/arm-none-eabi/4.4.5/../../../../arm-none-eabi/lib/libstm32.a(stm32_tim.o)
                                                  /home/woz/lisa-m-team4938/paparazzi/var/ECE_2012/ap/arch/stm32/subsystems/radio_control/ppm_arch.o
TIM_ITRxExternalClockConfig                       /opt/paparazzi/arm-multilib/lib/gcc/arm-none-eabi/4.4.5/../../../../arm-none-eabi/lib/libstm32.a(stm32_tim.o)
TIM_InternalClockConfig                           /opt/paparazzi/arm-multilib/lib/gcc/arm-none-eabi/4.4.5/../../../../arm-none-eabi/lib/libstm32.a(stm32_tim.o)
TIM_OC1FastConfig                                 /opt/paparazzi/arm-multilib/lib/gcc/arm-none-eabi/4.4.5/../../../../arm-none-eabi/lib/libstm32.a(stm32_tim.o)
TIM_OC1Init                                       /opt/paparazzi/arm-multilib/lib/gcc/arm-none-eabi/4.4.5/../../../../arm-none-eabi/lib/libstm32.a(stm32_tim.o)
                                                  /home/woz/lisa-m-team4938/paparazzi/var/ECE_2012/ap/firmwares/rotorcraft/actuators/arch/stm32/actuators_pwm_arch.o
TIM_OC1NPolarityConfig                            /opt/paparazzi/arm-multilib/lib/gcc/arm-none-eabi/4.4.5/../../../../arm-none-eabi/lib/libstm32.a(stm32_tim.o)
TIM_OC1PolarityConfig                             /opt/paparazzi/arm-multilib/lib/gcc/arm-none-eabi/4.4.5/../../../../arm-none-eabi/lib/libstm32.a(stm32_tim.o)
TIM_OC1PreloadConfig                              /opt/paparazzi/arm-multilib/lib/gcc/arm-none-eabi/4.4.5/../../../../arm-none-eabi/lib/libstm32.a(stm32_tim.o)
                                                  /home/woz/lisa-m-team4938/paparazzi/var/ECE_2012/ap/firmwares/rotorcraft/actuators/arch/stm32/actuators_pwm_arch.o
TIM_OC2FastConfig                                 /opt/paparazzi/arm-multilib/lib/gcc/arm-none-eabi/4.4.5/../../../../arm-none-eabi/lib/libstm32.a(stm32_tim.o)
TIM_OC2Init                                       /opt/paparazzi/arm-multilib/lib/gcc/arm-none-eabi/4.4.5/../../../../arm-none-eabi/lib/libstm32.a(stm32_tim.o)
                                                  /home/woz/lisa-m-team4938/paparazzi/var/ECE_2012/ap/firmwares/rotorcraft/actuators/arch/stm32/actuators_pwm_arch.o
TIM_OC2NPolarityConfig                            /opt/paparazzi/arm-multilib/lib/gcc/arm-none-eabi/4.4.5/../../../../arm-none-eabi/lib/libstm32.a(stm32_tim.o)
TIM_OC2PolarityConfig                             /opt/paparazzi/arm-multilib/lib/gcc/arm-none-eabi/4.4.5/../../../../arm-none-eabi/lib/libstm32.a(stm32_tim.o)
TIM_OC2PreloadConfig                              /opt/paparazzi/arm-multilib/lib/gcc/arm-none-eabi/4.4.5/../../../../arm-none-eabi/lib/libstm32.a(stm32_tim.o)
                                                  /home/woz/lisa-m-team4938/paparazzi/var/ECE_2012/ap/firmwares/rotorcraft/actuators/arch/stm32/actuators_pwm_arch.o
TIM_OC3FastConfig                                 /opt/paparazzi/arm-multilib/lib/gcc/arm-none-eabi/4.4.5/../../../../arm-none-eabi/lib/libstm32.a(stm32_tim.o)
TIM_OC3Init                                       /opt/paparazzi/arm-multilib/lib/gcc/arm-none-eabi/4.4.5/../../../../arm-none-eabi/lib/libstm32.a(stm32_tim.o)
                                                  /home/woz/lisa-m-team4938/paparazzi/var/ECE_2012/ap/firmwares/rotorcraft/actuators/arch/stm32/actuators_pwm_arch.o
TIM_OC3NPolarityConfig                            /opt/paparazzi/arm-multilib/lib/gcc/arm-none-eabi/4.4.5/../../../../arm-none-eabi/lib/libstm32.a(stm32_tim.o)
TIM_OC3PolarityConfig                             /opt/paparazzi/arm-multilib/lib/gcc/arm-none-eabi/4.4.5/../../../../arm-none-eabi/lib/libstm32.a(stm32_tim.o)
TIM_OC3PreloadConfig                              /opt/paparazzi/arm-multilib/lib/gcc/arm-none-eabi/4.4.5/../../../../arm-none-eabi/lib/libstm32.a(stm32_tim.o)
                                                  /home/woz/lisa-m-team4938/paparazzi/var/ECE_2012/ap/firmwares/rotorcraft/actuators/arch/stm32/actuators_pwm_arch.o
TIM_OC4FastConfig                                 /opt/paparazzi/arm-multilib/lib/gcc/arm-none-eabi/4.4.5/../../../../arm-none-eabi/lib/libstm32.a(stm32_tim.o)
TIM_OC4Init                                       /opt/paparazzi/arm-multilib/lib/gcc/arm-none-eabi/4.4.5/../../../../arm-none-eabi/lib/libstm32.a(stm32_tim.o)
                                                  /home/woz/lisa-m-team4938/paparazzi/var/ECE_2012/ap/firmwares/rotorcraft/actuators/arch/stm32/actuators_pwm_arch.o
TIM_OC4PolarityConfig                             /opt/paparazzi/arm-multilib/lib/gcc/arm-none-eabi/4.4.5/../../../../arm-none-eabi/lib/libstm32.a(stm32_tim.o)
TIM_OC4PreloadConfig                              /opt/paparazzi/arm-multilib/lib/gcc/arm-none-eabi/4.4.5/../../../../arm-none-eabi/lib/libstm32.a(stm32_tim.o)
                                                  /home/woz/lisa-m-team4938/paparazzi/var/ECE_2012/ap/firmwares/rotorcraft/actuators/arch/stm32/actuators_pwm_arch.o
TIM_OCStructInit                                  /opt/paparazzi/arm-multilib/lib/gcc/arm-none-eabi/4.4.5/../../../../arm-none-eabi/lib/libstm32.a(stm32_tim.o)
TIM_PWMIConfig                                    /opt/paparazzi/arm-multilib/lib/gcc/arm-none-eabi/4.4.5/../../../../arm-none-eabi/lib/libstm32.a(stm32_tim.o)
TIM_PrescalerConfig                               /opt/paparazzi/arm-multilib/lib/gcc/arm-none-eabi/4.4.5/../../../../arm-none-eabi/lib/libstm32.a(stm32_tim.o)
TIM_SelectCCDMA                                   /opt/paparazzi/arm-multilib/lib/gcc/arm-none-eabi/4.4.5/../../../../arm-none-eabi/lib/libstm32.a(stm32_tim.o)
TIM_SelectCOM                                     /opt/paparazzi/arm-multilib/lib/gcc/arm-none-eabi/4.4.5/../../../../arm-none-eabi/lib/libstm32.a(stm32_tim.o)
TIM_SelectHallSensor                              /opt/paparazzi/arm-multilib/lib/gcc/arm-none-eabi/4.4.5/../../../../arm-none-eabi/lib/libstm32.a(stm32_tim.o)
TIM_SelectInputTrigger                            /opt/paparazzi/arm-multilib/lib/gcc/arm-none-eabi/4.4.5/../../../../arm-none-eabi/lib/libstm32.a(stm32_tim.o)
TIM_SelectMasterSlaveMode                         /opt/paparazzi/arm-multilib/lib/gcc/arm-none-eabi/4.4.5/../../../../arm-none-eabi/lib/libstm32.a(stm32_tim.o)
TIM_SelectOCxM                                    /opt/paparazzi/arm-multilib/lib/gcc/arm-none-eabi/4.4.5/../../../../arm-none-eabi/lib/libstm32.a(stm32_tim.o)
TIM_SelectOnePulseMode                            /opt/paparazzi/arm-multilib/lib/gcc/arm-none-eabi/4.4.5/../../../../arm-none-eabi/lib/libstm32.a(stm32_tim.o)
TIM_SelectOutputTrigger                           /opt/paparazzi/arm-multilib/lib/gcc/arm-none-eabi/4.4.5/../../../../arm-none-eabi/lib/libstm32.a(stm32_tim.o)
                                                  /home/woz/lisa-m-team4938/paparazzi/var/ECE_2012/ap/arch/stm32/mcu_periph/adc_arch.o
TIM_SelectSlaveMode                               /opt/paparazzi/arm-multilib/lib/gcc/arm-none-eabi/4.4.5/../../../../arm-none-eabi/lib/libstm32.a(stm32_tim.o)
TIM_SetAutoreload                                 /opt/paparazzi/arm-multilib/lib/gcc/arm-none-eabi/4.4.5/../../../../arm-none-eabi/lib/libstm32.a(stm32_tim.o)
TIM_SetClockDivision                              /opt/paparazzi/arm-multilib/lib/gcc/arm-none-eabi/4.4.5/../../../../arm-none-eabi/lib/libstm32.a(stm32_tim.o)
TIM_SetCompare1                                   /opt/paparazzi/arm-multilib/lib/gcc/arm-none-eabi/4.4.5/../../../../arm-none-eabi/lib/libstm32.a(stm32_tim.o)
                                                  /home/woz/lisa-m-team4938/paparazzi/var/ECE_2012/ap/firmwares/rotorcraft/actuators/arch/stm32/actuators_pwm_arch.o
TIM_SetCompare2                                   /opt/paparazzi/arm-multilib/lib/gcc/arm-none-eabi/4.4.5/../../../../arm-none-eabi/lib/libstm32.a(stm32_tim.o)
                                                  /home/woz/lisa-m-team4938/paparazzi/var/ECE_2012/ap/firmwares/rotorcraft/actuators/arch/stm32/actuators_pwm_arch.o
TIM_SetCompare3                                   /opt/paparazzi/arm-multilib/lib/gcc/arm-none-eabi/4.4.5/../../../../arm-none-eabi/lib/libstm32.a(stm32_tim.o)
                                                  /home/woz/lisa-m-team4938/paparazzi/var/ECE_2012/ap/firmwares/rotorcraft/actuators/arch/stm32/actuators_pwm_arch.o
TIM_SetCompare4                                   /opt/paparazzi/arm-multilib/lib/gcc/arm-none-eabi/4.4.5/../../../../arm-none-eabi/lib/libstm32.a(stm32_tim.o)
                                                  /home/woz/lisa-m-team4938/paparazzi/var/ECE_2012/ap/firmwares/rotorcraft/actuators/arch/stm32/actuators_pwm_arch.o
TIM_SetCounter                                    /opt/paparazzi/arm-multilib/lib/gcc/arm-none-eabi/4.4.5/../../../../arm-none-eabi/lib/libstm32.a(stm32_tim.o)
TIM_SetIC1Prescaler                               /opt/paparazzi/arm-multilib/lib/gcc/arm-none-eabi/4.4.5/../../../../arm-none-eabi/lib/libstm32.a(stm32_tim.o)
TIM_SetIC2Prescaler                               /opt/paparazzi/arm-multilib/lib/gcc/arm-none-eabi/4.4.5/../../../../arm-none-eabi/lib/libstm32.a(stm32_tim.o)
TIM_SetIC3Prescaler                               /opt/paparazzi/arm-multilib/lib/gcc/arm-none-eabi/4.4.5/../../../../arm-none-eabi/lib/libstm32.a(stm32_tim.o)
TIM_SetIC4Prescaler                               /opt/paparazzi/arm-multilib/lib/gcc/arm-none-eabi/4.4.5/../../../../arm-none-eabi/lib/libstm32.a(stm32_tim.o)
TIM_TIxExternalClockConfig                        /opt/paparazzi/arm-multilib/lib/gcc/arm-none-eabi/4.4.5/../../../../arm-none-eabi/lib/libstm32.a(stm32_tim.o)
TIM_TimeBaseInit                                  /opt/paparazzi/arm-multilib/lib/gcc/arm-none-eabi/4.4.5/../../../../arm-none-eabi/lib/libstm32.a(stm32_tim.o)
                                                  /home/woz/lisa-m-team4938/paparazzi/var/ECE_2012/ap/arch/stm32/subsystems/radio_control/ppm_arch.o
                                                  /home/woz/lisa-m-team4938/paparazzi/var/ECE_2012/ap/firmwares/rotorcraft/actuators/arch/stm32/actuators_pwm_arch.o
                                                  /home/woz/lisa-m-team4938/paparazzi/var/ECE_2012/ap/arch/stm32/mcu_periph/adc_arch.o
TIM_TimeBaseStructInit                            /opt/paparazzi/arm-multilib/lib/gcc/arm-none-eabi/4.4.5/../../../../arm-none-eabi/lib/libstm32.a(stm32_tim.o)
                                                  /home/woz/lisa-m-team4938/paparazzi/var/ECE_2012/ap/arch/stm32/subsystems/radio_control/ppm_arch.o
                                                  /home/woz/lisa-m-team4938/paparazzi/var/ECE_2012/ap/arch/stm32/mcu_periph/adc_arch.o
TIM_UpdateDisableConfig                           /opt/paparazzi/arm-multilib/lib/gcc/arm-none-eabi/4.4.5/../../../../arm-none-eabi/lib/libstm32.a(stm32_tim.o)
TIM_UpdateRequestConfig                           /opt/paparazzi/arm-multilib/lib/gcc/arm-none-eabi/4.4.5/../../../../arm-none-eabi/lib/libstm32.a(stm32_tim.o)
Temporary_Matrix                                  /home/woz/lisa-m-team4938/paparazzi/var/ECE_2012/ap/subsystems/ahrs/ahrs_float_dcm.o
USART_ClearFlag                                   /opt/paparazzi/arm-multilib/lib/gcc/arm-none-eabi/4.4.5/../../../../arm-none-eabi/lib/libstm32.a(stm32_usart.o)
USART_ClearITPendingBit                           /opt/paparazzi/arm-multilib/lib/gcc/arm-none-eabi/4.4.5/../../../../arm-none-eabi/lib/libstm32.a(stm32_usart.o)
USART_ClockInit                                   /opt/paparazzi/arm-multilib/lib/gcc/arm-none-eabi/4.4.5/../../../../arm-none-eabi/lib/libstm32.a(stm32_usart.o)
USART_ClockStructInit                             /opt/paparazzi/arm-multilib/lib/gcc/arm-none-eabi/4.4.5/../../../../arm-none-eabi/lib/libstm32.a(stm32_usart.o)
USART_Cmd                                         /opt/paparazzi/arm-multilib/lib/gcc/arm-none-eabi/4.4.5/../../../../arm-none-eabi/lib/libstm32.a(stm32_usart.o)
                                                  /home/woz/lisa-m-team4938/paparazzi/var/ECE_2012/ap/arch/stm32/mcu_periph/uart_arch.o
USART_DMACmd                                      /opt/paparazzi/arm-multilib/lib/gcc/arm-none-eabi/4.4.5/../../../../arm-none-eabi/lib/libstm32.a(stm32_usart.o)
USART_DeInit                                      /opt/paparazzi/arm-multilib/lib/gcc/arm-none-eabi/4.4.5/../../../../arm-none-eabi/lib/libstm32.a(stm32_usart.o)
USART_GetFlagStatus                               /opt/paparazzi/arm-multilib/lib/gcc/arm-none-eabi/4.4.5/../../../../arm-none-eabi/lib/libstm32.a(stm32_usart.o)
USART_GetITStatus                                 /opt/paparazzi/arm-multilib/lib/gcc/arm-none-eabi/4.4.5/../../../../arm-none-eabi/lib/libstm32.a(stm32_usart.o)
                                                  /home/woz/lisa-m-team4938/paparazzi/var/ECE_2012/ap/arch/stm32/mcu_periph/uart_arch.o
USART_HalfDuplexCmd                               /opt/paparazzi/arm-multilib/lib/gcc/arm-none-eabi/4.4.5/../../../../arm-none-eabi/lib/libstm32.a(stm32_usart.o)
USART_ITConfig                                    /opt/paparazzi/arm-multilib/lib/gcc/arm-none-eabi/4.4.5/../../../../arm-none-eabi/lib/libstm32.a(stm32_usart.o)
                                                  /home/woz/lisa-m-team4938/paparazzi/var/ECE_2012/ap/arch/stm32/mcu_periph/uart_arch.o
USART_Init                                        /opt/paparazzi/arm-multilib/lib/gcc/arm-none-eabi/4.4.5/../../../../arm-none-eabi/lib/libstm32.a(stm32_usart.o)
                                                  /home/woz/lisa-m-team4938/paparazzi/var/ECE_2012/ap/arch/stm32/mcu_periph/uart_arch.o
USART_IrDACmd                                     /opt/paparazzi/arm-multilib/lib/gcc/arm-none-eabi/4.4.5/../../../../arm-none-eabi/lib/libstm32.a(stm32_usart.o)
USART_IrDAConfig                                  /opt/paparazzi/arm-multilib/lib/gcc/arm-none-eabi/4.4.5/../../../../arm-none-eabi/lib/libstm32.a(stm32_usart.o)
USART_LINBreakDetectLengthConfig                  /opt/paparazzi/arm-multilib/lib/gcc/arm-none-eabi/4.4.5/../../../../arm-none-eabi/lib/libstm32.a(stm32_usart.o)
USART_LINCmd                                      /opt/paparazzi/arm-multilib/lib/gcc/arm-none-eabi/4.4.5/../../../../arm-none-eabi/lib/libstm32.a(stm32_usart.o)
USART_ReceiveData                                 /opt/paparazzi/arm-multilib/lib/gcc/arm-none-eabi/4.4.5/../../../../arm-none-eabi/lib/libstm32.a(stm32_usart.o)
                                                  /home/woz/lisa-m-team4938/paparazzi/var/ECE_2012/ap/arch/stm32/mcu_periph/uart_arch.o
USART_ReceiverWakeUpCmd                           /opt/paparazzi/arm-multilib/lib/gcc/arm-none-eabi/4.4.5/../../../../arm-none-eabi/lib/libstm32.a(stm32_usart.o)
USART_SendBreak                                   /opt/paparazzi/arm-multilib/lib/gcc/arm-none-eabi/4.4.5/../../../../arm-none-eabi/lib/libstm32.a(stm32_usart.o)
USART_SendData                                    /opt/paparazzi/arm-multilib/lib/gcc/arm-none-eabi/4.4.5/../../../../arm-none-eabi/lib/libstm32.a(stm32_usart.o)
                                                  /home/woz/lisa-m-team4938/paparazzi/var/ECE_2012/ap/arch/stm32/mcu_periph/uart_arch.o
USART_SetAddress                                  /opt/paparazzi/arm-multilib/lib/gcc/arm-none-eabi/4.4.5/../../../../arm-none-eabi/lib/libstm32.a(stm32_usart.o)
USART_SetGuardTime                                /opt/paparazzi/arm-multilib/lib/gcc/arm-none-eabi/4.4.5/../../../../arm-none-eabi/lib/libstm32.a(stm32_usart.o)
USART_SetPrescaler                                /opt/paparazzi/arm-multilib/lib/gcc/arm-none-eabi/4.4.5/../../../../arm-none-eabi/lib/libstm32.a(stm32_usart.o)
USART_SmartCardCmd                                /opt/paparazzi/arm-multilib/lib/gcc/arm-none-eabi/4.4.5/../../../../arm-none-eabi/lib/libstm32.a(stm32_usart.o)
USART_SmartCardNACKCmd                            /opt/paparazzi/arm-multilib/lib/gcc/arm-none-eabi/4.4.5/../../../../arm-none-eabi/lib/libstm32.a(stm32_usart.o)
USART_StructInit                                  /opt/paparazzi/arm-multilib/lib/gcc/arm-none-eabi/4.4.5/../../../../arm-none-eabi/lib/libstm32.a(stm32_usart.o)
USART_WakeUpConfig                                /opt/paparazzi/arm-multilib/lib/gcc/arm-none-eabi/4.4.5/../../../../arm-none-eabi/lib/libstm32.a(stm32_usart.o)
Update_Matrix                                     /home/woz/lisa-m-team4938/paparazzi/var/ECE_2012/ap/subsystems/ahrs/ahrs_float_dcm.o
__adddf3                                          /opt/paparazzi/arm-multilib/lib/gcc/arm-none-eabi/4.4.5/thumb2/libgcc.a(_arm_addsubdf3.o)
__addsf3                                          /opt/paparazzi/arm-multilib/lib/gcc/arm-none-eabi/4.4.5/thumb2/libgcc.a(_arm_addsubsf3.o)
__aeabi_cdcmpeq                                   /opt/paparazzi/arm-multilib/lib/gcc/arm-none-eabi/4.4.5/thumb2/libgcc.a(_arm_cmpdf2.o)
__aeabi_cdcmple                                   /opt/paparazzi/arm-multilib/lib/gcc/arm-none-eabi/4.4.5/thumb2/libgcc.a(_arm_cmpdf2.o)
__aeabi_cdrcmple                                  /opt/paparazzi/arm-multilib/lib/gcc/arm-none-eabi/4.4.5/thumb2/libgcc.a(_arm_cmpdf2.o)
__aeabi_cfcmpeq                                   /opt/paparazzi/arm-multilib/lib/gcc/arm-none-eabi/4.4.5/thumb2/libgcc.a(_arm_cmpsf2.o)
__aeabi_cfcmple                                   /opt/paparazzi/arm-multilib/lib/gcc/arm-none-eabi/4.4.5/thumb2/libgcc.a(_arm_cmpsf2.o)
__aeabi_cfrcmple                                  /opt/paparazzi/arm-multilib/lib/gcc/arm-none-eabi/4.4.5/thumb2/libgcc.a(_arm_cmpsf2.o)
__aeabi_d2f                                       /opt/paparazzi/arm-multilib/lib/gcc/arm-none-eabi/4.4.5/thumb2/libgcc.a(_arm_truncdfsf2.o)
                                                  /opt/paparazzi/arm-multilib/lib/gcc/arm-none-eabi/4.4.5/../../../../arm-none-eabi/lib/thumb2/libm.a(lib_a-wf_sqrt.o)
                                                  /opt/paparazzi/arm-multilib/lib/gcc/arm-none-eabi/4.4.5/../../../../arm-none-eabi/lib/thumb2/libm.a(lib_a-wf_pow.o)
                                                  /opt/paparazzi/arm-multilib/lib/gcc/arm-none-eabi/4.4.5/../../../../arm-none-eabi/lib/thumb2/libm.a(lib_a-wf_asin.o)
                                                  /home/woz/lisa-m-team4938/paparazzi/var/ECE_2012/ap/subsystems/navigation/nav_line.o
                                                  /home/woz/lisa-m-team4938/paparazzi/var/ECE_2012/ap/subsystems/navigation/nav_survey_rectangle.o
                                                  /home/woz/lisa-m-team4938/paparazzi/var/ECE_2012/ap/subsystems/nav.o
                                                  /home/woz/lisa-m-team4938/paparazzi/var/ECE_2012/ap/subsystems/ahrs/ahrs_float_dcm.o
                                                  /home/woz/lisa-m-team4938/paparazzi/var/ECE_2012/ap/firmwares/fixedwing/guidance/guidance_v.o
                                                  /home/woz/lisa-m-team4938/paparazzi/var/ECE_2012/ap/firmwares/fixedwing/stabilization/stabilization_attitude.o
                                                  /home/woz/lisa-m-team4938/paparazzi/var/ECE_2012/ap/firmwares/fixedwing/datalink.o
                                                  /home/woz/lisa-m-team4938/paparazzi/var/ECE_2012/ap/./estimator.o
                                                  /home/woz/lisa-m-team4938/paparazzi/var/ECE_2012/ap/firmwares/fixedwing/main_fbw.o
                                                  /home/woz/lisa-m-team4938/paparazzi/var/ECE_2012/ap/math/pprz_geodetic_double.o
                                                  /home/woz/lisa-m-team4938/paparazzi/var/ECE_2012/ap/math/pprz_geodetic_float.o
__aeabi_d2iz                                      /opt/paparazzi/arm-multilib/lib/gcc/arm-none-eabi/4.4.5/thumb2/libgcc.a(_arm_fixdfsi.o)
                                                  /opt/paparazzi/arm-multilib/lib/gcc/arm-none-eabi/4.4.5/../../../../arm-none-eabi/lib/thumb2/libm.a(lib_a-s_expm1.o)
                                                  /opt/paparazzi/arm-multilib/lib/gcc/arm-none-eabi/4.4.5/../../../../arm-none-eabi/lib/thumb2/libm.a(lib_a-k_tan.o)
                                                  /opt/paparazzi/arm-multilib/lib/gcc/arm-none-eabi/4.4.5/../../../../arm-none-eabi/lib/thumb2/libm.a(lib_a-k_sin.o)
                                                  /opt/paparazzi/arm-multilib/lib/gcc/arm-none-eabi/4.4.5/../../../../arm-none-eabi/lib/thumb2/libm.a(lib_a-k_rem_pio2.o)
                                                  /opt/paparazzi/arm-multilib/lib/gcc/arm-none-eabi/4.4.5/../../../../arm-none-eabi/lib/thumb2/libm.a(lib_a-k_cos.o)
                                                  /opt/paparazzi/arm-multilib/lib/gcc/arm-none-eabi/4.4.5/../../../../arm-none-eabi/lib/thumb2/libm.a(lib_a-e_rem_pio2.o)
                                                  /opt/paparazzi/arm-multilib/lib/gcc/arm-none-eabi/4.4.5/../../../../arm-none-eabi/lib/thumb2/libm.a(lib_a-e_exp.o)
                                                  /home/woz/lisa-m-team4938/paparazzi/var/ECE_2012/ap/subsystems/gps/gps_ubx.o
                                                  /home/woz/lisa-m-team4938/paparazzi/var/ECE_2012/ap/firmwares/fixedwing/main_ap.o
                                                  /home/woz/lisa-m-team4938/paparazzi/var/ECE_2012/ap/subsystems/electrical.o
                                                  /home/woz/lisa-m-team4938/paparazzi/var/ECE_2012/ap/math/pprz_geodetic_int.o
__aeabi_d2uiz                                     /opt/paparazzi/arm-multilib/lib/gcc/arm-none-eabi/4.4.5/thumb2/libgcc.a(_arm_fixunsdfsi.o)
                                                  /home/woz/lisa-m-team4938/paparazzi/var/ECE_2012/ap/subsystems/nav.o
                                                  /home/woz/lisa-m-team4938/paparazzi/var/ECE_2012/ap/firmwares/fixedwing/datalink.o
                                                  /home/woz/lisa-m-team4938/paparazzi/var/ECE_2012/ap/firmwares/fixedwing/main_ap.o
                                                  /home/woz/lisa-m-team4938/paparazzi/var/ECE_2012/ap/subsystems/electrical.o
__aeabi_dadd                                      /opt/paparazzi/arm-multilib/lib/gcc/arm-none-eabi/4.4.5/thumb2/libgcc.a(_arm_addsubdf3.o)
                                                  /opt/paparazzi/arm-multilib/lib/gcc/arm-none-eabi/4.4.5/../../../../arm-none-eabi/lib/thumb2/libm.a(lib_a-s_scalbn.o)
                                                  /opt/paparazzi/arm-multilib/lib/gcc/arm-none-eabi/4.4.5/../../../../arm-none-eabi/lib/thumb2/libm.a(lib_a-s_floor.o)
                                                  /opt/paparazzi/arm-multilib/lib/gcc/arm-none-eabi/4.4.5/../../../../arm-none-eabi/lib/thumb2/libm.a(lib_a-s_expm1.o)
                                                  /opt/paparazzi/arm-multilib/lib/gcc/arm-none-eabi/4.4.5/../../../../arm-none-eabi/lib/thumb2/libm.a(lib_a-k_tan.o)
                                                  /opt/paparazzi/arm-multilib/lib/gcc/arm-none-eabi/4.4.5/../../../../arm-none-eabi/lib/thumb2/libm.a(lib_a-k_sin.o)
                                                  /opt/paparazzi/arm-multilib/lib/gcc/arm-none-eabi/4.4.5/../../../../arm-none-eabi/lib/thumb2/libm.a(lib_a-k_rem_pio2.o)
                                                  /opt/paparazzi/arm-multilib/lib/gcc/arm-none-eabi/4.4.5/../../../../arm-none-eabi/lib/thumb2/libm.a(lib_a-k_cos.o)
                                                  /opt/paparazzi/arm-multilib/lib/gcc/arm-none-eabi/4.4.5/../../../../arm-none-eabi/lib/thumb2/libm.a(lib_a-e_sqrt.o)
                                                  /opt/paparazzi/arm-multilib/lib/gcc/arm-none-eabi/4.4.5/../../../../arm-none-eabi/lib/thumb2/libm.a(lib_a-e_sinh.o)
                                                  /opt/paparazzi/arm-multilib/lib/gcc/arm-none-eabi/4.4.5/../../../../arm-none-eabi/lib/thumb2/libm.a(lib_a-e_rem_pio2.o)
                                                  /opt/paparazzi/arm-multilib/lib/gcc/arm-none-eabi/4.4.5/../../../../arm-none-eabi/lib/thumb2/libm.a(lib_a-e_pow.o)
                                                  /opt/paparazzi/arm-multilib/lib/gcc/arm-none-eabi/4.4.5/../../../../arm-none-eabi/lib/thumb2/libm.a(lib_a-e_log.o)
                                                  /opt/paparazzi/arm-multilib/lib/gcc/arm-none-eabi/4.4.5/../../../../arm-none-eabi/lib/thumb2/libm.a(lib_a-e_exp.o)
                                                  /opt/paparazzi/arm-multilib/lib/gcc/arm-none-eabi/4.4.5/../../../../arm-none-eabi/lib/thumb2/libm.a(lib_a-e_cosh.o)
                                                  /opt/paparazzi/arm-multilib/lib/gcc/arm-none-eabi/4.4.5/../../../../arm-none-eabi/lib/thumb2/libm.a(lib_a-e_atan2.o)
                                                  /opt/paparazzi/arm-multilib/lib/gcc/arm-none-eabi/4.4.5/../../../../arm-none-eabi/lib/thumb2/libm.a(lib_a-e_asin.o)
                                                  /opt/paparazzi/arm-multilib/lib/gcc/arm-none-eabi/4.4.5/../../../../arm-none-eabi/lib/thumb2/libm.a(lib_a-s_rint.o)
                                                  /opt/paparazzi/arm-multilib/lib/gcc/arm-none-eabi/4.4.5/../../../../arm-none-eabi/lib/thumb2/libm.a(lib_a-s_atan.o)
                                                  /home/woz/lisa-m-team4938/paparazzi/var/ECE_2012/ap/subsystems/navigation/nav_line.o
                                                  /home/woz/lisa-m-team4938/paparazzi/var/ECE_2012/ap/subsystems/navigation/nav_survey_rectangle.o
                                                  /home/woz/lisa-m-team4938/paparazzi/var/ECE_2012/ap/subsystems/nav.o
                                                  /home/woz/lisa-m-team4938/paparazzi/var/ECE_2012/ap/subsystems/ahrs/ahrs_float_dcm.o
                                                  /home/woz/lisa-m-team4938/paparazzi/var/ECE_2012/ap/firmwares/fixedwing/guidance/guidance_v.o
                                                  /home/woz/lisa-m-team4938/paparazzi/var/ECE_2012/ap/firmwares/fixedwing/stabilization/stabilization_attitude.o
                                                  /home/woz/lisa-m-team4938/paparazzi/var/ECE_2012/ap/subsystems/electrical.o
                                                  /home/woz/lisa-m-team4938/paparazzi/var/ECE_2012/ap/math/pprz_geodetic_double.o
                                                  /home/woz/lisa-m-team4938/paparazzi/var/ECE_2012/ap/math/pprz_geodetic_float.o
__aeabi_dcmpeq                                    /opt/paparazzi/arm-multilib/lib/gcc/arm-none-eabi/4.4.5/thumb2/libgcc.a(_arm_cmpdf2.o)
                                                  /opt/paparazzi/arm-multilib/lib/gcc/arm-none-eabi/4.4.5/../../../../arm-none-eabi/lib/thumb2/libm.a(lib_a-k_rem_pio2.o)
                                                  /opt/paparazzi/arm-multilib/lib/gcc/arm-none-eabi/4.4.5/../../../../arm-none-eabi/lib/thumb2/libm.a(lib_a-e_rem_pio2.o)
                                                  /opt/paparazzi/arm-multilib/lib/gcc/arm-none-eabi/4.4.5/../../../../arm-none-eabi/lib/thumb2/libm.a(lib_a-e_log.o)
                                                  /opt/paparazzi/arm-multilib/lib/gcc/arm-none-eabi/4.4.5/../../../../arm-none-eabi/lib/thumb2/libm.a(lib_a-wf_pow.o)
                                                  /opt/paparazzi/arm-multilib/lib/gcc/arm-none-eabi/4.4.5/../../../../arm-none-eabi/lib/thumb2/libm.a(lib_a-w_pow.o)
                                                  /opt/paparazzi/arm-multilib/lib/gcc/arm-none-eabi/4.4.5/../../../../arm-none-eabi/lib/thumb2/libm.a(lib_a-w_log.o)
__aeabi_dcmpge                                    /opt/paparazzi/arm-multilib/lib/gcc/arm-none-eabi/4.4.5/thumb2/libgcc.a(_arm_cmpdf2.o)
                                                  /opt/paparazzi/arm-multilib/lib/gcc/arm-none-eabi/4.4.5/../../../../arm-none-eabi/lib/thumb2/libm.a(lib_a-k_rem_pio2.o)
__aeabi_dcmpgt                                    /opt/paparazzi/arm-multilib/lib/gcc/arm-none-eabi/4.4.5/thumb2/libgcc.a(_arm_cmpdf2.o)
                                                  /opt/paparazzi/arm-multilib/lib/gcc/arm-none-eabi/4.4.5/../../../../arm-none-eabi/lib/thumb2/libm.a(lib_a-s_floor.o)
                                                  /opt/paparazzi/arm-multilib/lib/gcc/arm-none-eabi/4.4.5/../../../../arm-none-eabi/lib/thumb2/libm.a(lib_a-s_expm1.o)
                                                  /opt/paparazzi/arm-multilib/lib/gcc/arm-none-eabi/4.4.5/../../../../arm-none-eabi/lib/thumb2/libm.a(lib_a-e_sinh.o)
                                                  /opt/paparazzi/arm-multilib/lib/gcc/arm-none-eabi/4.4.5/../../../../arm-none-eabi/lib/thumb2/libm.a(lib_a-e_pow.o)
                                                  /opt/paparazzi/arm-multilib/lib/gcc/arm-none-eabi/4.4.5/../../../../arm-none-eabi/lib/thumb2/libm.a(lib_a-e_exp.o)
                                                  /opt/paparazzi/arm-multilib/lib/gcc/arm-none-eabi/4.4.5/../../../../arm-none-eabi/lib/thumb2/libm.a(lib_a-e_asin.o)
                                                  /opt/paparazzi/arm-multilib/lib/gcc/arm-none-eabi/4.4.5/../../../../arm-none-eabi/lib/thumb2/libm.a(lib_a-w_sinh.o)
                                                  /opt/paparazzi/arm-multilib/lib/gcc/arm-none-eabi/4.4.5/../../../../arm-none-eabi/lib/thumb2/libm.a(lib_a-w_log.o)
                                                  /opt/paparazzi/arm-multilib/lib/gcc/arm-none-eabi/4.4.5/../../../../arm-none-eabi/lib/thumb2/libm.a(lib_a-w_exp.o)
                                                  /opt/paparazzi/arm-multilib/lib/gcc/arm-none-eabi/4.4.5/../../../../arm-none-eabi/lib/thumb2/libm.a(lib_a-w_cosh.o)
                                                  /opt/paparazzi/arm-multilib/lib/gcc/arm-none-eabi/4.4.5/../../../../arm-none-eabi/lib/thumb2/libm.a(lib_a-w_asin.o)
                                                  /opt/paparazzi/arm-multilib/lib/gcc/arm-none-eabi/4.4.5/../../../../arm-none-eabi/lib/thumb2/libm.a(lib_a-s_atan.o)
                                                  /home/woz/lisa-m-team4938/paparazzi/var/ECE_2012/ap/subsystems/navigation/nav_survey_rectangle.o
                                                  /home/woz/lisa-m-team4938/paparazzi/var/ECE_2012/ap/subsystems/nav.o
                                                  /home/woz/lisa-m-team4938/paparazzi/var/ECE_2012/ap/subsystems/ahrs/ahrs_float_dcm.o
                                                  /home/woz/lisa-m-team4938/paparazzi/var/ECE_2012/ap/firmwares/fixedwing/guidance/guidance_v.o
                                                  /home/woz/lisa-m-team4938/paparazzi/var/ECE_2012/ap/firmwares/fixedwing/stabilization/stabilization_attitude.o
                                                  /home/woz/lisa-m-team4938/paparazzi/var/ECE_2012/ap/./estimator.o
                                                  /home/woz/lisa-m-team4938/paparazzi/var/ECE_2012/ap/firmwares/fixedwing/main_ap.o
                                                  /home/woz/lisa-m-team4938/paparazzi/var/ECE_2012/ap/math/pprz_geodetic_double.o
__aeabi_dcmple                                    /opt/paparazzi/arm-multilib/lib/gcc/arm-none-eabi/4.4.5/thumb2/libgcc.a(_arm_cmpdf2.o)
                                                  /opt/paparazzi/arm-multilib/lib/gcc/arm-none-eabi/4.4.5/../../../../arm-none-eabi/lib/thumb2/libm.a(lib_a-e_pow.o)
__aeabi_dcmplt                                    /opt/paparazzi/arm-multilib/lib/gcc/arm-none-eabi/4.4.5/thumb2/libgcc.a(_arm_cmpdf2.o)
                                                  /opt/paparazzi/arm-multilib/lib/gcc/arm-none-eabi/4.4.5/../../../../arm-none-eabi/lib/thumb2/libm.a(lib_a-s_expm1.o)
                                                  /opt/paparazzi/arm-multilib/lib/gcc/arm-none-eabi/4.4.5/../../../../arm-none-eabi/lib/thumb2/libm.a(lib_a-e_exp.o)
                                                  /opt/paparazzi/arm-multilib/lib/gcc/arm-none-eabi/4.4.5/../../../../arm-none-eabi/lib/thumb2/libm.a(lib_a-w_sqrt.o)
                                                  /opt/paparazzi/arm-multilib/lib/gcc/arm-none-eabi/4.4.5/../../../../arm-none-eabi/lib/thumb2/libm.a(lib_a-w_pow.o)
                                                  /opt/paparazzi/arm-multilib/lib/gcc/arm-none-eabi/4.4.5/../../../../arm-none-eabi/lib/thumb2/libm.a(lib_a-w_exp.o)
                                                  /home/woz/lisa-m-team4938/paparazzi/var/ECE_2012/ap/subsystems/navigation/nav_survey_rectangle.o
                                                  /home/woz/lisa-m-team4938/paparazzi/var/ECE_2012/ap/subsystems/nav.o
                                                  /home/woz/lisa-m-team4938/paparazzi/var/ECE_2012/ap/subsystems/ahrs/ahrs_float_dcm.o
                                                  /home/woz/lisa-m-team4938/paparazzi/var/ECE_2012/ap/firmwares/fixedwing/guidance/guidance_v.o
                                                  /home/woz/lisa-m-team4938/paparazzi/var/ECE_2012/ap/firmwares/fixedwing/stabilization/stabilization_attitude.o
                                                  /home/woz/lisa-m-team4938/paparazzi/var/ECE_2012/ap/firmwares/fixedwing/main_ap.o
__aeabi_ddiv                                      /opt/paparazzi/arm-multilib/lib/gcc/arm-none-eabi/4.4.5/thumb2/libgcc.a(_arm_muldivdf3.o)
                                                  /opt/paparazzi/arm-multilib/lib/gcc/arm-none-eabi/4.4.5/../../../../arm-none-eabi/lib/thumb2/libm.a(lib_a-s_expm1.o)
                                                  /opt/paparazzi/arm-multilib/lib/gcc/arm-none-eabi/4.4.5/../../../../arm-none-eabi/lib/thumb2/libm.a(lib_a-k_tan.o)
                                                  /opt/paparazzi/arm-multilib/lib/gcc/arm-none-eabi/4.4.5/../../../../arm-none-eabi/lib/thumb2/libm.a(lib_a-e_sqrt.o)
                                                  /opt/paparazzi/arm-multilib/lib/gcc/arm-none-eabi/4.4.5/../../../../arm-none-eabi/lib/thumb2/libm.a(lib_a-e_sinh.o)
                                                  /opt/paparazzi/arm-multilib/lib/gcc/arm-none-eabi/4.4.5/../../../../arm-none-eabi/lib/thumb2/libm.a(lib_a-e_pow.o)
                                                  /opt/paparazzi/arm-multilib/lib/gcc/arm-none-eabi/4.4.5/../../../../arm-none-eabi/lib/thumb2/libm.a(lib_a-e_log.o)
                                                  /opt/paparazzi/arm-multilib/lib/gcc/arm-none-eabi/4.4.5/../../../../arm-none-eabi/lib/thumb2/libm.a(lib_a-e_exp.o)
                                                  /opt/paparazzi/arm-multilib/lib/gcc/arm-none-eabi/4.4.5/../../../../arm-none-eabi/lib/thumb2/libm.a(lib_a-e_cosh.o)
                                                  /opt/paparazzi/arm-multilib/lib/gcc/arm-none-eabi/4.4.5/../../../../arm-none-eabi/lib/thumb2/libm.a(lib_a-e_atan2.o)
                                                  /opt/paparazzi/arm-multilib/lib/gcc/arm-none-eabi/4.4.5/../../../../arm-none-eabi/lib/thumb2/libm.a(lib_a-e_asin.o)
                                                  /opt/paparazzi/arm-multilib/lib/gcc/arm-none-eabi/4.4.5/../../../../arm-none-eabi/lib/thumb2/libm.a(lib_a-wf_sqrt.o)
                                                  /opt/paparazzi/arm-multilib/lib/gcc/arm-none-eabi/4.4.5/../../../../arm-none-eabi/lib/thumb2/libm.a(lib_a-wf_pow.o)
                                                  /opt/paparazzi/arm-multilib/lib/gcc/arm-none-eabi/4.4.5/../../../../arm-none-eabi/lib/thumb2/libm.a(lib_a-w_sqrt.o)
                                                  /opt/paparazzi/arm-multilib/lib/gcc/arm-none-eabi/4.4.5/../../../../arm-none-eabi/lib/thumb2/libm.a(lib_a-w_pow.o)
                                                  /opt/paparazzi/arm-multilib/lib/gcc/arm-none-eabi/4.4.5/../../../../arm-none-eabi/lib/thumb2/libm.a(lib_a-s_atan.o)
                                                  /home/woz/lisa-m-team4938/paparazzi/var/ECE_2012/ap/subsystems/nav.o
                                                  /home/woz/lisa-m-team4938/paparazzi/var/ECE_2012/ap/subsystems/ahrs/ahrs_float_dcm.o
                                                  /home/woz/lisa-m-team4938/paparazzi/var/ECE_2012/ap/firmwares/fixedwing/guidance/guidance_v.o
                                                  /home/woz/lisa-m-team4938/paparazzi/var/ECE_2012/ap/firmwares/fixedwing/stabilization/stabilization_attitude.o
                                                  /home/woz/lisa-m-team4938/paparazzi/var/ECE_2012/ap/firmwares/fixedwing/datalink.o
                                                  /home/woz/lisa-m-team4938/paparazzi/var/ECE_2012/ap/./estimator.o
                                                  /home/woz/lisa-m-team4938/paparazzi/var/ECE_2012/ap/firmwares/fixedwing/main_ap.o
                                                  /home/woz/lisa-m-team4938/paparazzi/var/ECE_2012/ap/subsystems/electrical.o
                                                  /home/woz/lisa-m-team4938/paparazzi/var/ECE_2012/ap/math/pprz_geodetic_double.o
                                                  /home/woz/lisa-m-team4938/paparazzi/var/ECE_2012/ap/math/pprz_geodetic_float.o
                                                  /home/woz/lisa-m-team4938/paparazzi/var/ECE_2012/ap/math/pprz_geodetic_int.o
__aeabi_dmul                                      /opt/paparazzi/arm-multilib/lib/gcc/arm-none-eabi/4.4.5/thumb2/libgcc.a(_arm_muldivdf3.o)
                                                  /opt/paparazzi/arm-multilib/lib/gcc/arm-none-eabi/4.4.5/../../../../arm-none-eabi/lib/thumb2/libm.a(lib_a-s_scalbn.o)
                                                  /opt/paparazzi/arm-multilib/lib/gcc/arm-none-eabi/4.4.5/../../../../arm-none-eabi/lib/thumb2/libm.a(lib_a-s_expm1.o)
                                                  /opt/paparazzi/arm-multilib/lib/gcc/arm-none-eabi/4.4.5/../../../../arm-none-eabi/lib/thumb2/libm.a(lib_a-k_tan.o)
                                                  /opt/paparazzi/arm-multilib/lib/gcc/arm-none-eabi/4.4.5/../../../../arm-none-eabi/lib/thumb2/libm.a(lib_a-k_sin.o)
                                                  /opt/paparazzi/arm-multilib/lib/gcc/arm-none-eabi/4.4.5/../../../../arm-none-eabi/lib/thumb2/libm.a(lib_a-k_rem_pio2.o)
                                                  /opt/paparazzi/arm-multilib/lib/gcc/arm-none-eabi/4.4.5/../../../../arm-none-eabi/lib/thumb2/libm.a(lib_a-k_cos.o)
                                                  /opt/paparazzi/arm-multilib/lib/gcc/arm-none-eabi/4.4.5/../../../../arm-none-eabi/lib/thumb2/libm.a(lib_a-e_sqrt.o)
                                                  /opt/paparazzi/arm-multilib/lib/gcc/arm-none-eabi/4.4.5/../../../../arm-none-eabi/lib/thumb2/libm.a(lib_a-e_sinh.o)
                                                  /opt/paparazzi/arm-multilib/lib/gcc/arm-none-eabi/4.4.5/../../../../arm-none-eabi/lib/thumb2/libm.a(lib_a-e_rem_pio2.o)
                                                  /opt/paparazzi/arm-multilib/lib/gcc/arm-none-eabi/4.4.5/../../../../arm-none-eabi/lib/thumb2/libm.a(lib_a-e_pow.o)
                                                  /opt/paparazzi/arm-multilib/lib/gcc/arm-none-eabi/4.4.5/../../../../arm-none-eabi/lib/thumb2/libm.a(lib_a-e_log.o)
                                                  /opt/paparazzi/arm-multilib/lib/gcc/arm-none-eabi/4.4.5/../../../../arm-none-eabi/lib/thumb2/libm.a(lib_a-e_exp.o)
                                                  /opt/paparazzi/arm-multilib/lib/gcc/arm-none-eabi/4.4.5/../../../../arm-none-eabi/lib/thumb2/libm.a(lib_a-e_cosh.o)
                                                  /opt/paparazzi/arm-multilib/lib/gcc/arm-none-eabi/4.4.5/../../../../arm-none-eabi/lib/thumb2/libm.a(lib_a-e_asin.o)
                                                  /opt/paparazzi/arm-multilib/lib/gcc/arm-none-eabi/4.4.5/../../../../arm-none-eabi/lib/thumb2/libm.a(lib_a-w_pow.o)
                                                  /opt/paparazzi/arm-multilib/lib/gcc/arm-none-eabi/4.4.5/../../../../arm-none-eabi/lib/thumb2/libm.a(lib_a-s_atan.o)
                                                  /home/woz/lisa-m-team4938/paparazzi/var/ECE_2012/ap/subsystems/navigation/nav_line.o
                                                  /home/woz/lisa-m-team4938/paparazzi/var/ECE_2012/ap/subsystems/navigation/nav_survey_rectangle.o
                                                  /home/woz/lisa-m-team4938/paparazzi/var/ECE_2012/ap/subsystems/nav.o
                                                  /home/woz/lisa-m-team4938/paparazzi/var/ECE_2012/ap/subsystems/gps/gps_ubx.o
                                                  /home/woz/lisa-m-team4938/paparazzi/var/ECE_2012/ap/subsystems/ahrs/ahrs_float_dcm.o
                                                  /home/woz/lisa-m-team4938/paparazzi/var/ECE_2012/ap/firmwares/fixedwing/guidance/guidance_v.o
                                                  /home/woz/lisa-m-team4938/paparazzi/var/ECE_2012/ap/firmwares/fixedwing/stabilization/stabilization_attitude.o
                                                  /home/woz/lisa-m-team4938/paparazzi/var/ECE_2012/ap/firmwares/fixedwing/datalink.o
                                                  /home/woz/lisa-m-team4938/paparazzi/var/ECE_2012/ap/firmwares/fixedwing/main_ap.o
                                                  /home/woz/lisa-m-team4938/paparazzi/var/ECE_2012/ap/subsystems/electrical.o
                                                  /home/woz/lisa-m-team4938/paparazzi/var/ECE_2012/ap/firmwares/fixedwing/main_fbw.o
                                                  /home/woz/lisa-m-team4938/paparazzi/var/ECE_2012/ap/math/pprz_geodetic_double.o
                                                  /home/woz/lisa-m-team4938/paparazzi/var/ECE_2012/ap/math/pprz_geodetic_float.o
                                                  /home/woz/lisa-m-team4938/paparazzi/var/ECE_2012/ap/math/pprz_geodetic_int.o
__aeabi_drsub                                     /opt/paparazzi/arm-multilib/lib/gcc/arm-none-eabi/4.4.5/thumb2/libgcc.a(_arm_addsubdf3.o)
__aeabi_dsub                                      /opt/paparazzi/arm-multilib/lib/gcc/arm-none-eabi/4.4.5/thumb2/libgcc.a(_arm_addsubdf3.o)
                                                  /opt/paparazzi/arm-multilib/lib/gcc/arm-none-eabi/4.4.5/../../../../arm-none-eabi/lib/thumb2/libm.a(lib_a-s_expm1.o)
                                                  /opt/paparazzi/arm-multilib/lib/gcc/arm-none-eabi/4.4.5/../../../../arm-none-eabi/lib/thumb2/libm.a(lib_a-k_tan.o)
                                                  /opt/paparazzi/arm-multilib/lib/gcc/arm-none-eabi/4.4.5/../../../../arm-none-eabi/lib/thumb2/libm.a(lib_a-k_sin.o)
                                                  /opt/paparazzi/arm-multilib/lib/gcc/arm-none-eabi/4.4.5/../../../../arm-none-eabi/lib/thumb2/libm.a(lib_a-k_rem_pio2.o)
                                                  /opt/paparazzi/arm-multilib/lib/gcc/arm-none-eabi/4.4.5/../../../../arm-none-eabi/lib/thumb2/libm.a(lib_a-k_cos.o)
                                                  /opt/paparazzi/arm-multilib/lib/gcc/arm-none-eabi/4.4.5/../../../../arm-none-eabi/lib/thumb2/libm.a(lib_a-e_sqrt.o)
                                                  /opt/paparazzi/arm-multilib/lib/gcc/arm-none-eabi/4.4.5/../../../../arm-none-eabi/lib/thumb2/libm.a(lib_a-e_sinh.o)
                                                  /opt/paparazzi/arm-multilib/lib/gcc/arm-none-eabi/4.4.5/../../../../arm-none-eabi/lib/thumb2/libm.a(lib_a-e_rem_pio2.o)
                                                  /opt/paparazzi/arm-multilib/lib/gcc/arm-none-eabi/4.4.5/../../../../arm-none-eabi/lib/thumb2/libm.a(lib_a-e_pow.o)
                                                  /opt/paparazzi/arm-multilib/lib/gcc/arm-none-eabi/4.4.5/../../../../arm-none-eabi/lib/thumb2/libm.a(lib_a-e_log.o)
                                                  /opt/paparazzi/arm-multilib/lib/gcc/arm-none-eabi/4.4.5/../../../../arm-none-eabi/lib/thumb2/libm.a(lib_a-e_exp.o)
                                                  /opt/paparazzi/arm-multilib/lib/gcc/arm-none-eabi/4.4.5/../../../../arm-none-eabi/lib/thumb2/libm.a(lib_a-e_atan2.o)
                                                  /opt/paparazzi/arm-multilib/lib/gcc/arm-none-eabi/4.4.5/../../../../arm-none-eabi/lib/thumb2/libm.a(lib_a-e_asin.o)
                                                  /opt/paparazzi/arm-multilib/lib/gcc/arm-none-eabi/4.4.5/../../../../arm-none-eabi/lib/thumb2/libm.a(lib_a-s_tan.o)
                                                  /opt/paparazzi/arm-multilib/lib/gcc/arm-none-eabi/4.4.5/../../../../arm-none-eabi/lib/thumb2/libm.a(lib_a-s_sin.o)
                                                  /opt/paparazzi/arm-multilib/lib/gcc/arm-none-eabi/4.4.5/../../../../arm-none-eabi/lib/thumb2/libm.a(lib_a-s_rint.o)
                                                  /opt/paparazzi/arm-multilib/lib/gcc/arm-none-eabi/4.4.5/../../../../arm-none-eabi/lib/thumb2/libm.a(lib_a-s_cos.o)
                                                  /opt/paparazzi/arm-multilib/lib/gcc/arm-none-eabi/4.4.5/../../../../arm-none-eabi/lib/thumb2/libm.a(lib_a-s_atan.o)
                                                  /home/woz/lisa-m-team4938/paparazzi/var/ECE_2012/ap/subsystems/navigation/nav_line.o
                                                  /home/woz/lisa-m-team4938/paparazzi/var/ECE_2012/ap/subsystems/nav.o
                                                  /home/woz/lisa-m-team4938/paparazzi/var/ECE_2012/ap/subsystems/ahrs/ahrs_float_dcm.o
                                                  /home/woz/lisa-m-team4938/paparazzi/var/ECE_2012/ap/firmwares/fixedwing/guidance/guidance_v.o
                                                  /home/woz/lisa-m-team4938/paparazzi/var/ECE_2012/ap/firmwares/fixedwing/stabilization/stabilization_attitude.o
                                                  /home/woz/lisa-m-team4938/paparazzi/var/ECE_2012/ap/subsystems/electrical.o
                                                  /home/woz/lisa-m-team4938/paparazzi/var/ECE_2012/ap/math/pprz_geodetic_double.o
                                                  /home/woz/lisa-m-team4938/paparazzi/var/ECE_2012/ap/math/pprz_geodetic_float.o
__aeabi_f2d                                       /opt/paparazzi/arm-multilib/lib/gcc/arm-none-eabi/4.4.5/thumb2/libgcc.a(_arm_addsubdf3.o)
                                                  /opt/paparazzi/arm-multilib/lib/gcc/arm-none-eabi/4.4.5/../../../../arm-none-eabi/lib/thumb2/libm.a(lib_a-wf_sqrt.o)
                                                  /opt/paparazzi/arm-multilib/lib/gcc/arm-none-eabi/4.4.5/../../../../arm-none-eabi/lib/thumb2/libm.a(lib_a-wf_pow.o)
                                                  /opt/paparazzi/arm-multilib/lib/gcc/arm-none-eabi/4.4.5/../../../../arm-none-eabi/lib/thumb2/libm.a(lib_a-wf_asin.o)
                                                  /home/woz/lisa-m-team4938/paparazzi/var/ECE_2012/ap/subsystems/navigation/nav_line.o
                                                  /home/woz/lisa-m-team4938/paparazzi/var/ECE_2012/ap/subsystems/navigation/nav_survey_rectangle.o
                                                  /home/woz/lisa-m-team4938/paparazzi/var/ECE_2012/ap/subsystems/nav.o
                                                  /home/woz/lisa-m-team4938/paparazzi/var/ECE_2012/ap/subsystems/ahrs/ahrs_float_dcm.o
                                                  /home/woz/lisa-m-team4938/paparazzi/var/ECE_2012/ap/firmwares/fixedwing/guidance/guidance_v.o
                                                  /home/woz/lisa-m-team4938/paparazzi/var/ECE_2012/ap/firmwares/fixedwing/stabilization/stabilization_attitude.o
                                                  /home/woz/lisa-m-team4938/paparazzi/var/ECE_2012/ap/firmwares/fixedwing/datalink.o
                                                  /home/woz/lisa-m-team4938/paparazzi/var/ECE_2012/ap/./estimator.o
                                                  /home/woz/lisa-m-team4938/paparazzi/var/ECE_2012/ap/firmwares/fixedwing/main_ap.o
                                                  /home/woz/lisa-m-team4938/paparazzi/var/ECE_2012/ap/subsystems/electrical.o
                                                  /home/woz/lisa-m-team4938/paparazzi/var/ECE_2012/ap/firmwares/fixedwing/main_fbw.o
                                                  /home/woz/lisa-m-team4938/paparazzi/var/ECE_2012/ap/math/pprz_geodetic_double.o
                                                  /home/woz/lisa-m-team4938/paparazzi/var/ECE_2012/ap/math/pprz_geodetic_float.o
                                                  /home/woz/lisa-m-team4938/paparazzi/var/ECE_2012/ap/math/pprz_geodetic_int.o
__aeabi_f2iz                                      /opt/paparazzi/arm-multilib/lib/gcc/arm-none-eabi/4.4.5/thumb2/libgcc.a(_arm_fixsfsi.o)
                                                  /opt/paparazzi/arm-multilib/lib/gcc/arm-none-eabi/4.4.5/../../../../arm-none-eabi/lib/thumb2/libm.a(lib_a-kf_sin.o)
                                                  /opt/paparazzi/arm-multilib/lib/gcc/arm-none-eabi/4.4.5/../../../../arm-none-eabi/lib/thumb2/libm.a(lib_a-kf_rem_pio2.o)
                                                  /opt/paparazzi/arm-multilib/lib/gcc/arm-none-eabi/4.4.5/../../../../arm-none-eabi/lib/thumb2/libm.a(lib_a-kf_cos.o)
                                                  /opt/paparazzi/arm-multilib/lib/gcc/arm-none-eabi/4.4.5/../../../../arm-none-eabi/lib/thumb2/libm.a(lib_a-ef_rem_pio2.o)
                                                  /home/woz/lisa-m-team4938/paparazzi/var/ECE_2012/ap/subsystems/nav.o
                                                  /home/woz/lisa-m-team4938/paparazzi/var/ECE_2012/ap/subsystems/gps/gps_ubx.o
                                                  /home/woz/lisa-m-team4938/paparazzi/var/ECE_2012/ap/firmwares/fixedwing/guidance/guidance_v.o
                                                  /home/woz/lisa-m-team4938/paparazzi/var/ECE_2012/ap/firmwares/fixedwing/stabilization/stabilization_attitude.o
                                                  /home/woz/lisa-m-team4938/paparazzi/var/ECE_2012/ap/firmwares/fixedwing/main_ap.o
                                                  /home/woz/lisa-m-team4938/paparazzi/var/ECE_2012/ap/firmwares/fixedwing/main_fbw.o
__aeabi_f2uiz                                     /opt/paparazzi/arm-multilib/lib/gcc/arm-none-eabi/4.4.5/thumb2/libgcc.a(_arm_fixunssfsi.o)
                                                  /home/woz/lisa-m-team4938/paparazzi/var/ECE_2012/ap/firmwares/fixedwing/datalink.o
__aeabi_fadd                                      /opt/paparazzi/arm-multilib/lib/gcc/arm-none-eabi/4.4.5/thumb2/libgcc.a(_arm_addsubsf3.o)
                                                  /opt/paparazzi/arm-multilib/lib/gcc/arm-none-eabi/4.4.5/../../../../arm-none-eabi/lib/thumb2/libm.a(lib_a-sf_scalbn.o)
                                                  /opt/paparazzi/arm-multilib/lib/gcc/arm-none-eabi/4.4.5/../../../../arm-none-eabi/lib/thumb2/libm.a(lib_a-sf_floor.o)
                                                  /opt/paparazzi/arm-multilib/lib/gcc/arm-none-eabi/4.4.5/../../../../arm-none-eabi/lib/thumb2/libm.a(lib_a-kf_sin.o)
                                                  /opt/paparazzi/arm-multilib/lib/gcc/arm-none-eabi/4.4.5/../../../../arm-none-eabi/lib/thumb2/libm.a(lib_a-kf_rem_pio2.o)
                                                  /opt/paparazzi/arm-multilib/lib/gcc/arm-none-eabi/4.4.5/../../../../arm-none-eabi/lib/thumb2/libm.a(lib_a-kf_cos.o)
                                                  /opt/paparazzi/arm-multilib/lib/gcc/arm-none-eabi/4.4.5/../../../../arm-none-eabi/lib/thumb2/libm.a(lib_a-ef_sqrt.o)
                                                  /opt/paparazzi/arm-multilib/lib/gcc/arm-none-eabi/4.4.5/../../../../arm-none-eabi/lib/thumb2/libm.a(lib_a-ef_rem_pio2.o)
                                                  /opt/paparazzi/arm-multilib/lib/gcc/arm-none-eabi/4.4.5/../../../../arm-none-eabi/lib/thumb2/libm.a(lib_a-ef_pow.o)
                                                  /opt/paparazzi/arm-multilib/lib/gcc/arm-none-eabi/4.4.5/../../../../arm-none-eabi/lib/thumb2/libm.a(lib_a-ef_atan2.o)
                                                  /opt/paparazzi/arm-multilib/lib/gcc/arm-none-eabi/4.4.5/../../../../arm-none-eabi/lib/thumb2/libm.a(lib_a-ef_asin.o)
                                                  /opt/paparazzi/arm-multilib/lib/gcc/arm-none-eabi/4.4.5/../../../../arm-none-eabi/lib/thumb2/libm.a(lib_a-sf_atan.o)
                                                  /home/woz/lisa-m-team4938/paparazzi/var/ECE_2012/ap/subsystems/navigation/nav_line.o
                                                  /home/woz/lisa-m-team4938/paparazzi/var/ECE_2012/ap/subsystems/navigation/nav_survey_rectangle.o
                                                  /home/woz/lisa-m-team4938/paparazzi/var/ECE_2012/ap/subsystems/nav.o
                                                  /home/woz/lisa-m-team4938/paparazzi/var/ECE_2012/ap/subsystems/ahrs/ahrs_float_dcm.o
                                                  /home/woz/lisa-m-team4938/paparazzi/var/ECE_2012/ap/firmwares/fixedwing/guidance/guidance_v.o
                                                  /home/woz/lisa-m-team4938/paparazzi/var/ECE_2012/ap/firmwares/fixedwing/stabilization/stabilization_attitude.o
                                                  /home/woz/lisa-m-team4938/paparazzi/var/ECE_2012/ap/firmwares/fixedwing/datalink.o
                                                  /home/woz/lisa-m-team4938/paparazzi/var/ECE_2012/ap/./estimator.o
                                                  /home/woz/lisa-m-team4938/paparazzi/var/ECE_2012/ap/firmwares/fixedwing/main_ap.o
                                                  /home/woz/lisa-m-team4938/paparazzi/var/ECE_2012/ap/math/pprz_geodetic_float.o
__aeabi_fcmpeq                                    /opt/paparazzi/arm-multilib/lib/gcc/arm-none-eabi/4.4.5/thumb2/libgcc.a(_arm_cmpsf2.o)
                                                  /opt/paparazzi/arm-multilib/lib/gcc/arm-none-eabi/4.4.5/../../../../arm-none-eabi/lib/thumb2/libm.a(lib_a-kf_rem_pio2.o)
                                                  /opt/paparazzi/arm-multilib/lib/gcc/arm-none-eabi/4.4.5/../../../../arm-none-eabi/lib/thumb2/libm.a(lib_a-ef_rem_pio2.o)
                                                  /opt/paparazzi/arm-multilib/lib/gcc/arm-none-eabi/4.4.5/../../../../arm-none-eabi/lib/thumb2/libm.a(lib_a-wf_pow.o)
                                                  /home/woz/lisa-m-team4938/paparazzi/var/ECE_2012/ap/firmwares/fixedwing/datalink.o
__aeabi_fcmpge                                    /opt/paparazzi/arm-multilib/lib/gcc/arm-none-eabi/4.4.5/thumb2/libgcc.a(_arm_cmpsf2.o)
                                                  /opt/paparazzi/arm-multilib/lib/gcc/arm-none-eabi/4.4.5/../../../../arm-none-eabi/lib/thumb2/libm.a(lib_a-kf_rem_pio2.o)
                                                  /home/woz/lisa-m-team4938/paparazzi/var/ECE_2012/ap/subsystems/navigation/nav_line.o
                                                  /home/woz/lisa-m-team4938/paparazzi/var/ECE_2012/ap/subsystems/navigation/nav_survey_rectangle.o
                                                  /home/woz/lisa-m-team4938/paparazzi/var/ECE_2012/ap/subsystems/nav.o
__aeabi_fcmpgt                                    /opt/paparazzi/arm-multilib/lib/gcc/arm-none-eabi/4.4.5/thumb2/libgcc.a(_arm_cmpsf2.o)
                                                  /opt/paparazzi/arm-multilib/lib/gcc/arm-none-eabi/4.4.5/../../../../arm-none-eabi/lib/thumb2/libm.a(lib_a-sf_floor.o)
                                                  /opt/paparazzi/arm-multilib/lib/gcc/arm-none-eabi/4.4.5/../../../../arm-none-eabi/lib/thumb2/libm.a(lib_a-ef_pow.o)
                                                  /opt/paparazzi/arm-multilib/lib/gcc/arm-none-eabi/4.4.5/../../../../arm-none-eabi/lib/thumb2/libm.a(lib_a-ef_asin.o)
                                                  /opt/paparazzi/arm-multilib/lib/gcc/arm-none-eabi/4.4.5/../../../../arm-none-eabi/lib/thumb2/libm.a(lib_a-wf_asin.o)
                                                  /opt/paparazzi/arm-multilib/lib/gcc/arm-none-eabi/4.4.5/../../../../arm-none-eabi/lib/thumb2/libm.a(lib_a-sf_atan.o)
                                                  /home/woz/lisa-m-team4938/paparazzi/var/ECE_2012/ap/subsystems/navigation/nav_line.o
                                                  /home/woz/lisa-m-team4938/paparazzi/var/ECE_2012/ap/subsystems/navigation/nav_survey_rectangle.o
                                                  /home/woz/lisa-m-team4938/paparazzi/var/ECE_2012/ap/subsystems/nav.o
                                                  /home/woz/lisa-m-team4938/paparazzi/var/ECE_2012/ap/subsystems/ahrs/ahrs_float_dcm.o
                                                  /home/woz/lisa-m-team4938/paparazzi/var/ECE_2012/ap/firmwares/fixedwing/guidance/guidance_v.o
                                                  /home/woz/lisa-m-team4938/paparazzi/var/ECE_2012/ap/firmwares/fixedwing/stabilization/stabilization_attitude.o
                                                  /home/woz/lisa-m-team4938/paparazzi/var/ECE_2012/ap/firmwares/fixedwing/main_ap.o
                                                  /home/woz/lisa-m-team4938/paparazzi/var/ECE_2012/ap/firmwares/fixedwing/main_fbw.o
                                                  /home/woz/lisa-m-team4938/paparazzi/var/ECE_2012/ap/math/pprz_geodetic_float.o
__aeabi_fcmple                                    /opt/paparazzi/arm-multilib/lib/gcc/arm-none-eabi/4.4.5/thumb2/libgcc.a(_arm_cmpsf2.o)
                                                  /opt/paparazzi/arm-multilib/lib/gcc/arm-none-eabi/4.4.5/../../../../arm-none-eabi/lib/thumb2/libm.a(lib_a-ef_pow.o)
__aeabi_fcmplt                                    /opt/paparazzi/arm-multilib/lib/gcc/arm-none-eabi/4.4.5/thumb2/libgcc.a(_arm_cmpsf2.o)
                                                  /opt/paparazzi/arm-multilib/lib/gcc/arm-none-eabi/4.4.5/../../../../arm-none-eabi/lib/thumb2/libm.a(lib_a-wf_sqrt.o)
                                                  /opt/paparazzi/arm-multilib/lib/gcc/arm-none-eabi/4.4.5/../../../../arm-none-eabi/lib/thumb2/libm.a(lib_a-wf_pow.o)
                                                  /home/woz/lisa-m-team4938/paparazzi/var/ECE_2012/ap/subsystems/navigation/nav_line.o
                                                  /home/woz/lisa-m-team4938/paparazzi/var/ECE_2012/ap/subsystems/navigation/nav_survey_rectangle.o
                                                  /home/woz/lisa-m-team4938/paparazzi/var/ECE_2012/ap/subsystems/nav.o
                                                  /home/woz/lisa-m-team4938/paparazzi/var/ECE_2012/ap/subsystems/ahrs/ahrs_float_dcm.o
                                                  /home/woz/lisa-m-team4938/paparazzi/var/ECE_2012/ap/firmwares/fixedwing/guidance/guidance_v.o
                                                  /home/woz/lisa-m-team4938/paparazzi/var/ECE_2012/ap/firmwares/fixedwing/stabilization/stabilization_attitude.o
                                                  /home/woz/lisa-m-team4938/paparazzi/var/ECE_2012/ap/firmwares/fixedwing/main_ap.o
__aeabi_fdiv                                      /opt/paparazzi/arm-multilib/lib/gcc/arm-none-eabi/4.4.5/thumb2/libgcc.a(_arm_muldivsf3.o)
                                                  /opt/paparazzi/arm-multilib/lib/gcc/arm-none-eabi/4.4.5/../../../../arm-none-eabi/lib/thumb2/libm.a(lib_a-ef_sqrt.o)
                                                  /opt/paparazzi/arm-multilib/lib/gcc/arm-none-eabi/4.4.5/../../../../arm-none-eabi/lib/thumb2/libm.a(lib_a-ef_pow.o)
                                                  /opt/paparazzi/arm-multilib/lib/gcc/arm-none-eabi/4.4.5/../../../../arm-none-eabi/lib/thumb2/libm.a(lib_a-ef_atan2.o)
                                                  /opt/paparazzi/arm-multilib/lib/gcc/arm-none-eabi/4.4.5/../../../../arm-none-eabi/lib/thumb2/libm.a(lib_a-ef_asin.o)
                                                  /opt/paparazzi/arm-multilib/lib/gcc/arm-none-eabi/4.4.5/../../../../arm-none-eabi/lib/thumb2/libm.a(lib_a-sf_atan.o)
                                                  /home/woz/lisa-m-team4938/paparazzi/var/ECE_2012/ap/subsystems/navigation/nav_line.o
                                                  /home/woz/lisa-m-team4938/paparazzi/var/ECE_2012/ap/subsystems/nav.o
                                                  /home/woz/lisa-m-team4938/paparazzi/var/ECE_2012/ap/subsystems/gps/gps_ubx.o
                                                  /home/woz/lisa-m-team4938/paparazzi/var/ECE_2012/ap/firmwares/fixedwing/stabilization/stabilization_attitude.o
                                                  /home/woz/lisa-m-team4938/paparazzi/var/ECE_2012/ap/firmwares/fixedwing/datalink.o
                                                  /home/woz/lisa-m-team4938/paparazzi/var/ECE_2012/ap/./estimator.o
                                                  /home/woz/lisa-m-team4938/paparazzi/var/ECE_2012/ap/firmwares/fixedwing/main_ap.o
                                                  /home/woz/lisa-m-team4938/paparazzi/var/ECE_2012/ap/subsystems/electrical.o
                                                  /home/woz/lisa-m-team4938/paparazzi/var/ECE_2012/ap/math/pprz_geodetic_float.o
                                                  /home/woz/lisa-m-team4938/paparazzi/var/ECE_2012/ap/math/pprz_geodetic_int.o
__aeabi_fmul                                      /opt/paparazzi/arm-multilib/lib/gcc/arm-none-eabi/4.4.5/thumb2/libgcc.a(_arm_muldivsf3.o)
                                                  /opt/paparazzi/arm-multilib/lib/gcc/arm-none-eabi/4.4.5/../../../../arm-none-eabi/lib/thumb2/libm.a(lib_a-sf_scalbn.o)
                                                  /opt/paparazzi/arm-multilib/lib/gcc/arm-none-eabi/4.4.5/../../../../arm-none-eabi/lib/thumb2/libm.a(lib_a-kf_sin.o)
                                                  /opt/paparazzi/arm-multilib/lib/gcc/arm-none-eabi/4.4.5/../../../../arm-none-eabi/lib/thumb2/libm.a(lib_a-kf_rem_pio2.o)
                                                  /opt/paparazzi/arm-multilib/lib/gcc/arm-none-eabi/4.4.5/../../../../arm-none-eabi/lib/thumb2/libm.a(lib_a-kf_cos.o)
                                                  /opt/paparazzi/arm-multilib/lib/gcc/arm-none-eabi/4.4.5/../../../../arm-none-eabi/lib/thumb2/libm.a(lib_a-ef_sqrt.o)
                                                  /opt/paparazzi/arm-multilib/lib/gcc/arm-none-eabi/4.4.5/../../../../arm-none-eabi/lib/thumb2/libm.a(lib_a-ef_rem_pio2.o)
                                                  /opt/paparazzi/arm-multilib/lib/gcc/arm-none-eabi/4.4.5/../../../../arm-none-eabi/lib/thumb2/libm.a(lib_a-ef_pow.o)
                                                  /opt/paparazzi/arm-multilib/lib/gcc/arm-none-eabi/4.4.5/../../../../arm-none-eabi/lib/thumb2/libm.a(lib_a-ef_asin.o)
                                                  /opt/paparazzi/arm-multilib/lib/gcc/arm-none-eabi/4.4.5/../../../../arm-none-eabi/lib/thumb2/libm.a(lib_a-wf_pow.o)
                                                  /opt/paparazzi/arm-multilib/lib/gcc/arm-none-eabi/4.4.5/../../../../arm-none-eabi/lib/thumb2/libm.a(lib_a-sf_atan.o)
                                                  /home/woz/lisa-m-team4938/paparazzi/var/ECE_2012/ap/subsystems/navigation/nav_line.o
                                                  /home/woz/lisa-m-team4938/paparazzi/var/ECE_2012/ap/subsystems/navigation/nav_survey_rectangle.o
                                                  /home/woz/lisa-m-team4938/paparazzi/var/ECE_2012/ap/subsystems/nav.o
                                                  /home/woz/lisa-m-team4938/paparazzi/var/ECE_2012/ap/subsystems/gps/gps_ubx.o
                                                  /home/woz/lisa-m-team4938/paparazzi/var/ECE_2012/ap/subsystems/ahrs/ahrs_float_dcm.o
                                                  /home/woz/lisa-m-team4938/paparazzi/var/ECE_2012/ap/firmwares/fixedwing/guidance/guidance_v.o
                                                  /home/woz/lisa-m-team4938/paparazzi/var/ECE_2012/ap/firmwares/fixedwing/stabilization/stabilization_attitude.o
                                                  /home/woz/lisa-m-team4938/paparazzi/var/ECE_2012/ap/./estimator.o
                                                  /home/woz/lisa-m-team4938/paparazzi/var/ECE_2012/ap/firmwares/fixedwing/main_ap.o
                                                  /home/woz/lisa-m-team4938/paparazzi/var/ECE_2012/ap/subsystems/electrical.o
                                                  /home/woz/lisa-m-team4938/paparazzi/var/ECE_2012/ap/math/pprz_geodetic_float.o
                                                  /home/woz/lisa-m-team4938/paparazzi/var/ECE_2012/ap/math/pprz_geodetic_int.o
__aeabi_frsub                                     /opt/paparazzi/arm-multilib/lib/gcc/arm-none-eabi/4.4.5/thumb2/libgcc.a(_arm_addsubsf3.o)
__aeabi_fsub                                      /opt/paparazzi/arm-multilib/lib/gcc/arm-none-eabi/4.4.5/thumb2/libgcc.a(_arm_addsubsf3.o)
                                                  /opt/paparazzi/arm-multilib/lib/gcc/arm-none-eabi/4.4.5/../../../../arm-none-eabi/lib/thumb2/libm.a(lib_a-kf_sin.o)
                                                  /opt/paparazzi/arm-multilib/lib/gcc/arm-none-eabi/4.4.5/../../../../arm-none-eabi/lib/thumb2/libm.a(lib_a-kf_rem_pio2.o)
                                                  /opt/paparazzi/arm-multilib/lib/gcc/arm-none-eabi/4.4.5/../../../../arm-none-eabi/lib/thumb2/libm.a(lib_a-kf_cos.o)
                                                  /opt/paparazzi/arm-multilib/lib/gcc/arm-none-eabi/4.4.5/../../../../arm-none-eabi/lib/thumb2/libm.a(lib_a-ef_sqrt.o)
                                                  /opt/paparazzi/arm-multilib/lib/gcc/arm-none-eabi/4.4.5/../../../../arm-none-eabi/lib/thumb2/libm.a(lib_a-ef_rem_pio2.o)
                                                  /opt/paparazzi/arm-multilib/lib/gcc/arm-none-eabi/4.4.5/../../../../arm-none-eabi/lib/thumb2/libm.a(lib_a-ef_pow.o)
                                                  /opt/paparazzi/arm-multilib/lib/gcc/arm-none-eabi/4.4.5/../../../../arm-none-eabi/lib/thumb2/libm.a(lib_a-ef_atan2.o)
                                                  /opt/paparazzi/arm-multilib/lib/gcc/arm-none-eabi/4.4.5/../../../../arm-none-eabi/lib/thumb2/libm.a(lib_a-ef_asin.o)
                                                  /opt/paparazzi/arm-multilib/lib/gcc/arm-none-eabi/4.4.5/../../../../arm-none-eabi/lib/thumb2/libm.a(lib_a-sf_sin.o)
                                                  /opt/paparazzi/arm-multilib/lib/gcc/arm-none-eabi/4.4.5/../../../../arm-none-eabi/lib/thumb2/libm.a(lib_a-sf_cos.o)
                                                  /opt/paparazzi/arm-multilib/lib/gcc/arm-none-eabi/4.4.5/../../../../arm-none-eabi/lib/thumb2/libm.a(lib_a-sf_atan.o)
                                                  /home/woz/lisa-m-team4938/paparazzi/var/ECE_2012/ap/subsystems/navigation/nav_line.o
                                                  /home/woz/lisa-m-team4938/paparazzi/var/ECE_2012/ap/subsystems/navigation/nav_survey_rectangle.o
                                                  /home/woz/lisa-m-team4938/paparazzi/var/ECE_2012/ap/subsystems/nav.o
                                                  /home/woz/lisa-m-team4938/paparazzi/var/ECE_2012/ap/subsystems/ahrs/ahrs_float_dcm.o
                                                  /home/woz/lisa-m-team4938/paparazzi/var/ECE_2012/ap/firmwares/fixedwing/guidance/guidance_v.o
                                                  /home/woz/lisa-m-team4938/paparazzi/var/ECE_2012/ap/firmwares/fixedwing/stabilization/stabilization_attitude.o
                                                  /home/woz/lisa-m-team4938/paparazzi/var/ECE_2012/ap/firmwares/fixedwing/datalink.o
                                                  /home/woz/lisa-m-team4938/paparazzi/var/ECE_2012/ap/./estimator.o
                                                  /home/woz/lisa-m-team4938/paparazzi/var/ECE_2012/ap/math/pprz_geodetic_float.o
__aeabi_i2d                                       /opt/paparazzi/arm-multilib/lib/gcc/arm-none-eabi/4.4.5/thumb2/libgcc.a(_arm_addsubdf3.o)
                                                  /opt/paparazzi/arm-multilib/lib/gcc/arm-none-eabi/4.4.5/../../../../arm-none-eabi/lib/thumb2/libm.a(lib_a-s_expm1.o)
                                                  /opt/paparazzi/arm-multilib/lib/gcc/arm-none-eabi/4.4.5/../../../../arm-none-eabi/lib/thumb2/libm.a(lib_a-k_tan.o)
                                                  /opt/paparazzi/arm-multilib/lib/gcc/arm-none-eabi/4.4.5/../../../../arm-none-eabi/lib/thumb2/libm.a(lib_a-k_rem_pio2.o)
                                                  /opt/paparazzi/arm-multilib/lib/gcc/arm-none-eabi/4.4.5/../../../../arm-none-eabi/lib/thumb2/libm.a(lib_a-e_rem_pio2.o)
                                                  /opt/paparazzi/arm-multilib/lib/gcc/arm-none-eabi/4.4.5/../../../../arm-none-eabi/lib/thumb2/libm.a(lib_a-e_pow.o)
                                                  /opt/paparazzi/arm-multilib/lib/gcc/arm-none-eabi/4.4.5/../../../../arm-none-eabi/lib/thumb2/libm.a(lib_a-e_log.o)
                                                  /opt/paparazzi/arm-multilib/lib/gcc/arm-none-eabi/4.4.5/../../../../arm-none-eabi/lib/thumb2/libm.a(lib_a-e_exp.o)
                                                  /home/woz/lisa-m-team4938/paparazzi/var/ECE_2012/ap/subsystems/nav.o
                                                  /home/woz/lisa-m-team4938/paparazzi/var/ECE_2012/ap/subsystems/gps/gps_ubx.o
                                                  /home/woz/lisa-m-team4938/paparazzi/var/ECE_2012/ap/subsystems/ahrs/ahrs_float_dcm.o
                                                  /home/woz/lisa-m-team4938/paparazzi/var/ECE_2012/ap/firmwares/fixedwing/guidance/guidance_v.o
                                                  /home/woz/lisa-m-team4938/paparazzi/var/ECE_2012/ap/firmwares/fixedwing/datalink.o
                                                  /home/woz/lisa-m-team4938/paparazzi/var/ECE_2012/ap/./estimator.o
                                                  /home/woz/lisa-m-team4938/paparazzi/var/ECE_2012/ap/firmwares/fixedwing/main_ap.o
                                                  /home/woz/lisa-m-team4938/paparazzi/var/ECE_2012/ap/math/pprz_geodetic_double.o
                                                  /home/woz/lisa-m-team4938/paparazzi/var/ECE_2012/ap/math/pprz_geodetic_float.o
                                                  /home/woz/lisa-m-team4938/paparazzi/var/ECE_2012/ap/math/pprz_geodetic_int.o
__aeabi_i2f                                       /opt/paparazzi/arm-multilib/lib/gcc/arm-none-eabi/4.4.5/thumb2/libgcc.a(_arm_addsubsf3.o)
                                                  /opt/paparazzi/arm-multilib/lib/gcc/arm-none-eabi/4.4.5/../../../../arm-none-eabi/lib/thumb2/libm.a(lib_a-kf_rem_pio2.o)
                                                  /opt/paparazzi/arm-multilib/lib/gcc/arm-none-eabi/4.4.5/../../../../arm-none-eabi/lib/thumb2/libm.a(lib_a-ef_rem_pio2.o)
                                                  /opt/paparazzi/arm-multilib/lib/gcc/arm-none-eabi/4.4.5/../../../../arm-none-eabi/lib/thumb2/libm.a(lib_a-ef_pow.o)
                                                  /home/woz/lisa-m-team4938/paparazzi/var/ECE_2012/ap/subsystems/nav.o
                                                  /home/woz/lisa-m-team4938/paparazzi/var/ECE_2012/ap/subsystems/gps/gps_ubx.o
                                                  /home/woz/lisa-m-team4938/paparazzi/var/ECE_2012/ap/subsystems/ahrs/ahrs_float_dcm.o
                                                  /home/woz/lisa-m-team4938/paparazzi/var/ECE_2012/ap/firmwares/fixedwing/stabilization/stabilization_attitude.o
                                                  /home/woz/lisa-m-team4938/paparazzi/var/ECE_2012/ap/firmwares/fixedwing/datalink.o
                                                  /home/woz/lisa-m-team4938/paparazzi/var/ECE_2012/ap/./estimator.o
                                                  /home/woz/lisa-m-team4938/paparazzi/var/ECE_2012/ap/firmwares/fixedwing/main_ap.o
                                                  /home/woz/lisa-m-team4938/paparazzi/var/ECE_2012/ap/subsystems/electrical.o
                                                  /home/woz/lisa-m-team4938/paparazzi/var/ECE_2012/ap/firmwares/fixedwing/main_fbw.o
                                                  /home/woz/lisa-m-team4938/paparazzi/var/ECE_2012/ap/math/pprz_geodetic_float.o
                                                  /home/woz/lisa-m-team4938/paparazzi/var/ECE_2012/ap/math/pprz_geodetic_int.o
__aeabi_idiv                                      /opt/paparazzi/arm-multilib/lib/gcc/arm-none-eabi/4.4.5/thumb2/libgcc.a(_divsi3.o)
                                                  /opt/paparazzi/arm-multilib/lib/gcc/arm-none-eabi/4.4.5/../../../../arm-none-eabi/lib/thumb2/libm.a(lib_a-k_rem_pio2.o)
__aeabi_idiv0                                     /opt/paparazzi/arm-multilib/lib/gcc/arm-none-eabi/4.4.5/thumb2/libgcc.a(_dvmd_tls.o)
                                                  /opt/paparazzi/arm-multilib/lib/gcc/arm-none-eabi/4.4.5/thumb2/libgcc.a(_divsi3.o)
__aeabi_idivmod                                   /opt/paparazzi/arm-multilib/lib/gcc/arm-none-eabi/4.4.5/thumb2/libgcc.a(_divsi3.o)
__aeabi_l2d                                       /opt/paparazzi/arm-multilib/lib/gcc/arm-none-eabi/4.4.5/thumb2/libgcc.a(_arm_addsubdf3.o)
__aeabi_l2f                                       /opt/paparazzi/arm-multilib/lib/gcc/arm-none-eabi/4.4.5/thumb2/libgcc.a(_arm_addsubsf3.o)
__aeabi_ldiv0                                     /opt/paparazzi/arm-multilib/lib/gcc/arm-none-eabi/4.4.5/thumb2/libgcc.a(_dvmd_tls.o)
__aeabi_ui2d                                      /opt/paparazzi/arm-multilib/lib/gcc/arm-none-eabi/4.4.5/thumb2/libgcc.a(_arm_addsubdf3.o)
                                                  /home/woz/lisa-m-team4938/paparazzi/var/ECE_2012/ap/subsystems/electrical.o
__aeabi_ui2f                                      /opt/paparazzi/arm-multilib/lib/gcc/arm-none-eabi/4.4.5/thumb2/libgcc.a(_arm_addsubsf3.o)
                                                  /home/woz/lisa-m-team4938/paparazzi/var/ECE_2012/ap/firmwares/fixedwing/datalink.o
                                                  /home/woz/lisa-m-team4938/paparazzi/var/ECE_2012/ap/firmwares/fixedwing/main_ap.o
__aeabi_ul2d                                      /opt/paparazzi/arm-multilib/lib/gcc/arm-none-eabi/4.4.5/thumb2/libgcc.a(_arm_addsubdf3.o)
__aeabi_ul2f                                      /opt/paparazzi/arm-multilib/lib/gcc/arm-none-eabi/4.4.5/thumb2/libgcc.a(_arm_addsubsf3.o)
__cmpdf2                                          /opt/paparazzi/arm-multilib/lib/gcc/arm-none-eabi/4.4.5/thumb2/libgcc.a(_arm_cmpdf2.o)
__cmpsf2                                          /opt/paparazzi/arm-multilib/lib/gcc/arm-none-eabi/4.4.5/thumb2/libgcc.a(_arm_cmpsf2.o)
__divdf3                                          /opt/paparazzi/arm-multilib/lib/gcc/arm-none-eabi/4.4.5/thumb2/libgcc.a(_arm_muldivdf3.o)
__divsf3                                          /opt/paparazzi/arm-multilib/lib/gcc/arm-none-eabi/4.4.5/thumb2/libgcc.a(_arm_muldivsf3.o)
__divsi3                                          /opt/paparazzi/arm-multilib/lib/gcc/arm-none-eabi/4.4.5/thumb2/libgcc.a(_divsi3.o)
__eqdf2                                           /opt/paparazzi/arm-multilib/lib/gcc/arm-none-eabi/4.4.5/thumb2/libgcc.a(_arm_cmpdf2.o)
__eqsf2                                           /opt/paparazzi/arm-multilib/lib/gcc/arm-none-eabi/4.4.5/thumb2/libgcc.a(_arm_cmpsf2.o)
__errno                                           /opt/paparazzi/arm-multilib/lib/gcc/arm-none-eabi/4.4.5/../../../../arm-none-eabi/lib/thumb2/libc.a(lib_a-errno.o)
                                                  /opt/paparazzi/arm-multilib/lib/gcc/arm-none-eabi/4.4.5/../../../../arm-none-eabi/lib/thumb2/libm.a(lib_a-wf_sqrt.o)
                                                  /opt/paparazzi/arm-multilib/lib/gcc/arm-none-eabi/4.4.5/../../../../arm-none-eabi/lib/thumb2/libm.a(lib_a-wf_pow.o)
                                                  /opt/paparazzi/arm-multilib/lib/gcc/arm-none-eabi/4.4.5/../../../../arm-none-eabi/lib/thumb2/libm.a(lib_a-wf_asin.o)
                                                  /opt/paparazzi/arm-multilib/lib/gcc/arm-none-eabi/4.4.5/../../../../arm-none-eabi/lib/thumb2/libm.a(lib_a-w_sqrt.o)
                                                  /opt/paparazzi/arm-multilib/lib/gcc/arm-none-eabi/4.4.5/../../../../arm-none-eabi/lib/thumb2/libm.a(lib_a-w_sinh.o)
                                                  /opt/paparazzi/arm-multilib/lib/gcc/arm-none-eabi/4.4.5/../../../../arm-none-eabi/lib/thumb2/libm.a(lib_a-w_pow.o)
                                                  /opt/paparazzi/arm-multilib/lib/gcc/arm-none-eabi/4.4.5/../../../../arm-none-eabi/lib/thumb2/libm.a(lib_a-w_log.o)
                                                  /opt/paparazzi/arm-multilib/lib/gcc/arm-none-eabi/4.4.5/../../../../arm-none-eabi/lib/thumb2/libm.a(lib_a-w_exp.o)
                                                  /opt/paparazzi/arm-multilib/lib/gcc/arm-none-eabi/4.4.5/../../../../arm-none-eabi/lib/thumb2/libm.a(lib_a-w_cosh.o)
                                                  /opt/paparazzi/arm-multilib/lib/gcc/arm-none-eabi/4.4.5/../../../../arm-none-eabi/lib/thumb2/libm.a(lib_a-w_asin.o)
__extendsfdf2                                     /opt/paparazzi/arm-multilib/lib/gcc/arm-none-eabi/4.4.5/thumb2/libgcc.a(_arm_addsubdf3.o)
__fdlib_version                                   /opt/paparazzi/arm-multilib/lib/gcc/arm-none-eabi/4.4.5/../../../../arm-none-eabi/lib/thumb2/libm.a(lib_a-s_lib_ver.o)
                                                  /opt/paparazzi/arm-multilib/lib/gcc/arm-none-eabi/4.4.5/../../../../arm-none-eabi/lib/thumb2/libm.a(lib_a-wf_sqrt.o)
                                                  /opt/paparazzi/arm-multilib/lib/gcc/arm-none-eabi/4.4.5/../../../../arm-none-eabi/lib/thumb2/libm.a(lib_a-wf_pow.o)
                                                  /opt/paparazzi/arm-multilib/lib/gcc/arm-none-eabi/4.4.5/../../../../arm-none-eabi/lib/thumb2/libm.a(lib_a-wf_asin.o)
                                                  /opt/paparazzi/arm-multilib/lib/gcc/arm-none-eabi/4.4.5/../../../../arm-none-eabi/lib/thumb2/libm.a(lib_a-w_sqrt.o)
                                                  /opt/paparazzi/arm-multilib/lib/gcc/arm-none-eabi/4.4.5/../../../../arm-none-eabi/lib/thumb2/libm.a(lib_a-w_sinh.o)
                                                  /opt/paparazzi/arm-multilib/lib/gcc/arm-none-eabi/4.4.5/../../../../arm-none-eabi/lib/thumb2/libm.a(lib_a-w_pow.o)
                                                  /opt/paparazzi/arm-multilib/lib/gcc/arm-none-eabi/4.4.5/../../../../arm-none-eabi/lib/thumb2/libm.a(lib_a-w_log.o)
                                                  /opt/paparazzi/arm-multilib/lib/gcc/arm-none-eabi/4.4.5/../../../../arm-none-eabi/lib/thumb2/libm.a(lib_a-w_exp.o)
                                                  /opt/paparazzi/arm-multilib/lib/gcc/arm-none-eabi/4.4.5/../../../../arm-none-eabi/lib/thumb2/libm.a(lib_a-w_cosh.o)
                                                  /opt/paparazzi/arm-multilib/lib/gcc/arm-none-eabi/4.4.5/../../../../arm-none-eabi/lib/thumb2/libm.a(lib_a-w_asin.o)
__fixdfsi                                         /opt/paparazzi/arm-multilib/lib/gcc/arm-none-eabi/4.4.5/thumb2/libgcc.a(_arm_fixdfsi.o)
__fixsfsi                                         /opt/paparazzi/arm-multilib/lib/gcc/arm-none-eabi/4.4.5/thumb2/libgcc.a(_arm_fixsfsi.o)
__fixunsdfsi                                      /opt/paparazzi/arm-multilib/lib/gcc/arm-none-eabi/4.4.5/thumb2/libgcc.a(_arm_fixunsdfsi.o)
__fixunssfsi                                      /opt/paparazzi/arm-multilib/lib/gcc/arm-none-eabi/4.4.5/thumb2/libgcc.a(_arm_fixunssfsi.o)
__floatdidf                                       /opt/paparazzi/arm-multilib/lib/gcc/arm-none-eabi/4.4.5/thumb2/libgcc.a(_arm_addsubdf3.o)
__floatdisf                                       /opt/paparazzi/arm-multilib/lib/gcc/arm-none-eabi/4.4.5/thumb2/libgcc.a(_arm_addsubsf3.o)
__floatsidf                                       /opt/paparazzi/arm-multilib/lib/gcc/arm-none-eabi/4.4.5/thumb2/libgcc.a(_arm_addsubdf3.o)
__floatsisf                                       /opt/paparazzi/arm-multilib/lib/gcc/arm-none-eabi/4.4.5/thumb2/libgcc.a(_arm_addsubsf3.o)
__floatundidf                                     /opt/paparazzi/arm-multilib/lib/gcc/arm-none-eabi/4.4.5/thumb2/libgcc.a(_arm_addsubdf3.o)
__floatundisf                                     /opt/paparazzi/arm-multilib/lib/gcc/arm-none-eabi/4.4.5/thumb2/libgcc.a(_arm_addsubsf3.o)
__floatunsidf                                     /opt/paparazzi/arm-multilib/lib/gcc/arm-none-eabi/4.4.5/thumb2/libgcc.a(_arm_addsubdf3.o)
__floatunsisf                                     /opt/paparazzi/arm-multilib/lib/gcc/arm-none-eabi/4.4.5/thumb2/libgcc.a(_arm_addsubsf3.o)
__fpclassifyd                                     /opt/paparazzi/arm-multilib/lib/gcc/arm-none-eabi/4.4.5/../../../../arm-none-eabi/lib/thumb2/libm.a(lib_a-s_fpclassify.o)
                                                  /opt/paparazzi/arm-multilib/lib/gcc/arm-none-eabi/4.4.5/../../../../arm-none-eabi/lib/thumb2/libm.a(lib_a-w_sqrt.o)
                                                  /opt/paparazzi/arm-multilib/lib/gcc/arm-none-eabi/4.4.5/../../../../arm-none-eabi/lib/thumb2/libm.a(lib_a-w_pow.o)
                                                  /opt/paparazzi/arm-multilib/lib/gcc/arm-none-eabi/4.4.5/../../../../arm-none-eabi/lib/thumb2/libm.a(lib_a-w_log.o)
                                                  /opt/paparazzi/arm-multilib/lib/gcc/arm-none-eabi/4.4.5/../../../../arm-none-eabi/lib/thumb2/libm.a(lib_a-w_cosh.o)
                                                  /opt/paparazzi/arm-multilib/lib/gcc/arm-none-eabi/4.4.5/../../../../arm-none-eabi/lib/thumb2/libm.a(lib_a-w_asin.o)
__fpclassifyf                                     /opt/paparazzi/arm-multilib/lib/gcc/arm-none-eabi/4.4.5/../../../../arm-none-eabi/lib/thumb2/libm.a(lib_a-sf_fpclassify.o)
                                                  /opt/paparazzi/arm-multilib/lib/gcc/arm-none-eabi/4.4.5/../../../../arm-none-eabi/lib/thumb2/libm.a(lib_a-wf_sqrt.o)
                                                  /opt/paparazzi/arm-multilib/lib/gcc/arm-none-eabi/4.4.5/../../../../arm-none-eabi/lib/thumb2/libm.a(lib_a-wf_pow.o)
                                                  /opt/paparazzi/arm-multilib/lib/gcc/arm-none-eabi/4.4.5/../../../../arm-none-eabi/lib/thumb2/libm.a(lib_a-wf_asin.o)
__gedf2                                           /opt/paparazzi/arm-multilib/lib/gcc/arm-none-eabi/4.4.5/thumb2/libgcc.a(_arm_cmpdf2.o)
__gesf2                                           /opt/paparazzi/arm-multilib/lib/gcc/arm-none-eabi/4.4.5/thumb2/libgcc.a(_arm_cmpsf2.o)
__gtdf2                                           /opt/paparazzi/arm-multilib/lib/gcc/arm-none-eabi/4.4.5/thumb2/libgcc.a(_arm_cmpdf2.o)
__gtsf2                                           /opt/paparazzi/arm-multilib/lib/gcc/arm-none-eabi/4.4.5/thumb2/libgcc.a(_arm_cmpsf2.o)
__ieee754_asin                                    /opt/paparazzi/arm-multilib/lib/gcc/arm-none-eabi/4.4.5/../../../../arm-none-eabi/lib/thumb2/libm.a(lib_a-e_asin.o)
                                                  /opt/paparazzi/arm-multilib/lib/gcc/arm-none-eabi/4.4.5/../../../../arm-none-eabi/lib/thumb2/libm.a(lib_a-w_asin.o)
__ieee754_asinf                                   /opt/paparazzi/arm-multilib/lib/gcc/arm-none-eabi/4.4.5/../../../../arm-none-eabi/lib/thumb2/libm.a(lib_a-ef_asin.o)
                                                  /opt/paparazzi/arm-multilib/lib/gcc/arm-none-eabi/4.4.5/../../../../arm-none-eabi/lib/thumb2/libm.a(lib_a-wf_asin.o)
__ieee754_atan2                                   /opt/paparazzi/arm-multilib/lib/gcc/arm-none-eabi/4.4.5/../../../../arm-none-eabi/lib/thumb2/libm.a(lib_a-e_atan2.o)
                                                  /opt/paparazzi/arm-multilib/lib/gcc/arm-none-eabi/4.4.5/../../../../arm-none-eabi/lib/thumb2/libm.a(lib_a-w_atan2.o)
__ieee754_atan2f                                  /opt/paparazzi/arm-multilib/lib/gcc/arm-none-eabi/4.4.5/../../../../arm-none-eabi/lib/thumb2/libm.a(lib_a-ef_atan2.o)
                                                  /opt/paparazzi/arm-multilib/lib/gcc/arm-none-eabi/4.4.5/../../../../arm-none-eabi/lib/thumb2/libm.a(lib_a-wf_atan2.o)
__ieee754_cosh                                    /opt/paparazzi/arm-multilib/lib/gcc/arm-none-eabi/4.4.5/../../../../arm-none-eabi/lib/thumb2/libm.a(lib_a-e_cosh.o)
                                                  /opt/paparazzi/arm-multilib/lib/gcc/arm-none-eabi/4.4.5/../../../../arm-none-eabi/lib/thumb2/libm.a(lib_a-w_cosh.o)
__ieee754_exp                                     /opt/paparazzi/arm-multilib/lib/gcc/arm-none-eabi/4.4.5/../../../../arm-none-eabi/lib/thumb2/libm.a(lib_a-e_exp.o)
                                                  /opt/paparazzi/arm-multilib/lib/gcc/arm-none-eabi/4.4.5/../../../../arm-none-eabi/lib/thumb2/libm.a(lib_a-e_sinh.o)
                                                  /opt/paparazzi/arm-multilib/lib/gcc/arm-none-eabi/4.4.5/../../../../arm-none-eabi/lib/thumb2/libm.a(lib_a-e_cosh.o)
                                                  /opt/paparazzi/arm-multilib/lib/gcc/arm-none-eabi/4.4.5/../../../../arm-none-eabi/lib/thumb2/libm.a(lib_a-w_exp.o)
__ieee754_log                                     /opt/paparazzi/arm-multilib/lib/gcc/arm-none-eabi/4.4.5/../../../../arm-none-eabi/lib/thumb2/libm.a(lib_a-e_log.o)
                                                  /opt/paparazzi/arm-multilib/lib/gcc/arm-none-eabi/4.4.5/../../../../arm-none-eabi/lib/thumb2/libm.a(lib_a-w_log.o)
__ieee754_pow                                     /opt/paparazzi/arm-multilib/lib/gcc/arm-none-eabi/4.4.5/../../../../arm-none-eabi/lib/thumb2/libm.a(lib_a-e_pow.o)
                                                  /opt/paparazzi/arm-multilib/lib/gcc/arm-none-eabi/4.4.5/../../../../arm-none-eabi/lib/thumb2/libm.a(lib_a-w_pow.o)
__ieee754_powf                                    /opt/paparazzi/arm-multilib/lib/gcc/arm-none-eabi/4.4.5/../../../../arm-none-eabi/lib/thumb2/libm.a(lib_a-ef_pow.o)
                                                  /opt/paparazzi/arm-multilib/lib/gcc/arm-none-eabi/4.4.5/../../../../arm-none-eabi/lib/thumb2/libm.a(lib_a-wf_pow.o)
__ieee754_rem_pio2                                /opt/paparazzi/arm-multilib/lib/gcc/arm-none-eabi/4.4.5/../../../../arm-none-eabi/lib/thumb2/libm.a(lib_a-e_rem_pio2.o)
                                                  /opt/paparazzi/arm-multilib/lib/gcc/arm-none-eabi/4.4.5/../../../../arm-none-eabi/lib/thumb2/libm.a(lib_a-s_tan.o)
                                                  /opt/paparazzi/arm-multilib/lib/gcc/arm-none-eabi/4.4.5/../../../../arm-none-eabi/lib/thumb2/libm.a(lib_a-s_sin.o)
                                                  /opt/paparazzi/arm-multilib/lib/gcc/arm-none-eabi/4.4.5/../../../../arm-none-eabi/lib/thumb2/libm.a(lib_a-s_cos.o)
__ieee754_rem_pio2f                               /opt/paparazzi/arm-multilib/lib/gcc/arm-none-eabi/4.4.5/../../../../arm-none-eabi/lib/thumb2/libm.a(lib_a-ef_rem_pio2.o)
                                                  /opt/paparazzi/arm-multilib/lib/gcc/arm-none-eabi/4.4.5/../../../../arm-none-eabi/lib/thumb2/libm.a(lib_a-sf_sin.o)
                                                  /opt/paparazzi/arm-multilib/lib/gcc/arm-none-eabi/4.4.5/../../../../arm-none-eabi/lib/thumb2/libm.a(lib_a-sf_cos.o)
__ieee754_sinh                                    /opt/paparazzi/arm-multilib/lib/gcc/arm-none-eabi/4.4.5/../../../../arm-none-eabi/lib/thumb2/libm.a(lib_a-e_sinh.o)
                                                  /opt/paparazzi/arm-multilib/lib/gcc/arm-none-eabi/4.4.5/../../../../arm-none-eabi/lib/thumb2/libm.a(lib_a-w_sinh.o)
__ieee754_sqrt                                    /opt/paparazzi/arm-multilib/lib/gcc/arm-none-eabi/4.4.5/../../../../arm-none-eabi/lib/thumb2/libm.a(lib_a-e_sqrt.o)
                                                  /opt/paparazzi/arm-multilib/lib/gcc/arm-none-eabi/4.4.5/../../../../arm-none-eabi/lib/thumb2/libm.a(lib_a-e_pow.o)
                                                  /opt/paparazzi/arm-multilib/lib/gcc/arm-none-eabi/4.4.5/../../../../arm-none-eabi/lib/thumb2/libm.a(lib_a-e_asin.o)
                                                  /opt/paparazzi/arm-multilib/lib/gcc/arm-none-eabi/4.4.5/../../../../arm-none-eabi/lib/thumb2/libm.a(lib_a-w_sqrt.o)
__ieee754_sqrtf                                   /opt/paparazzi/arm-multilib/lib/gcc/arm-none-eabi/4.4.5/../../../../arm-none-eabi/lib/thumb2/libm.a(lib_a-ef_sqrt.o)
                                                  /opt/paparazzi/arm-multilib/lib/gcc/arm-none-eabi/4.4.5/../../../../arm-none-eabi/lib/thumb2/libm.a(lib_a-ef_pow.o)
                                                  /opt/paparazzi/arm-multilib/lib/gcc/arm-none-eabi/4.4.5/../../../../arm-none-eabi/lib/thumb2/libm.a(lib_a-ef_asin.o)
                                                  /opt/paparazzi/arm-multilib/lib/gcc/arm-none-eabi/4.4.5/../../../../arm-none-eabi/lib/thumb2/libm.a(lib_a-wf_sqrt.o)
__kernel_cos                                      /opt/paparazzi/arm-multilib/lib/gcc/arm-none-eabi/4.4.5/../../../../arm-none-eabi/lib/thumb2/libm.a(lib_a-k_cos.o)
                                                  /opt/paparazzi/arm-multilib/lib/gcc/arm-none-eabi/4.4.5/../../../../arm-none-eabi/lib/thumb2/libm.a(lib_a-s_sin.o)
                                                  /opt/paparazzi/arm-multilib/lib/gcc/arm-none-eabi/4.4.5/../../../../arm-none-eabi/lib/thumb2/libm.a(lib_a-s_cos.o)
__kernel_cosf                                     /opt/paparazzi/arm-multilib/lib/gcc/arm-none-eabi/4.4.5/../../../../arm-none-eabi/lib/thumb2/libm.a(lib_a-kf_cos.o)
                                                  /opt/paparazzi/arm-multilib/lib/gcc/arm-none-eabi/4.4.5/../../../../arm-none-eabi/lib/thumb2/libm.a(lib_a-sf_sin.o)
                                                  /opt/paparazzi/arm-multilib/lib/gcc/arm-none-eabi/4.4.5/../../../../arm-none-eabi/lib/thumb2/libm.a(lib_a-sf_cos.o)
__kernel_rem_pio2                                 /opt/paparazzi/arm-multilib/lib/gcc/arm-none-eabi/4.4.5/../../../../arm-none-eabi/lib/thumb2/libm.a(lib_a-k_rem_pio2.o)
                                                  /opt/paparazzi/arm-multilib/lib/gcc/arm-none-eabi/4.4.5/../../../../arm-none-eabi/lib/thumb2/libm.a(lib_a-e_rem_pio2.o)
__kernel_rem_pio2f                                /opt/paparazzi/arm-multilib/lib/gcc/arm-none-eabi/4.4.5/../../../../arm-none-eabi/lib/thumb2/libm.a(lib_a-kf_rem_pio2.o)
                                                  /opt/paparazzi/arm-multilib/lib/gcc/arm-none-eabi/4.4.5/../../../../arm-none-eabi/lib/thumb2/libm.a(lib_a-ef_rem_pio2.o)
__kernel_sin                                      /opt/paparazzi/arm-multilib/lib/gcc/arm-none-eabi/4.4.5/../../../../arm-none-eabi/lib/thumb2/libm.a(lib_a-k_sin.o)
                                                  /opt/paparazzi/arm-multilib/lib/gcc/arm-none-eabi/4.4.5/../../../../arm-none-eabi/lib/thumb2/libm.a(lib_a-s_sin.o)
                                                  /opt/paparazzi/arm-multilib/lib/gcc/arm-none-eabi/4.4.5/../../../../arm-none-eabi/lib/thumb2/libm.a(lib_a-s_cos.o)
__kernel_sinf                                     /opt/paparazzi/arm-multilib/lib/gcc/arm-none-eabi/4.4.5/../../../../arm-none-eabi/lib/thumb2/libm.a(lib_a-kf_sin.o)
                                                  /opt/paparazzi/arm-multilib/lib/gcc/arm-none-eabi/4.4.5/../../../../arm-none-eabi/lib/thumb2/libm.a(lib_a-sf_sin.o)
                                                  /opt/paparazzi/arm-multilib/lib/gcc/arm-none-eabi/4.4.5/../../../../arm-none-eabi/lib/thumb2/libm.a(lib_a-sf_cos.o)
__kernel_tan                                      /opt/paparazzi/arm-multilib/lib/gcc/arm-none-eabi/4.4.5/../../../../arm-none-eabi/lib/thumb2/libm.a(lib_a-k_tan.o)
                                                  /opt/paparazzi/arm-multilib/lib/gcc/arm-none-eabi/4.4.5/../../../../arm-none-eabi/lib/thumb2/libm.a(lib_a-s_tan.o)
__ledf2                                           /opt/paparazzi/arm-multilib/lib/gcc/arm-none-eabi/4.4.5/thumb2/libgcc.a(_arm_cmpdf2.o)
__lesf2                                           /opt/paparazzi/arm-multilib/lib/gcc/arm-none-eabi/4.4.5/thumb2/libgcc.a(_arm_cmpsf2.o)
__ltdf2                                           /opt/paparazzi/arm-multilib/lib/gcc/arm-none-eabi/4.4.5/thumb2/libgcc.a(_arm_cmpdf2.o)
__ltsf2                                           /opt/paparazzi/arm-multilib/lib/gcc/arm-none-eabi/4.4.5/thumb2/libgcc.a(_arm_cmpsf2.o)
__muldf3                                          /opt/paparazzi/arm-multilib/lib/gcc/arm-none-eabi/4.4.5/thumb2/libgcc.a(_arm_muldivdf3.o)
__mulsf3                                          /opt/paparazzi/arm-multilib/lib/gcc/arm-none-eabi/4.4.5/thumb2/libgcc.a(_arm_muldivsf3.o)
__nedf2                                           /opt/paparazzi/arm-multilib/lib/gcc/arm-none-eabi/4.4.5/thumb2/libgcc.a(_arm_cmpdf2.o)
__nesf2                                           /opt/paparazzi/arm-multilib/lib/gcc/arm-none-eabi/4.4.5/thumb2/libgcc.a(_arm_cmpsf2.o)
__subdf3                                          /opt/paparazzi/arm-multilib/lib/gcc/arm-none-eabi/4.4.5/thumb2/libgcc.a(_arm_addsubdf3.o)
__subsf3                                          /opt/paparazzi/arm-multilib/lib/gcc/arm-none-eabi/4.4.5/thumb2/libgcc.a(_arm_addsubsf3.o)
__truncdfsf2                                      /opt/paparazzi/arm-multilib/lib/gcc/arm-none-eabi/4.4.5/thumb2/libgcc.a(_arm_truncdfsf2.o)
_close                                            /home/woz/lisa-m-team4938/paparazzi/var/ECE_2012/ap/lisa/plug_sys.o
_ebss                                             /home/woz/lisa-m-team4938/paparazzi/var/ECE_2012/ap/arch/stm32/stm32_vector_table.o
_edata                                            /home/woz/lisa-m-team4938/paparazzi/var/ECE_2012/ap/arch/stm32/stm32_vector_table.o
_estack                                           /home/woz/lisa-m-team4938/paparazzi/var/ECE_2012/ap/arch/stm32/stm32_vector_table.o
_global_impure_ptr                                /opt/paparazzi/arm-multilib/lib/gcc/arm-none-eabi/4.4.5/../../../../arm-none-eabi/lib/thumb2/libc.a(lib_a-impure.o)
_impure_ptr                                       /opt/paparazzi/arm-multilib/lib/gcc/arm-none-eabi/4.4.5/../../../../arm-none-eabi/lib/thumb2/libc.a(lib_a-impure.o)
                                                  /opt/paparazzi/arm-multilib/lib/gcc/arm-none-eabi/4.4.5/../../../../arm-none-eabi/lib/thumb2/libc.a(lib_a-errno.o)
_lseek                                            /home/woz/lisa-m-team4938/paparazzi/var/ECE_2012/ap/lisa/plug_sys.o
_read                                             /home/woz/lisa-m-team4938/paparazzi/var/ECE_2012/ap/lisa/plug_sys.o
_sbrk                                             /home/woz/lisa-m-team4938/paparazzi/var/ECE_2012/ap/lisa/plug_sys.o
_sbss                                             /home/woz/lisa-m-team4938/paparazzi/var/ECE_2012/ap/arch/stm32/stm32_vector_table.o
_sdata                                            /home/woz/lisa-m-team4938/paparazzi/var/ECE_2012/ap/arch/stm32/stm32_vector_table.o
_sidata                                           /home/woz/lisa-m-team4938/paparazzi/var/ECE_2012/ap/arch/stm32/stm32_vector_table.o
_write                                            /home/woz/lisa-m-team4938/paparazzi/var/ECE_2012/ap/lisa/plug_sys.o
abort                                             /home/woz/lisa-m-team4938/paparazzi/var/ECE_2012/ap/lisa/plug_sys.o
ac_ident                                          /home/woz/lisa-m-team4938/paparazzi/var/ECE_2012/ap/firmwares/fixedwing/main_ap.o
accel_float                                       /home/woz/lisa-m-team4938/paparazzi/var/ECE_2012/ap/subsystems/ahrs/ahrs_float_dcm.o
acs_idx                                           /home/woz/lisa-m-team4938/paparazzi/var/ECE_2012/ap/subsystems/navigation/traffic_info.o
                                                  /home/woz/lisa-m-team4938/paparazzi/var/ECE_2012/ap/firmwares/fixedwing/datalink.o
actuators                                         /home/woz/lisa-m-team4938/paparazzi/var/ECE_2012/ap/actuators.o
                                                  /home/woz/lisa-m-team4938/paparazzi/var/ECE_2012/ap/firmwares/fixedwing/main_fbw.o
actuators_init                                    /home/woz/lisa-m-team4938/paparazzi/var/ECE_2012/ap/arch/stm32/servos_direct_hw.o
                                                  /home/woz/lisa-m-team4938/paparazzi/var/ECE_2012/ap/firmwares/fixedwing/main_fbw.o
actuators_pwm_arch_init                           /home/woz/lisa-m-team4938/paparazzi/var/ECE_2012/ap/firmwares/rotorcraft/actuators/arch/stm32/actuators_pwm_arch.o
                                                  /home/woz/lisa-m-team4938/paparazzi/var/ECE_2012/ap/arch/stm32/servos_direct_hw.o
actuators_pwm_commit                              /home/woz/lisa-m-team4938/paparazzi/var/ECE_2012/ap/firmwares/rotorcraft/actuators/arch/stm32/actuators_pwm_arch.o
                                                  /home/woz/lisa-m-team4938/paparazzi/var/ECE_2012/ap/firmwares/fixedwing/main_fbw.o
actuators_pwm_values                              /home/woz/lisa-m-team4938/paparazzi/var/ECE_2012/ap/arch/stm32/servos_direct_hw.o
                                                  /home/woz/lisa-m-team4938/paparazzi/var/ECE_2012/ap/firmwares/rotorcraft/actuators/arch/stm32/actuators_pwm_arch.o
                                                  /home/woz/lisa-m-team4938/paparazzi/var/ECE_2012/ap/firmwares/fixedwing/main_fbw.o
adc1_2_irq_handler                                /home/woz/lisa-m-team4938/paparazzi/var/ECE_2012/ap/arch/stm32/mcu_periph/adc_arch.o
                                                  /home/woz/lisa-m-team4938/paparazzi/var/ECE_2012/ap/arch/stm32/stm32_vector_table.o
adc_buf_channel                                   /home/woz/lisa-m-team4938/paparazzi/var/ECE_2012/ap/arch/stm32/mcu_periph/adc_arch.o
                                                  /home/woz/lisa-m-team4938/paparazzi/var/ECE_2012/ap/subsystems/electrical.o
adc_init                                          /home/woz/lisa-m-team4938/paparazzi/var/ECE_2012/ap/arch/stm32/mcu_periph/adc_arch.o
                                                  /home/woz/lisa-m-team4938/paparazzi/var/ECE_2012/ap/mcu.o
adc_new_data_trigger                              /home/woz/lisa-m-team4938/paparazzi/var/ECE_2012/ap/arch/stm32/mcu_periph/adc_arch.o
adxl345_clear_rx_buf                              /home/woz/lisa-m-team4938/paparazzi/var/ECE_2012/ap/arch/stm32/subsystems/imu/imu_aspirin_arch.o
                                                  /home/woz/lisa-m-team4938/paparazzi/var/ECE_2012/ap/subsystems/imu/imu_aspirin.o
adxl345_start_reading_data                        /home/woz/lisa-m-team4938/paparazzi/var/ECE_2012/ap/arch/stm32/subsystems/imu/imu_aspirin_arch.o
                                                  /home/woz/lisa-m-team4938/paparazzi/var/ECE_2012/ap/subsystems/imu/imu_aspirin.o
adxl345_write_to_reg                              /home/woz/lisa-m-team4938/paparazzi/var/ECE_2012/ap/arch/stm32/subsystems/imu/imu_aspirin_arch.o
                                                  /home/woz/lisa-m-team4938/paparazzi/var/ECE_2012/ap/subsystems/imu/imu_aspirin.o
ahrs                                              /home/woz/lisa-m-team4938/paparazzi/var/ECE_2012/ap/subsystems/ahrs.o
                                                  /home/woz/lisa-m-team4938/paparazzi/var/ECE_2012/ap/subsystems/ahrs/ahrs_float_dcm.o
                                                  /home/woz/lisa-m-team4938/paparazzi/var/ECE_2012/ap/firmwares/fixedwing/main_ap.o
ahrs_align                                        /home/woz/lisa-m-team4938/paparazzi/var/ECE_2012/ap/subsystems/ahrs/ahrs_float_dcm.o
                                                  /home/woz/lisa-m-team4938/paparazzi/var/ECE_2012/ap/firmwares/fixedwing/main_ap.o
ahrs_aligner                                      /home/woz/lisa-m-team4938/paparazzi/var/ECE_2012/ap/subsystems/ahrs/ahrs_aligner.o
                                                  /home/woz/lisa-m-team4938/paparazzi/var/ECE_2012/ap/subsystems/ahrs/ahrs_float_dcm.o
                                                  /home/woz/lisa-m-team4938/paparazzi/var/ECE_2012/ap/firmwares/fixedwing/main_ap.o
ahrs_aligner_init                                 /home/woz/lisa-m-team4938/paparazzi/var/ECE_2012/ap/subsystems/ahrs/ahrs_aligner.o
                                                  /home/woz/lisa-m-team4938/paparazzi/var/ECE_2012/ap/firmwares/fixedwing/main_ap.o
ahrs_aligner_run                                  /home/woz/lisa-m-team4938/paparazzi/var/ECE_2012/ap/subsystems/ahrs/ahrs_aligner.o
                                                  /home/woz/lisa-m-team4938/paparazzi/var/ECE_2012/ap/firmwares/fixedwing/main_ap.o
ahrs_float                                        /home/woz/lisa-m-team4938/paparazzi/var/ECE_2012/ap/subsystems/ahrs.o
                                                  /home/woz/lisa-m-team4938/paparazzi/var/ECE_2012/ap/subsystems/ahrs/ahrs_float_dcm.o
ahrs_impl                                         /home/woz/lisa-m-team4938/paparazzi/var/ECE_2012/ap/subsystems/ahrs/ahrs_float_dcm.o
ahrs_init                                         /home/woz/lisa-m-team4938/paparazzi/var/ECE_2012/ap/subsystems/ahrs/ahrs_float_dcm.o
                                                  /home/woz/lisa-m-team4938/paparazzi/var/ECE_2012/ap/firmwares/fixedwing/main_ap.o
ahrs_mag_offset                                   /home/woz/lisa-m-team4938/paparazzi/var/ECE_2012/ap/subsystems/ahrs.o
ahrs_propagate                                    /home/woz/lisa-m-team4938/paparazzi/var/ECE_2012/ap/subsystems/ahrs/ahrs_float_dcm.o
                                                  /home/woz/lisa-m-team4938/paparazzi/var/ECE_2012/ap/firmwares/fixedwing/main_ap.o
ahrs_timeout_counter                              /home/woz/lisa-m-team4938/paparazzi/var/ECE_2012/ap/firmwares/fixedwing/main_ap.o
ahrs_update_accel                                 /home/woz/lisa-m-team4938/paparazzi/var/ECE_2012/ap/subsystems/ahrs/ahrs_float_dcm.o
                                                  /home/woz/lisa-m-team4938/paparazzi/var/ECE_2012/ap/firmwares/fixedwing/main_ap.o
ahrs_update_fw_estimator                          /home/woz/lisa-m-team4938/paparazzi/var/ECE_2012/ap/subsystems/ahrs/ahrs_float_dcm.o
                                                  /home/woz/lisa-m-team4938/paparazzi/var/ECE_2012/ap/firmwares/fixedwing/main_ap.o
ahrs_update_mag                                   /home/woz/lisa-m-team4938/paparazzi/var/ECE_2012/ap/subsystems/ahrs/ahrs_float_dcm.o
                                                  /home/woz/lisa-m-team4938/paparazzi/var/ECE_2012/ap/firmwares/fixedwing/main_ap.o
alt_kalman                                        /home/woz/lisa-m-team4938/paparazzi/var/ECE_2012/ap/./estimator.o
alt_kalman_enabled                                /home/woz/lisa-m-team4938/paparazzi/var/ECE_2012/ap/./estimator.o
alt_kalman_init                                   /home/woz/lisa-m-team4938/paparazzi/var/ECE_2012/ap/./estimator.o
                                                  /home/woz/lisa-m-team4938/paparazzi/var/ECE_2012/ap/firmwares/fixedwing/main_ap.o
alt_kalman_reset                                  /home/woz/lisa-m-team4938/paparazzi/var/ECE_2012/ap/./estimator.o
ap_ok                                             /home/woz/lisa-m-team4938/paparazzi/var/ECE_2012/ap/./inter_mcu.o
                                                  /home/woz/lisa-m-team4938/paparazzi/var/ECE_2012/ap/firmwares/fixedwing/main_fbw.o
ap_state                                          /home/woz/lisa-m-team4938/paparazzi/var/ECE_2012/ap/./inter_mcu.o
                                                  /home/woz/lisa-m-team4938/paparazzi/var/ECE_2012/ap/firmwares/fixedwing/main_ap.o
                                                  /home/woz/lisa-m-team4938/paparazzi/var/ECE_2012/ap/firmwares/fixedwing/main_fbw.o
asin                                              /opt/paparazzi/arm-multilib/lib/gcc/arm-none-eabi/4.4.5/../../../../arm-none-eabi/lib/thumb2/libm.a(lib_a-w_asin.o)
                                                  /home/woz/lisa-m-team4938/paparazzi/var/ECE_2012/ap/subsystems/ahrs/ahrs_float_dcm.o
                                                  /home/woz/lisa-m-team4938/paparazzi/var/ECE_2012/ap/math/pprz_geodetic_double.o
                                                  /home/woz/lisa-m-team4938/paparazzi/var/ECE_2012/ap/math/pprz_geodetic_float.o
asinf                                             /opt/paparazzi/arm-multilib/lib/gcc/arm-none-eabi/4.4.5/../../../../arm-none-eabi/lib/thumb2/libm.a(lib_a-wf_asin.o)
                                                  /home/woz/lisa-m-team4938/paparazzi/var/ECE_2012/ap/subsystems/ahrs/ahrs_float_dcm.o
assert_param                                      /home/woz/lisa-m-team4938/paparazzi/var/ECE_2012/ap/arch/stm32/stm32_vector_table.o
atan                                              /opt/paparazzi/arm-multilib/lib/gcc/arm-none-eabi/4.4.5/../../../../arm-none-eabi/lib/thumb2/libm.a(lib_a-s_atan.o)
                                                  /opt/paparazzi/arm-multilib/lib/gcc/arm-none-eabi/4.4.5/../../../../arm-none-eabi/lib/thumb2/libm.a(lib_a-e_atan2.o)
                                                  /home/woz/lisa-m-team4938/paparazzi/var/ECE_2012/ap/subsystems/nav.o
                                                  /home/woz/lisa-m-team4938/paparazzi/var/ECE_2012/ap/math/pprz_geodetic_double.o
                                                  /home/woz/lisa-m-team4938/paparazzi/var/ECE_2012/ap/math/pprz_geodetic_float.o
atan2                                             /opt/paparazzi/arm-multilib/lib/gcc/arm-none-eabi/4.4.5/../../../../arm-none-eabi/lib/thumb2/libm.a(lib_a-w_atan2.o)
                                                  /home/woz/lisa-m-team4938/paparazzi/var/ECE_2012/ap/subsystems/navigation/nav_line.o
                                                  /home/woz/lisa-m-team4938/paparazzi/var/ECE_2012/ap/subsystems/nav.o
                                                  /home/woz/lisa-m-team4938/paparazzi/var/ECE_2012/ap/subsystems/ahrs/ahrs_float_dcm.o
                                                  /home/woz/lisa-m-team4938/paparazzi/var/ECE_2012/ap/math/pprz_geodetic_double.o
atan2f                                            /opt/paparazzi/arm-multilib/lib/gcc/arm-none-eabi/4.4.5/../../../../arm-none-eabi/lib/thumb2/libm.a(lib_a-wf_atan2.o)
                                                  /home/woz/lisa-m-team4938/paparazzi/var/ECE_2012/ap/subsystems/ahrs/ahrs_float_dcm.o
                                                  /home/woz/lisa-m-team4938/paparazzi/var/ECE_2012/ap/math/pprz_geodetic_float.o
atanf                                             /opt/paparazzi/arm-multilib/lib/gcc/arm-none-eabi/4.4.5/../../../../arm-none-eabi/lib/thumb2/libm.a(lib_a-sf_atan.o)
                                                  /opt/paparazzi/arm-multilib/lib/gcc/arm-none-eabi/4.4.5/../../../../arm-none-eabi/lib/thumb2/libm.a(lib_a-ef_atan2.o)
                                                  /home/woz/lisa-m-team4938/paparazzi/var/ECE_2012/ap/math/pprz_geodetic_float.o
block_time                                        /home/woz/lisa-m-team4938/paparazzi/var/ECE_2012/ap/subsystems/navigation/common_flight_plan.o
                                                  /home/woz/lisa-m-team4938/paparazzi/var/ECE_2012/ap/subsystems/nav.o
                                                  /home/woz/lisa-m-team4938/paparazzi/var/ECE_2012/ap/firmwares/fixedwing/main_ap.o
bus_fault_exception                               /home/woz/lisa-m-team4938/paparazzi/var/ECE_2012/ap/arch/stm32/stm32_exceptions.o
                                                  /home/woz/lisa-m-team4938/paparazzi/var/ECE_2012/ap/arch/stm32/stm32_vector_table.o
carrot_x                                          /home/woz/lisa-m-team4938/paparazzi/var/ECE_2012/ap/subsystems/nav.o
carrot_y                                          /home/woz/lisa-m-team4938/paparazzi/var/ECE_2012/ap/subsystems/nav.o
circle_bank                                       /home/woz/lisa-m-team4938/paparazzi/var/ECE_2012/ap/subsystems/nav.o
ck_a                                              /home/woz/lisa-m-team4938/paparazzi/var/ECE_2012/ap/pprz_transport.o
                                                  /home/woz/lisa-m-team4938/paparazzi/var/ECE_2012/ap/firmwares/fixedwing/datalink.o
                                                  /home/woz/lisa-m-team4938/paparazzi/var/ECE_2012/ap/firmwares/fixedwing/main_ap.o
                                                  /home/woz/lisa-m-team4938/paparazzi/var/ECE_2012/ap/firmwares/fixedwing/main_fbw.o
ck_b                                              /home/woz/lisa-m-team4938/paparazzi/var/ECE_2012/ap/pprz_transport.o
                                                  /home/woz/lisa-m-team4938/paparazzi/var/ECE_2012/ap/firmwares/fixedwing/datalink.o
                                                  /home/woz/lisa-m-team4938/paparazzi/var/ECE_2012/ap/firmwares/fixedwing/main_ap.o
                                                  /home/woz/lisa-m-team4938/paparazzi/var/ECE_2012/ap/firmwares/fixedwing/main_fbw.o
command_pitch_trim                                /home/woz/lisa-m-team4938/paparazzi/var/ECE_2012/ap/./commands.o
                                                  /home/woz/lisa-m-team4938/paparazzi/var/ECE_2012/ap/firmwares/fixedwing/main_fbw.o
command_roll_trim                                 /home/woz/lisa-m-team4938/paparazzi/var/ECE_2012/ap/./commands.o
                                                  /home/woz/lisa-m-team4938/paparazzi/var/ECE_2012/ap/firmwares/fixedwing/main_fbw.o
commands                                          /home/woz/lisa-m-team4938/paparazzi/var/ECE_2012/ap/./commands.o
                                                  /home/woz/lisa-m-team4938/paparazzi/var/ECE_2012/ap/subsystems/electrical.o
                                                  /home/woz/lisa-m-team4938/paparazzi/var/ECE_2012/ap/firmwares/fixedwing/main_fbw.o
commands_failsafe                                 /home/woz/lisa-m-team4938/paparazzi/var/ECE_2012/ap/./commands.o
                                                  /home/woz/lisa-m-team4938/paparazzi/var/ECE_2012/ap/firmwares/fixedwing/main_fbw.o
common_nav_periodic_task_4Hz                      /home/woz/lisa-m-team4938/paparazzi/var/ECE_2012/ap/subsystems/nav.o
                                                  /home/woz/lisa-m-team4938/paparazzi/var/ECE_2012/ap/firmwares/fixedwing/main_ap.o
compute_dist2_to_home                             /home/woz/lisa-m-team4938/paparazzi/var/ECE_2012/ap/subsystems/nav.o
copysign                                          /opt/paparazzi/arm-multilib/lib/gcc/arm-none-eabi/4.4.5/../../../../arm-none-eabi/lib/thumb2/libm.a(lib_a-s_copysign.o)
                                                  /opt/paparazzi/arm-multilib/lib/gcc/arm-none-eabi/4.4.5/../../../../arm-none-eabi/lib/thumb2/libm.a(lib_a-s_scalbn.o)
copysignf                                         /opt/paparazzi/arm-multilib/lib/gcc/arm-none-eabi/4.4.5/../../../../arm-none-eabi/lib/thumb2/libm.a(lib_a-sf_copysign.o)
                                                  /opt/paparazzi/arm-multilib/lib/gcc/arm-none-eabi/4.4.5/../../../../arm-none-eabi/lib/thumb2/libm.a(lib_a-sf_scalbn.o)
cos                                               /opt/paparazzi/arm-multilib/lib/gcc/arm-none-eabi/4.4.5/../../../../arm-none-eabi/lib/thumb2/libm.a(lib_a-s_cos.o)
                                                  /home/woz/lisa-m-team4938/paparazzi/var/ECE_2012/ap/subsystems/nav.o
                                                  /home/woz/lisa-m-team4938/paparazzi/var/ECE_2012/ap/math/pprz_geodetic_double.o
                                                  /home/woz/lisa-m-team4938/paparazzi/var/ECE_2012/ap/math/pprz_geodetic_float.o
cosf                                              /opt/paparazzi/arm-multilib/lib/gcc/arm-none-eabi/4.4.5/../../../../arm-none-eabi/lib/thumb2/libm.a(lib_a-sf_cos.o)
                                                  /home/woz/lisa-m-team4938/paparazzi/var/ECE_2012/ap/subsystems/ahrs/ahrs_float_dcm.o
                                                  /home/woz/lisa-m-team4938/paparazzi/var/ECE_2012/ap/math/pprz_geodetic_double.o
                                                  /home/woz/lisa-m-team4938/paparazzi/var/ECE_2012/ap/math/pprz_geodetic_float.o
                                                  /home/woz/lisa-m-team4938/paparazzi/var/ECE_2012/ap/math/pprz_geodetic_int.o
cosh                                              /opt/paparazzi/arm-multilib/lib/gcc/arm-none-eabi/4.4.5/../../../../arm-none-eabi/lib/thumb2/libm.a(lib_a-w_cosh.o)
                                                  /home/woz/lisa-m-team4938/paparazzi/var/ECE_2012/ap/math/pprz_geodetic_double.o
                                                  /home/woz/lisa-m-team4938/paparazzi/var/ECE_2012/ap/math/pprz_geodetic_float.o
cpu_time_sec                                      /home/woz/lisa-m-team4938/paparazzi/var/ECE_2012/ap/sys_time.o
                                                  /home/woz/lisa-m-team4938/paparazzi/var/ECE_2012/ap/arch/stm32/sys_time_hw.o
                                                  /home/woz/lisa-m-team4938/paparazzi/var/ECE_2012/ap/firmwares/fixedwing/main.o
                                                  /home/woz/lisa-m-team4938/paparazzi/var/ECE_2012/ap/firmwares/fixedwing/main_ap.o
cpu_time_ticks                                    /home/woz/lisa-m-team4938/paparazzi/var/ECE_2012/ap/arch/stm32/sys_time_hw.o
                                                  /home/woz/lisa-m-team4938/paparazzi/var/ECE_2012/ap/firmwares/fixedwing/main.o
                                                  /home/woz/lisa-m-team4938/paparazzi/var/ECE_2012/ap/firmwares/fixedwing/main_ap.o
datalink_time                                     /home/woz/lisa-m-team4938/paparazzi/var/ECE_2012/ap/firmwares/fixedwing/datalink.o
                                                  /home/woz/lisa-m-team4938/paparazzi/var/ECE_2012/ap/firmwares/fixedwing/main_ap.o
desired_x                                         /home/woz/lisa-m-team4938/paparazzi/var/ECE_2012/ap/subsystems/nav.o
                                                  /home/woz/lisa-m-team4938/paparazzi/var/ECE_2012/ap/firmwares/fixedwing/main_ap.o
desired_y                                         /home/woz/lisa-m-team4938/paparazzi/var/ECE_2012/ap/subsystems/nav.o
                                                  /home/woz/lisa-m-team4938/paparazzi/var/ECE_2012/ap/firmwares/fixedwing/main_ap.o
dist2_to_home                                     /home/woz/lisa-m-team4938/paparazzi/var/ECE_2012/ap/subsystems/nav.o
                                                  /home/woz/lisa-m-team4938/paparazzi/var/ECE_2012/ap/firmwares/fixedwing/datalink.o
                                                  /home/woz/lisa-m-team4938/paparazzi/var/ECE_2012/ap/firmwares/fixedwing/main_ap.o
dist2_to_wp                                       /home/woz/lisa-m-team4938/paparazzi/var/ECE_2012/ap/subsystems/nav.o
                                                  /home/woz/lisa-m-team4938/paparazzi/var/ECE_2012/ap/firmwares/fixedwing/datalink.o
                                                  /home/woz/lisa-m-team4938/paparazzi/var/ECE_2012/ap/firmwares/fixedwing/main_ap.o
dl_buffer                                         /home/woz/lisa-m-team4938/paparazzi/var/ECE_2012/ap/firmwares/fixedwing/datalink.o
                                                  /home/woz/lisa-m-team4938/paparazzi/var/ECE_2012/ap/firmwares/fixedwing/main_ap.o
dl_msg_available                                  /home/woz/lisa-m-team4938/paparazzi/var/ECE_2012/ap/firmwares/fixedwing/datalink.o
                                                  /home/woz/lisa-m-team4938/paparazzi/var/ECE_2012/ap/firmwares/fixedwing/main_ap.o
dl_parse_msg                                      /home/woz/lisa-m-team4938/paparazzi/var/ECE_2012/ap/firmwares/fixedwing/datalink.o
                                                  /home/woz/lisa-m-team4938/paparazzi/var/ECE_2012/ap/firmwares/fixedwing/main_ap.o
dma1_c4_irq_handler                               /home/woz/lisa-m-team4938/paparazzi/var/ECE_2012/ap/arch/stm32/subsystems/imu/imu_aspirin_arch.o
                                                  /home/woz/lisa-m-team4938/paparazzi/var/ECE_2012/ap/arch/stm32/stm32_vector_table.o
downlink_nb_bytes                                 /home/woz/lisa-m-team4938/paparazzi/var/ECE_2012/ap/downlink.o
                                                  /home/woz/lisa-m-team4938/paparazzi/var/ECE_2012/ap/firmwares/fixedwing/datalink.o
                                                  /home/woz/lisa-m-team4938/paparazzi/var/ECE_2012/ap/firmwares/fixedwing/main_ap.o
                                                  /home/woz/lisa-m-team4938/paparazzi/var/ECE_2012/ap/firmwares/fixedwing/main_fbw.o
downlink_nb_msgs                                  /home/woz/lisa-m-team4938/paparazzi/var/ECE_2012/ap/downlink.o
                                                  /home/woz/lisa-m-team4938/paparazzi/var/ECE_2012/ap/firmwares/fixedwing/datalink.o
                                                  /home/woz/lisa-m-team4938/paparazzi/var/ECE_2012/ap/firmwares/fixedwing/main_ap.o
                                                  /home/woz/lisa-m-team4938/paparazzi/var/ECE_2012/ap/firmwares/fixedwing/main_fbw.o
downlink_nb_ovrn                                  /home/woz/lisa-m-team4938/paparazzi/var/ECE_2012/ap/downlink.o
                                                  /home/woz/lisa-m-team4938/paparazzi/var/ECE_2012/ap/firmwares/fixedwing/datalink.o
                                                  /home/woz/lisa-m-team4938/paparazzi/var/ECE_2012/ap/firmwares/fixedwing/main_ap.o
                                                  /home/woz/lisa-m-team4938/paparazzi/var/ECE_2012/ap/firmwares/fixedwing/main_fbw.o
ecef_of_enu_point_d                               /home/woz/lisa-m-team4938/paparazzi/var/ECE_2012/ap/math/pprz_geodetic_double.o
ecef_of_enu_point_f                               /home/woz/lisa-m-team4938/paparazzi/var/ECE_2012/ap/math/pprz_geodetic_float.o
ecef_of_enu_point_i                               /home/woz/lisa-m-team4938/paparazzi/var/ECE_2012/ap/math/pprz_geodetic_int.o
ecef_of_enu_vect_d                                /home/woz/lisa-m-team4938/paparazzi/var/ECE_2012/ap/math/pprz_geodetic_double.o
ecef_of_enu_vect_f                                /home/woz/lisa-m-team4938/paparazzi/var/ECE_2012/ap/math/pprz_geodetic_float.o
ecef_of_enu_vect_i                                /home/woz/lisa-m-team4938/paparazzi/var/ECE_2012/ap/math/pprz_geodetic_int.o
ecef_of_lla_d                                     /home/woz/lisa-m-team4938/paparazzi/var/ECE_2012/ap/math/pprz_geodetic_double.o
                                                  /home/woz/lisa-m-team4938/paparazzi/var/ECE_2012/ap/math/pprz_geodetic_int.o
ecef_of_lla_f                                     /home/woz/lisa-m-team4938/paparazzi/var/ECE_2012/ap/math/pprz_geodetic_float.o
ecef_of_lla_i                                     /home/woz/lisa-m-team4938/paparazzi/var/ECE_2012/ap/math/pprz_geodetic_int.o
ecef_of_ned_point_d                               /home/woz/lisa-m-team4938/paparazzi/var/ECE_2012/ap/math/pprz_geodetic_double.o
ecef_of_ned_point_f                               /home/woz/lisa-m-team4938/paparazzi/var/ECE_2012/ap/math/pprz_geodetic_float.o
ecef_of_ned_point_i                               /home/woz/lisa-m-team4938/paparazzi/var/ECE_2012/ap/math/pprz_geodetic_int.o
ecef_of_ned_vect_d                                /home/woz/lisa-m-team4938/paparazzi/var/ECE_2012/ap/math/pprz_geodetic_double.o
ecef_of_ned_vect_f                                /home/woz/lisa-m-team4938/paparazzi/var/ECE_2012/ap/math/pprz_geodetic_float.o
ecef_of_ned_vect_i                                /home/woz/lisa-m-team4938/paparazzi/var/ECE_2012/ap/math/pprz_geodetic_int.o
electrical                                        /home/woz/lisa-m-team4938/paparazzi/var/ECE_2012/ap/subsystems/electrical.o
                                                  /home/woz/lisa-m-team4938/paparazzi/var/ECE_2012/ap/firmwares/fixedwing/main_fbw.o
electrical_init                                   /home/woz/lisa-m-team4938/paparazzi/var/ECE_2012/ap/subsystems/electrical.o
                                                  /home/woz/lisa-m-team4938/paparazzi/var/ECE_2012/ap/firmwares/fixedwing/main_fbw.o
electrical_periodic                               /home/woz/lisa-m-team4938/paparazzi/var/ECE_2012/ap/subsystems/electrical.o
                                                  /home/woz/lisa-m-team4938/paparazzi/var/ECE_2012/ap/firmwares/fixedwing/main_fbw.o
energy                                            /home/woz/lisa-m-team4938/paparazzi/var/ECE_2012/ap/firmwares/fixedwing/main_ap.o
enu_of_ecef_point_d                               /home/woz/lisa-m-team4938/paparazzi/var/ECE_2012/ap/math/pprz_geodetic_double.o
enu_of_ecef_point_f                               /home/woz/lisa-m-team4938/paparazzi/var/ECE_2012/ap/math/pprz_geodetic_float.o
enu_of_ecef_point_i                               /home/woz/lisa-m-team4938/paparazzi/var/ECE_2012/ap/math/pprz_geodetic_int.o
enu_of_ecef_vect_d                                /home/woz/lisa-m-team4938/paparazzi/var/ECE_2012/ap/math/pprz_geodetic_double.o
enu_of_ecef_vect_f                                /home/woz/lisa-m-team4938/paparazzi/var/ECE_2012/ap/math/pprz_geodetic_float.o
enu_of_ecef_vect_i                                /home/woz/lisa-m-team4938/paparazzi/var/ECE_2012/ap/math/pprz_geodetic_int.o
enu_of_lla_point_f                                /home/woz/lisa-m-team4938/paparazzi/var/ECE_2012/ap/math/pprz_geodetic_float.o
enu_of_lla_point_i                                /home/woz/lisa-m-team4938/paparazzi/var/ECE_2012/ap/math/pprz_geodetic_int.o
enu_of_lla_vect_i                                 /home/woz/lisa-m-team4938/paparazzi/var/ECE_2012/ap/math/pprz_geodetic_int.o
estimator_AOA                                     /home/woz/lisa-m-team4938/paparazzi/var/ECE_2012/ap/./estimator.o
estimator_airspeed                                /home/woz/lisa-m-team4938/paparazzi/var/ECE_2012/ap/./estimator.o
                                                  /home/woz/lisa-m-team4938/paparazzi/var/ECE_2012/ap/firmwares/fixedwing/datalink.o
estimator_flight_time                             /home/woz/lisa-m-team4938/paparazzi/var/ECE_2012/ap/./estimator.o
                                                  /home/woz/lisa-m-team4938/paparazzi/var/ECE_2012/ap/subsystems/nav.o
                                                  /home/woz/lisa-m-team4938/paparazzi/var/ECE_2012/ap/firmwares/fixedwing/datalink.o
                                                  /home/woz/lisa-m-team4938/paparazzi/var/ECE_2012/ap/firmwares/fixedwing/main_ap.o
estimator_hspeed_dir                              /home/woz/lisa-m-team4938/paparazzi/var/ECE_2012/ap/./estimator.o
                                                  /home/woz/lisa-m-team4938/paparazzi/var/ECE_2012/ap/subsystems/navigation/nav_survey_rectangle.o
                                                  /home/woz/lisa-m-team4938/paparazzi/var/ECE_2012/ap/subsystems/nav.o
                                                  /home/woz/lisa-m-team4938/paparazzi/var/ECE_2012/ap/firmwares/fixedwing/stabilization/stabilization_attitude.o
estimator_hspeed_mod                              /home/woz/lisa-m-team4938/paparazzi/var/ECE_2012/ap/./estimator.o
                                                  /home/woz/lisa-m-team4938/paparazzi/var/ECE_2012/ap/subsystems/nav.o
                                                  /home/woz/lisa-m-team4938/paparazzi/var/ECE_2012/ap/firmwares/fixedwing/stabilization/stabilization_attitude.o
                                                  /home/woz/lisa-m-team4938/paparazzi/var/ECE_2012/ap/firmwares/fixedwing/main_ap.o
estimator_init                                    /home/woz/lisa-m-team4938/paparazzi/var/ECE_2012/ap/./estimator.o
                                                  /home/woz/lisa-m-team4938/paparazzi/var/ECE_2012/ap/firmwares/fixedwing/main_ap.o
estimator_p                                       /home/woz/lisa-m-team4938/paparazzi/var/ECE_2012/ap/./estimator.o
                                                  /home/woz/lisa-m-team4938/paparazzi/var/ECE_2012/ap/subsystems/ahrs/ahrs_float_dcm.o
estimator_phi                                     /home/woz/lisa-m-team4938/paparazzi/var/ECE_2012/ap/./estimator.o
                                                  /home/woz/lisa-m-team4938/paparazzi/var/ECE_2012/ap/subsystems/ahrs/ahrs_float_dcm.o
                                                  /home/woz/lisa-m-team4938/paparazzi/var/ECE_2012/ap/firmwares/fixedwing/stabilization/stabilization_attitude.o
                                                  /home/woz/lisa-m-team4938/paparazzi/var/ECE_2012/ap/firmwares/fixedwing/main_ap.o
estimator_propagate_state                         /home/woz/lisa-m-team4938/paparazzi/var/ECE_2012/ap/./estimator.o
                                                  /home/woz/lisa-m-team4938/paparazzi/var/ECE_2012/ap/firmwares/fixedwing/main_ap.o
estimator_psi                                     /home/woz/lisa-m-team4938/paparazzi/var/ECE_2012/ap/./estimator.o
                                                  /home/woz/lisa-m-team4938/paparazzi/var/ECE_2012/ap/subsystems/ahrs/ahrs_float_dcm.o
                                                  /home/woz/lisa-m-team4938/paparazzi/var/ECE_2012/ap/firmwares/fixedwing/main_ap.o
estimator_q                                       /home/woz/lisa-m-team4938/paparazzi/var/ECE_2012/ap/./estimator.o
                                                  /home/woz/lisa-m-team4938/paparazzi/var/ECE_2012/ap/subsystems/ahrs/ahrs_float_dcm.o
estimator_t                                       /home/woz/lisa-m-team4938/paparazzi/var/ECE_2012/ap/./estimator.o
estimator_theta                                   /home/woz/lisa-m-team4938/paparazzi/var/ECE_2012/ap/./estimator.o
                                                  /home/woz/lisa-m-team4938/paparazzi/var/ECE_2012/ap/subsystems/ahrs/ahrs_float_dcm.o
                                                  /home/woz/lisa-m-team4938/paparazzi/var/ECE_2012/ap/firmwares/fixedwing/stabilization/stabilization_attitude.o
                                                  /home/woz/lisa-m-team4938/paparazzi/var/ECE_2012/ap/firmwares/fixedwing/main_ap.o
estimator_update_state_gps                        /home/woz/lisa-m-team4938/paparazzi/var/ECE_2012/ap/./estimator.o
                                                  /home/woz/lisa-m-team4938/paparazzi/var/ECE_2012/ap/firmwares/fixedwing/main_ap.o
estimator_x                                       /home/woz/lisa-m-team4938/paparazzi/var/ECE_2012/ap/./estimator.o
                                                  /home/woz/lisa-m-team4938/paparazzi/var/ECE_2012/ap/subsystems/navigation/nav_survey_rectangle.o
                                                  /home/woz/lisa-m-team4938/paparazzi/var/ECE_2012/ap/subsystems/nav.o
                                                  /home/woz/lisa-m-team4938/paparazzi/var/ECE_2012/ap/firmwares/fixedwing/datalink.o
                                                  /home/woz/lisa-m-team4938/paparazzi/var/ECE_2012/ap/firmwares/fixedwing/main_ap.o
estimator_y                                       /home/woz/lisa-m-team4938/paparazzi/var/ECE_2012/ap/./estimator.o
                                                  /home/woz/lisa-m-team4938/paparazzi/var/ECE_2012/ap/subsystems/navigation/nav_survey_rectangle.o
                                                  /home/woz/lisa-m-team4938/paparazzi/var/ECE_2012/ap/subsystems/nav.o
                                                  /home/woz/lisa-m-team4938/paparazzi/var/ECE_2012/ap/firmwares/fixedwing/datalink.o
                                                  /home/woz/lisa-m-team4938/paparazzi/var/ECE_2012/ap/firmwares/fixedwing/main_ap.o
estimator_z                                       /home/woz/lisa-m-team4938/paparazzi/var/ECE_2012/ap/./estimator.o
                                                  /home/woz/lisa-m-team4938/paparazzi/var/ECE_2012/ap/subsystems/nav.o
                                                  /home/woz/lisa-m-team4938/paparazzi/var/ECE_2012/ap/firmwares/fixedwing/guidance/guidance_v.o
                                                  /home/woz/lisa-m-team4938/paparazzi/var/ECE_2012/ap/firmwares/fixedwing/main_ap.o
estimator_z_dot                                   /home/woz/lisa-m-team4938/paparazzi/var/ECE_2012/ap/./estimator.o
                                                  /home/woz/lisa-m-team4938/paparazzi/var/ECE_2012/ap/firmwares/fixedwing/guidance/guidance_v.o
                                                  /home/woz/lisa-m-team4938/paparazzi/var/ECE_2012/ap/firmwares/fixedwing/main_ap.o
event_task_ap                                     /home/woz/lisa-m-team4938/paparazzi/var/ECE_2012/ap/firmwares/fixedwing/main_ap.o
                                                  /home/woz/lisa-m-team4938/paparazzi/var/ECE_2012/ap/firmwares/fixedwing/main.o
event_task_fbw                                    /home/woz/lisa-m-team4938/paparazzi/var/ECE_2012/ap/firmwares/fixedwing/main_fbw.o
                                                  /home/woz/lisa-m-team4938/paparazzi/var/ECE_2012/ap/firmwares/fixedwing/main.o
exp                                               /opt/paparazzi/arm-multilib/lib/gcc/arm-none-eabi/4.4.5/../../../../arm-none-eabi/lib/thumb2/libm.a(lib_a-w_exp.o)
                                                  /home/woz/lisa-m-team4938/paparazzi/var/ECE_2012/ap/math/pprz_geodetic_double.o
                                                  /home/woz/lisa-m-team4938/paparazzi/var/ECE_2012/ap/math/pprz_geodetic_float.o
expm1                                             /opt/paparazzi/arm-multilib/lib/gcc/arm-none-eabi/4.4.5/../../../../arm-none-eabi/lib/thumb2/libm.a(lib_a-s_expm1.o)
                                                  /opt/paparazzi/arm-multilib/lib/gcc/arm-none-eabi/4.4.5/../../../../arm-none-eabi/lib/thumb2/libm.a(lib_a-e_sinh.o)
                                                  /opt/paparazzi/arm-multilib/lib/gcc/arm-none-eabi/4.4.5/../../../../arm-none-eabi/lib/thumb2/libm.a(lib_a-e_cosh.o)
exti15_10_irq_handler                             /home/woz/lisa-m-team4938/paparazzi/var/ECE_2012/ap/arch/stm32/subsystems/imu/imu_aspirin_arch.o
                                                  /home/woz/lisa-m-team4938/paparazzi/var/ECE_2012/ap/arch/stm32/stm32_vector_table.o
exti2_irq_handler                                 /home/woz/lisa-m-team4938/paparazzi/var/ECE_2012/ap/arch/stm32/subsystems/imu/imu_aspirin_arch.o
                                                  /home/woz/lisa-m-team4938/paparazzi/var/ECE_2012/ap/arch/stm32/stm32_vector_table.o
exti9_5_irq_handler                               /home/woz/lisa-m-team4938/paparazzi/var/ECE_2012/ap/arch/stm32/peripherals/hmc5843_arch.o
                                                  /home/woz/lisa-m-team4938/paparazzi/var/ECE_2012/ap/arch/stm32/stm32_vector_table.o
fabs                                              /opt/paparazzi/arm-multilib/lib/gcc/arm-none-eabi/4.4.5/../../../../arm-none-eabi/lib/thumb2/libm.a(lib_a-s_fabs.o)
                                                  /opt/paparazzi/arm-multilib/lib/gcc/arm-none-eabi/4.4.5/../../../../arm-none-eabi/lib/thumb2/libm.a(lib_a-k_tan.o)
                                                  /opt/paparazzi/arm-multilib/lib/gcc/arm-none-eabi/4.4.5/../../../../arm-none-eabi/lib/thumb2/libm.a(lib_a-e_sinh.o)
                                                  /opt/paparazzi/arm-multilib/lib/gcc/arm-none-eabi/4.4.5/../../../../arm-none-eabi/lib/thumb2/libm.a(lib_a-e_rem_pio2.o)
                                                  /opt/paparazzi/arm-multilib/lib/gcc/arm-none-eabi/4.4.5/../../../../arm-none-eabi/lib/thumb2/libm.a(lib_a-e_pow.o)
                                                  /opt/paparazzi/arm-multilib/lib/gcc/arm-none-eabi/4.4.5/../../../../arm-none-eabi/lib/thumb2/libm.a(lib_a-e_cosh.o)
                                                  /opt/paparazzi/arm-multilib/lib/gcc/arm-none-eabi/4.4.5/../../../../arm-none-eabi/lib/thumb2/libm.a(lib_a-e_atan2.o)
                                                  /opt/paparazzi/arm-multilib/lib/gcc/arm-none-eabi/4.4.5/../../../../arm-none-eabi/lib/thumb2/libm.a(lib_a-e_asin.o)
                                                  /opt/paparazzi/arm-multilib/lib/gcc/arm-none-eabi/4.4.5/../../../../arm-none-eabi/lib/thumb2/libm.a(lib_a-w_cosh.o)
                                                  /opt/paparazzi/arm-multilib/lib/gcc/arm-none-eabi/4.4.5/../../../../arm-none-eabi/lib/thumb2/libm.a(lib_a-w_asin.o)
                                                  /opt/paparazzi/arm-multilib/lib/gcc/arm-none-eabi/4.4.5/../../../../arm-none-eabi/lib/thumb2/libm.a(lib_a-s_atan.o)
fabsf                                             /opt/paparazzi/arm-multilib/lib/gcc/arm-none-eabi/4.4.5/../../../../arm-none-eabi/lib/thumb2/libm.a(lib_a-sf_fabs.o)
                                                  /opt/paparazzi/arm-multilib/lib/gcc/arm-none-eabi/4.4.5/../../../../arm-none-eabi/lib/thumb2/libm.a(lib_a-ef_rem_pio2.o)
                                                  /opt/paparazzi/arm-multilib/lib/gcc/arm-none-eabi/4.4.5/../../../../arm-none-eabi/lib/thumb2/libm.a(lib_a-ef_pow.o)
                                                  /opt/paparazzi/arm-multilib/lib/gcc/arm-none-eabi/4.4.5/../../../../arm-none-eabi/lib/thumb2/libm.a(lib_a-ef_atan2.o)
                                                  /opt/paparazzi/arm-multilib/lib/gcc/arm-none-eabi/4.4.5/../../../../arm-none-eabi/lib/thumb2/libm.a(lib_a-ef_asin.o)
                                                  /opt/paparazzi/arm-multilib/lib/gcc/arm-none-eabi/4.4.5/../../../../arm-none-eabi/lib/thumb2/libm.a(lib_a-wf_asin.o)
                                                  /opt/paparazzi/arm-multilib/lib/gcc/arm-none-eabi/4.4.5/../../../../arm-none-eabi/lib/thumb2/libm.a(lib_a-sf_atan.o)
fatal_error_nb                                    /home/woz/lisa-m-team4938/paparazzi/var/ECE_2012/ap/firmwares/fixedwing/main_ap.o
fbw_mode                                          /home/woz/lisa-m-team4938/paparazzi/var/ECE_2012/ap/firmwares/fixedwing/main_fbw.o
fbw_new_actuators                                 /home/woz/lisa-m-team4938/paparazzi/var/ECE_2012/ap/firmwares/fixedwing/main_fbw.o
fbw_state                                         /home/woz/lisa-m-team4938/paparazzi/var/ECE_2012/ap/./inter_mcu.o
                                                  /home/woz/lisa-m-team4938/paparazzi/var/ECE_2012/ap/firmwares/fixedwing/main_ap.o
                                                  /home/woz/lisa-m-team4938/paparazzi/var/ECE_2012/ap/firmwares/fixedwing/main_fbw.o
finite                                            /opt/paparazzi/arm-multilib/lib/gcc/arm-none-eabi/4.4.5/../../../../arm-none-eabi/lib/thumb2/libm.a(lib_a-s_finite.o)
                                                  /opt/paparazzi/arm-multilib/lib/gcc/arm-none-eabi/4.4.5/../../../../arm-none-eabi/lib/thumb2/libm.a(lib_a-w_sinh.o)
                                                  /opt/paparazzi/arm-multilib/lib/gcc/arm-none-eabi/4.4.5/../../../../arm-none-eabi/lib/thumb2/libm.a(lib_a-w_pow.o)
                                                  /opt/paparazzi/arm-multilib/lib/gcc/arm-none-eabi/4.4.5/../../../../arm-none-eabi/lib/thumb2/libm.a(lib_a-w_exp.o)
finitef                                           /opt/paparazzi/arm-multilib/lib/gcc/arm-none-eabi/4.4.5/../../../../arm-none-eabi/lib/thumb2/libm.a(lib_a-sf_finite.o)
                                                  /opt/paparazzi/arm-multilib/lib/gcc/arm-none-eabi/4.4.5/../../../../arm-none-eabi/lib/thumb2/libm.a(lib_a-wf_pow.o)
flash_clear_bsy_flag                              /opt/paparazzi/arm-multilib/lib/gcc/arm-none-eabi/4.4.5/../../../../arm-none-eabi/lib/libopencm3_stm32.a(flash.o)
flash_clear_eop_flag                              /opt/paparazzi/arm-multilib/lib/gcc/arm-none-eabi/4.4.5/../../../../arm-none-eabi/lib/libopencm3_stm32.a(flash.o)
flash_clear_pgerr_flag                            /opt/paparazzi/arm-multilib/lib/gcc/arm-none-eabi/4.4.5/../../../../arm-none-eabi/lib/libopencm3_stm32.a(flash.o)
flash_clear_status_flags                          /opt/paparazzi/arm-multilib/lib/gcc/arm-none-eabi/4.4.5/../../../../arm-none-eabi/lib/libopencm3_stm32.a(flash.o)
flash_clear_wrprterr_flag                         /opt/paparazzi/arm-multilib/lib/gcc/arm-none-eabi/4.4.5/../../../../arm-none-eabi/lib/libopencm3_stm32.a(flash.o)
flash_erase_all_pages                             /opt/paparazzi/arm-multilib/lib/gcc/arm-none-eabi/4.4.5/../../../../arm-none-eabi/lib/libopencm3_stm32.a(flash.o)
flash_erase_option_bytes                          /opt/paparazzi/arm-multilib/lib/gcc/arm-none-eabi/4.4.5/../../../../arm-none-eabi/lib/libopencm3_stm32.a(flash.o)
flash_erase_page                                  /opt/paparazzi/arm-multilib/lib/gcc/arm-none-eabi/4.4.5/../../../../arm-none-eabi/lib/libopencm3_stm32.a(flash.o)
                                                  /home/woz/lisa-m-team4938/paparazzi/var/ECE_2012/ap/arch/stm32/subsystems/settings_arch.o
flash_halfcycle_disable                           /opt/paparazzi/arm-multilib/lib/gcc/arm-none-eabi/4.4.5/../../../../arm-none-eabi/lib/libopencm3_stm32.a(flash.o)
flash_halfcycle_enable                            /opt/paparazzi/arm-multilib/lib/gcc/arm-none-eabi/4.4.5/../../../../arm-none-eabi/lib/libopencm3_stm32.a(flash.o)
flash_lock                                        /opt/paparazzi/arm-multilib/lib/gcc/arm-none-eabi/4.4.5/../../../../arm-none-eabi/lib/libopencm3_stm32.a(flash.o)
                                                  /home/woz/lisa-m-team4938/paparazzi/var/ECE_2012/ap/arch/stm32/subsystems/settings_arch.o
flash_prefetch_buffer_disable                     /opt/paparazzi/arm-multilib/lib/gcc/arm-none-eabi/4.4.5/../../../../arm-none-eabi/lib/libopencm3_stm32.a(flash.o)
flash_prefetch_buffer_enable                      /opt/paparazzi/arm-multilib/lib/gcc/arm-none-eabi/4.4.5/../../../../arm-none-eabi/lib/libopencm3_stm32.a(flash.o)
flash_program_half_word                           /opt/paparazzi/arm-multilib/lib/gcc/arm-none-eabi/4.4.5/../../../../arm-none-eabi/lib/libopencm3_stm32.a(flash.o)
                                                  /home/woz/lisa-m-team4938/paparazzi/var/ECE_2012/ap/arch/stm32/subsystems/settings_arch.o
flash_program_option_bytes                        /opt/paparazzi/arm-multilib/lib/gcc/arm-none-eabi/4.4.5/../../../../arm-none-eabi/lib/libopencm3_stm32.a(flash.o)
flash_program_word                                /opt/paparazzi/arm-multilib/lib/gcc/arm-none-eabi/4.4.5/../../../../arm-none-eabi/lib/libopencm3_stm32.a(flash.o)
flash_set_ws                                      /opt/paparazzi/arm-multilib/lib/gcc/arm-none-eabi/4.4.5/../../../../arm-none-eabi/lib/libopencm3_stm32.a(flash.o)
                                                  /opt/paparazzi/arm-multilib/lib/gcc/arm-none-eabi/4.4.5/../../../../arm-none-eabi/lib/libopencm3_stm32.a(rcc.o)
flash_unlock                                      /opt/paparazzi/arm-multilib/lib/gcc/arm-none-eabi/4.4.5/../../../../arm-none-eabi/lib/libopencm3_stm32.a(flash.o)
                                                  /home/woz/lisa-m-team4938/paparazzi/var/ECE_2012/ap/arch/stm32/subsystems/settings_arch.o
flash_unlock_option_bytes                         /opt/paparazzi/arm-multilib/lib/gcc/arm-none-eabi/4.4.5/../../../../arm-none-eabi/lib/libopencm3_stm32.a(flash.o)
flash_wait_for_last_operation                     /opt/paparazzi/arm-multilib/lib/gcc/arm-none-eabi/4.4.5/../../../../arm-none-eabi/lib/libopencm3_stm32.a(flash.o)
flight_altitude                                   /home/woz/lisa-m-team4938/paparazzi/var/ECE_2012/ap/subsystems/nav.o
                                                  /home/woz/lisa-m-team4938/paparazzi/var/ECE_2012/ap/firmwares/fixedwing/datalink.o
                                                  /home/woz/lisa-m-team4938/paparazzi/var/ECE_2012/ap/firmwares/fixedwing/main_ap.o
floor                                             /opt/paparazzi/arm-multilib/lib/gcc/arm-none-eabi/4.4.5/../../../../arm-none-eabi/lib/thumb2/libm.a(lib_a-s_floor.o)
                                                  /opt/paparazzi/arm-multilib/lib/gcc/arm-none-eabi/4.4.5/../../../../arm-none-eabi/lib/thumb2/libm.a(lib_a-k_rem_pio2.o)
floorf                                            /opt/paparazzi/arm-multilib/lib/gcc/arm-none-eabi/4.4.5/../../../../arm-none-eabi/lib/thumb2/libm.a(lib_a-sf_floor.o)
                                                  /opt/paparazzi/arm-multilib/lib/gcc/arm-none-eabi/4.4.5/../../../../arm-none-eabi/lib/thumb2/libm.a(lib_a-kf_rem_pio2.o)
fly_to_xy                                         /home/woz/lisa-m-team4938/paparazzi/var/ECE_2012/ap/subsystems/nav.o
fp_pitch                                          /home/woz/lisa-m-team4938/paparazzi/var/ECE_2012/ap/subsystems/nav.o
gc_of_gd_lat_d                                    /home/woz/lisa-m-team4938/paparazzi/var/ECE_2012/ap/math/pprz_geodetic_double.o
get_ac_info                                       /home/woz/lisa-m-team4938/paparazzi/var/ECE_2012/ap/subsystems/navigation/traffic_info.o
getpid                                            /home/woz/lisa-m-team4938/paparazzi/var/ECE_2012/ap/lisa/plug_sys.o
gps                                               /home/woz/lisa-m-team4938/paparazzi/var/ECE_2012/ap/subsystems/gps.o
                                                  /home/woz/lisa-m-team4938/paparazzi/var/ECE_2012/ap/subsystems/nav.o
                                                  /home/woz/lisa-m-team4938/paparazzi/var/ECE_2012/ap/subsystems/gps/gps_ubx.o
                                                  /home/woz/lisa-m-team4938/paparazzi/var/ECE_2012/ap/subsystems/ahrs/ahrs_float_dcm.o
                                                  /home/woz/lisa-m-team4938/paparazzi/var/ECE_2012/ap/firmwares/fixedwing/datalink.o
                                                  /home/woz/lisa-m-team4938/paparazzi/var/ECE_2012/ap/./estimator.o
                                                  /home/woz/lisa-m-team4938/paparazzi/var/ECE_2012/ap/firmwares/fixedwing/main_ap.o
gps_impl_init                                     /home/woz/lisa-m-team4938/paparazzi/var/ECE_2012/ap/subsystems/gps/gps_ubx.o
                                                  /home/woz/lisa-m-team4938/paparazzi/var/ECE_2012/ap/subsystems/gps.o
gps_init                                          /home/woz/lisa-m-team4938/paparazzi/var/ECE_2012/ap/subsystems/gps.o
                                                  /home/woz/lisa-m-team4938/paparazzi/var/ECE_2012/ap/firmwares/fixedwing/main_ap.o
gps_lost                                          /home/woz/lisa-m-team4938/paparazzi/var/ECE_2012/ap/firmwares/fixedwing/main_ap.o
gps_ubx                                           /home/woz/lisa-m-team4938/paparazzi/var/ECE_2012/ap/subsystems/gps/gps_ubx.o
                                                  /home/woz/lisa-m-team4938/paparazzi/var/ECE_2012/ap/firmwares/fixedwing/main_ap.o
gps_ubx_parse                                     /home/woz/lisa-m-team4938/paparazzi/var/ECE_2012/ap/subsystems/gps/gps_ubx.o
                                                  /home/woz/lisa-m-team4938/paparazzi/var/ECE_2012/ap/firmwares/fixedwing/main_ap.o
gps_ubx_read_message                              /home/woz/lisa-m-team4938/paparazzi/var/ECE_2012/ap/subsystems/gps/gps_ubx.o
                                                  /home/woz/lisa-m-team4938/paparazzi/var/ECE_2012/ap/firmwares/fixedwing/main_ap.o
ground_alt                                        /home/woz/lisa-m-team4938/paparazzi/var/ECE_2012/ap/subsystems/nav.o
h_ctl_aileron_of_throttle                         /home/woz/lisa-m-team4938/paparazzi/var/ECE_2012/ap/firmwares/fixedwing/stabilization/stabilization_attitude.o
h_ctl_aileron_setpoint                            /home/woz/lisa-m-team4938/paparazzi/var/ECE_2012/ap/firmwares/fixedwing/stabilization/stabilization_attitude.o
                                                  /home/woz/lisa-m-team4938/paparazzi/var/ECE_2012/ap/firmwares/fixedwing/main_ap.o
h_ctl_attitude_loop                               /home/woz/lisa-m-team4938/paparazzi/var/ECE_2012/ap/firmwares/fixedwing/stabilization/stabilization_attitude.o
                                                  /home/woz/lisa-m-team4938/paparazzi/var/ECE_2012/ap/firmwares/fixedwing/main_ap.o
h_ctl_auto1_rate                                  /home/woz/lisa-m-team4938/paparazzi/var/ECE_2012/ap/firmwares/fixedwing/stabilization/stabilization_attitude.o
h_ctl_course_dgain                                /home/woz/lisa-m-team4938/paparazzi/var/ECE_2012/ap/firmwares/fixedwing/stabilization/stabilization_attitude.o
h_ctl_course_loop                                 /home/woz/lisa-m-team4938/paparazzi/var/ECE_2012/ap/firmwares/fixedwing/stabilization/stabilization_attitude.o
                                                  /home/woz/lisa-m-team4938/paparazzi/var/ECE_2012/ap/firmwares/fixedwing/main_ap.o
h_ctl_course_pgain                                /home/woz/lisa-m-team4938/paparazzi/var/ECE_2012/ap/firmwares/fixedwing/stabilization/stabilization_attitude.o
                                                  /home/woz/lisa-m-team4938/paparazzi/var/ECE_2012/ap/subsystems/nav.o
h_ctl_course_pre_bank                             /home/woz/lisa-m-team4938/paparazzi/var/ECE_2012/ap/firmwares/fixedwing/stabilization/stabilization_attitude.o
                                                  /home/woz/lisa-m-team4938/paparazzi/var/ECE_2012/ap/subsystems/nav.o
h_ctl_course_pre_bank_correction                  /home/woz/lisa-m-team4938/paparazzi/var/ECE_2012/ap/firmwares/fixedwing/stabilization/stabilization_attitude.o
h_ctl_course_setpoint                             /home/woz/lisa-m-team4938/paparazzi/var/ECE_2012/ap/firmwares/fixedwing/stabilization/stabilization_attitude.o
                                                  /home/woz/lisa-m-team4938/paparazzi/var/ECE_2012/ap/subsystems/nav.o
                                                  /home/woz/lisa-m-team4938/paparazzi/var/ECE_2012/ap/firmwares/fixedwing/main_ap.o
h_ctl_disabled                                    /home/woz/lisa-m-team4938/paparazzi/var/ECE_2012/ap/firmwares/fixedwing/stabilization/stabilization_attitude.o
h_ctl_elevator_of_roll                            /home/woz/lisa-m-team4938/paparazzi/var/ECE_2012/ap/firmwares/fixedwing/stabilization/stabilization_attitude.o
h_ctl_elevator_setpoint                           /home/woz/lisa-m-team4938/paparazzi/var/ECE_2012/ap/firmwares/fixedwing/stabilization/stabilization_attitude.o
                                                  /home/woz/lisa-m-team4938/paparazzi/var/ECE_2012/ap/firmwares/fixedwing/main_ap.o
h_ctl_init                                        /home/woz/lisa-m-team4938/paparazzi/var/ECE_2012/ap/firmwares/fixedwing/stabilization/stabilization_attitude.o
                                                  /home/woz/lisa-m-team4938/paparazzi/var/ECE_2012/ap/firmwares/fixedwing/main_ap.o
h_ctl_pitch_dgain                                 /home/woz/lisa-m-team4938/paparazzi/var/ECE_2012/ap/firmwares/fixedwing/stabilization/stabilization_attitude.o
h_ctl_pitch_loop_setpoint                         /home/woz/lisa-m-team4938/paparazzi/var/ECE_2012/ap/firmwares/fixedwing/stabilization/stabilization_attitude.o
                                                  /home/woz/lisa-m-team4938/paparazzi/var/ECE_2012/ap/firmwares/fixedwing/main_ap.o
h_ctl_pitch_pgain                                 /home/woz/lisa-m-team4938/paparazzi/var/ECE_2012/ap/firmwares/fixedwing/stabilization/stabilization_attitude.o
h_ctl_pitch_setpoint                              /home/woz/lisa-m-team4938/paparazzi/var/ECE_2012/ap/firmwares/fixedwing/stabilization/stabilization_attitude.o
                                                  /home/woz/lisa-m-team4938/paparazzi/var/ECE_2012/ap/firmwares/fixedwing/main_ap.o
h_ctl_roll_attitude_gain                          /home/woz/lisa-m-team4938/paparazzi/var/ECE_2012/ap/firmwares/fixedwing/stabilization/stabilization_attitude.o
h_ctl_roll_max_setpoint                           /home/woz/lisa-m-team4938/paparazzi/var/ECE_2012/ap/firmwares/fixedwing/stabilization/stabilization_attitude.o
                                                  /home/woz/lisa-m-team4938/paparazzi/var/ECE_2012/ap/subsystems/nav.o
h_ctl_roll_pgain                                  /home/woz/lisa-m-team4938/paparazzi/var/ECE_2012/ap/firmwares/fixedwing/stabilization/stabilization_attitude.o
h_ctl_roll_rate_gain                              /home/woz/lisa-m-team4938/paparazzi/var/ECE_2012/ap/firmwares/fixedwing/stabilization/stabilization_attitude.o
h_ctl_roll_setpoint                               /home/woz/lisa-m-team4938/paparazzi/var/ECE_2012/ap/firmwares/fixedwing/stabilization/stabilization_attitude.o
                                                  /home/woz/lisa-m-team4938/paparazzi/var/ECE_2012/ap/subsystems/nav.o
                                                  /home/woz/lisa-m-team4938/paparazzi/var/ECE_2012/ap/firmwares/fixedwing/main_ap.o
h_ctl_roll_slew                                   /home/woz/lisa-m-team4938/paparazzi/var/ECE_2012/ap/firmwares/fixedwing/stabilization/stabilization_attitude.o
hard_fault_exception                              /home/woz/lisa-m-team4938/paparazzi/var/ECE_2012/ap/arch/stm32/stm32_exceptions.o
                                                  /home/woz/lisa-m-team4938/paparazzi/var/ECE_2012/ap/arch/stm32/stm32_vector_table.o
hmc5843                                           /home/woz/lisa-m-team4938/paparazzi/var/ECE_2012/ap/peripherals/hmc5843.o
                                                  /home/woz/lisa-m-team4938/paparazzi/var/ECE_2012/ap/firmwares/fixedwing/main_ap.o
hmc5843_arch_init                                 /home/woz/lisa-m-team4938/paparazzi/var/ECE_2012/ap/arch/stm32/peripherals/hmc5843_arch.o
                                                  /home/woz/lisa-m-team4938/paparazzi/var/ECE_2012/ap/peripherals/hmc5843.o
hmc5843_arch_reset                                /home/woz/lisa-m-team4938/paparazzi/var/ECE_2012/ap/arch/stm32/peripherals/hmc5843_arch.o
hmc5843_idle_task                                 /home/woz/lisa-m-team4938/paparazzi/var/ECE_2012/ap/peripherals/hmc5843.o
                                                  /home/woz/lisa-m-team4938/paparazzi/var/ECE_2012/ap/firmwares/fixedwing/main_ap.o
hmc5843_init                                      /home/woz/lisa-m-team4938/paparazzi/var/ECE_2012/ap/peripherals/hmc5843.o
                                                  /home/woz/lisa-m-team4938/paparazzi/var/ECE_2012/ap/subsystems/imu/imu_aspirin.o
hmc5843_periodic                                  /home/woz/lisa-m-team4938/paparazzi/var/ECE_2012/ap/peripherals/hmc5843.o
                                                  /home/woz/lisa-m-team4938/paparazzi/var/ECE_2012/ap/subsystems/imu/imu_aspirin.o
horizontal_mode                                   /home/woz/lisa-m-team4938/paparazzi/var/ECE_2012/ap/subsystems/nav.o
                                                  /home/woz/lisa-m-team4938/paparazzi/var/ECE_2012/ap/firmwares/fixedwing/main_ap.o
i2c2                                              /home/woz/lisa-m-team4938/paparazzi/var/ECE_2012/ap/mcu_periph/i2c.o
                                                  /home/woz/lisa-m-team4938/paparazzi/var/ECE_2012/ap/peripherals/hmc5843.o
                                                  /home/woz/lisa-m-team4938/paparazzi/var/ECE_2012/ap/subsystems/imu/imu_aspirin.o
                                                  /home/woz/lisa-m-team4938/paparazzi/var/ECE_2012/ap/firmwares/fixedwing/main_ap.o
                                                  /home/woz/lisa-m-team4938/paparazzi/var/ECE_2012/ap/arch/stm32/mcu_periph/i2c_arch.o
i2c2_er_irq_handler                               /home/woz/lisa-m-team4938/paparazzi/var/ECE_2012/ap/arch/stm32/mcu_periph/i2c_arch.o
                                                  /home/woz/lisa-m-team4938/paparazzi/var/ECE_2012/ap/arch/stm32/peripherals/hmc5843_arch.o
                                                  /home/woz/lisa-m-team4938/paparazzi/var/ECE_2012/ap/arch/stm32/stm32_vector_table.o
                                                  /home/woz/lisa-m-team4938/paparazzi/var/ECE_2012/ap/firmwares/fixedwing/main_ap.o
i2c2_errors                                       /home/woz/lisa-m-team4938/paparazzi/var/ECE_2012/ap/arch/stm32/mcu_periph/i2c_arch.o
i2c2_ev_irq_handler                               /home/woz/lisa-m-team4938/paparazzi/var/ECE_2012/ap/arch/stm32/mcu_periph/i2c_arch.o
                                                  /home/woz/lisa-m-team4938/paparazzi/var/ECE_2012/ap/arch/stm32/stm32_vector_table.o
i2c2_hw_init                                      /home/woz/lisa-m-team4938/paparazzi/var/ECE_2012/ap/arch/stm32/mcu_periph/i2c_arch.o
                                                  /home/woz/lisa-m-team4938/paparazzi/var/ECE_2012/ap/mcu_periph/i2c.o
i2c2_init                                         /home/woz/lisa-m-team4938/paparazzi/var/ECE_2012/ap/mcu_periph/i2c.o
                                                  /home/woz/lisa-m-team4938/paparazzi/var/ECE_2012/ap/mcu.o
i2c_idle                                          /home/woz/lisa-m-team4938/paparazzi/var/ECE_2012/ap/arch/stm32/mcu_periph/i2c_arch.o
                                                  /home/woz/lisa-m-team4938/paparazzi/var/ECE_2012/ap/peripherals/hmc5843.o
                                                  /home/woz/lisa-m-team4938/paparazzi/var/ECE_2012/ap/firmwares/fixedwing/main_ap.o
i2c_init                                          /home/woz/lisa-m-team4938/paparazzi/var/ECE_2012/ap/mcu_periph/i2c.o
i2c_submit                                        /home/woz/lisa-m-team4938/paparazzi/var/ECE_2012/ap/arch/stm32/mcu_periph/i2c_arch.o
                                                  /home/woz/lisa-m-team4938/paparazzi/var/ECE_2012/ap/peripherals/hmc5843.o
                                                  /home/woz/lisa-m-team4938/paparazzi/var/ECE_2012/ap/subsystems/imu/imu_aspirin.o
                                                  /home/woz/lisa-m-team4938/paparazzi/var/ECE_2012/ap/firmwares/fixedwing/main_ap.o
imu                                               /home/woz/lisa-m-team4938/paparazzi/var/ECE_2012/ap/subsystems/imu.o
                                                  /home/woz/lisa-m-team4938/paparazzi/var/ECE_2012/ap/subsystems/ahrs/ahrs_float_dcm.o
                                                  /home/woz/lisa-m-team4938/paparazzi/var/ECE_2012/ap/subsystems/ahrs/ahrs_aligner.o
                                                  /home/woz/lisa-m-team4938/paparazzi/var/ECE_2012/ap/firmwares/fixedwing/main_ap.o
imu_aspirin                                       /home/woz/lisa-m-team4938/paparazzi/var/ECE_2012/ap/subsystems/imu/imu_aspirin.o
                                                  /home/woz/lisa-m-team4938/paparazzi/var/ECE_2012/ap/arch/stm32/subsystems/imu/imu_aspirin_arch.o
                                                  /home/woz/lisa-m-team4938/paparazzi/var/ECE_2012/ap/firmwares/fixedwing/main_ap.o
imu_aspirin_arch_init                             /home/woz/lisa-m-team4938/paparazzi/var/ECE_2012/ap/arch/stm32/subsystems/imu/imu_aspirin_arch.o
                                                  /home/woz/lisa-m-team4938/paparazzi/var/ECE_2012/ap/subsystems/imu/imu_aspirin.o
imu_aspirin_arch_int_disable                      /home/woz/lisa-m-team4938/paparazzi/var/ECE_2012/ap/arch/stm32/subsystems/imu/imu_aspirin_arch.o
                                                  /home/woz/lisa-m-team4938/paparazzi/var/ECE_2012/ap/firmwares/fixedwing/main_ap.o
imu_aspirin_arch_int_enable                       /home/woz/lisa-m-team4938/paparazzi/var/ECE_2012/ap/arch/stm32/subsystems/imu/imu_aspirin_arch.o
                                                  /home/woz/lisa-m-team4938/paparazzi/var/ECE_2012/ap/subsystems/imu/imu_aspirin.o
                                                  /home/woz/lisa-m-team4938/paparazzi/var/ECE_2012/ap/firmwares/fixedwing/main_ap.o
imu_float_init                                    /home/woz/lisa-m-team4938/paparazzi/var/ECE_2012/ap/subsystems/imu.o
imu_health                                        /home/woz/lisa-m-team4938/paparazzi/var/ECE_2012/ap/subsystems/ahrs/ahrs_float_dcm.o
imu_impl_init                                     /home/woz/lisa-m-team4938/paparazzi/var/ECE_2012/ap/subsystems/imu/imu_aspirin.o
                                                  /home/woz/lisa-m-team4938/paparazzi/var/ECE_2012/ap/subsystems/imu.o
imu_init                                          /home/woz/lisa-m-team4938/paparazzi/var/ECE_2012/ap/subsystems/imu.o
                                                  /home/woz/lisa-m-team4938/paparazzi/var/ECE_2012/ap/firmwares/fixedwing/main_ap.o
imu_periodic                                      /home/woz/lisa-m-team4938/paparazzi/var/ECE_2012/ap/subsystems/imu/imu_aspirin.o
                                                  /home/woz/lisa-m-team4938/paparazzi/var/ECE_2012/ap/firmwares/fixedwing/main_ap.o
init_ap                                           /home/woz/lisa-m-team4938/paparazzi/var/ECE_2012/ap/firmwares/fixedwing/main_ap.o
                                                  /home/woz/lisa-m-team4938/paparazzi/var/ECE_2012/ap/firmwares/fixedwing/main.o
init_fbw                                          /home/woz/lisa-m-team4938/paparazzi/var/ECE_2012/ap/firmwares/fixedwing/main_fbw.o
                                                  /home/woz/lisa-m-team4938/paparazzi/var/ECE_2012/ap/firmwares/fixedwing/main.o
ins_pitch_neutral                                 /home/woz/lisa-m-team4938/paparazzi/var/ECE_2012/ap/subsystems/ahrs/ahrs_float_dcm.o
ins_roll_neutral                                  /home/woz/lisa-m-team4938/paparazzi/var/ECE_2012/ap/subsystems/ahrs/ahrs_float_dcm.o
inter_mcu_received_ap                             /home/woz/lisa-m-team4938/paparazzi/var/ECE_2012/ap/./inter_mcu.o
                                                  /home/woz/lisa-m-team4938/paparazzi/var/ECE_2012/ap/firmwares/fixedwing/main_ap.o
                                                  /home/woz/lisa-m-team4938/paparazzi/var/ECE_2012/ap/firmwares/fixedwing/main_fbw.o
inter_mcu_received_fbw                            /home/woz/lisa-m-team4938/paparazzi/var/ECE_2012/ap/./inter_mcu.o
                                                  /home/woz/lisa-m-team4938/paparazzi/var/ECE_2012/ap/firmwares/fixedwing/main_ap.o
                                                  /home/woz/lisa-m-team4938/paparazzi/var/ECE_2012/ap/firmwares/fixedwing/main_fbw.o
kill                                              /home/woz/lisa-m-team4938/paparazzi/var/ECE_2012/ap/lisa/plug_sys.o
kill_throttle                                     /home/woz/lisa-m-team4938/paparazzi/var/ECE_2012/ap/firmwares/fixedwing/main_ap.o
                                                  /home/woz/lisa-m-team4938/paparazzi/var/ECE_2012/ap/subsystems/nav.o
                                                  /home/woz/lisa-m-team4938/paparazzi/var/ECE_2012/ap/firmwares/fixedwing/datalink.o
last_block                                        /home/woz/lisa-m-team4938/paparazzi/var/ECE_2012/ap/subsystems/navigation/common_flight_plan.o
last_stage                                        /home/woz/lisa-m-team4938/paparazzi/var/ECE_2012/ap/subsystems/navigation/common_flight_plan.o
last_x                                            /home/woz/lisa-m-team4938/paparazzi/var/ECE_2012/ap/subsystems/nav.o
last_y                                            /home/woz/lisa-m-team4938/paparazzi/var/ECE_2012/ap/subsystems/nav.o
lateral_mode                                      /home/woz/lisa-m-team4938/paparazzi/var/ECE_2012/ap/firmwares/fixedwing/main_ap.o
                                                  /home/woz/lisa-m-team4938/paparazzi/var/ECE_2012/ap/subsystems/nav.o
launch                                            /home/woz/lisa-m-team4938/paparazzi/var/ECE_2012/ap/firmwares/fixedwing/main_ap.o
                                                  /home/woz/lisa-m-team4938/paparazzi/var/ECE_2012/ap/firmwares/fixedwing/datalink.o
lla_of_ecef_d                                     /home/woz/lisa-m-team4938/paparazzi/var/ECE_2012/ap/math/pprz_geodetic_double.o
                                                  /home/woz/lisa-m-team4938/paparazzi/var/ECE_2012/ap/math/pprz_geodetic_int.o
lla_of_ecef_f                                     /home/woz/lisa-m-team4938/paparazzi/var/ECE_2012/ap/math/pprz_geodetic_float.o
lla_of_ecef_i                                     /home/woz/lisa-m-team4938/paparazzi/var/ECE_2012/ap/math/pprz_geodetic_int.o
lla_of_utm_d                                      /home/woz/lisa-m-team4938/paparazzi/var/ECE_2012/ap/math/pprz_geodetic_double.o
lla_of_utm_f                                      /home/woz/lisa-m-team4938/paparazzi/var/ECE_2012/ap/math/pprz_geodetic_float.o
log                                               /opt/paparazzi/arm-multilib/lib/gcc/arm-none-eabi/4.4.5/../../../../arm-none-eabi/lib/thumb2/libm.a(lib_a-w_log.o)
                                                  /home/woz/lisa-m-team4938/paparazzi/var/ECE_2012/ap/math/pprz_geodetic_double.o
                                                  /home/woz/lisa-m-team4938/paparazzi/var/ECE_2012/ap/math/pprz_geodetic_float.o
ltp_def_from_ecef_d                               /home/woz/lisa-m-team4938/paparazzi/var/ECE_2012/ap/math/pprz_geodetic_double.o
ltp_def_from_ecef_f                               /home/woz/lisa-m-team4938/paparazzi/var/ECE_2012/ap/math/pprz_geodetic_float.o
ltp_def_from_ecef_i                               /home/woz/lisa-m-team4938/paparazzi/var/ECE_2012/ap/math/pprz_geodetic_int.o
ltp_def_from_lla_f                                /home/woz/lisa-m-team4938/paparazzi/var/ECE_2012/ap/math/pprz_geodetic_float.o
ltp_def_from_lla_i                                /home/woz/lisa-m-team4938/paparazzi/var/ECE_2012/ap/math/pprz_geodetic_int.o
main                                              /home/woz/lisa-m-team4938/paparazzi/var/ECE_2012/ap/firmwares/fixedwing/main.o
                                                  /home/woz/lisa-m-team4938/paparazzi/var/ECE_2012/ap/arch/stm32/stm32_vector_table.o
matherr                                           /opt/paparazzi/arm-multilib/lib/gcc/arm-none-eabi/4.4.5/../../../../arm-none-eabi/lib/thumb2/libm.a(lib_a-s_matherr.o)
                                                  /opt/paparazzi/arm-multilib/lib/gcc/arm-none-eabi/4.4.5/../../../../arm-none-eabi/lib/thumb2/libm.a(lib_a-wf_sqrt.o)
                                                  /opt/paparazzi/arm-multilib/lib/gcc/arm-none-eabi/4.4.5/../../../../arm-none-eabi/lib/thumb2/libm.a(lib_a-wf_pow.o)
                                                  /opt/paparazzi/arm-multilib/lib/gcc/arm-none-eabi/4.4.5/../../../../arm-none-eabi/lib/thumb2/libm.a(lib_a-wf_asin.o)
                                                  /opt/paparazzi/arm-multilib/lib/gcc/arm-none-eabi/4.4.5/../../../../arm-none-eabi/lib/thumb2/libm.a(lib_a-w_sqrt.o)
                                                  /opt/paparazzi/arm-multilib/lib/gcc/arm-none-eabi/4.4.5/../../../../arm-none-eabi/lib/thumb2/libm.a(lib_a-w_sinh.o)
                                                  /opt/paparazzi/arm-multilib/lib/gcc/arm-none-eabi/4.4.5/../../../../arm-none-eabi/lib/thumb2/libm.a(lib_a-w_pow.o)
                                                  /opt/paparazzi/arm-multilib/lib/gcc/arm-none-eabi/4.4.5/../../../../arm-none-eabi/lib/thumb2/libm.a(lib_a-w_log.o)
                                                  /opt/paparazzi/arm-multilib/lib/gcc/arm-none-eabi/4.4.5/../../../../arm-none-eabi/lib/thumb2/libm.a(lib_a-w_exp.o)
                                                  /opt/paparazzi/arm-multilib/lib/gcc/arm-none-eabi/4.4.5/../../../../arm-none-eabi/lib/thumb2/libm.a(lib_a-w_cosh.o)
                                                  /opt/paparazzi/arm-multilib/lib/gcc/arm-none-eabi/4.4.5/../../../../arm-none-eabi/lib/thumb2/libm.a(lib_a-w_asin.o)
max_dist_from_home                                /home/woz/lisa-m-team4938/paparazzi/var/ECE_2012/ap/subsystems/nav.o
mcu_arch_init                                     /home/woz/lisa-m-team4938/paparazzi/var/ECE_2012/ap/arch/stm32/mcu_arch.o
                                                  /home/woz/lisa-m-team4938/paparazzi/var/ECE_2012/ap/mcu.o
mcu_init                                          /home/woz/lisa-m-team4938/paparazzi/var/ECE_2012/ap/mcu.o
                                                  /home/woz/lisa-m-team4938/paparazzi/var/ECE_2012/ap/firmwares/fixedwing/main_fbw.o
mem_manage_exception                              /home/woz/lisa-m-team4938/paparazzi/var/ECE_2012/ap/arch/stm32/stm32_exceptions.o
                                                  /home/woz/lisa-m-team4938/paparazzi/var/ECE_2012/ap/arch/stm32/stm32_vector_table.o
memcpy                                            /opt/paparazzi/arm-multilib/lib/gcc/arm-none-eabi/4.4.5/../../../../arm-none-eabi/lib/thumb2/libc.a(lib_a-memcpy.o)
                                                  /home/woz/lisa-m-team4938/paparazzi/var/ECE_2012/ap/peripherals/hmc5843.o
nan                                               /opt/paparazzi/arm-multilib/lib/gcc/arm-none-eabi/4.4.5/../../../../arm-none-eabi/lib/thumb2/libm.a(lib_a-s_nan.o)
                                                  /opt/paparazzi/arm-multilib/lib/gcc/arm-none-eabi/4.4.5/../../../../arm-none-eabi/lib/thumb2/libm.a(lib_a-e_pow.o)
                                                  /opt/paparazzi/arm-multilib/lib/gcc/arm-none-eabi/4.4.5/../../../../arm-none-eabi/lib/thumb2/libm.a(lib_a-wf_asin.o)
                                                  /opt/paparazzi/arm-multilib/lib/gcc/arm-none-eabi/4.4.5/../../../../arm-none-eabi/lib/thumb2/libm.a(lib_a-w_log.o)
                                                  /opt/paparazzi/arm-multilib/lib/gcc/arm-none-eabi/4.4.5/../../../../arm-none-eabi/lib/thumb2/libm.a(lib_a-w_asin.o)
nanf                                              /opt/paparazzi/arm-multilib/lib/gcc/arm-none-eabi/4.4.5/../../../../arm-none-eabi/lib/thumb2/libm.a(lib_a-sf_nan.o)
                                                  /opt/paparazzi/arm-multilib/lib/gcc/arm-none-eabi/4.4.5/../../../../arm-none-eabi/lib/thumb2/libm.a(lib_a-ef_pow.o)
nav_altitude                                      /home/woz/lisa-m-team4938/paparazzi/var/ECE_2012/ap/subsystems/nav.o
                                                  /home/woz/lisa-m-team4938/paparazzi/var/ECE_2012/ap/subsystems/navigation/nav_line.o
                                                  /home/woz/lisa-m-team4938/paparazzi/var/ECE_2012/ap/subsystems/navigation/nav_survey_rectangle.o
nav_approaching_xy                                /home/woz/lisa-m-team4938/paparazzi/var/ECE_2012/ap/subsystems/nav.o
                                                  /home/woz/lisa-m-team4938/paparazzi/var/ECE_2012/ap/subsystems/navigation/nav_line.o
nav_block                                         /home/woz/lisa-m-team4938/paparazzi/var/ECE_2012/ap/subsystems/navigation/common_flight_plan.o
                                                  /home/woz/lisa-m-team4938/paparazzi/var/ECE_2012/ap/subsystems/nav.o
                                                  /home/woz/lisa-m-team4938/paparazzi/var/ECE_2012/ap/firmwares/fixedwing/datalink.o
                                                  /home/woz/lisa-m-team4938/paparazzi/var/ECE_2012/ap/firmwares/fixedwing/main_ap.o
nav_circle_XY                                     /home/woz/lisa-m-team4938/paparazzi/var/ECE_2012/ap/subsystems/nav.o
                                                  /home/woz/lisa-m-team4938/paparazzi/var/ECE_2012/ap/subsystems/navigation/nav_line.o
                                                  /home/woz/lisa-m-team4938/paparazzi/var/ECE_2012/ap/subsystems/navigation/nav_survey_rectangle.o
nav_circle_radians                                /home/woz/lisa-m-team4938/paparazzi/var/ECE_2012/ap/subsystems/nav.o
                                                  /home/woz/lisa-m-team4938/paparazzi/var/ECE_2012/ap/firmwares/fixedwing/datalink.o
                                                  /home/woz/lisa-m-team4938/paparazzi/var/ECE_2012/ap/firmwares/fixedwing/main_ap.o
nav_circle_radius                                 /home/woz/lisa-m-team4938/paparazzi/var/ECE_2012/ap/subsystems/nav.o
                                                  /home/woz/lisa-m-team4938/paparazzi/var/ECE_2012/ap/firmwares/fixedwing/main_ap.o
nav_circle_trigo_qdr                              /home/woz/lisa-m-team4938/paparazzi/var/ECE_2012/ap/subsystems/nav.o
                                                  /home/woz/lisa-m-team4938/paparazzi/var/ECE_2012/ap/subsystems/navigation/nav_line.o
nav_circle_x                                      /home/woz/lisa-m-team4938/paparazzi/var/ECE_2012/ap/subsystems/nav.o
                                                  /home/woz/lisa-m-team4938/paparazzi/var/ECE_2012/ap/firmwares/fixedwing/main_ap.o
nav_circle_y                                      /home/woz/lisa-m-team4938/paparazzi/var/ECE_2012/ap/subsystems/nav.o
                                                  /home/woz/lisa-m-team4938/paparazzi/var/ECE_2012/ap/firmwares/fixedwing/main_ap.o
nav_climb                                         /home/woz/lisa-m-team4938/paparazzi/var/ECE_2012/ap/subsystems/nav.o
nav_course                                        /home/woz/lisa-m-team4938/paparazzi/var/ECE_2012/ap/subsystems/nav.o
                                                  /home/woz/lisa-m-team4938/paparazzi/var/ECE_2012/ap/firmwares/fixedwing/datalink.o
                                                  /home/woz/lisa-m-team4938/paparazzi/var/ECE_2012/ap/firmwares/fixedwing/main_ap.o
nav_eight                                         /home/woz/lisa-m-team4938/paparazzi/var/ECE_2012/ap/subsystems/nav.o
nav_eight_init                                    /home/woz/lisa-m-team4938/paparazzi/var/ECE_2012/ap/subsystems/nav.o
nav_glide_pitch_trim                              /home/woz/lisa-m-team4938/paparazzi/var/ECE_2012/ap/subsystems/nav.o
nav_goto_block                                    /home/woz/lisa-m-team4938/paparazzi/var/ECE_2012/ap/subsystems/navigation/common_flight_plan.o
                                                  /home/woz/lisa-m-team4938/paparazzi/var/ECE_2012/ap/firmwares/fixedwing/datalink.o
nav_ground_speed_pgain                            /home/woz/lisa-m-team4938/paparazzi/var/ECE_2012/ap/subsystems/nav.o
nav_ground_speed_setpoint                         /home/woz/lisa-m-team4938/paparazzi/var/ECE_2012/ap/subsystems/nav.o
nav_home                                          /home/woz/lisa-m-team4938/paparazzi/var/ECE_2012/ap/subsystems/nav.o
                                                  /home/woz/lisa-m-team4938/paparazzi/var/ECE_2012/ap/firmwares/fixedwing/main_ap.o
nav_in_circle                                     /home/woz/lisa-m-team4938/paparazzi/var/ECE_2012/ap/subsystems/nav.o
                                                  /home/woz/lisa-m-team4938/paparazzi/var/ECE_2012/ap/subsystems/navigation/nav_survey_rectangle.o
                                                  /home/woz/lisa-m-team4938/paparazzi/var/ECE_2012/ap/firmwares/fixedwing/main_ap.o
nav_in_segment                                    /home/woz/lisa-m-team4938/paparazzi/var/ECE_2012/ap/subsystems/nav.o
                                                  /home/woz/lisa-m-team4938/paparazzi/var/ECE_2012/ap/subsystems/navigation/nav_survey_rectangle.o
                                                  /home/woz/lisa-m-team4938/paparazzi/var/ECE_2012/ap/firmwares/fixedwing/main_ap.o
nav_init                                          /home/woz/lisa-m-team4938/paparazzi/var/ECE_2012/ap/subsystems/nav.o
                                                  /home/woz/lisa-m-team4938/paparazzi/var/ECE_2012/ap/firmwares/fixedwing/main_ap.o
nav_init_block                                    /home/woz/lisa-m-team4938/paparazzi/var/ECE_2012/ap/subsystems/navigation/common_flight_plan.o
                                                  /home/woz/lisa-m-team4938/paparazzi/var/ECE_2012/ap/subsystems/nav.o
nav_init_stage                                    /home/woz/lisa-m-team4938/paparazzi/var/ECE_2012/ap/subsystems/nav.o
                                                  /home/woz/lisa-m-team4938/paparazzi/var/ECE_2012/ap/subsystems/navigation/nav_line.o
                                                  /home/woz/lisa-m-team4938/paparazzi/var/ECE_2012/ap/subsystems/navigation/common_flight_plan.o
nav_line                                          /home/woz/lisa-m-team4938/paparazzi/var/ECE_2012/ap/subsystems/navigation/nav_line.o
                                                  /home/woz/lisa-m-team4938/paparazzi/var/ECE_2012/ap/subsystems/nav.o
nav_line_init                                     /home/woz/lisa-m-team4938/paparazzi/var/ECE_2012/ap/subsystems/navigation/nav_line.o
                                                  /home/woz/lisa-m-team4938/paparazzi/var/ECE_2012/ap/subsystems/nav.o
nav_mode                                          /home/woz/lisa-m-team4938/paparazzi/var/ECE_2012/ap/subsystems/nav.o
nav_move_waypoint                                 /home/woz/lisa-m-team4938/paparazzi/var/ECE_2012/ap/subsystems/nav.o
                                                  /home/woz/lisa-m-team4938/paparazzi/var/ECE_2012/ap/firmwares/fixedwing/datalink.o
nav_oval                                          /home/woz/lisa-m-team4938/paparazzi/var/ECE_2012/ap/subsystems/nav.o
nav_oval_count                                    /home/woz/lisa-m-team4938/paparazzi/var/ECE_2012/ap/subsystems/nav.o
                                                  /home/woz/lisa-m-team4938/paparazzi/var/ECE_2012/ap/firmwares/fixedwing/datalink.o
                                                  /home/woz/lisa-m-team4938/paparazzi/var/ECE_2012/ap/firmwares/fixedwing/main_ap.o
nav_oval_init                                     /home/woz/lisa-m-team4938/paparazzi/var/ECE_2012/ap/subsystems/nav.o
nav_periodic_task                                 /home/woz/lisa-m-team4938/paparazzi/var/ECE_2012/ap/subsystems/nav.o
                                                  /home/woz/lisa-m-team4938/paparazzi/var/ECE_2012/ap/firmwares/fixedwing/main_ap.o
nav_pitch                                         /home/woz/lisa-m-team4938/paparazzi/var/ECE_2012/ap/subsystems/nav.o
                                                  /home/woz/lisa-m-team4938/paparazzi/var/ECE_2012/ap/subsystems/navigation/nav_line.o
                                                  /home/woz/lisa-m-team4938/paparazzi/var/ECE_2012/ap/subsystems/navigation/nav_survey_rectangle.o
                                                  /home/woz/lisa-m-team4938/paparazzi/var/ECE_2012/ap/firmwares/fixedwing/guidance/guidance_v.o
                                                  /home/woz/lisa-m-team4938/paparazzi/var/ECE_2012/ap/firmwares/fixedwing/main_ap.o
nav_radius                                        /home/woz/lisa-m-team4938/paparazzi/var/ECE_2012/ap/subsystems/nav.o
                                                  /home/woz/lisa-m-team4938/paparazzi/var/ECE_2012/ap/firmwares/fixedwing/datalink.o
                                                  /home/woz/lisa-m-team4938/paparazzi/var/ECE_2012/ap/firmwares/fixedwing/main_ap.o
nav_reset_reference                               /home/woz/lisa-m-team4938/paparazzi/var/ECE_2012/ap/subsystems/nav.o
nav_route_xy                                      /home/woz/lisa-m-team4938/paparazzi/var/ECE_2012/ap/subsystems/nav.o
                                                  /home/woz/lisa-m-team4938/paparazzi/var/ECE_2012/ap/subsystems/navigation/nav_line.o
                                                  /home/woz/lisa-m-team4938/paparazzi/var/ECE_2012/ap/subsystems/navigation/nav_survey_rectangle.o
nav_segment_x_1                                   /home/woz/lisa-m-team4938/paparazzi/var/ECE_2012/ap/subsystems/nav.o
                                                  /home/woz/lisa-m-team4938/paparazzi/var/ECE_2012/ap/firmwares/fixedwing/main_ap.o
nav_segment_x_2                                   /home/woz/lisa-m-team4938/paparazzi/var/ECE_2012/ap/subsystems/nav.o
                                                  /home/woz/lisa-m-team4938/paparazzi/var/ECE_2012/ap/firmwares/fixedwing/main_ap.o
nav_segment_y_1                                   /home/woz/lisa-m-team4938/paparazzi/var/ECE_2012/ap/subsystems/nav.o
                                                  /home/woz/lisa-m-team4938/paparazzi/var/ECE_2012/ap/firmwares/fixedwing/main_ap.o
nav_segment_y_2                                   /home/woz/lisa-m-team4938/paparazzi/var/ECE_2012/ap/subsystems/nav.o
                                                  /home/woz/lisa-m-team4938/paparazzi/var/ECE_2012/ap/firmwares/fixedwing/main_ap.o
nav_shift                                         /home/woz/lisa-m-team4938/paparazzi/var/ECE_2012/ap/subsystems/nav.o
                                                  /home/woz/lisa-m-team4938/paparazzi/var/ECE_2012/ap/firmwares/fixedwing/datalink.o
                                                  /home/woz/lisa-m-team4938/paparazzi/var/ECE_2012/ap/firmwares/fixedwing/main_ap.o
nav_stage                                         /home/woz/lisa-m-team4938/paparazzi/var/ECE_2012/ap/subsystems/navigation/common_flight_plan.o
                                                  /home/woz/lisa-m-team4938/paparazzi/var/ECE_2012/ap/subsystems/nav.o
                                                  /home/woz/lisa-m-team4938/paparazzi/var/ECE_2012/ap/firmwares/fixedwing/datalink.o
                                                  /home/woz/lisa-m-team4938/paparazzi/var/ECE_2012/ap/firmwares/fixedwing/main_ap.o
nav_survey_active                                 /home/woz/lisa-m-team4938/paparazzi/var/ECE_2012/ap/subsystems/nav.o
                                                  /home/woz/lisa-m-team4938/paparazzi/var/ECE_2012/ap/subsystems/navigation/nav_survey_rectangle.o
                                                  /home/woz/lisa-m-team4938/paparazzi/var/ECE_2012/ap/firmwares/fixedwing/main_ap.o
nav_survey_east                                   /home/woz/lisa-m-team4938/paparazzi/var/ECE_2012/ap/subsystems/nav.o
                                                  /home/woz/lisa-m-team4938/paparazzi/var/ECE_2012/ap/subsystems/navigation/nav_survey_rectangle.o
                                                  /home/woz/lisa-m-team4938/paparazzi/var/ECE_2012/ap/firmwares/fixedwing/main_ap.o
nav_survey_north                                  /home/woz/lisa-m-team4938/paparazzi/var/ECE_2012/ap/subsystems/nav.o
                                                  /home/woz/lisa-m-team4938/paparazzi/var/ECE_2012/ap/subsystems/navigation/nav_survey_rectangle.o
                                                  /home/woz/lisa-m-team4938/paparazzi/var/ECE_2012/ap/firmwares/fixedwing/main_ap.o
nav_survey_rectangle                              /home/woz/lisa-m-team4938/paparazzi/var/ECE_2012/ap/subsystems/navigation/nav_survey_rectangle.o
                                                  /home/woz/lisa-m-team4938/paparazzi/var/ECE_2012/ap/subsystems/nav.o
nav_survey_rectangle_init                         /home/woz/lisa-m-team4938/paparazzi/var/ECE_2012/ap/subsystems/navigation/nav_survey_rectangle.o
                                                  /home/woz/lisa-m-team4938/paparazzi/var/ECE_2012/ap/subsystems/nav.o
nav_survey_shift                                  /home/woz/lisa-m-team4938/paparazzi/var/ECE_2012/ap/subsystems/nav.o
                                                  /home/woz/lisa-m-team4938/paparazzi/var/ECE_2012/ap/subsystems/navigation/nav_survey_rectangle.o
nav_survey_south                                  /home/woz/lisa-m-team4938/paparazzi/var/ECE_2012/ap/subsystems/nav.o
                                                  /home/woz/lisa-m-team4938/paparazzi/var/ECE_2012/ap/subsystems/navigation/nav_survey_rectangle.o
                                                  /home/woz/lisa-m-team4938/paparazzi/var/ECE_2012/ap/firmwares/fixedwing/main_ap.o
nav_survey_west                                   /home/woz/lisa-m-team4938/paparazzi/var/ECE_2012/ap/subsystems/nav.o
                                                  /home/woz/lisa-m-team4938/paparazzi/var/ECE_2012/ap/subsystems/navigation/nav_survey_rectangle.o
                                                  /home/woz/lisa-m-team4938/paparazzi/var/ECE_2012/ap/firmwares/fixedwing/main_ap.o
nav_throttle_setpoint                             /home/woz/lisa-m-team4938/paparazzi/var/ECE_2012/ap/subsystems/nav.o
                                                  /home/woz/lisa-m-team4938/paparazzi/var/ECE_2012/ap/firmwares/fixedwing/guidance/guidance_v.o
                                                  /home/woz/lisa-m-team4938/paparazzi/var/ECE_2012/ap/firmwares/fixedwing/main_ap.o
nav_update_waypoints_alt                          /home/woz/lisa-m-team4938/paparazzi/var/ECE_2012/ap/subsystems/nav.o
nav_utm_east0                                     /home/woz/lisa-m-team4938/paparazzi/var/ECE_2012/ap/subsystems/nav.o
                                                  /home/woz/lisa-m-team4938/paparazzi/var/ECE_2012/ap/firmwares/fixedwing/datalink.o
                                                  /home/woz/lisa-m-team4938/paparazzi/var/ECE_2012/ap/./estimator.o
                                                  /home/woz/lisa-m-team4938/paparazzi/var/ECE_2012/ap/firmwares/fixedwing/main_ap.o
nav_utm_north0                                    /home/woz/lisa-m-team4938/paparazzi/var/ECE_2012/ap/subsystems/nav.o
                                                  /home/woz/lisa-m-team4938/paparazzi/var/ECE_2012/ap/firmwares/fixedwing/datalink.o
                                                  /home/woz/lisa-m-team4938/paparazzi/var/ECE_2012/ap/./estimator.o
                                                  /home/woz/lisa-m-team4938/paparazzi/var/ECE_2012/ap/firmwares/fixedwing/main_ap.o
nav_utm_zone0                                     /home/woz/lisa-m-team4938/paparazzi/var/ECE_2012/ap/subsystems/nav.o
                                                  /home/woz/lisa-m-team4938/paparazzi/var/ECE_2012/ap/subsystems/gps/gps_ubx.o
                                                  /home/woz/lisa-m-team4938/paparazzi/var/ECE_2012/ap/firmwares/fixedwing/datalink.o
                                                  /home/woz/lisa-m-team4938/paparazzi/var/ECE_2012/ap/firmwares/fixedwing/main_ap.o
nav_without_gps                                   /home/woz/lisa-m-team4938/paparazzi/var/ECE_2012/ap/subsystems/nav.o
                                                  /home/woz/lisa-m-team4938/paparazzi/var/ECE_2012/ap/firmwares/fixedwing/main_ap.o
nb_waypoint                                       /home/woz/lisa-m-team4938/paparazzi/var/ECE_2012/ap/subsystems/nav.o
                                                  /home/woz/lisa-m-team4938/paparazzi/var/ECE_2012/ap/firmwares/fixedwing/main_ap.o
ned_of_ecef_point_d                               /home/woz/lisa-m-team4938/paparazzi/var/ECE_2012/ap/math/pprz_geodetic_double.o
ned_of_ecef_point_f                               /home/woz/lisa-m-team4938/paparazzi/var/ECE_2012/ap/math/pprz_geodetic_float.o
ned_of_ecef_point_i                               /home/woz/lisa-m-team4938/paparazzi/var/ECE_2012/ap/math/pprz_geodetic_int.o
ned_of_ecef_vect_d                                /home/woz/lisa-m-team4938/paparazzi/var/ECE_2012/ap/math/pprz_geodetic_double.o
ned_of_ecef_vect_f                                /home/woz/lisa-m-team4938/paparazzi/var/ECE_2012/ap/math/pprz_geodetic_float.o
ned_of_ecef_vect_i                                /home/woz/lisa-m-team4938/paparazzi/var/ECE_2012/ap/math/pprz_geodetic_int.o
ned_of_lla_point_f                                /home/woz/lisa-m-team4938/paparazzi/var/ECE_2012/ap/math/pprz_geodetic_float.o
ned_of_lla_point_i                                /home/woz/lisa-m-team4938/paparazzi/var/ECE_2012/ap/math/pprz_geodetic_int.o
ned_of_lla_vect_i                                 /home/woz/lisa-m-team4938/paparazzi/var/ECE_2012/ap/math/pprz_geodetic_int.o
nmi_exception                                     /home/woz/lisa-m-team4938/paparazzi/var/ECE_2012/ap/arch/stm32/stm32_exceptions.o
                                                  /home/woz/lisa-m-team4938/paparazzi/var/ECE_2012/ap/arch/stm32/stm32_vector_table.o
null_handler                                      /home/woz/lisa-m-team4938/paparazzi/var/ECE_2012/ap/arch/stm32/stm32_vector_table.o
oval_status                                       /home/woz/lisa-m-team4938/paparazzi/var/ECE_2012/ap/subsystems/nav.o
periodic_task_ap                                  /home/woz/lisa-m-team4938/paparazzi/var/ECE_2012/ap/firmwares/fixedwing/main_ap.o
                                                  /home/woz/lisa-m-team4938/paparazzi/var/ECE_2012/ap/firmwares/fixedwing/main.o
periodic_task_fbw                                 /home/woz/lisa-m-team4938/paparazzi/var/ECE_2012/ap/firmwares/fixedwing/main_fbw.o
                                                  /home/woz/lisa-m-team4938/paparazzi/var/ECE_2012/ap/firmwares/fixedwing/main.o
pers_settings                                     /home/woz/lisa-m-team4938/paparazzi/var/ECE_2012/ap/subsystems/settings.o
persistent_read                                   /home/woz/lisa-m-team4938/paparazzi/var/ECE_2012/ap/arch/stm32/subsystems/settings_arch.o
persistent_write                                  /home/woz/lisa-m-team4938/paparazzi/var/ECE_2012/ap/arch/stm32/subsystems/settings_arch.o
pow                                               /opt/paparazzi/arm-multilib/lib/gcc/arm-none-eabi/4.4.5/../../../../arm-none-eabi/lib/thumb2/libm.a(lib_a-w_pow.o)
                                                  /home/woz/lisa-m-team4938/paparazzi/var/ECE_2012/ap/subsystems/electrical.o
                                                  /home/woz/lisa-m-team4938/paparazzi/var/ECE_2012/ap/math/pprz_geodetic_double.o
                                                  /home/woz/lisa-m-team4938/paparazzi/var/ECE_2012/ap/math/pprz_geodetic_float.o
power_switch                                      /home/woz/lisa-m-team4938/paparazzi/var/ECE_2012/ap/firmwares/fixedwing/main_ap.o
powf                                              /opt/paparazzi/arm-multilib/lib/gcc/arm-none-eabi/4.4.5/../../../../arm-none-eabi/lib/thumb2/libm.a(lib_a-wf_pow.o)
                                                  /home/woz/lisa-m-team4938/paparazzi/var/ECE_2012/ap/math/pprz_geodetic_float.o
ppm_arch_init                                     /home/woz/lisa-m-team4938/paparazzi/var/ECE_2012/ap/arch/stm32/subsystems/radio_control/ppm_arch.o
                                                  /home/woz/lisa-m-team4938/paparazzi/var/ECE_2012/ap/subsystems/radio_control/ppm.o
ppm_cur_pulse                                     /home/woz/lisa-m-team4938/paparazzi/var/ECE_2012/ap/arch/stm32/subsystems/radio_control/ppm_arch.o
ppm_data_valid                                    /home/woz/lisa-m-team4938/paparazzi/var/ECE_2012/ap/arch/stm32/subsystems/radio_control/ppm_arch.o
ppm_frame_available                               /home/woz/lisa-m-team4938/paparazzi/var/ECE_2012/ap/subsystems/radio_control/ppm.o
                                                  /home/woz/lisa-m-team4938/paparazzi/var/ECE_2012/ap/arch/stm32/subsystems/radio_control/ppm_arch.o
                                                  /home/woz/lisa-m-team4938/paparazzi/var/ECE_2012/ap/firmwares/fixedwing/main_fbw.o
ppm_last_pulse_time                               /home/woz/lisa-m-team4938/paparazzi/var/ECE_2012/ap/arch/stm32/subsystems/radio_control/ppm_arch.o
ppm_pulses                                        /home/woz/lisa-m-team4938/paparazzi/var/ECE_2012/ap/subsystems/radio_control/ppm.o
                                                  /home/woz/lisa-m-team4938/paparazzi/var/ECE_2012/ap/arch/stm32/subsystems/radio_control/ppm_arch.o
                                                  /home/woz/lisa-m-team4938/paparazzi/var/ECE_2012/ap/firmwares/fixedwing/main_fbw.o
pprz_error                                        /home/woz/lisa-m-team4938/paparazzi/var/ECE_2012/ap/pprz_transport.o
                                                  /home/woz/lisa-m-team4938/paparazzi/var/ECE_2012/ap/firmwares/fixedwing/main_ap.o
pprz_mode                                         /home/woz/lisa-m-team4938/paparazzi/var/ECE_2012/ap/firmwares/fixedwing/main_ap.o
                                                  /home/woz/lisa-m-team4938/paparazzi/var/ECE_2012/ap/subsystems/nav.o
                                                  /home/woz/lisa-m-team4938/paparazzi/var/ECE_2012/ap/firmwares/fixedwing/datalink.o
pprz_msg_received                                 /home/woz/lisa-m-team4938/paparazzi/var/ECE_2012/ap/pprz_transport.o
                                                  /home/woz/lisa-m-team4938/paparazzi/var/ECE_2012/ap/firmwares/fixedwing/main_ap.o
pprz_ovrn                                         /home/woz/lisa-m-team4938/paparazzi/var/ECE_2012/ap/pprz_transport.o
                                                  /home/woz/lisa-m-team4938/paparazzi/var/ECE_2012/ap/firmwares/fixedwing/main_ap.o
pprz_payload                                      /home/woz/lisa-m-team4938/paparazzi/var/ECE_2012/ap/pprz_transport.o
                                                  /home/woz/lisa-m-team4938/paparazzi/var/ECE_2012/ap/firmwares/fixedwing/main_ap.o
pprz_payload_len                                  /home/woz/lisa-m-team4938/paparazzi/var/ECE_2012/ap/pprz_transport.o
                                                  /home/woz/lisa-m-team4938/paparazzi/var/ECE_2012/ap/firmwares/fixedwing/main_ap.o
pprz_trig_int                                     /home/woz/lisa-m-team4938/paparazzi/var/ECE_2012/ap/math/pprz_trig_int.o
                                                  /home/woz/lisa-m-team4938/paparazzi/var/ECE_2012/ap/subsystems/imu.o
radio_control                                     /home/woz/lisa-m-team4938/paparazzi/var/ECE_2012/ap/subsystems/radio_control.o
                                                  /home/woz/lisa-m-team4938/paparazzi/var/ECE_2012/ap/firmwares/fixedwing/main_fbw.o
radio_control_impl_init                           /home/woz/lisa-m-team4938/paparazzi/var/ECE_2012/ap/subsystems/radio_control/ppm.o
                                                  /home/woz/lisa-m-team4938/paparazzi/var/ECE_2012/ap/firmwares/fixedwing/main_fbw.o
rc_pitch                                          /home/woz/lisa-m-team4938/paparazzi/var/ECE_2012/ap/subsystems/nav.o
rc_settings_mode                                  /home/woz/lisa-m-team4938/paparazzi/var/ECE_2012/ap/firmwares/fixedwing/main_ap.o
rcc_backupdomain_reset                            /opt/paparazzi/arm-multilib/lib/gcc/arm-none-eabi/4.4.5/../../../../arm-none-eabi/lib/libopencm3_stm32.a(rcc.o)
rcc_clock_setup_in_hse_12mhz_out_72mhz            /opt/paparazzi/arm-multilib/lib/gcc/arm-none-eabi/4.4.5/../../../../arm-none-eabi/lib/libopencm3_stm32.a(rcc.o)
                                                  /home/woz/lisa-m-team4938/paparazzi/var/ECE_2012/ap/arch/stm32/mcu_arch.o
rcc_clock_setup_in_hse_16mhz_out_72mhz            /opt/paparazzi/arm-multilib/lib/gcc/arm-none-eabi/4.4.5/../../../../arm-none-eabi/lib/libopencm3_stm32.a(rcc.o)
rcc_clock_setup_in_hse_8mhz_out_24mhz             /opt/paparazzi/arm-multilib/lib/gcc/arm-none-eabi/4.4.5/../../../../arm-none-eabi/lib/libopencm3_stm32.a(rcc.o)
rcc_clock_setup_in_hse_8mhz_out_72mhz             /opt/paparazzi/arm-multilib/lib/gcc/arm-none-eabi/4.4.5/../../../../arm-none-eabi/lib/libopencm3_stm32.a(rcc.o)
rcc_clock_setup_in_hsi_out_48mhz                  /opt/paparazzi/arm-multilib/lib/gcc/arm-none-eabi/4.4.5/../../../../arm-none-eabi/lib/libopencm3_stm32.a(rcc.o)
rcc_clock_setup_in_hsi_out_64mhz                  /opt/paparazzi/arm-multilib/lib/gcc/arm-none-eabi/4.4.5/../../../../arm-none-eabi/lib/libopencm3_stm32.a(rcc.o)
rcc_css_disable                                   /opt/paparazzi/arm-multilib/lib/gcc/arm-none-eabi/4.4.5/../../../../arm-none-eabi/lib/libopencm3_stm32.a(rcc.o)
rcc_css_enable                                    /opt/paparazzi/arm-multilib/lib/gcc/arm-none-eabi/4.4.5/../../../../arm-none-eabi/lib/libopencm3_stm32.a(rcc.o)
rcc_css_int_clear                                 /opt/paparazzi/arm-multilib/lib/gcc/arm-none-eabi/4.4.5/../../../../arm-none-eabi/lib/libopencm3_stm32.a(rcc.o)
rcc_css_int_flag                                  /opt/paparazzi/arm-multilib/lib/gcc/arm-none-eabi/4.4.5/../../../../arm-none-eabi/lib/libopencm3_stm32.a(rcc.o)
rcc_osc_bypass_disable                            /opt/paparazzi/arm-multilib/lib/gcc/arm-none-eabi/4.4.5/../../../../arm-none-eabi/lib/libopencm3_stm32.a(rcc.o)
rcc_osc_bypass_enable                             /opt/paparazzi/arm-multilib/lib/gcc/arm-none-eabi/4.4.5/../../../../arm-none-eabi/lib/libopencm3_stm32.a(rcc.o)
rcc_osc_off                                       /opt/paparazzi/arm-multilib/lib/gcc/arm-none-eabi/4.4.5/../../../../arm-none-eabi/lib/libopencm3_stm32.a(rcc.o)
rcc_osc_on                                        /opt/paparazzi/arm-multilib/lib/gcc/arm-none-eabi/4.4.5/../../../../arm-none-eabi/lib/libopencm3_stm32.a(rcc.o)
rcc_osc_ready_int_clear                           /opt/paparazzi/arm-multilib/lib/gcc/arm-none-eabi/4.4.5/../../../../arm-none-eabi/lib/libopencm3_stm32.a(rcc.o)
rcc_osc_ready_int_disable                         /opt/paparazzi/arm-multilib/lib/gcc/arm-none-eabi/4.4.5/../../../../arm-none-eabi/lib/libopencm3_stm32.a(rcc.o)
rcc_osc_ready_int_enable                          /opt/paparazzi/arm-multilib/lib/gcc/arm-none-eabi/4.4.5/../../../../arm-none-eabi/lib/libopencm3_stm32.a(rcc.o)
rcc_osc_ready_int_flag                            /opt/paparazzi/arm-multilib/lib/gcc/arm-none-eabi/4.4.5/../../../../arm-none-eabi/lib/libopencm3_stm32.a(rcc.o)
rcc_peripheral_clear_reset                        /opt/paparazzi/arm-multilib/lib/gcc/arm-none-eabi/4.4.5/../../../../arm-none-eabi/lib/libopencm3_stm32.a(rcc.o)
rcc_peripheral_disable_clock                      /opt/paparazzi/arm-multilib/lib/gcc/arm-none-eabi/4.4.5/../../../../arm-none-eabi/lib/libopencm3_stm32.a(rcc.o)
rcc_peripheral_enable_clock                       /opt/paparazzi/arm-multilib/lib/gcc/arm-none-eabi/4.4.5/../../../../arm-none-eabi/lib/libopencm3_stm32.a(rcc.o)
rcc_peripheral_reset                              /opt/paparazzi/arm-multilib/lib/gcc/arm-none-eabi/4.4.5/../../../../arm-none-eabi/lib/libopencm3_stm32.a(rcc.o)
rcc_ppre1_frequency                               /opt/paparazzi/arm-multilib/lib/gcc/arm-none-eabi/4.4.5/../../../../arm-none-eabi/lib/libopencm3_stm32.a(rcc.o)
                                                  /opt/paparazzi/arm-multilib/lib/gcc/arm-none-eabi/4.4.5/../../../../arm-none-eabi/lib/libopencm3_stm32.a(usart.o)
rcc_ppre2_frequency                               /opt/paparazzi/arm-multilib/lib/gcc/arm-none-eabi/4.4.5/../../../../arm-none-eabi/lib/libopencm3_stm32.a(rcc.o)
                                                  /opt/paparazzi/arm-multilib/lib/gcc/arm-none-eabi/4.4.5/../../../../arm-none-eabi/lib/libopencm3_stm32.a(usart.o)
rcc_set_adcpre                                    /opt/paparazzi/arm-multilib/lib/gcc/arm-none-eabi/4.4.5/../../../../arm-none-eabi/lib/libopencm3_stm32.a(rcc.o)
rcc_set_hpre                                      /opt/paparazzi/arm-multilib/lib/gcc/arm-none-eabi/4.4.5/../../../../arm-none-eabi/lib/libopencm3_stm32.a(rcc.o)
rcc_set_pll_multiplication_factor                 /opt/paparazzi/arm-multilib/lib/gcc/arm-none-eabi/4.4.5/../../../../arm-none-eabi/lib/libopencm3_stm32.a(rcc.o)
rcc_set_pll_source                                /opt/paparazzi/arm-multilib/lib/gcc/arm-none-eabi/4.4.5/../../../../arm-none-eabi/lib/libopencm3_stm32.a(rcc.o)
rcc_set_pllxtpre                                  /opt/paparazzi/arm-multilib/lib/gcc/arm-none-eabi/4.4.5/../../../../arm-none-eabi/lib/libopencm3_stm32.a(rcc.o)
rcc_set_ppre1                                     /opt/paparazzi/arm-multilib/lib/gcc/arm-none-eabi/4.4.5/../../../../arm-none-eabi/lib/libopencm3_stm32.a(rcc.o)
rcc_set_ppre2                                     /opt/paparazzi/arm-multilib/lib/gcc/arm-none-eabi/4.4.5/../../../../arm-none-eabi/lib/libopencm3_stm32.a(rcc.o)
rcc_set_sysclk_source                             /opt/paparazzi/arm-multilib/lib/gcc/arm-none-eabi/4.4.5/../../../../arm-none-eabi/lib/libopencm3_stm32.a(rcc.o)
rcc_set_usbpre                                    /opt/paparazzi/arm-multilib/lib/gcc/arm-none-eabi/4.4.5/../../../../arm-none-eabi/lib/libopencm3_stm32.a(rcc.o)
rcc_system_clock_source                           /opt/paparazzi/arm-multilib/lib/gcc/arm-none-eabi/4.4.5/../../../../arm-none-eabi/lib/libopencm3_stm32.a(rcc.o)
rcc_wait_for_osc_ready                            /opt/paparazzi/arm-multilib/lib/gcc/arm-none-eabi/4.4.5/../../../../arm-none-eabi/lib/libopencm3_stm32.a(rcc.o)
renorm_blowup_count                               /home/woz/lisa-m-team4938/paparazzi/var/ECE_2012/ap/subsystems/ahrs/ahrs_float_dcm.o
renorm_sqrt_count                                 /home/woz/lisa-m-team4938/paparazzi/var/ECE_2012/ap/subsystems/ahrs/ahrs_float_dcm.o
reset_handler_stage1                              /home/woz/lisa-m-team4938/paparazzi/var/ECE_2012/ap/arch/stm32/stm32_vector_table.o
reset_handler_stage2                              /home/woz/lisa-m-team4938/paparazzi/var/ECE_2012/ap/arch/stm32/stm32_vector_table.o
rint                                              /opt/paparazzi/arm-multilib/lib/gcc/arm-none-eabi/4.4.5/../../../../arm-none-eabi/lib/thumb2/libm.a(lib_a-s_rint.o)
                                                  /opt/paparazzi/arm-multilib/lib/gcc/arm-none-eabi/4.4.5/../../../../arm-none-eabi/lib/thumb2/libm.a(lib_a-wf_pow.o)
                                                  /opt/paparazzi/arm-multilib/lib/gcc/arm-none-eabi/4.4.5/../../../../arm-none-eabi/lib/thumb2/libm.a(lib_a-w_pow.o)
                                                  /home/woz/lisa-m-team4938/paparazzi/var/ECE_2012/ap/math/pprz_geodetic_int.o
scalbn                                            /opt/paparazzi/arm-multilib/lib/gcc/arm-none-eabi/4.4.5/../../../../arm-none-eabi/lib/thumb2/libm.a(lib_a-s_scalbn.o)
                                                  /opt/paparazzi/arm-multilib/lib/gcc/arm-none-eabi/4.4.5/../../../../arm-none-eabi/lib/thumb2/libm.a(lib_a-k_rem_pio2.o)
                                                  /opt/paparazzi/arm-multilib/lib/gcc/arm-none-eabi/4.4.5/../../../../arm-none-eabi/lib/thumb2/libm.a(lib_a-e_pow.o)
scalbnf                                           /opt/paparazzi/arm-multilib/lib/gcc/arm-none-eabi/4.4.5/../../../../arm-none-eabi/lib/thumb2/libm.a(lib_a-sf_scalbn.o)
                                                  /opt/paparazzi/arm-multilib/lib/gcc/arm-none-eabi/4.4.5/../../../../arm-none-eabi/lib/thumb2/libm.a(lib_a-kf_rem_pio2.o)
                                                  /opt/paparazzi/arm-multilib/lib/gcc/arm-none-eabi/4.4.5/../../../../arm-none-eabi/lib/thumb2/libm.a(lib_a-ef_pow.o)
settings_init                                     /home/woz/lisa-m-team4938/paparazzi/var/ECE_2012/ap/subsystems/settings.o
                                                  /home/woz/lisa-m-team4938/paparazzi/var/ECE_2012/ap/firmwares/fixedwing/main_ap.o
settings_store                                    /home/woz/lisa-m-team4938/paparazzi/var/ECE_2012/ap/subsystems/settings.o
settings_store_now                                /home/woz/lisa-m-team4938/paparazzi/var/ECE_2012/ap/subsystems/settings.o
sin                                               /opt/paparazzi/arm-multilib/lib/gcc/arm-none-eabi/4.4.5/../../../../arm-none-eabi/lib/thumb2/libm.a(lib_a-s_sin.o)
                                                  /home/woz/lisa-m-team4938/paparazzi/var/ECE_2012/ap/subsystems/nav.o
                                                  /home/woz/lisa-m-team4938/paparazzi/var/ECE_2012/ap/math/pprz_geodetic_double.o
                                                  /home/woz/lisa-m-team4938/paparazzi/var/ECE_2012/ap/math/pprz_geodetic_float.o
sinf                                              /opt/paparazzi/arm-multilib/lib/gcc/arm-none-eabi/4.4.5/../../../../arm-none-eabi/lib/thumb2/libm.a(lib_a-sf_sin.o)
                                                  /home/woz/lisa-m-team4938/paparazzi/var/ECE_2012/ap/subsystems/ahrs/ahrs_float_dcm.o
                                                  /home/woz/lisa-m-team4938/paparazzi/var/ECE_2012/ap/math/pprz_geodetic_double.o
                                                  /home/woz/lisa-m-team4938/paparazzi/var/ECE_2012/ap/math/pprz_geodetic_float.o
                                                  /home/woz/lisa-m-team4938/paparazzi/var/ECE_2012/ap/math/pprz_geodetic_int.o
sinh                                              /opt/paparazzi/arm-multilib/lib/gcc/arm-none-eabi/4.4.5/../../../../arm-none-eabi/lib/thumb2/libm.a(lib_a-w_sinh.o)
                                                  /home/woz/lisa-m-team4938/paparazzi/var/ECE_2012/ap/math/pprz_geodetic_double.o
                                                  /home/woz/lisa-m-team4938/paparazzi/var/ECE_2012/ap/math/pprz_geodetic_float.o
slider_1_val                                      /home/woz/lisa-m-team4938/paparazzi/var/ECE_2012/ap/firmwares/fixedwing/main_ap.o
slider_2_val                                      /home/woz/lisa-m-team4938/paparazzi/var/ECE_2012/ap/firmwares/fixedwing/main_ap.o
sqrt                                              /opt/paparazzi/arm-multilib/lib/gcc/arm-none-eabi/4.4.5/../../../../arm-none-eabi/lib/thumb2/libm.a(lib_a-w_sqrt.o)
                                                  /home/woz/lisa-m-team4938/paparazzi/var/ECE_2012/ap/subsystems/navigation/nav_line.o
                                                  /home/woz/lisa-m-team4938/paparazzi/var/ECE_2012/ap/subsystems/nav.o
                                                  /home/woz/lisa-m-team4938/paparazzi/var/ECE_2012/ap/subsystems/ahrs/ahrs_float_dcm.o
                                                  /home/woz/lisa-m-team4938/paparazzi/var/ECE_2012/ap/math/pprz_geodetic_double.o
sqrtf                                             /opt/paparazzi/arm-multilib/lib/gcc/arm-none-eabi/4.4.5/../../../../arm-none-eabi/lib/thumb2/libm.a(lib_a-wf_sqrt.o)
                                                  /home/woz/lisa-m-team4938/paparazzi/var/ECE_2012/ap/math/pprz_geodetic_double.o
                                                  /home/woz/lisa-m-team4938/paparazzi/var/ECE_2012/ap/math/pprz_geodetic_float.o
stage_time                                        /home/woz/lisa-m-team4938/paparazzi/var/ECE_2012/ap/subsystems/navigation/common_flight_plan.o
                                                  /home/woz/lisa-m-team4938/paparazzi/var/ECE_2012/ap/subsystems/nav.o
                                                  /home/woz/lisa-m-team4938/paparazzi/var/ECE_2012/ap/firmwares/fixedwing/main_ap.o
sys_tick_irq_handler                              /home/woz/lisa-m-team4938/paparazzi/var/ECE_2012/ap/arch/stm32/sys_time_hw.o
                                                  /home/woz/lisa-m-team4938/paparazzi/var/ECE_2012/ap/arch/stm32/stm32_vector_table.o
sys_time_init                                     /home/woz/lisa-m-team4938/paparazzi/var/ECE_2012/ap/arch/stm32/sys_time_hw.o
                                                  /home/woz/lisa-m-team4938/paparazzi/var/ECE_2012/ap/firmwares/fixedwing/main_fbw.o
sys_time_period_elapsed                           /home/woz/lisa-m-team4938/paparazzi/var/ECE_2012/ap/arch/stm32/sys_time_hw.o
                                                  /home/woz/lisa-m-team4938/paparazzi/var/ECE_2012/ap/firmwares/fixedwing/main.o
                                                  /home/woz/lisa-m-team4938/paparazzi/var/ECE_2012/ap/firmwares/fixedwing/main_ap.o
tan                                               /opt/paparazzi/arm-multilib/lib/gcc/arm-none-eabi/4.4.5/../../../../arm-none-eabi/lib/thumb2/libm.a(lib_a-s_tan.o)
                                                  /home/woz/lisa-m-team4938/paparazzi/var/ECE_2012/ap/math/pprz_geodetic_double.o
                                                  /home/woz/lisa-m-team4938/paparazzi/var/ECE_2012/ap/math/pprz_geodetic_float.o
telemetry_mode_Ap_DefaultChannel                  /home/woz/lisa-m-team4938/paparazzi/var/ECE_2012/ap/downlink.o
                                                  /home/woz/lisa-m-team4938/paparazzi/var/ECE_2012/ap/firmwares/fixedwing/datalink.o
                                                  /home/woz/lisa-m-team4938/paparazzi/var/ECE_2012/ap/firmwares/fixedwing/main_ap.o
telemetry_mode_Fbw_DefaultChannel                 /home/woz/lisa-m-team4938/paparazzi/var/ECE_2012/ap/downlink.o
                                                  /home/woz/lisa-m-team4938/paparazzi/var/ECE_2012/ap/firmwares/fixedwing/datalink.o
                                                  /home/woz/lisa-m-team4938/paparazzi/var/ECE_2012/ap/firmwares/fixedwing/main_ap.o
                                                  /home/woz/lisa-m-team4938/paparazzi/var/ECE_2012/ap/firmwares/fixedwing/main_fbw.o
the_acs                                           /home/woz/lisa-m-team4938/paparazzi/var/ECE_2012/ap/subsystems/navigation/traffic_info.o
                                                  /home/woz/lisa-m-team4938/paparazzi/var/ECE_2012/ap/firmwares/fixedwing/datalink.o
the_acs_id                                        /home/woz/lisa-m-team4938/paparazzi/var/ECE_2012/ap/subsystems/navigation/traffic_info.o
                                                  /home/woz/lisa-m-team4938/paparazzi/var/ECE_2012/ap/firmwares/fixedwing/datalink.o
tim2_irq_handler                                  /home/woz/lisa-m-team4938/paparazzi/var/ECE_2012/ap/arch/stm32/subsystems/radio_control/ppm_arch.o
                                                  /home/woz/lisa-m-team4938/paparazzi/var/ECE_2012/ap/arch/stm32/stm32_vector_table.o
time_since_last_ap                                /home/woz/lisa-m-team4938/paparazzi/var/ECE_2012/ap/./inter_mcu.o
                                                  /home/woz/lisa-m-team4938/paparazzi/var/ECE_2012/ap/firmwares/fixedwing/main_fbw.o
too_far_from_home                                 /home/woz/lisa-m-team4938/paparazzi/var/ECE_2012/ap/subsystems/nav.o
                                                  /home/woz/lisa-m-team4938/paparazzi/var/ECE_2012/ap/firmwares/fixedwing/main_ap.o
traffic_info_init                                 /home/woz/lisa-m-team4938/paparazzi/var/ECE_2012/ap/subsystems/navigation/traffic_info.o
                                                  /home/woz/lisa-m-team4938/paparazzi/var/ECE_2012/ap/firmwares/fixedwing/main_ap.o
uart1                                             /home/woz/lisa-m-team4938/paparazzi/var/ECE_2012/ap/mcu_periph/uart.o
                                                  /home/woz/lisa-m-team4938/paparazzi/var/ECE_2012/ap/subsystems/gps/gps_ubx.o
                                                  /home/woz/lisa-m-team4938/paparazzi/var/ECE_2012/ap/arch/stm32/mcu_periph/uart_arch.o
                                                  /home/woz/lisa-m-team4938/paparazzi/var/ECE_2012/ap/firmwares/fixedwing/main_ap.o
uart1_init                                        /home/woz/lisa-m-team4938/paparazzi/var/ECE_2012/ap/arch/stm32/mcu_periph/uart_arch.o
                                                  /home/woz/lisa-m-team4938/paparazzi/var/ECE_2012/ap/mcu.o
uart2                                             /home/woz/lisa-m-team4938/paparazzi/var/ECE_2012/ap/mcu_periph/uart.o
                                                  /home/woz/lisa-m-team4938/paparazzi/var/ECE_2012/ap/firmwares/fixedwing/datalink.o
                                                  /home/woz/lisa-m-team4938/paparazzi/var/ECE_2012/ap/arch/stm32/mcu_periph/uart_arch.o
                                                  /home/woz/lisa-m-team4938/paparazzi/var/ECE_2012/ap/firmwares/fixedwing/main_ap.o
                                                  /home/woz/lisa-m-team4938/paparazzi/var/ECE_2012/ap/firmwares/fixedwing/main_fbw.o
uart2_init                                        /home/woz/lisa-m-team4938/paparazzi/var/ECE_2012/ap/arch/stm32/mcu_periph/uart_arch.o
                                                  /home/woz/lisa-m-team4938/paparazzi/var/ECE_2012/ap/mcu.o
uart_check_free_space                             /home/woz/lisa-m-team4938/paparazzi/var/ECE_2012/ap/mcu_periph/uart.o
                                                  /home/woz/lisa-m-team4938/paparazzi/var/ECE_2012/ap/firmwares/fixedwing/datalink.o
                                                  /home/woz/lisa-m-team4938/paparazzi/var/ECE_2012/ap/firmwares/fixedwing/main_ap.o
                                                  /home/woz/lisa-m-team4938/paparazzi/var/ECE_2012/ap/firmwares/fixedwing/main_fbw.o
uart_periph_init                                  /home/woz/lisa-m-team4938/paparazzi/var/ECE_2012/ap/mcu_periph/uart.o
                                                  /home/woz/lisa-m-team4938/paparazzi/var/ECE_2012/ap/arch/stm32/mcu_periph/uart_arch.o
uart_periph_set_baudrate                          /home/woz/lisa-m-team4938/paparazzi/var/ECE_2012/ap/arch/stm32/mcu_periph/uart_arch.o
uart_transmit                                     /home/woz/lisa-m-team4938/paparazzi/var/ECE_2012/ap/arch/stm32/mcu_periph/uart_arch.o
                                                  /home/woz/lisa-m-team4938/paparazzi/var/ECE_2012/ap/subsystems/gps/gps_ubx.o
                                                  /home/woz/lisa-m-team4938/paparazzi/var/ECE_2012/ap/firmwares/fixedwing/datalink.o
                                                  /home/woz/lisa-m-team4938/paparazzi/var/ECE_2012/ap/firmwares/fixedwing/main_ap.o
                                                  /home/woz/lisa-m-team4938/paparazzi/var/ECE_2012/ap/firmwares/fixedwing/main_fbw.o
ubxsend_cfg_rst                                   /home/woz/lisa-m-team4938/paparazzi/var/ECE_2012/ap/subsystems/gps/gps_ubx.o
usage_fault_exception                             /home/woz/lisa-m-team4938/paparazzi/var/ECE_2012/ap/arch/stm32/stm32_exceptions.o
                                                  /home/woz/lisa-m-team4938/paparazzi/var/ECE_2012/ap/arch/stm32/stm32_vector_table.o
usart1_irq_handler                                /home/woz/lisa-m-team4938/paparazzi/var/ECE_2012/ap/arch/stm32/mcu_periph/uart_arch.o
                                                  /home/woz/lisa-m-team4938/paparazzi/var/ECE_2012/ap/arch/stm32/stm32_vector_table.o
usart2_irq_handler                                /home/woz/lisa-m-team4938/paparazzi/var/ECE_2012/ap/arch/stm32/mcu_periph/uart_arch.o
                                                  /home/woz/lisa-m-team4938/paparazzi/var/ECE_2012/ap/arch/stm32/stm32_vector_table.o
usart_disable                                     /opt/paparazzi/arm-multilib/lib/gcc/arm-none-eabi/4.4.5/../../../../arm-none-eabi/lib/libopencm3_stm32.a(usart.o)
usart_enable                                      /opt/paparazzi/arm-multilib/lib/gcc/arm-none-eabi/4.4.5/../../../../arm-none-eabi/lib/libopencm3_stm32.a(usart.o)
usart_recv                                        /opt/paparazzi/arm-multilib/lib/gcc/arm-none-eabi/4.4.5/../../../../arm-none-eabi/lib/libopencm3_stm32.a(usart.o)
usart_recv_blocking                               /opt/paparazzi/arm-multilib/lib/gcc/arm-none-eabi/4.4.5/../../../../arm-none-eabi/lib/libopencm3_stm32.a(usart.o)
usart_send                                        /opt/paparazzi/arm-multilib/lib/gcc/arm-none-eabi/4.4.5/../../../../arm-none-eabi/lib/libopencm3_stm32.a(usart.o)
usart_send_blocking                               /opt/paparazzi/arm-multilib/lib/gcc/arm-none-eabi/4.4.5/../../../../arm-none-eabi/lib/libopencm3_stm32.a(usart.o)
usart_set_baudrate                                /opt/paparazzi/arm-multilib/lib/gcc/arm-none-eabi/4.4.5/../../../../arm-none-eabi/lib/libopencm3_stm32.a(usart.o)
                                                  /home/woz/lisa-m-team4938/paparazzi/var/ECE_2012/ap/arch/stm32/mcu_periph/uart_arch.o
usart_set_databits                                /opt/paparazzi/arm-multilib/lib/gcc/arm-none-eabi/4.4.5/../../../../arm-none-eabi/lib/libopencm3_stm32.a(usart.o)
usart_set_flow_control                            /opt/paparazzi/arm-multilib/lib/gcc/arm-none-eabi/4.4.5/../../../../arm-none-eabi/lib/libopencm3_stm32.a(usart.o)
usart_set_mode                                    /opt/paparazzi/arm-multilib/lib/gcc/arm-none-eabi/4.4.5/../../../../arm-none-eabi/lib/libopencm3_stm32.a(usart.o)
usart_set_parity                                  /opt/paparazzi/arm-multilib/lib/gcc/arm-none-eabi/4.4.5/../../../../arm-none-eabi/lib/libopencm3_stm32.a(usart.o)
usart_set_stopbits                                /opt/paparazzi/arm-multilib/lib/gcc/arm-none-eabi/4.4.5/../../../../arm-none-eabi/lib/libopencm3_stm32.a(usart.o)
usart_wait_recv_ready                             /opt/paparazzi/arm-multilib/lib/gcc/arm-none-eabi/4.4.5/../../../../arm-none-eabi/lib/libopencm3_stm32.a(usart.o)
usart_wait_send_ready                             /opt/paparazzi/arm-multilib/lib/gcc/arm-none-eabi/4.4.5/../../../../arm-none-eabi/lib/libopencm3_stm32.a(usart.o)
utm_of_lla_f                                      /home/woz/lisa-m-team4938/paparazzi/var/ECE_2012/ap/math/pprz_geodetic_float.o
                                                  /home/woz/lisa-m-team4938/paparazzi/var/ECE_2012/ap/subsystems/nav.o
                                                  /home/woz/lisa-m-team4938/paparazzi/var/ECE_2012/ap/subsystems/gps/gps_ubx.o
                                                  /home/woz/lisa-m-team4938/paparazzi/var/ECE_2012/ap/firmwares/fixedwing/datalink.o
v_ctl_altitude_error                              /home/woz/lisa-m-team4938/paparazzi/var/ECE_2012/ap/firmwares/fixedwing/guidance/guidance_v.o
                                                  /home/woz/lisa-m-team4938/paparazzi/var/ECE_2012/ap/firmwares/fixedwing/stabilization/stabilization_attitude.o
v_ctl_altitude_loop                               /home/woz/lisa-m-team4938/paparazzi/var/ECE_2012/ap/firmwares/fixedwing/guidance/guidance_v.o
                                                  /home/woz/lisa-m-team4938/paparazzi/var/ECE_2012/ap/firmwares/fixedwing/main_ap.o
v_ctl_altitude_pgain                              /home/woz/lisa-m-team4938/paparazzi/var/ECE_2012/ap/firmwares/fixedwing/guidance/guidance_v.o
v_ctl_altitude_pre_climb                          /home/woz/lisa-m-team4938/paparazzi/var/ECE_2012/ap/firmwares/fixedwing/guidance/guidance_v.o
                                                  /home/woz/lisa-m-team4938/paparazzi/var/ECE_2012/ap/subsystems/navigation/nav_line.o
                                                  /home/woz/lisa-m-team4938/paparazzi/var/ECE_2012/ap/subsystems/navigation/nav_survey_rectangle.o
                                                  /home/woz/lisa-m-team4938/paparazzi/var/ECE_2012/ap/subsystems/nav.o
v_ctl_altitude_setpoint                           /home/woz/lisa-m-team4938/paparazzi/var/ECE_2012/ap/firmwares/fixedwing/guidance/guidance_v.o
                                                  /home/woz/lisa-m-team4938/paparazzi/var/ECE_2012/ap/subsystems/nav.o
                                                  /home/woz/lisa-m-team4938/paparazzi/var/ECE_2012/ap/firmwares/fixedwing/main_ap.o
v_ctl_auto_pitch_igain                            /home/woz/lisa-m-team4938/paparazzi/var/ECE_2012/ap/firmwares/fixedwing/guidance/guidance_v.o
v_ctl_auto_pitch_pgain                            /home/woz/lisa-m-team4938/paparazzi/var/ECE_2012/ap/firmwares/fixedwing/guidance/guidance_v.o
v_ctl_auto_pitch_sum_err                          /home/woz/lisa-m-team4938/paparazzi/var/ECE_2012/ap/firmwares/fixedwing/guidance/guidance_v.o
v_ctl_auto_throttle_climb_throttle_increment      /home/woz/lisa-m-team4938/paparazzi/var/ECE_2012/ap/firmwares/fixedwing/guidance/guidance_v.o
v_ctl_auto_throttle_cruise_throttle               /home/woz/lisa-m-team4938/paparazzi/var/ECE_2012/ap/firmwares/fixedwing/guidance/guidance_v.o
                                                  /home/woz/lisa-m-team4938/paparazzi/var/ECE_2012/ap/firmwares/fixedwing/stabilization/stabilization_attitude.o
v_ctl_auto_throttle_dash_trim                     /home/woz/lisa-m-team4938/paparazzi/var/ECE_2012/ap/firmwares/fixedwing/stabilization/stabilization_attitude.o
v_ctl_auto_throttle_dgain                         /home/woz/lisa-m-team4938/paparazzi/var/ECE_2012/ap/firmwares/fixedwing/guidance/guidance_v.o
v_ctl_auto_throttle_igain                         /home/woz/lisa-m-team4938/paparazzi/var/ECE_2012/ap/firmwares/fixedwing/guidance/guidance_v.o
v_ctl_auto_throttle_loiter_trim                   /home/woz/lisa-m-team4938/paparazzi/var/ECE_2012/ap/firmwares/fixedwing/stabilization/stabilization_attitude.o
v_ctl_auto_throttle_nominal_cruise_throttle       /home/woz/lisa-m-team4938/paparazzi/var/ECE_2012/ap/firmwares/fixedwing/guidance/guidance_v.o
                                                  /home/woz/lisa-m-team4938/paparazzi/var/ECE_2012/ap/firmwares/fixedwing/stabilization/stabilization_attitude.o
v_ctl_auto_throttle_pgain                         /home/woz/lisa-m-team4938/paparazzi/var/ECE_2012/ap/firmwares/fixedwing/guidance/guidance_v.o
v_ctl_auto_throttle_pitch_of_vz_dgain             /home/woz/lisa-m-team4938/paparazzi/var/ECE_2012/ap/firmwares/fixedwing/guidance/guidance_v.o
v_ctl_auto_throttle_pitch_of_vz_pgain             /home/woz/lisa-m-team4938/paparazzi/var/ECE_2012/ap/firmwares/fixedwing/guidance/guidance_v.o
v_ctl_auto_throttle_submode                       /home/woz/lisa-m-team4938/paparazzi/var/ECE_2012/ap/firmwares/fixedwing/guidance/guidance_v.o
                                                  /home/woz/lisa-m-team4938/paparazzi/var/ECE_2012/ap/subsystems/nav.o
                                                  /home/woz/lisa-m-team4938/paparazzi/var/ECE_2012/ap/firmwares/fixedwing/main_ap.o
v_ctl_auto_throttle_sum_err                       /home/woz/lisa-m-team4938/paparazzi/var/ECE_2012/ap/firmwares/fixedwing/guidance/guidance_v.o
                                                  /home/woz/lisa-m-team4938/paparazzi/var/ECE_2012/ap/firmwares/fixedwing/main_ap.o
v_ctl_climb_loop                                  /home/woz/lisa-m-team4938/paparazzi/var/ECE_2012/ap/firmwares/fixedwing/guidance/guidance_v.o
                                                  /home/woz/lisa-m-team4938/paparazzi/var/ECE_2012/ap/firmwares/fixedwing/main_ap.o
v_ctl_climb_mode                                  /home/woz/lisa-m-team4938/paparazzi/var/ECE_2012/ap/firmwares/fixedwing/guidance/guidance_v.o
                                                  /home/woz/lisa-m-team4938/paparazzi/var/ECE_2012/ap/subsystems/navigation/nav_line.o
                                                  /home/woz/lisa-m-team4938/paparazzi/var/ECE_2012/ap/subsystems/navigation/nav_survey_rectangle.o
                                                  /home/woz/lisa-m-team4938/paparazzi/var/ECE_2012/ap/subsystems/nav.o
v_ctl_climb_setpoint                              /home/woz/lisa-m-team4938/paparazzi/var/ECE_2012/ap/firmwares/fixedwing/guidance/guidance_v.o
                                                  /home/woz/lisa-m-team4938/paparazzi/var/ECE_2012/ap/firmwares/fixedwing/main_ap.o
v_ctl_init                                        /home/woz/lisa-m-team4938/paparazzi/var/ECE_2012/ap/firmwares/fixedwing/guidance/guidance_v.o
                                                  /home/woz/lisa-m-team4938/paparazzi/var/ECE_2012/ap/firmwares/fixedwing/main_ap.o
v_ctl_mode                                        /home/woz/lisa-m-team4938/paparazzi/var/ECE_2012/ap/firmwares/fixedwing/guidance/guidance_v.o
                                                  /home/woz/lisa-m-team4938/paparazzi/var/ECE_2012/ap/subsystems/navigation/nav_line.o
                                                  /home/woz/lisa-m-team4938/paparazzi/var/ECE_2012/ap/subsystems/navigation/nav_survey_rectangle.o
                                                  /home/woz/lisa-m-team4938/paparazzi/var/ECE_2012/ap/subsystems/nav.o
                                                  /home/woz/lisa-m-team4938/paparazzi/var/ECE_2012/ap/firmwares/fixedwing/main_ap.o
v_ctl_throttle_setpoint                           /home/woz/lisa-m-team4938/paparazzi/var/ECE_2012/ap/firmwares/fixedwing/guidance/guidance_v.o
                                                  /home/woz/lisa-m-team4938/paparazzi/var/ECE_2012/ap/firmwares/fixedwing/stabilization/stabilization_attitude.o
                                                  /home/woz/lisa-m-team4938/paparazzi/var/ECE_2012/ap/firmwares/fixedwing/main_ap.o
v_ctl_throttle_slew                               /home/woz/lisa-m-team4938/paparazzi/var/ECE_2012/ap/firmwares/fixedwing/guidance/guidance_v.o
                                                  /home/woz/lisa-m-team4938/paparazzi/var/ECE_2012/ap/firmwares/fixedwing/main_ap.o
v_ctl_throttle_slewed                             /home/woz/lisa-m-team4938/paparazzi/var/ECE_2012/ap/firmwares/fixedwing/guidance/guidance_v.o
                                                  /home/woz/lisa-m-team4938/paparazzi/var/ECE_2012/ap/firmwares/fixedwing/main_ap.o
vector_table                                      /home/woz/lisa-m-team4938/paparazzi/var/ECE_2012/ap/arch/stm32/stm32_vector_table.o
vsupply                                           /home/woz/lisa-m-team4938/paparazzi/var/ECE_2012/ap/firmwares/fixedwing/main_ap.o
waypoints                                         /home/woz/lisa-m-team4938/paparazzi/var/ECE_2012/ap/subsystems/nav.o
                                                  /home/woz/lisa-m-team4938/paparazzi/var/ECE_2012/ap/subsystems/navigation/nav_line.o
                                                  /home/woz/lisa-m-team4938/paparazzi/var/ECE_2012/ap/subsystems/navigation/nav_survey_rectangle.o
                                                  /home/woz/lisa-m-team4938/paparazzi/var/ECE_2012/ap/firmwares/fixedwing/datalink.o
                                                  /home/woz/lisa-m-team4938/paparazzi/var/ECE_2012/ap/firmwares/fixedwing/main_ap.o
wind_east                                         /home/woz/lisa-m-team4938/paparazzi/var/ECE_2012/ap/./estimator.o
                                                  /home/woz/lisa-m-team4938/paparazzi/var/ECE_2012/ap/firmwares/fixedwing/datalink.o
wind_north                                        /home/woz/lisa-m-team4938/paparazzi/var/ECE_2012/ap/./estimator.o
                                                  /home/woz/lisa-m-team4938/paparazzi/var/ECE_2012/ap/firmwares/fixedwing/datalink.o
