   1              		.syntax unified
   2              		.cpu cortex-m3
   3              		.fpu softvfp
   4              		.eabi_attribute 20, 1
   5              		.eabi_attribute 21, 1
   6              		.eabi_attribute 23, 3
   7              		.eabi_attribute 24, 1
   8              		.eabi_attribute 25, 1
   9              		.eabi_attribute 26, 1
  10              		.eabi_attribute 30, 4
  11              		.eabi_attribute 18, 4
  12              		.thumb
  13              		.file	"main_ap.c"
  21              	.Ltext0:
  22              		.cfi_sections	.debug_frame
  23              		.section	.text.on_ahrs_event,"ax",%progbits
  24              		.align	1
  25              		.thumb
  26              		.thumb_func
  28              	on_ahrs_event:
  29              	.LFB58:
  30              		.file 1 "firmwares/fixedwing/main_ap.c"
   1:firmwares/fixedwing/main_ap.c **** /*
   2:firmwares/fixedwing/main_ap.c ****  * $Id$
   3:firmwares/fixedwing/main_ap.c ****  *
   4:firmwares/fixedwing/main_ap.c ****  * Copyright (C) 2003-2010  The Paparazzi Team
   5:firmwares/fixedwing/main_ap.c ****  *
   6:firmwares/fixedwing/main_ap.c ****  * This file is part of paparazzi.
   7:firmwares/fixedwing/main_ap.c ****  *
   8:firmwares/fixedwing/main_ap.c ****  * paparazzi is free software; you can redistribute it and/or modify
   9:firmwares/fixedwing/main_ap.c ****  * it under the terms of the GNU General Public License as published by
  10:firmwares/fixedwing/main_ap.c ****  * the Free Software Foundation; either version 2, or (at your option)
  11:firmwares/fixedwing/main_ap.c ****  * any later version.
  12:firmwares/fixedwing/main_ap.c ****  *
  13:firmwares/fixedwing/main_ap.c ****  * paparazzi is distributed in the hope that it will be useful,
  14:firmwares/fixedwing/main_ap.c ****  * but WITHOUT ANY WARRANTY; without even the implied warranty of
  15:firmwares/fixedwing/main_ap.c ****  * MERCHANTABILITY or FITNESS FOR A PARTICULAR PURPOSE.  See the
  16:firmwares/fixedwing/main_ap.c ****  * GNU General Public License for more details.
  17:firmwares/fixedwing/main_ap.c ****  *
  18:firmwares/fixedwing/main_ap.c ****  * You should have received a copy of the GNU General Public License
  19:firmwares/fixedwing/main_ap.c ****  * along with paparazzi; see the file COPYING.  If not, write to
  20:firmwares/fixedwing/main_ap.c ****  * the Free Software Foundation, 59 Temple Place - Suite 330,
  21:firmwares/fixedwing/main_ap.c ****  * Boston, MA 02111-1307, USA.
  22:firmwares/fixedwing/main_ap.c ****  *
  23:firmwares/fixedwing/main_ap.c ****  */
  24:firmwares/fixedwing/main_ap.c **** 
  25:firmwares/fixedwing/main_ap.c **** /** \file main_ap.c
  26:firmwares/fixedwing/main_ap.c ****  *  \brief AP ( AutoPilot ) process
  27:firmwares/fixedwing/main_ap.c ****  *
  28:firmwares/fixedwing/main_ap.c ****  *   This process is reponsible for the collecting the different sensors data, fusing them to obtai
  29:firmwares/fixedwing/main_ap.c ****  * aircraft attitude and running the different control loops
  30:firmwares/fixedwing/main_ap.c ****  */
  31:firmwares/fixedwing/main_ap.c **** 
  32:firmwares/fixedwing/main_ap.c **** #define MODULES_C
  33:firmwares/fixedwing/main_ap.c **** 
  34:firmwares/fixedwing/main_ap.c **** #include <math.h>
  35:firmwares/fixedwing/main_ap.c **** 
  36:firmwares/fixedwing/main_ap.c **** #include "firmwares/fixedwing/main_ap.h"
  37:firmwares/fixedwing/main_ap.c **** #include "mcu.h"
  38:firmwares/fixedwing/main_ap.c **** 
  39:firmwares/fixedwing/main_ap.c **** #include "firmwares/fixedwing/stabilization/stabilization_attitude.h"
  40:firmwares/fixedwing/main_ap.c **** #include "firmwares/fixedwing/guidance/guidance_v.h"
  41:firmwares/fixedwing/main_ap.c **** #include "subsystems/gps.h"
  42:firmwares/fixedwing/main_ap.c **** #include "gyro.h"
  43:firmwares/fixedwing/main_ap.c **** #include "ap_downlink.h"
  44:firmwares/fixedwing/main_ap.c **** #include "subsystems/nav.h"
  45:firmwares/fixedwing/main_ap.c **** #include "firmwares/fixedwing/autopilot.h"
  46:firmwares/fixedwing/main_ap.c **** #include "estimator.h"
  47:firmwares/fixedwing/main_ap.c **** #include "generated/settings.h"
  48:firmwares/fixedwing/main_ap.c **** #include "link_mcu.h"
  49:firmwares/fixedwing/main_ap.c **** #include "sys_time.h"
  50:firmwares/fixedwing/main_ap.c **** #include "generated/flight_plan.h"
  51:firmwares/fixedwing/main_ap.c **** #include "datalink.h"
  52:firmwares/fixedwing/main_ap.c **** #include "subsystems/settings.h"
  53:firmwares/fixedwing/main_ap.c **** #include "xbee.h"
  54:firmwares/fixedwing/main_ap.c **** 
  55:firmwares/fixedwing/main_ap.c **** #include "gpio.h"
  56:firmwares/fixedwing/main_ap.c **** 
  57:firmwares/fixedwing/main_ap.c **** #if defined RADIO_CONTROL || defined RADIO_CONTROL_AUTO1
  58:firmwares/fixedwing/main_ap.c **** #include "rc_settings.h"
  59:firmwares/fixedwing/main_ap.c **** #endif
  60:firmwares/fixedwing/main_ap.c **** 
  61:firmwares/fixedwing/main_ap.c **** 
  62:firmwares/fixedwing/main_ap.c **** 
  63:firmwares/fixedwing/main_ap.c **** #ifdef TRAFFIC_INFO
  64:firmwares/fixedwing/main_ap.c **** #include "subsystems/navigation/traffic_info.h"
  65:firmwares/fixedwing/main_ap.c **** #endif
  66:firmwares/fixedwing/main_ap.c **** 
  67:firmwares/fixedwing/main_ap.c **** 
  68:firmwares/fixedwing/main_ap.c **** #ifdef USE_IMU
  69:firmwares/fixedwing/main_ap.c **** #include "subsystems/imu.h"
  70:firmwares/fixedwing/main_ap.c **** #endif
  71:firmwares/fixedwing/main_ap.c **** #ifdef USE_AHRS
  72:firmwares/fixedwing/main_ap.c **** #include "subsystems/ahrs.h"
  73:firmwares/fixedwing/main_ap.c **** #endif
  74:firmwares/fixedwing/main_ap.c **** #ifdef USE_AHRS_ALIGNER
  75:firmwares/fixedwing/main_ap.c **** #include "subsystems/ahrs/ahrs_aligner.h"
  76:firmwares/fixedwing/main_ap.c **** #endif
  77:firmwares/fixedwing/main_ap.c **** 
  78:firmwares/fixedwing/main_ap.c **** #ifdef USE_AHRS
  79:firmwares/fixedwing/main_ap.c **** #ifdef USE_IMU
  80:firmwares/fixedwing/main_ap.c **** static inline void on_gyro_event( void );
  81:firmwares/fixedwing/main_ap.c **** static inline void on_accel_event( void );
  82:firmwares/fixedwing/main_ap.c **** static inline void on_mag_event( void );
  83:firmwares/fixedwing/main_ap.c **** volatile uint8_t ahrs_timeout_counter = 0;
  84:firmwares/fixedwing/main_ap.c **** #else
  85:firmwares/fixedwing/main_ap.c **** static inline void on_ahrs_event(void);
  86:firmwares/fixedwing/main_ap.c **** #endif // USE_IMU
  87:firmwares/fixedwing/main_ap.c **** #endif // USE_AHRS
  88:firmwares/fixedwing/main_ap.c **** 
  89:firmwares/fixedwing/main_ap.c **** #ifdef USE_GPS
  90:firmwares/fixedwing/main_ap.c **** static inline void on_gps_solution( void );
  91:firmwares/fixedwing/main_ap.c **** #endif
  92:firmwares/fixedwing/main_ap.c **** 
  93:firmwares/fixedwing/main_ap.c **** #if ! defined CATASTROPHIC_BAT_LEVEL && defined LOW_BATTERY
  94:firmwares/fixedwing/main_ap.c **** #warning "LOW_BATTERY deprecated. Renamed into CATASTROPHIC_BAT_LEVEL (in airframe file)"
  95:firmwares/fixedwing/main_ap.c **** #define CATASTROPHIC_BAT_LEVEL LOW_BATTERY
  96:firmwares/fixedwing/main_ap.c **** #endif
  97:firmwares/fixedwing/main_ap.c **** 
  98:firmwares/fixedwing/main_ap.c **** #define LOW_BATTERY_DECIVOLT (CATASTROPHIC_BAT_LEVEL*10)
  99:firmwares/fixedwing/main_ap.c **** 
 100:firmwares/fixedwing/main_ap.c **** #include "generated/modules.h"
 101:firmwares/fixedwing/main_ap.c **** 
 102:firmwares/fixedwing/main_ap.c **** /** FIXME: should be in rc_settings but required by telemetry (ap_downlink.h)*/
 103:firmwares/fixedwing/main_ap.c **** uint8_t rc_settings_mode = 0;
 104:firmwares/fixedwing/main_ap.c **** 
 105:firmwares/fixedwing/main_ap.c **** /** Define minimal speed for takeoff in m/s */
 106:firmwares/fixedwing/main_ap.c **** #define MIN_SPEED_FOR_TAKEOFF 5.
 107:firmwares/fixedwing/main_ap.c **** 
 108:firmwares/fixedwing/main_ap.c **** bool_t power_switch;
 109:firmwares/fixedwing/main_ap.c **** uint8_t fatal_error_nb = 0;
 110:firmwares/fixedwing/main_ap.c **** static const uint16_t version = 1;
 111:firmwares/fixedwing/main_ap.c **** 
 112:firmwares/fixedwing/main_ap.c **** uint8_t pprz_mode = PPRZ_MODE_AUTO2;
 113:firmwares/fixedwing/main_ap.c **** uint8_t lateral_mode = LATERAL_MODE_MANUAL;
 114:firmwares/fixedwing/main_ap.c **** 
 115:firmwares/fixedwing/main_ap.c **** static uint8_t  mcu1_status;
 116:firmwares/fixedwing/main_ap.c **** 
 117:firmwares/fixedwing/main_ap.c **** #if defined RADIO_CONTROL || defined RADIO_CONTROL_AUTO1
 118:firmwares/fixedwing/main_ap.c **** static uint8_t  mcu1_ppm_cpt;
 119:firmwares/fixedwing/main_ap.c **** #endif
 120:firmwares/fixedwing/main_ap.c **** 
 121:firmwares/fixedwing/main_ap.c **** bool_t kill_throttle = FALSE;
 122:firmwares/fixedwing/main_ap.c **** 
 123:firmwares/fixedwing/main_ap.c **** float slider_1_val, slider_2_val;
 124:firmwares/fixedwing/main_ap.c **** 
 125:firmwares/fixedwing/main_ap.c **** bool_t launch = FALSE;
 126:firmwares/fixedwing/main_ap.c **** 
 127:firmwares/fixedwing/main_ap.c **** uint8_t vsupply;	// deciVolt
 128:firmwares/fixedwing/main_ap.c **** static int32_t current;	// milliAmpere
 129:firmwares/fixedwing/main_ap.c **** 
 130:firmwares/fixedwing/main_ap.c **** float energy;       // Fuel consumption (mAh)
 131:firmwares/fixedwing/main_ap.c **** 
 132:firmwares/fixedwing/main_ap.c **** bool_t gps_lost = FALSE;
 133:firmwares/fixedwing/main_ap.c **** 
 134:firmwares/fixedwing/main_ap.c **** 
 135:firmwares/fixedwing/main_ap.c **** #define Min(x, y) (x < y ? x : y)
 136:firmwares/fixedwing/main_ap.c **** #define Max(x, y) (x > y ? x : y)
 137:firmwares/fixedwing/main_ap.c **** 
 138:firmwares/fixedwing/main_ap.c **** /** \brief Update paparazzi mode
 139:firmwares/fixedwing/main_ap.c ****  */
 140:firmwares/fixedwing/main_ap.c **** #if defined RADIO_CONTROL || defined RADIO_CONTROL_AUTO1
 141:firmwares/fixedwing/main_ap.c **** static inline uint8_t pprz_mode_update( void ) {
 142:firmwares/fixedwing/main_ap.c ****   if ((pprz_mode != PPRZ_MODE_HOME &&
 143:firmwares/fixedwing/main_ap.c ****        pprz_mode != PPRZ_MODE_GPS_OUT_OF_ORDER)
 144:firmwares/fixedwing/main_ap.c **** #ifdef UNLOCKED_HOME_MODE
 145:firmwares/fixedwing/main_ap.c ****       || TRUE
 146:firmwares/fixedwing/main_ap.c **** #endif
 147:firmwares/fixedwing/main_ap.c ****       ) {
 148:firmwares/fixedwing/main_ap.c ****     return ModeUpdate(pprz_mode, PPRZ_MODE_OF_PULSE(fbw_state->channels[RADIO_MODE], fbw_state->sta
 149:firmwares/fixedwing/main_ap.c ****   } else
 150:firmwares/fixedwing/main_ap.c ****     return FALSE;
 151:firmwares/fixedwing/main_ap.c **** }
 152:firmwares/fixedwing/main_ap.c **** #else // not RADIO_CONTROL
 153:firmwares/fixedwing/main_ap.c **** static inline uint8_t pprz_mode_update( void ) {
 154:firmwares/fixedwing/main_ap.c ****   return FALSE;
 155:firmwares/fixedwing/main_ap.c **** }
 156:firmwares/fixedwing/main_ap.c **** #endif
 157:firmwares/fixedwing/main_ap.c **** 
 158:firmwares/fixedwing/main_ap.c **** static inline uint8_t mcu1_status_update( void ) {
 159:firmwares/fixedwing/main_ap.c ****   uint8_t new_status = fbw_state->status;
 160:firmwares/fixedwing/main_ap.c ****   if (mcu1_status != new_status) {
 161:firmwares/fixedwing/main_ap.c ****     bool_t changed = ((mcu1_status&MASK_FBW_CHANGED) != (new_status&MASK_FBW_CHANGED));
 162:firmwares/fixedwing/main_ap.c ****     mcu1_status = new_status;
 163:firmwares/fixedwing/main_ap.c ****     return changed;
 164:firmwares/fixedwing/main_ap.c ****   }
 165:firmwares/fixedwing/main_ap.c ****   return FALSE;
 166:firmwares/fixedwing/main_ap.c **** }
 167:firmwares/fixedwing/main_ap.c **** 
 168:firmwares/fixedwing/main_ap.c **** 
 169:firmwares/fixedwing/main_ap.c **** /** \brief Send back uncontrolled channels
 170:firmwares/fixedwing/main_ap.c ****  */
 171:firmwares/fixedwing/main_ap.c **** static inline void copy_from_to_fbw ( void ) {
 172:firmwares/fixedwing/main_ap.c **** #ifdef SetAutoCommandsFromRC
 173:firmwares/fixedwing/main_ap.c ****   SetAutoCommandsFromRC(ap_state->commands, fbw_state->channels);
 174:firmwares/fixedwing/main_ap.c **** #elif defined RADIO_YAW && defined COMMAND_YAW
 175:firmwares/fixedwing/main_ap.c ****   ap_state->commands[COMMAND_YAW] = fbw_state->channels[RADIO_YAW];
 176:firmwares/fixedwing/main_ap.c **** #endif
 177:firmwares/fixedwing/main_ap.c **** }
 178:firmwares/fixedwing/main_ap.c **** 
 179:firmwares/fixedwing/main_ap.c **** 
 180:firmwares/fixedwing/main_ap.c **** 
 181:firmwares/fixedwing/main_ap.c **** /*
 182:firmwares/fixedwing/main_ap.c ****    called at 20Hz.
 183:firmwares/fixedwing/main_ap.c ****    sends a serie of initialisation messages followed by a stream of periodic ones
 184:firmwares/fixedwing/main_ap.c **** */
 185:firmwares/fixedwing/main_ap.c **** 
 186:firmwares/fixedwing/main_ap.c **** /** Define number of message at initialisation */
 187:firmwares/fixedwing/main_ap.c **** #define INIT_MSG_NB 2
 188:firmwares/fixedwing/main_ap.c **** 
 189:firmwares/fixedwing/main_ap.c **** uint8_t ac_ident = AC_ID;
 190:firmwares/fixedwing/main_ap.c **** 
 191:firmwares/fixedwing/main_ap.c **** /** \brief Send a serie of initialisation messages followed by a stream of periodic ones
 192:firmwares/fixedwing/main_ap.c ****  *
 193:firmwares/fixedwing/main_ap.c ****  * Called at 60Hz.
 194:firmwares/fixedwing/main_ap.c ****  */
 195:firmwares/fixedwing/main_ap.c **** static inline void reporting_task( void ) {
 196:firmwares/fixedwing/main_ap.c ****   static uint8_t boot = TRUE;
 197:firmwares/fixedwing/main_ap.c **** 
 198:firmwares/fixedwing/main_ap.c ****   /** initialisation phase during boot */
 199:firmwares/fixedwing/main_ap.c ****   if (boot) {
 200:firmwares/fixedwing/main_ap.c ****     DOWNLINK_SEND_BOOT(DefaultChannel, &version);
 201:firmwares/fixedwing/main_ap.c ****     boot = FALSE;
 202:firmwares/fixedwing/main_ap.c ****   }
 203:firmwares/fixedwing/main_ap.c ****   /** then report periodicly */
 204:firmwares/fixedwing/main_ap.c ****   else {
 205:firmwares/fixedwing/main_ap.c ****     PeriodicSendAp(DefaultChannel);
 206:firmwares/fixedwing/main_ap.c ****   }
 207:firmwares/fixedwing/main_ap.c **** }
 208:firmwares/fixedwing/main_ap.c **** 
 209:firmwares/fixedwing/main_ap.c **** #ifndef RC_LOST_MODE
 210:firmwares/fixedwing/main_ap.c **** #define RC_LOST_MODE PPRZ_MODE_HOME
 211:firmwares/fixedwing/main_ap.c **** #endif
 212:firmwares/fixedwing/main_ap.c **** 
 213:firmwares/fixedwing/main_ap.c **** /** \brief Function to be called when a message from FBW is available */
 214:firmwares/fixedwing/main_ap.c **** static inline void telecommand_task( void ) {
 215:firmwares/fixedwing/main_ap.c ****   uint8_t mode_changed = FALSE;
 216:firmwares/fixedwing/main_ap.c ****   copy_from_to_fbw();
 217:firmwares/fixedwing/main_ap.c **** 
 218:firmwares/fixedwing/main_ap.c ****   uint8_t really_lost = bit_is_set(fbw_state->status, STATUS_RADIO_REALLY_LOST) && (pprz_mode == PP
 219:firmwares/fixedwing/main_ap.c ****   if (pprz_mode != PPRZ_MODE_HOME && pprz_mode != PPRZ_MODE_GPS_OUT_OF_ORDER && launch) {
 220:firmwares/fixedwing/main_ap.c ****     if  (too_far_from_home) {
 221:firmwares/fixedwing/main_ap.c ****       pprz_mode = PPRZ_MODE_HOME;
 222:firmwares/fixedwing/main_ap.c ****       mode_changed = TRUE;
 223:firmwares/fixedwing/main_ap.c ****     }
 224:firmwares/fixedwing/main_ap.c ****     if  (really_lost) {
 225:firmwares/fixedwing/main_ap.c ****       pprz_mode = RC_LOST_MODE;
 226:firmwares/fixedwing/main_ap.c ****       mode_changed = TRUE;
 227:firmwares/fixedwing/main_ap.c ****     }
 228:firmwares/fixedwing/main_ap.c ****   }
 229:firmwares/fixedwing/main_ap.c ****   if (bit_is_set(fbw_state->status, AVERAGED_CHANNELS_SENT)) {
 230:firmwares/fixedwing/main_ap.c ****     bool_t pprz_mode_changed = pprz_mode_update();
 231:firmwares/fixedwing/main_ap.c ****     mode_changed |= pprz_mode_changed;
 232:firmwares/fixedwing/main_ap.c **** #if defined RADIO_CALIB && defined RADIO_CONTROL_SETTINGS
 233:firmwares/fixedwing/main_ap.c ****     bool_t calib_mode_changed = RcSettingsModeUpdate(fbw_state->channels);
 234:firmwares/fixedwing/main_ap.c ****     rc_settings(calib_mode_changed || pprz_mode_changed);
 235:firmwares/fixedwing/main_ap.c ****     mode_changed |= calib_mode_changed;
 236:firmwares/fixedwing/main_ap.c **** #endif
 237:firmwares/fixedwing/main_ap.c ****   }
 238:firmwares/fixedwing/main_ap.c ****   mode_changed |= mcu1_status_update();
 239:firmwares/fixedwing/main_ap.c ****   if ( mode_changed )
 240:firmwares/fixedwing/main_ap.c ****     PERIODIC_SEND_PPRZ_MODE(DefaultChannel);
 241:firmwares/fixedwing/main_ap.c **** 
 242:firmwares/fixedwing/main_ap.c **** #if defined RADIO_CONTROL || defined RADIO_CONTROL_AUTO1
 243:firmwares/fixedwing/main_ap.c ****   /** In AUTO1 mode, compute roll setpoint and pitch setpoint from
 244:firmwares/fixedwing/main_ap.c ****    * \a RADIO_ROLL and \a RADIO_PITCH \n
 245:firmwares/fixedwing/main_ap.c ****    */
 246:firmwares/fixedwing/main_ap.c ****   if (pprz_mode == PPRZ_MODE_AUTO1) {
 247:firmwares/fixedwing/main_ap.c ****     /** Roll is bounded between [-AUTO1_MAX_ROLL;AUTO1_MAX_ROLL] */
 248:firmwares/fixedwing/main_ap.c ****     h_ctl_roll_setpoint = FLOAT_OF_PPRZ(fbw_state->channels[RADIO_ROLL], 0., -AUTO1_MAX_ROLL);
 249:firmwares/fixedwing/main_ap.c **** 
 250:firmwares/fixedwing/main_ap.c ****     /** Pitch is bounded between [-AUTO1_MAX_PITCH;AUTO1_MAX_PITCH] */
 251:firmwares/fixedwing/main_ap.c ****     h_ctl_pitch_setpoint = FLOAT_OF_PPRZ(fbw_state->channels[RADIO_PITCH], 0., AUTO1_MAX_PITCH);
 252:firmwares/fixedwing/main_ap.c ****   } /** Else asynchronously set by \a h_ctl_course_loop() */
 253:firmwares/fixedwing/main_ap.c **** 
 254:firmwares/fixedwing/main_ap.c ****   /** In AUTO1, throttle comes from RADIO_THROTTLE
 255:firmwares/fixedwing/main_ap.c ****       In MANUAL, the value is copied to get it in the telemetry */
 256:firmwares/fixedwing/main_ap.c ****   if (pprz_mode == PPRZ_MODE_MANUAL || pprz_mode == PPRZ_MODE_AUTO1) {
 257:firmwares/fixedwing/main_ap.c ****     v_ctl_throttle_setpoint = fbw_state->channels[RADIO_THROTTLE];
 258:firmwares/fixedwing/main_ap.c ****   }
 259:firmwares/fixedwing/main_ap.c ****   /** else asynchronously set by v_ctl_climb_loop(); */
 260:firmwares/fixedwing/main_ap.c **** 
 261:firmwares/fixedwing/main_ap.c ****   mcu1_ppm_cpt = fbw_state->ppm_cpt;
 262:firmwares/fixedwing/main_ap.c **** #endif // RADIO_CONTROL
 263:firmwares/fixedwing/main_ap.c **** 
 264:firmwares/fixedwing/main_ap.c **** 
 265:firmwares/fixedwing/main_ap.c ****   vsupply = fbw_state->vsupply;
 266:firmwares/fixedwing/main_ap.c ****   current = fbw_state->current;
 267:firmwares/fixedwing/main_ap.c **** 
 268:firmwares/fixedwing/main_ap.c **** #ifdef RADIO_CONTROL
 269:firmwares/fixedwing/main_ap.c ****   if (!estimator_flight_time) {
 270:firmwares/fixedwing/main_ap.c ****     if (pprz_mode == PPRZ_MODE_AUTO2 && fbw_state->channels[RADIO_THROTTLE] > THROTTLE_THRESHOLD_TA
 271:firmwares/fixedwing/main_ap.c ****       launch = TRUE;
 272:firmwares/fixedwing/main_ap.c ****     }
 273:firmwares/fixedwing/main_ap.c ****   }
 274:firmwares/fixedwing/main_ap.c **** #endif
 275:firmwares/fixedwing/main_ap.c **** }
 276:firmwares/fixedwing/main_ap.c **** 
 277:firmwares/fixedwing/main_ap.c **** 
 278:firmwares/fixedwing/main_ap.c **** #ifdef FAILSAFE_DELAY_WITHOUT_GPS
 279:firmwares/fixedwing/main_ap.c **** #define GpsTimeoutError (cpu_time_sec - gps.last_fix_time > FAILSAFE_DELAY_WITHOUT_GPS)
 280:firmwares/fixedwing/main_ap.c **** #endif
 281:firmwares/fixedwing/main_ap.c **** 
 282:firmwares/fixedwing/main_ap.c **** /** \fn void navigation_task( void )
 283:firmwares/fixedwing/main_ap.c ****  *  \brief Compute desired_course
 284:firmwares/fixedwing/main_ap.c ****  */
 285:firmwares/fixedwing/main_ap.c **** static void navigation_task( void ) {
 286:firmwares/fixedwing/main_ap.c **** #if defined FAILSAFE_DELAY_WITHOUT_GPS
 287:firmwares/fixedwing/main_ap.c ****   /** This section is used for the failsafe of GPS */
 288:firmwares/fixedwing/main_ap.c ****   static uint8_t last_pprz_mode;
 289:firmwares/fixedwing/main_ap.c **** 
 290:firmwares/fixedwing/main_ap.c ****   /** If aircraft is launched and is in autonomus mode, go into
 291:firmwares/fixedwing/main_ap.c ****       PPRZ_MODE_GPS_OUT_OF_ORDER mode (Failsafe) if we lost the GPS */
 292:firmwares/fixedwing/main_ap.c ****   if (launch) {
 293:firmwares/fixedwing/main_ap.c ****     if (GpsTimeoutError) {
 294:firmwares/fixedwing/main_ap.c ****       if (pprz_mode == PPRZ_MODE_AUTO2 || pprz_mode == PPRZ_MODE_HOME) {
 295:firmwares/fixedwing/main_ap.c ****         last_pprz_mode = pprz_mode;
 296:firmwares/fixedwing/main_ap.c ****         pprz_mode = PPRZ_MODE_GPS_OUT_OF_ORDER;
 297:firmwares/fixedwing/main_ap.c ****         PERIODIC_SEND_PPRZ_MODE(DefaultChannel);
 298:firmwares/fixedwing/main_ap.c ****         gps_lost = TRUE;
 299:firmwares/fixedwing/main_ap.c ****       }
 300:firmwares/fixedwing/main_ap.c ****     } else if (gps_lost) { /* GPS is ok */
 301:firmwares/fixedwing/main_ap.c ****       /** If aircraft was in failsafe mode, come back in previous mode */
 302:firmwares/fixedwing/main_ap.c ****       pprz_mode = last_pprz_mode;
 303:firmwares/fixedwing/main_ap.c ****       gps_lost = FALSE;
 304:firmwares/fixedwing/main_ap.c **** 
 305:firmwares/fixedwing/main_ap.c ****       PERIODIC_SEND_PPRZ_MODE(DefaultChannel);
 306:firmwares/fixedwing/main_ap.c ****     }
 307:firmwares/fixedwing/main_ap.c ****   }
 308:firmwares/fixedwing/main_ap.c **** #endif /* GPS && FAILSAFE_DELAY_WITHOUT_GPS */
 309:firmwares/fixedwing/main_ap.c **** 
 310:firmwares/fixedwing/main_ap.c ****   common_nav_periodic_task_4Hz();
 311:firmwares/fixedwing/main_ap.c ****   if (pprz_mode == PPRZ_MODE_HOME)
 312:firmwares/fixedwing/main_ap.c ****     nav_home();
 313:firmwares/fixedwing/main_ap.c ****   else if (pprz_mode == PPRZ_MODE_GPS_OUT_OF_ORDER)
 314:firmwares/fixedwing/main_ap.c ****     nav_without_gps();
 315:firmwares/fixedwing/main_ap.c ****   else
 316:firmwares/fixedwing/main_ap.c ****     nav_periodic_task();
 317:firmwares/fixedwing/main_ap.c **** 
 318:firmwares/fixedwing/main_ap.c **** #ifdef TCAS
 319:firmwares/fixedwing/main_ap.c ****   CallTCAS();
 320:firmwares/fixedwing/main_ap.c **** #endif
 321:firmwares/fixedwing/main_ap.c **** 
 322:firmwares/fixedwing/main_ap.c **** #ifndef PERIOD_NAVIGATION_DefaultChannel_0 // If not sent periodically (in default 0 mode)
 323:firmwares/fixedwing/main_ap.c ****   SEND_NAVIGATION(DefaultChannel);
 324:firmwares/fixedwing/main_ap.c **** #endif
 325:firmwares/fixedwing/main_ap.c **** 
 326:firmwares/fixedwing/main_ap.c ****   SEND_CAM(DefaultChannel);
 327:firmwares/fixedwing/main_ap.c **** 
 328:firmwares/fixedwing/main_ap.c ****   /* The nav task computes only nav_altitude. However, we are interested
 329:firmwares/fixedwing/main_ap.c ****      by desired_altitude (= nav_alt+alt_shift) in any case.
 330:firmwares/fixedwing/main_ap.c ****      So we always run the altitude control loop */
 331:firmwares/fixedwing/main_ap.c ****   if (v_ctl_mode == V_CTL_MODE_AUTO_ALT)
 332:firmwares/fixedwing/main_ap.c ****     v_ctl_altitude_loop();
 333:firmwares/fixedwing/main_ap.c **** 
 334:firmwares/fixedwing/main_ap.c ****   if (pprz_mode == PPRZ_MODE_AUTO2 || pprz_mode == PPRZ_MODE_HOME
 335:firmwares/fixedwing/main_ap.c ****             || pprz_mode == PPRZ_MODE_GPS_OUT_OF_ORDER) {
 336:firmwares/fixedwing/main_ap.c **** #ifdef H_CTL_RATE_LOOP
 337:firmwares/fixedwing/main_ap.c ****     /* Be sure to be in attitude mode, not roll */
 338:firmwares/fixedwing/main_ap.c ****     h_ctl_auto1_rate = FALSE;
 339:firmwares/fixedwing/main_ap.c **** #endif
 340:firmwares/fixedwing/main_ap.c ****     if (lateral_mode >=LATERAL_MODE_COURSE)
 341:firmwares/fixedwing/main_ap.c ****       h_ctl_course_loop(); /* aka compute nav_desired_roll */
 342:firmwares/fixedwing/main_ap.c ****     if (v_ctl_mode >= V_CTL_MODE_AUTO_CLIMB)
 343:firmwares/fixedwing/main_ap.c ****       v_ctl_climb_loop();
 344:firmwares/fixedwing/main_ap.c ****     if (v_ctl_mode == V_CTL_MODE_AUTO_THROTTLE)
 345:firmwares/fixedwing/main_ap.c ****       v_ctl_throttle_setpoint = nav_throttle_setpoint;
 346:firmwares/fixedwing/main_ap.c **** 
 347:firmwares/fixedwing/main_ap.c **** #if defined V_CTL_THROTTLE_IDLE
 348:firmwares/fixedwing/main_ap.c ****     Bound(v_ctl_throttle_setpoint, TRIM_PPRZ(V_CTL_THROTTLE_IDLE*MAX_PPRZ), MAX_PPRZ);
 349:firmwares/fixedwing/main_ap.c **** #endif
 350:firmwares/fixedwing/main_ap.c **** 
 351:firmwares/fixedwing/main_ap.c **** #ifdef V_CTL_POWER_CTL_BAT_NOMINAL
 352:firmwares/fixedwing/main_ap.c ****     if (vsupply > 0.) {
 353:firmwares/fixedwing/main_ap.c ****       v_ctl_throttle_setpoint *= 10. * V_CTL_POWER_CTL_BAT_NOMINAL / (float)vsupply;
 354:firmwares/fixedwing/main_ap.c ****       v_ctl_throttle_setpoint = TRIM_UPPRZ(v_ctl_throttle_setpoint);
 355:firmwares/fixedwing/main_ap.c ****     }
 356:firmwares/fixedwing/main_ap.c **** #endif
 357:firmwares/fixedwing/main_ap.c **** 
 358:firmwares/fixedwing/main_ap.c ****     h_ctl_pitch_setpoint = nav_pitch;
 359:firmwares/fixedwing/main_ap.c ****     Bound(h_ctl_pitch_setpoint, H_CTL_PITCH_MIN_SETPOINT, H_CTL_PITCH_MAX_SETPOINT);
 360:firmwares/fixedwing/main_ap.c ****     if (kill_throttle || (!estimator_flight_time && !launch))
 361:firmwares/fixedwing/main_ap.c ****       v_ctl_throttle_setpoint = 0;
 362:firmwares/fixedwing/main_ap.c ****   }
 363:firmwares/fixedwing/main_ap.c ****   energy += ((float)current) / 3600.0f * 0.25f;	// mAh = mA * dt (4Hz -> hours)
 364:firmwares/fixedwing/main_ap.c **** }
 365:firmwares/fixedwing/main_ap.c **** 
 366:firmwares/fixedwing/main_ap.c **** 
 367:firmwares/fixedwing/main_ap.c **** #ifndef KILL_MODE_DISTANCE
 368:firmwares/fixedwing/main_ap.c **** #define KILL_MODE_DISTANCE (1.5*MAX_DIST_FROM_HOME)
 369:firmwares/fixedwing/main_ap.c **** #endif
 370:firmwares/fixedwing/main_ap.c **** 
 371:firmwares/fixedwing/main_ap.c **** 
 372:firmwares/fixedwing/main_ap.c **** /** Maximum time allowed for low battery level */
 373:firmwares/fixedwing/main_ap.c **** #define LOW_BATTERY_DELAY 5
 374:firmwares/fixedwing/main_ap.c **** 
 375:firmwares/fixedwing/main_ap.c **** /** \fn inline void periodic_task( void )
 376:firmwares/fixedwing/main_ap.c ****  *  \brief Do periodic tasks at 60 Hz
 377:firmwares/fixedwing/main_ap.c ****  */
 378:firmwares/fixedwing/main_ap.c **** /**There are four @@@@@ boucles @@@@@:
 379:firmwares/fixedwing/main_ap.c ****  * - 20 Hz:
 380:firmwares/fixedwing/main_ap.c ****  *   - lets use \a reporting_task at 60 Hz
 381:firmwares/fixedwing/main_ap.c ****  *   - updates estimator of ir with \a ahrs_update_infrared
 382:firmwares/fixedwing/main_ap.c ****  *   - set \a desired_aileron and \a desired_elevator with \a pid_attitude_loop
 383:firmwares/fixedwing/main_ap.c ****  *   - sends to \a fbw \a desired_throttle, \a desired_aileron and
 384:firmwares/fixedwing/main_ap.c ****  *     \a desired_elevator \note \a desired_throttle is set upon GPS
 385:firmwares/fixedwing/main_ap.c ****  *     message reception
 386:firmwares/fixedwing/main_ap.c ****  * - 4 Hz:
 387:firmwares/fixedwing/main_ap.c ****  *   - calls \a estimator_propagate_state
 388:firmwares/fixedwing/main_ap.c ****  *   - do navigation with \a navigation_task
 389:firmwares/fixedwing/main_ap.c ****  *
 390:firmwares/fixedwing/main_ap.c ****  */
 391:firmwares/fixedwing/main_ap.c **** 
 392:firmwares/fixedwing/main_ap.c **** 
 393:firmwares/fixedwing/main_ap.c **** static inline void attitude_loop( void ) {
 394:firmwares/fixedwing/main_ap.c **** 
 395:firmwares/fixedwing/main_ap.c **** #ifdef USE_GYRO
 396:firmwares/fixedwing/main_ap.c ****   gyro_update();
 397:firmwares/fixedwing/main_ap.c **** #endif
 398:firmwares/fixedwing/main_ap.c **** 
 399:firmwares/fixedwing/main_ap.c **** #ifdef USE_INFRARED
 400:firmwares/fixedwing/main_ap.c ****   ahrs_update_infrared();
 401:firmwares/fixedwing/main_ap.c **** #endif /* USE_INFRARED */
 402:firmwares/fixedwing/main_ap.c **** 
 403:firmwares/fixedwing/main_ap.c ****   h_ctl_attitude_loop(); /* Set  h_ctl_aileron_setpoint & h_ctl_elevator_setpoint */
 404:firmwares/fixedwing/main_ap.c ****   v_ctl_throttle_slew();
 405:firmwares/fixedwing/main_ap.c ****   ap_state->commands[COMMAND_THROTTLE] = v_ctl_throttle_slewed;
 406:firmwares/fixedwing/main_ap.c ****   ap_state->commands[COMMAND_ROLL] = h_ctl_aileron_setpoint;
 407:firmwares/fixedwing/main_ap.c **** 
 408:firmwares/fixedwing/main_ap.c ****   ap_state->commands[COMMAND_PITCH] = h_ctl_elevator_setpoint;
 409:firmwares/fixedwing/main_ap.c **** 
 410:firmwares/fixedwing/main_ap.c **** #if defined MCU_SPI_LINK
 411:firmwares/fixedwing/main_ap.c ****   link_mcu_send();
 412:firmwares/fixedwing/main_ap.c **** #elif defined INTER_MCU && defined SINGLE_MCU
 413:firmwares/fixedwing/main_ap.c ****   /**Directly set the flag indicating to FBW that shared buffer is available*/
 414:firmwares/fixedwing/main_ap.c ****   inter_mcu_received_ap = TRUE;
 415:firmwares/fixedwing/main_ap.c **** #endif
 416:firmwares/fixedwing/main_ap.c **** 
 417:firmwares/fixedwing/main_ap.c **** }
 418:firmwares/fixedwing/main_ap.c **** 
 419:firmwares/fixedwing/main_ap.c **** #ifdef USE_AHRS
 420:firmwares/fixedwing/main_ap.c **** #ifdef AHRS_TRIGGERED_ATTITUDE_LOOP
 421:firmwares/fixedwing/main_ap.c **** volatile uint8_t new_ins_attitude = 0;
 422:firmwares/fixedwing/main_ap.c **** #endif
 423:firmwares/fixedwing/main_ap.c **** #endif
 424:firmwares/fixedwing/main_ap.c **** 
 425:firmwares/fixedwing/main_ap.c **** void periodic_task_ap( void ) {
 426:firmwares/fixedwing/main_ap.c **** 
 427:firmwares/fixedwing/main_ap.c ****   static uint8_t _60Hz = 0;
 428:firmwares/fixedwing/main_ap.c ****   static uint8_t _20Hz = 0;
 429:firmwares/fixedwing/main_ap.c ****   static uint8_t _10Hz = 0;
 430:firmwares/fixedwing/main_ap.c ****   static uint8_t _4Hz  = 0;
 431:firmwares/fixedwing/main_ap.c ****   static uint8_t _1Hz  = 0;
 432:firmwares/fixedwing/main_ap.c **** 
 433:firmwares/fixedwing/main_ap.c **** #ifdef USE_IMU
 434:firmwares/fixedwing/main_ap.c ****   // Run at PERIODIC_FREQUENCY (60Hz if not defined)
 435:firmwares/fixedwing/main_ap.c ****   imu_periodic();
 436:firmwares/fixedwing/main_ap.c **** 
 437:firmwares/fixedwing/main_ap.c **** #ifdef USE_AHRS
 438:firmwares/fixedwing/main_ap.c ****   if (ahrs_timeout_counter < 255)
 439:firmwares/fixedwing/main_ap.c ****     ahrs_timeout_counter ++;
 440:firmwares/fixedwing/main_ap.c **** #endif
 441:firmwares/fixedwing/main_ap.c **** 
 442:firmwares/fixedwing/main_ap.c **** #endif // USE_IMU
 443:firmwares/fixedwing/main_ap.c **** 
 444:firmwares/fixedwing/main_ap.c **** #define _check_periodic_freq_ PERIODIC_FREQUENCY % 60
 445:firmwares/fixedwing/main_ap.c **** #if _check_periodic_freq_
 446:firmwares/fixedwing/main_ap.c **** #error Using HighSpeed Periodic: PERIODIC_FREQUENCY has to be a multiple of 60!
 447:firmwares/fixedwing/main_ap.c **** #endif
 448:firmwares/fixedwing/main_ap.c ****   _60Hz++;
 449:firmwares/fixedwing/main_ap.c ****   if (_60Hz >= (PERIODIC_FREQUENCY / 60))
 450:firmwares/fixedwing/main_ap.c ****   {
 451:firmwares/fixedwing/main_ap.c ****     _60Hz = 0;
 452:firmwares/fixedwing/main_ap.c ****   }
 453:firmwares/fixedwing/main_ap.c ****   else
 454:firmwares/fixedwing/main_ap.c ****   {
 455:firmwares/fixedwing/main_ap.c ****     return;
 456:firmwares/fixedwing/main_ap.c ****   }
 457:firmwares/fixedwing/main_ap.c **** 
 458:firmwares/fixedwing/main_ap.c **** 
 459:firmwares/fixedwing/main_ap.c ****   // Rest of the periodic function still runs at 60Hz like always
 460:firmwares/fixedwing/main_ap.c ****   _20Hz++;
 461:firmwares/fixedwing/main_ap.c ****   if (_20Hz>=3) _20Hz=0;
 462:firmwares/fixedwing/main_ap.c ****   _10Hz++;
 463:firmwares/fixedwing/main_ap.c ****   if (_10Hz>=6) _10Hz=0;
 464:firmwares/fixedwing/main_ap.c ****   _4Hz++;
 465:firmwares/fixedwing/main_ap.c ****   if (_4Hz>=15) _4Hz=0;
 466:firmwares/fixedwing/main_ap.c ****   _1Hz++;
 467:firmwares/fixedwing/main_ap.c ****   if (_1Hz>=60) _1Hz=0;
 468:firmwares/fixedwing/main_ap.c **** 
 469:firmwares/fixedwing/main_ap.c ****   reporting_task();
 470:firmwares/fixedwing/main_ap.c **** 
 471:firmwares/fixedwing/main_ap.c ****   if (!_1Hz) {
 472:firmwares/fixedwing/main_ap.c ****     if (estimator_flight_time) estimator_flight_time++;
 473:firmwares/fixedwing/main_ap.c **** #if defined DATALINK || defined SITL
 474:firmwares/fixedwing/main_ap.c ****     datalink_time++;
 475:firmwares/fixedwing/main_ap.c **** #endif
 476:firmwares/fixedwing/main_ap.c **** 
 477:firmwares/fixedwing/main_ap.c ****     static uint8_t t = 0;
 478:firmwares/fixedwing/main_ap.c ****     if (vsupply < LOW_BATTERY_DECIVOLT) t++; else t = 0;
 479:firmwares/fixedwing/main_ap.c ****     kill_throttle |= (t >= LOW_BATTERY_DELAY);
 480:firmwares/fixedwing/main_ap.c ****     kill_throttle |= launch && (dist2_to_home > Square(KILL_MODE_DISTANCE));
 481:firmwares/fixedwing/main_ap.c ****   }
 482:firmwares/fixedwing/main_ap.c **** 
 483:firmwares/fixedwing/main_ap.c ****   switch(_4Hz) {
 484:firmwares/fixedwing/main_ap.c ****   case 0:
 485:firmwares/fixedwing/main_ap.c ****     estimator_propagate_state();
 486:firmwares/fixedwing/main_ap.c **** #ifdef EXTRA_DOWNLINK_DEVICE
 487:firmwares/fixedwing/main_ap.c ****     DOWNLINK_SEND_ATTITUDE(ExtraPprzTransport,&estimator_phi,&estimator_psi,&estimator_theta);
 488:firmwares/fixedwing/main_ap.c **** #endif
 489:firmwares/fixedwing/main_ap.c ****     navigation_task();
 490:firmwares/fixedwing/main_ap.c ****     break;
 491:firmwares/fixedwing/main_ap.c ****   case 1:
 492:firmwares/fixedwing/main_ap.c ****     if (!estimator_flight_time &&
 493:firmwares/fixedwing/main_ap.c ****         estimator_hspeed_mod > MIN_SPEED_FOR_TAKEOFF) {
 494:firmwares/fixedwing/main_ap.c ****       estimator_flight_time = 1;
 495:firmwares/fixedwing/main_ap.c ****       launch = TRUE; /* Not set in non auto launch */
 496:firmwares/fixedwing/main_ap.c ****       DOWNLINK_SEND_TAKEOFF(DefaultChannel, &cpu_time_sec);
 497:firmwares/fixedwing/main_ap.c ****   default:
 498:firmwares/fixedwing/main_ap.c ****     break;
 499:firmwares/fixedwing/main_ap.c ****     }
 500:firmwares/fixedwing/main_ap.c **** 
 501:firmwares/fixedwing/main_ap.c ****     break;
 502:firmwares/fixedwing/main_ap.c **** 
 503:firmwares/fixedwing/main_ap.c **** #ifdef USE_GPIO
 504:firmwares/fixedwing/main_ap.c ****   case 3:
 505:firmwares/fixedwing/main_ap.c ****     GpioUpdate1();
 506:firmwares/fixedwing/main_ap.c ****     break;
 507:firmwares/fixedwing/main_ap.c **** #endif
 508:firmwares/fixedwing/main_ap.c **** 
 509:firmwares/fixedwing/main_ap.c ****     /*  default: */
 510:firmwares/fixedwing/main_ap.c ****   }
 511:firmwares/fixedwing/main_ap.c **** 
 512:firmwares/fixedwing/main_ap.c **** #ifndef CONTROL_RATE
 513:firmwares/fixedwing/main_ap.c **** #define CONTROL_RATE 20
 514:firmwares/fixedwing/main_ap.c **** #endif
 515:firmwares/fixedwing/main_ap.c **** 
 516:firmwares/fixedwing/main_ap.c **** #if CONTROL_RATE != 60 && CONTROL_RATE != 20
 517:firmwares/fixedwing/main_ap.c **** #error "Only 20 and 60 allowed for CONTROL_RATE"
 518:firmwares/fixedwing/main_ap.c **** #endif
 519:firmwares/fixedwing/main_ap.c **** 
 520:firmwares/fixedwing/main_ap.c **** #if CONTROL_RATE == 20
 521:firmwares/fixedwing/main_ap.c ****   if (!_20Hz)
 522:firmwares/fixedwing/main_ap.c **** #endif
 523:firmwares/fixedwing/main_ap.c ****     {
 524:firmwares/fixedwing/main_ap.c **** 
 525:firmwares/fixedwing/main_ap.c **** #ifndef AHRS_TRIGGERED_ATTITUDE_LOOP
 526:firmwares/fixedwing/main_ap.c ****       attitude_loop();
 527:firmwares/fixedwing/main_ap.c **** #endif
 528:firmwares/fixedwing/main_ap.c **** 
 529:firmwares/fixedwing/main_ap.c ****     }
 530:firmwares/fixedwing/main_ap.c **** 
 531:firmwares/fixedwing/main_ap.c **** 
 532:firmwares/fixedwing/main_ap.c ****   modules_periodic_task();
 533:firmwares/fixedwing/main_ap.c **** }
 534:firmwares/fixedwing/main_ap.c **** 
 535:firmwares/fixedwing/main_ap.c **** 
 536:firmwares/fixedwing/main_ap.c **** void init_ap( void ) {
 537:firmwares/fixedwing/main_ap.c **** #ifndef SINGLE_MCU /** init done in main_fbw in single MCU */
 538:firmwares/fixedwing/main_ap.c ****   mcu_init();
 539:firmwares/fixedwing/main_ap.c ****   sys_time_init();
 540:firmwares/fixedwing/main_ap.c **** #endif /* SINGLE_MCU */
 541:firmwares/fixedwing/main_ap.c **** 
 542:firmwares/fixedwing/main_ap.c ****   /************* Sensors initialization ***************/
 543:firmwares/fixedwing/main_ap.c **** #ifdef USE_GYRO
 544:firmwares/fixedwing/main_ap.c ****   gyro_init();
 545:firmwares/fixedwing/main_ap.c **** #endif
 546:firmwares/fixedwing/main_ap.c **** #ifdef USE_GPS
 547:firmwares/fixedwing/main_ap.c ****   gps_init();
 548:firmwares/fixedwing/main_ap.c **** #endif
 549:firmwares/fixedwing/main_ap.c **** 
 550:firmwares/fixedwing/main_ap.c **** #ifdef USE_GPIO
 551:firmwares/fixedwing/main_ap.c ****   GpioInit();
 552:firmwares/fixedwing/main_ap.c **** #endif
 553:firmwares/fixedwing/main_ap.c **** 
 554:firmwares/fixedwing/main_ap.c **** #ifdef USE_IMU
 555:firmwares/fixedwing/main_ap.c ****   imu_init();
 556:firmwares/fixedwing/main_ap.c **** #endif
 557:firmwares/fixedwing/main_ap.c **** 
 558:firmwares/fixedwing/main_ap.c **** #ifdef USE_AHRS_ALIGNER
 559:firmwares/fixedwing/main_ap.c ****   ahrs_aligner_init();
 560:firmwares/fixedwing/main_ap.c **** #endif
 561:firmwares/fixedwing/main_ap.c **** 
 562:firmwares/fixedwing/main_ap.c **** #ifdef USE_AHRS
 563:firmwares/fixedwing/main_ap.c ****   ahrs_init();
 564:firmwares/fixedwing/main_ap.c **** #endif
 565:firmwares/fixedwing/main_ap.c **** 
 566:firmwares/fixedwing/main_ap.c ****   /************* Links initialization ***************/
 567:firmwares/fixedwing/main_ap.c **** #if defined MCU_SPI_LINK
 568:firmwares/fixedwing/main_ap.c ****   link_mcu_init();
 569:firmwares/fixedwing/main_ap.c **** #endif
 570:firmwares/fixedwing/main_ap.c **** #ifdef MODEM
 571:firmwares/fixedwing/main_ap.c ****   modem_init();
 572:firmwares/fixedwing/main_ap.c **** #endif
 573:firmwares/fixedwing/main_ap.c **** 
 574:firmwares/fixedwing/main_ap.c ****   /************ Internal status ***************/
 575:firmwares/fixedwing/main_ap.c ****   h_ctl_init();
 576:firmwares/fixedwing/main_ap.c ****   v_ctl_init();
 577:firmwares/fixedwing/main_ap.c ****   estimator_init();
 578:firmwares/fixedwing/main_ap.c **** #ifdef ALT_KALMAN
 579:firmwares/fixedwing/main_ap.c ****   alt_kalman_init();
 580:firmwares/fixedwing/main_ap.c **** #endif
 581:firmwares/fixedwing/main_ap.c ****   nav_init();
 582:firmwares/fixedwing/main_ap.c **** 
 583:firmwares/fixedwing/main_ap.c ****   modules_init();
 584:firmwares/fixedwing/main_ap.c **** 
 585:firmwares/fixedwing/main_ap.c ****   settings_init();
 586:firmwares/fixedwing/main_ap.c **** 
 587:firmwares/fixedwing/main_ap.c ****   /** - start interrupt task */
 588:firmwares/fixedwing/main_ap.c ****   mcu_int_enable();
 589:firmwares/fixedwing/main_ap.c **** 
 590:firmwares/fixedwing/main_ap.c ****   /** wait 0.5s (historical :-) */
 591:firmwares/fixedwing/main_ap.c ****   sys_time_usleep(500000);
 592:firmwares/fixedwing/main_ap.c **** 
 593:firmwares/fixedwing/main_ap.c **** #if defined DATALINK
 594:firmwares/fixedwing/main_ap.c **** 
 595:firmwares/fixedwing/main_ap.c **** #if DATALINK == XBEE
 596:firmwares/fixedwing/main_ap.c ****   xbee_init();
 597:firmwares/fixedwing/main_ap.c **** #endif
 598:firmwares/fixedwing/main_ap.c **** #endif /* DATALINK */
 599:firmwares/fixedwing/main_ap.c **** 
 600:firmwares/fixedwing/main_ap.c **** #if defined AEROCOMM_DATA_PIN
 601:firmwares/fixedwing/main_ap.c ****   IO0DIR |= _BV(AEROCOMM_DATA_PIN);
 602:firmwares/fixedwing/main_ap.c ****   IO0SET = _BV(AEROCOMM_DATA_PIN);
 603:firmwares/fixedwing/main_ap.c **** #endif
 604:firmwares/fixedwing/main_ap.c **** 
 605:firmwares/fixedwing/main_ap.c ****   power_switch = FALSE;
 606:firmwares/fixedwing/main_ap.c **** 
 607:firmwares/fixedwing/main_ap.c ****   /************ Multi-uavs status ***************/
 608:firmwares/fixedwing/main_ap.c **** 
 609:firmwares/fixedwing/main_ap.c **** #ifdef TRAFFIC_INFO
 610:firmwares/fixedwing/main_ap.c ****   traffic_info_init();
 611:firmwares/fixedwing/main_ap.c **** #endif
 612:firmwares/fixedwing/main_ap.c **** }
 613:firmwares/fixedwing/main_ap.c **** 
 614:firmwares/fixedwing/main_ap.c **** 
 615:firmwares/fixedwing/main_ap.c **** /*********** EVENT ***********************************************************/
 616:firmwares/fixedwing/main_ap.c **** void event_task_ap( void ) {
 617:firmwares/fixedwing/main_ap.c **** 
 618:firmwares/fixedwing/main_ap.c **** #if defined USE_AHRS
 619:firmwares/fixedwing/main_ap.c **** #ifdef USE_IMU
 620:firmwares/fixedwing/main_ap.c ****   ImuEvent(on_gyro_event, on_accel_event, on_mag_event);
 621:firmwares/fixedwing/main_ap.c **** #else
 622:firmwares/fixedwing/main_ap.c ****   AhrsEvent(on_ahrs_event);
 623:firmwares/fixedwing/main_ap.c **** #endif // USE_IMU
 624:firmwares/fixedwing/main_ap.c **** #endif // USE_AHRS
 625:firmwares/fixedwing/main_ap.c **** 
 626:firmwares/fixedwing/main_ap.c **** #ifdef USE_GPS
 627:firmwares/fixedwing/main_ap.c ****   GpsEvent(on_gps_solution);
 628:firmwares/fixedwing/main_ap.c **** #endif /** USE_GPS */
 629:firmwares/fixedwing/main_ap.c **** 
 630:firmwares/fixedwing/main_ap.c **** 
 631:firmwares/fixedwing/main_ap.c ****   DatalinkEvent();
 632:firmwares/fixedwing/main_ap.c **** 
 633:firmwares/fixedwing/main_ap.c **** 
 634:firmwares/fixedwing/main_ap.c **** #ifdef MCU_SPI_LINK
 635:firmwares/fixedwing/main_ap.c ****     link_mcu_event_task();
 636:firmwares/fixedwing/main_ap.c **** #endif
 637:firmwares/fixedwing/main_ap.c **** 
 638:firmwares/fixedwing/main_ap.c ****   if (inter_mcu_received_fbw) {
 639:firmwares/fixedwing/main_ap.c ****     /* receive radio control task from fbw */
 640:firmwares/fixedwing/main_ap.c ****     inter_mcu_received_fbw = FALSE;
 641:firmwares/fixedwing/main_ap.c ****     telecommand_task();
 642:firmwares/fixedwing/main_ap.c ****   }
 643:firmwares/fixedwing/main_ap.c **** 
 644:firmwares/fixedwing/main_ap.c ****   modules_event_task();
 645:firmwares/fixedwing/main_ap.c **** 
 646:firmwares/fixedwing/main_ap.c **** #ifdef AHRS_TRIGGERED_ATTITUDE_LOOP
 647:firmwares/fixedwing/main_ap.c ****   if (new_ins_attitude > 0)
 648:firmwares/fixedwing/main_ap.c ****   {
 649:firmwares/fixedwing/main_ap.c ****     attitude_loop();
 650:firmwares/fixedwing/main_ap.c ****     //LED_TOGGLE(3);
 651:firmwares/fixedwing/main_ap.c ****     new_ins_attitude = 0;
 652:firmwares/fixedwing/main_ap.c ****   }
 653:firmwares/fixedwing/main_ap.c **** #endif
 654:firmwares/fixedwing/main_ap.c **** 
 655:firmwares/fixedwing/main_ap.c **** } /* event_task_ap() */
 656:firmwares/fixedwing/main_ap.c **** 
 657:firmwares/fixedwing/main_ap.c **** 
 658:firmwares/fixedwing/main_ap.c **** #ifdef USE_GPS
 659:firmwares/fixedwing/main_ap.c **** static inline void on_gps_solution( void ) {
 660:firmwares/fixedwing/main_ap.c ****   estimator_update_state_gps();
 661:firmwares/fixedwing/main_ap.c **** #ifdef USE_INFRARED
 662:firmwares/fixedwing/main_ap.c ****   ahrs_update_gps();
 663:firmwares/fixedwing/main_ap.c **** #endif
 664:firmwares/fixedwing/main_ap.c **** #ifdef GPS_TRIGGERED_FUNCTION
 665:firmwares/fixedwing/main_ap.c ****   GPS_TRIGGERED_FUNCTION();
 666:firmwares/fixedwing/main_ap.c **** #endif
 667:firmwares/fixedwing/main_ap.c **** }
 668:firmwares/fixedwing/main_ap.c **** #endif
 669:firmwares/fixedwing/main_ap.c **** 
 670:firmwares/fixedwing/main_ap.c **** 
 671:firmwares/fixedwing/main_ap.c **** #ifdef USE_AHRS
 672:firmwares/fixedwing/main_ap.c **** #ifdef USE_IMU
 673:firmwares/fixedwing/main_ap.c **** static inline void on_accel_event( void ) {
 674:firmwares/fixedwing/main_ap.c **** }
 675:firmwares/fixedwing/main_ap.c **** 
 676:firmwares/fixedwing/main_ap.c **** static inline void on_gyro_event( void ) {
 677:firmwares/fixedwing/main_ap.c **** 
 678:firmwares/fixedwing/main_ap.c ****   ahrs_timeout_counter = 0;
 679:firmwares/fixedwing/main_ap.c **** 
 680:firmwares/fixedwing/main_ap.c **** #ifdef AHRS_CPU_LED
 681:firmwares/fixedwing/main_ap.c ****     LED_ON(AHRS_CPU_LED);
 682:firmwares/fixedwing/main_ap.c **** #endif
 683:firmwares/fixedwing/main_ap.c **** 
 684:firmwares/fixedwing/main_ap.c **** #ifdef USE_AHRS_ALIGNER
 685:firmwares/fixedwing/main_ap.c ****   // Run aligner on raw data as it also makes averages.
 686:firmwares/fixedwing/main_ap.c ****   if (ahrs.status == AHRS_UNINIT) {
 687:firmwares/fixedwing/main_ap.c ****     ImuScaleGyro(imu);
 688:firmwares/fixedwing/main_ap.c ****     ImuScaleAccel(imu);
 689:firmwares/fixedwing/main_ap.c ****     ahrs_aligner_run();
 690:firmwares/fixedwing/main_ap.c ****     if (ahrs_aligner.status == AHRS_ALIGNER_LOCKED)
 691:firmwares/fixedwing/main_ap.c ****       ahrs_align();
 692:firmwares/fixedwing/main_ap.c ****     return;
 693:firmwares/fixedwing/main_ap.c ****   }
 694:firmwares/fixedwing/main_ap.c **** #endif
 695:firmwares/fixedwing/main_ap.c **** 
 696:firmwares/fixedwing/main_ap.c **** #if PERIODIC_FREQUENCY == 60
 697:firmwares/fixedwing/main_ap.c ****   ImuScaleGyro(imu);
 698:firmwares/fixedwing/main_ap.c ****   ImuScaleAccel(imu);
 699:firmwares/fixedwing/main_ap.c **** 
 700:firmwares/fixedwing/main_ap.c ****   ahrs_propagate();
 701:firmwares/fixedwing/main_ap.c ****   ahrs_update_accel();
 702:firmwares/fixedwing/main_ap.c ****   ahrs_update_fw_estimator();
 703:firmwares/fixedwing/main_ap.c **** 
 704:firmwares/fixedwing/main_ap.c **** #ifdef AHRS_TRIGGERED_ATTITUDE_LOOP
 705:firmwares/fixedwing/main_ap.c ****   new_ins_attitude = 1;
 706:firmwares/fixedwing/main_ap.c **** #endif
 707:firmwares/fixedwing/main_ap.c **** 
 708:firmwares/fixedwing/main_ap.c **** #else //PERIODIC_FREQUENCY
 709:firmwares/fixedwing/main_ap.c ****   static uint8_t _reduced_propagation_rate = 0;
 710:firmwares/fixedwing/main_ap.c ****   static uint8_t _reduced_correction_rate = 0;
 711:firmwares/fixedwing/main_ap.c ****   static struct Int32Vect3 acc_avg;
 712:firmwares/fixedwing/main_ap.c ****   static struct Int32Rates gyr_avg;
 713:firmwares/fixedwing/main_ap.c **** 
 714:firmwares/fixedwing/main_ap.c ****   RATES_ADD(gyr_avg, imu.gyro_unscaled);
 715:firmwares/fixedwing/main_ap.c ****   VECT3_ADD(acc_avg, imu.accel_unscaled);
 716:firmwares/fixedwing/main_ap.c **** 
 717:firmwares/fixedwing/main_ap.c ****   _reduced_propagation_rate++;
 718:firmwares/fixedwing/main_ap.c ****   if (_reduced_propagation_rate < (PERIODIC_FREQUENCY / AHRS_PROPAGATE_FREQUENCY))
 719:firmwares/fixedwing/main_ap.c ****   {
 720:firmwares/fixedwing/main_ap.c ****   }
 721:firmwares/fixedwing/main_ap.c ****   else
 722:firmwares/fixedwing/main_ap.c ****   {
 723:firmwares/fixedwing/main_ap.c ****     _reduced_propagation_rate = 0;
 724:firmwares/fixedwing/main_ap.c **** 
 725:firmwares/fixedwing/main_ap.c ****     RATES_SDIV(imu.gyro_unscaled, gyr_avg, (PERIODIC_FREQUENCY / AHRS_PROPAGATE_FREQUENCY) );
 726:firmwares/fixedwing/main_ap.c ****     INT_RATES_ZERO(gyr_avg);
 727:firmwares/fixedwing/main_ap.c **** 
 728:firmwares/fixedwing/main_ap.c ****     ImuScaleGyro(imu);
 729:firmwares/fixedwing/main_ap.c **** 
 730:firmwares/fixedwing/main_ap.c ****     ahrs_propagate();
 731:firmwares/fixedwing/main_ap.c **** 
 732:firmwares/fixedwing/main_ap.c ****     _reduced_correction_rate++;
 733:firmwares/fixedwing/main_ap.c ****     if (_reduced_correction_rate >= (AHRS_PROPAGATE_FREQUENCY / AHRS_CORRECT_FREQUENCY))
 734:firmwares/fixedwing/main_ap.c ****     {
 735:firmwares/fixedwing/main_ap.c ****       _reduced_correction_rate = 0;
 736:firmwares/fixedwing/main_ap.c ****       VECT3_SDIV(imu.accel_unscaled, acc_avg, (PERIODIC_FREQUENCY / AHRS_CORRECT_FREQUENCY) );
 737:firmwares/fixedwing/main_ap.c ****       INT_VECT3_ZERO(acc_avg);
 738:firmwares/fixedwing/main_ap.c ****       ImuScaleAccel(imu);
 739:firmwares/fixedwing/main_ap.c ****       ahrs_update_accel();
 740:firmwares/fixedwing/main_ap.c ****     }
 741:firmwares/fixedwing/main_ap.c **** 
 742:firmwares/fixedwing/main_ap.c ****     ahrs_update_fw_estimator();
 743:firmwares/fixedwing/main_ap.c **** 
 744:firmwares/fixedwing/main_ap.c **** #ifdef AHRS_TRIGGERED_ATTITUDE_LOOP
 745:firmwares/fixedwing/main_ap.c ****     new_ins_attitude = 1;
 746:firmwares/fixedwing/main_ap.c **** #endif
 747:firmwares/fixedwing/main_ap.c ****   }
 748:firmwares/fixedwing/main_ap.c **** #endif //PERIODIC_FREQUENCY
 749:firmwares/fixedwing/main_ap.c **** 
 750:firmwares/fixedwing/main_ap.c **** #ifdef AHRS_CPU_LED
 751:firmwares/fixedwing/main_ap.c ****     LED_OFF(AHRS_CPU_LED);
 752:firmwares/fixedwing/main_ap.c **** #endif
 753:firmwares/fixedwing/main_ap.c **** 
 754:firmwares/fixedwing/main_ap.c **** }
 755:firmwares/fixedwing/main_ap.c **** 
 756:firmwares/fixedwing/main_ap.c **** static inline void on_mag_event(void)
 757:firmwares/fixedwing/main_ap.c **** {
 758:firmwares/fixedwing/main_ap.c **** #ifdef IMU_MAG_X_SIGN
 759:firmwares/fixedwing/main_ap.c ****   ImuScaleMag(imu);
 760:firmwares/fixedwing/main_ap.c ****   if (ahrs.status == AHRS_RUNNING) {
 761:firmwares/fixedwing/main_ap.c ****     ahrs_update_mag();
 762:firmwares/fixedwing/main_ap.c **** //    ahrs_update_fw_estimator();
 763:firmwares/fixedwing/main_ap.c ****   }
 764:firmwares/fixedwing/main_ap.c **** #endif
 765:firmwares/fixedwing/main_ap.c **** }
 766:firmwares/fixedwing/main_ap.c **** 
 767:firmwares/fixedwing/main_ap.c **** #else // USE_IMU not defined
 768:firmwares/fixedwing/main_ap.c **** static inline void on_ahrs_event(void)
 769:firmwares/fixedwing/main_ap.c **** {
  31              		.loc 1 769 0
  32              		.cfi_startproc
  33              		@ args = 0, pretend = 0, frame = 0
  34              		@ frame_needed = 0, uses_anonymous_args = 0
  35              		@ link register save eliminated.
 770:firmwares/fixedwing/main_ap.c **** #ifdef AHRS_UPDATE_FW_ESTIMATOR
 771:firmwares/fixedwing/main_ap.c ****   ahrs_update_fw_estimator();
 772:firmwares/fixedwing/main_ap.c **** #endif
 773:firmwares/fixedwing/main_ap.c **** }
  36              		.loc 1 773 0
  37 0000 7047     		bx	lr
  38              		.cfi_endproc
  39              	.LFE58:
  41              		.global	__aeabi_i2f
  42              		.global	__aeabi_fdiv
  43              		.global	__aeabi_fadd
  44              		.section	.text.event_task_ap,"ax",%progbits
  45              		.align	1
  46              		.global	event_task_ap
  47              		.thumb
  48              		.thumb_func
  50              	event_task_ap:
  51              	.LFB56:
 616:firmwares/fixedwing/main_ap.c **** void event_task_ap( void ) {
  52              		.loc 1 616 0
  53              		.cfi_startproc
  54              		@ args = 0, pretend = 0, frame = 0
  55              		@ frame_needed = 0, uses_anonymous_args = 0
  56 0000 2DE9F041 		push	{r4, r5, r6, r7, r8, lr}
  57              	.LCFI0:
  58              		.cfi_def_cfa_offset 24
 622:firmwares/fixedwing/main_ap.c ****   AhrsEvent(on_ahrs_event);
  59              		.loc 1 622 0
  60 0004 8C48     		ldr	r0, .L56
  61              		.cfi_offset 14, -4
  62              		.cfi_offset 8, -8
  63              		.cfi_offset 7, -12
  64              		.cfi_offset 6, -16
  65              		.cfi_offset 5, -20
  66              		.cfi_offset 4, -24
  67 0006 FFF7FEFF 		bl	AhrsEvent
 627:firmwares/fixedwing/main_ap.c ****   GpsEvent(on_gps_solution);
  68              		.loc 1 627 0
  69 000a 8C4B     		ldr	r3, .L56+4
  70 000c B3F88020 		ldrh	r2, [r3, #128]
  71 0010 B3F88230 		ldrh	r3, [r3, #130]
  72 0014 9A42     		cmp	r2, r3
  73 0016 08D1     		bne	.L4
  74 0018 12E0     		b	.L5
  75              	.L6:
  76              	.LBB48:
  77 001a 985C     		ldrb	r0, [r3, r2]	@ zero_extendqisi2
  78              	.LVL0:
  79 001c 0132     		adds	r2, r2, #1
  80 001e 02F07F02 		and	r2, r2, #127
  81 0022 A3F88220 		strh	r2, [r3, #130]	@ movhi
  82              	.LBE48:
  83 0026 FFF7FEFF 		bl	gps_ubx_parse
  84              	.LVL1:
  85              	.L4:
  86 002a 844B     		ldr	r3, .L56+4
  87 002c B3F88220 		ldrh	r2, [r3, #130]
  88 0030 B3F88010 		ldrh	r1, [r3, #128]
  89 0034 9142     		cmp	r1, r2
  90 0036 03D0     		beq	.L5
  91 0038 8149     		ldr	r1, .L56+8
  92 003a 0978     		ldrb	r1, [r1, #0]	@ zero_extendqisi2
  93 003c 0029     		cmp	r1, #0
  94 003e ECD0     		beq	.L6
  95              	.L5:
  96 0040 7F4C     		ldr	r4, .L56+8
  97 0042 2378     		ldrb	r3, [r4, #0]	@ zero_extendqisi2
  98 0044 03B3     		cbz	r3, .L7
  99 0046 FFF7FEFF 		bl	gps_ubx_read_message
 100 004a 94F80831 		ldrb	r3, [r4, #264]	@ zero_extendqisi2
 101 004e 012B     		cmp	r3, #1
 102 0050 17D1     		bne	.L8
 103 0052 94F80731 		ldrb	r3, [r4, #263]	@ zero_extendqisi2
 104 0056 122B     		cmp	r3, #18
 105 0058 04D0     		beq	.L9
 106 005a 062B     		cmp	r3, #6
 107 005c 11D1     		bne	.L8
 108 005e 94F81531 		ldrb	r3, [r4, #277]	@ zero_extendqisi2
 109 0062 73B9     		cbnz	r3, .L8
 110              	.L9:
 111 0064 774B     		ldr	r3, .L56+12
 112 0066 93F85720 		ldrb	r2, [r3, #87]	@ zero_extendqisi2
 113 006a 032A     		cmp	r2, #3
 114 006c 07D1     		bne	.L10
 115 006e 764A     		ldr	r2, .L56+16
 116 0070 1268     		ldr	r2, [r2, #0]
 117 0072 C3F8E420 		str	r2, [r3, #228]
 118 0076 754A     		ldr	r2, .L56+20
 119 0078 1288     		ldrh	r2, [r2, #0]
 120 007a A3F8E820 		strh	r2, [r3, #232]	@ movhi
 121              	.L10:
 122              	.LBB49:
 123              	.LBB50:
 660:firmwares/fixedwing/main_ap.c ****   estimator_update_state_gps();
 124              		.loc 1 660 0
 125 007e FFF7FEFF 		bl	estimator_update_state_gps
 126              	.L8:
 127              	.LBE50:
 128              	.LBE49:
 627:firmwares/fixedwing/main_ap.c ****   GpsEvent(on_gps_solution);
 129              		.loc 1 627 0
 130 0082 6F4B     		ldr	r3, .L56+8
 131 0084 0022     		movs	r2, #0
 132 0086 1A70     		strb	r2, [r3, #0]
 133              	.L7:
 631:firmwares/fixedwing/main_ap.c ****   DatalinkEvent();
 134              		.loc 1 631 0
 135 0088 714B     		ldr	r3, .L56+24
 136 008a B3F88070 		ldrh	r7, [r3, #128]
 137 008e B3F88240 		ldrh	r4, [r3, #130]
 138 0092 A742     		cmp	r7, r4
 139 0094 00F08180 		beq	.L11
 140 0098 6E4B     		ldr	r3, .L56+28
 141 009a 1A78     		ldrb	r2, [r3, #0]	@ zero_extendqisi2
 142 009c 6E4B     		ldr	r3, .L56+32
 143 009e 1E78     		ldrb	r6, [r3, #0]	@ zero_extendqisi2
 144 00a0 6E4B     		ldr	r3, .L56+36
 145 00a2 1978     		ldrb	r1, [r3, #0]	@ zero_extendqisi2
 146              	.LVL2:
 147 00a4 6E4B     		ldr	r3, .L56+40
 148 00a6 1878     		ldrb	r0, [r3, #0]	@ zero_extendqisi2
 149              	.LVL3:
 150 00a8 6E4B     		ldr	r3, .L56+44
 151 00aa 93F800C0 		ldrb	ip, [r3, #0]	@ zero_extendqisi2
 152 00ae 6E4B     		ldr	r3, .L56+48
 153 00b0 1D78     		ldrb	r5, [r3, #0]	@ zero_extendqisi2
 154 00b2 41E0     		b	.L12
 155              	.LVL4:
 156              	.L26:
 157              	.LBB51:
 158 00b4 1B5D     		ldrb	r3, [r3, r4]	@ zero_extendqisi2
 159              	.LVL5:
 160 00b6 0134     		adds	r4, r4, #1
 161 00b8 04F07F04 		and	r4, r4, #127
 162              	.LBE51:
 163              	.LBB52:
 164              	.LBB53:
 165              		.file 2 "./pprz_transport.h"
   1:./pprz_transport.h **** /*
   2:./pprz_transport.h ****  * Paparazzi $Id$
   3:./pprz_transport.h ****  *
   4:./pprz_transport.h ****  * Copyright (C) 2003  Pascal Brisset, Antoine Drouin
   5:./pprz_transport.h ****  *
   6:./pprz_transport.h ****  * This file is part of paparazzi.
   7:./pprz_transport.h ****  *
   8:./pprz_transport.h ****  * paparazzi is free software; you can redistribute it and/or modify
   9:./pprz_transport.h ****  * it under the terms of the GNU General Public License as published by
  10:./pprz_transport.h ****  * the Free Software Foundation; either version 2, or (at your option)
  11:./pprz_transport.h ****  * any later version.
  12:./pprz_transport.h ****  *
  13:./pprz_transport.h ****  * paparazzi is distributed in the hope that it will be useful,
  14:./pprz_transport.h ****  * but WITHOUT ANY WARRANTY; without even the implied warranty of
  15:./pprz_transport.h ****  * MERCHANTABILITY or FITNESS FOR A PARTICULAR PURPOSE.  See the
  16:./pprz_transport.h ****  * GNU General Public License for more details.
  17:./pprz_transport.h ****  *
  18:./pprz_transport.h ****  * You should have received a copy of the GNU General Public License
  19:./pprz_transport.h ****  * along with paparazzi; see the file COPYING.  If not, write to
  20:./pprz_transport.h ****  * the Free Software Foundation, 59 Temple Place - Suite 330,
  21:./pprz_transport.h ****  * Boston, MA 02111-1307, USA.
  22:./pprz_transport.h ****  *
  23:./pprz_transport.h ****  */
  24:./pprz_transport.h **** 
  25:./pprz_transport.h **** /** \file pprz_transport.h
  26:./pprz_transport.h ****  *  \brief Building and parsing Paparazzi frames
  27:./pprz_transport.h ****  *
  28:./pprz_transport.h ****  *  Pprz frame:
  29:./pprz_transport.h ****  *
  30:./pprz_transport.h ****  *   |STX|length|... payload=(length-4) bytes ...|Checksum A|Checksum B|
  31:./pprz_transport.h ****  *
  32:./pprz_transport.h ****  *   where checksum is computed over length and payload:
  33:./pprz_transport.h ****  *     ck_A = ck_B = length
  34:./pprz_transport.h ****  *     for each byte b in payload
  35:./pprz_transport.h ****  *       ck_A += b; ck_b += ck_A
  36:./pprz_transport.h ****  */
  37:./pprz_transport.h **** 
  38:./pprz_transport.h **** #ifndef PPRZ_TRANSPORT_H
  39:./pprz_transport.h **** #define PPRZ_TRANSPORT_H
  40:./pprz_transport.h **** 
  41:./pprz_transport.h **** #include <inttypes.h>
  42:./pprz_transport.h **** #include "std.h"
  43:./pprz_transport.h **** #include "datalink.h"
  44:./pprz_transport.h **** 
  45:./pprz_transport.h **** extern uint8_t ck_a, ck_b;
  46:./pprz_transport.h **** 
  47:./pprz_transport.h **** #define STX  0x99
  48:./pprz_transport.h **** 
  49:./pprz_transport.h **** /** 4 = STX + len + ck_a + ck_b */
  50:./pprz_transport.h **** #define PprzTransportSizeOf(_payload) (_payload+4)
  51:./pprz_transport.h **** 
  52:./pprz_transport.h **** #define __Link(dev, _x) dev##_x
  53:./pprz_transport.h **** #define _Link(dev, _x)  __Link(dev, _x)
  54:./pprz_transport.h **** #define Link(_x) _Link(DOWNLINK_DEVICE, _x)
  55:./pprz_transport.h **** 
  56:./pprz_transport.h **** #define PprzTransportCheckFreeSpace(_x) Link(CheckFreeSpace(_x))
  57:./pprz_transport.h **** 
  58:./pprz_transport.h **** #define PprzTransportPut1Byte(_x) Link(Transmit(_x))
  59:./pprz_transport.h **** #define PprzTransportSendMessage() Link(SendMessage())
  60:./pprz_transport.h **** 
  61:./pprz_transport.h **** #define PprzTransportHeader(payload_len) { \
  62:./pprz_transport.h ****   PprzTransportPut1Byte(STX);				\
  63:./pprz_transport.h ****   uint8_t msg_len = PprzTransportSizeOf(payload_len);	\
  64:./pprz_transport.h ****   PprzTransportPut1Byte(msg_len);			\
  65:./pprz_transport.h ****   ck_a = msg_len; ck_b = msg_len;			\
  66:./pprz_transport.h **** }
  67:./pprz_transport.h **** 
  68:./pprz_transport.h **** #define PprzTransportTrailer() { \
  69:./pprz_transport.h ****   PprzTransportPut1Byte(ck_a);	\
  70:./pprz_transport.h ****   PprzTransportPut1Byte(ck_b);	\
  71:./pprz_transport.h ****   PprzTransportSendMessage() \
  72:./pprz_transport.h **** }
  73:./pprz_transport.h **** 
  74:./pprz_transport.h **** #define PprzTransportPutUint8(_byte) { \
  75:./pprz_transport.h ****     ck_a += _byte;			  \
  76:./pprz_transport.h ****     ck_b += ck_a;			  \
  77:./pprz_transport.h ****     PprzTransportPut1Byte(_byte);		  \
  78:./pprz_transport.h ****  }
  79:./pprz_transport.h **** 
  80:./pprz_transport.h **** #define PprzTransportPutNamedUint8(_name, _byte) PprzTransportPutUint8(_byte)
  81:./pprz_transport.h **** 
  82:./pprz_transport.h **** #define PprzTransportPut1ByteByAddr(_byte) {	 \
  83:./pprz_transport.h ****     uint8_t _x = *(_byte);		 \
  84:./pprz_transport.h ****     PprzTransportPutUint8(_x);	 \
  85:./pprz_transport.h ****   }
  86:./pprz_transport.h **** 
  87:./pprz_transport.h **** #define PprzTransportPut2ByteByAddr(_byte) { \
  88:./pprz_transport.h ****     PprzTransportPut1ByteByAddr(_byte);	\
  89:./pprz_transport.h ****     PprzTransportPut1ByteByAddr((const uint8_t*)_byte+1);	\
  90:./pprz_transport.h ****   }
  91:./pprz_transport.h **** 
  92:./pprz_transport.h **** #define PprzTransportPut4ByteByAddr(_byte) { \
  93:./pprz_transport.h ****     PprzTransportPut2ByteByAddr(_byte);	\
  94:./pprz_transport.h ****     PprzTransportPut2ByteByAddr((const uint8_t*)_byte+2);	\
  95:./pprz_transport.h ****   }
  96:./pprz_transport.h **** 
  97:./pprz_transport.h **** #ifdef __IEEE_BIG_ENDIAN /* From machine/ieeefp.h */
  98:./pprz_transport.h **** #define PprzTransportPutDoubleByAddr(_byte) { \
  99:./pprz_transport.h ****     PprzTransportPut4ByteByAddr((const uint8_t*)_byte+4);	\
 100:./pprz_transport.h ****     PprzTransportPut4ByteByAddr((const uint8_t*)_byte);	\
 101:./pprz_transport.h ****   }
 102:./pprz_transport.h **** #else
 103:./pprz_transport.h **** #define PprzTransportPutDoubleByAddr(_byte) { \
 104:./pprz_transport.h ****     PprzTransportPut4ByteByAddr((const uint8_t*)_byte);	\
 105:./pprz_transport.h ****     PprzTransportPut4ByteByAddr((const uint8_t*)_byte+4);	\
 106:./pprz_transport.h ****   }
 107:./pprz_transport.h **** #endif
 108:./pprz_transport.h **** 
 109:./pprz_transport.h **** 
 110:./pprz_transport.h **** #define PprzTransportPutInt8ByAddr(_x) PprzTransportPut1ByteByAddr(_x)
 111:./pprz_transport.h **** #define PprzTransportPutUint8ByAddr(_x) PprzTransportPut1ByteByAddr((const uint8_t*)_x)
 112:./pprz_transport.h **** #define PprzTransportPutInt16ByAddr(_x) PprzTransportPut2ByteByAddr((const uint8_t*)_x)
 113:./pprz_transport.h **** #define PprzTransportPutUint16ByAddr(_x) PprzTransportPut2ByteByAddr((const uint8_t*)_x)
 114:./pprz_transport.h **** #define PprzTransportPutInt32ByAddr(_x) PprzTransportPut4ByteByAddr((const uint8_t*)_x)
 115:./pprz_transport.h **** #define PprzTransportPutUint32ByAddr(_x) PprzTransportPut4ByteByAddr((const uint8_t*)_x)
 116:./pprz_transport.h **** #define PprzTransportPutFloatByAddr(_x) PprzTransportPut4ByteByAddr((const uint8_t*)_x)
 117:./pprz_transport.h **** 
 118:./pprz_transport.h **** #define PprzTransportPutArray(_put, _n, _x) { \
 119:./pprz_transport.h ****   uint8_t _i; \
 120:./pprz_transport.h ****   PprzTransportPutUint8(_n); \
 121:./pprz_transport.h ****   for(_i = 0; _i < _n; _i++) { \
 122:./pprz_transport.h ****     _put(&_x[_i]); \
 123:./pprz_transport.h ****   } \
 124:./pprz_transport.h **** }
 125:./pprz_transport.h **** 
 126:./pprz_transport.h **** #define PprzTransportPutFloatArray(_n, _x) PprzTransportPutArray(PprzTransportPutFloatByAddr, _n, _
 127:./pprz_transport.h **** #define PprzTransportPutDoubleArray(_n, _x) PprzTransportPutArray(PprzTransportPutDoubleByAddr, _n,
 128:./pprz_transport.h **** 
 129:./pprz_transport.h **** #define PprzTransportPutInt16Array(_n, _x) PprzTransportPutArray(PprzTransportPutInt16ByAddr, _n, _
 130:./pprz_transport.h **** #define PprzTransportPutUint16Array(_n, _x) PprzTransportPutArray(PprzTransportPutUint16ByAddr, _n,
 131:./pprz_transport.h **** 
 132:./pprz_transport.h **** #define PprzTransportPutInt32Array(_n, _x) PprzTransportPutArray(PprzTransportPutInt32ByAddr, _n, _
 133:./pprz_transport.h **** #define PprzTransportPutUint32Array(_n, _x) PprzTransportPutArray(PprzTransportPutUint32ByAddr, _n,
 134:./pprz_transport.h **** 
 135:./pprz_transport.h **** #define PprzTransportPutUint8Array(_n, _x) PprzTransportPutArray(PprzTransportPutUint8ByAddr, _n, _
 136:./pprz_transport.h **** 
 137:./pprz_transport.h **** 
 138:./pprz_transport.h **** /** Receiving pprz messages */
 139:./pprz_transport.h **** 
 140:./pprz_transport.h **** #define UNINIT 0
 141:./pprz_transport.h **** #define GOT_STX 1
 142:./pprz_transport.h **** #define GOT_LENGTH 2
 143:./pprz_transport.h **** #define GOT_PAYLOAD 3
 144:./pprz_transport.h **** #define GOT_CRC1 4
 145:./pprz_transport.h **** 
 146:./pprz_transport.h **** 
 147:./pprz_transport.h **** #define PPRZ_PAYLOAD_LEN 256
 148:./pprz_transport.h **** extern uint8_t pprz_payload[PPRZ_PAYLOAD_LEN];
 149:./pprz_transport.h **** 
 150:./pprz_transport.h **** extern volatile bool_t pprz_msg_received;
 151:./pprz_transport.h **** extern uint8_t pprz_ovrn, pprz_error;
 152:./pprz_transport.h **** extern volatile uint8_t pprz_payload_len;
 153:./pprz_transport.h **** 
 154:./pprz_transport.h **** static inline void parse_pprz( uint8_t c ) {
 155:./pprz_transport.h ****   static uint8_t pprz_status = UNINIT;
 156:./pprz_transport.h ****   static uint8_t _ck_a, _ck_b, payload_idx;
 157:./pprz_transport.h **** 
 158:./pprz_transport.h ****   switch (pprz_status) {
 166              		.loc 2 158 0
 167 00bc 042A     		cmp	r2, #4
 168 00be 36D8     		bhi	.L13
 169 00c0 DFE802F0 		tbb	[pc, r2]
 170              	.L19:
 171 00c4 03       		.byte	(.L14-.L19)/2
 172 00c5 08       		.byte	(.L15-.L19)/2
 173 00c6 17       		.byte	(.L16-.L19)/2
 174 00c7 29       		.byte	(.L17-.L19)/2
 175 00c8 2F       		.byte	(.L18-.L19)/2
 176 00c9 00       		.align	1
 177              	.L14:
 159:./pprz_transport.h ****   case UNINIT:
 160:./pprz_transport.h ****     if (c == STX)
 178              		.loc 2 160 0
 179 00ca 992B     		cmp	r3, #153
 180 00cc 08BF     		it	eq
 181 00ce 0122     		moveq	r2, #1
 182 00d0 0B46     		mov	r3, r1
 183 00d2 30E0     		b	.L21
 184              	.LVL6:
 185              	.L15:
 161:./pprz_transport.h ****       pprz_status++;
 162:./pprz_transport.h ****     break;
 163:./pprz_transport.h ****   case GOT_STX:
 164:./pprz_transport.h ****     if (pprz_msg_received) {
 186              		.loc 2 164 0
 187 00d4 654A     		ldr	r2, .L56+52
 188 00d6 1278     		ldrb	r2, [r2, #0]	@ zero_extendqisi2
 189 00d8 9046     		mov	r8, r2
 190 00da 12B1     		cbz	r2, .L22
 165:./pprz_transport.h ****       pprz_ovrn++;
 191              		.loc 2 165 0
 192 00dc 0136     		adds	r6, r6, #1
 193 00de F6B2     		uxtb	r6, r6
 194 00e0 25E0     		b	.L13
 195              	.L22:
 166:./pprz_transport.h ****       goto error;
 167:./pprz_transport.h ****     }
 168:./pprz_transport.h ****     pprz_payload_len = c-4; /* Counting STX, LENGTH and CRC1 and CRC2 */
 196              		.loc 2 168 0
 197 00e2 634A     		ldr	r2, .L56+56
 198 00e4 191F     		subs	r1, r3, #4
 199 00e6 C9B2     		uxtb	r1, r1
 200 00e8 1170     		strb	r1, [r2, #0]
 201 00ea 1846     		mov	r0, r3
 202 00ec C446     		mov	ip, r8
 203 00ee 0222     		movs	r2, #2
 204 00f0 21E0     		b	.L21
 205              	.LVL7:
 206              	.L16:
 169:./pprz_transport.h ****     _ck_a = _ck_b = c;
 170:./pprz_transport.h ****     pprz_status++;
 171:./pprz_transport.h ****     payload_idx = 0;
 172:./pprz_transport.h ****     break;
 173:./pprz_transport.h ****   case GOT_LENGTH:
 174:./pprz_transport.h ****     pprz_payload[payload_idx] = c;
 175:./pprz_transport.h ****     _ck_a += c; _ck_b += _ck_a;
 207              		.loc 2 175 0
 208 00f2 1818     		adds	r0, r3, r0
 174:./pprz_transport.h ****     pprz_payload[payload_idx] = c;
 209              		.loc 2 174 0
 210 00f4 DFF87C81 		ldr	r8, .L56+60
 211              		.loc 2 175 0
 212 00f8 C0B2     		uxtb	r0, r0
 213              	.LVL8:
 174:./pprz_transport.h ****     pprz_payload[payload_idx] = c;
 214              		.loc 2 174 0
 215 00fa 08F80C30 		strb	r3, [r8, ip]
 216              		.loc 2 175 0
 217 00fe 4318     		adds	r3, r0, r1
 176:./pprz_transport.h ****     payload_idx++;
 177:./pprz_transport.h ****     if (payload_idx == pprz_payload_len)
 218              		.loc 2 177 0
 219 0100 5B49     		ldr	r1, .L56+56
 176:./pprz_transport.h ****     payload_idx++;
 220              		.loc 2 176 0
 221 0102 0CF1010C 		add	ip, ip, #1
 222              		.loc 2 177 0
 223 0106 0978     		ldrb	r1, [r1, #0]	@ zero_extendqisi2
 176:./pprz_transport.h ****     payload_idx++;
 224              		.loc 2 176 0
 225 0108 5FFA8CFC 		uxtb	ip, ip
 175:./pprz_transport.h ****     _ck_a += c; _ck_b += _ck_a;
 226              		.loc 2 175 0
 227 010c DBB2     		uxtb	r3, r3
 228              	.LVL9:
 229              		.loc 2 177 0
 230 010e 8C45     		cmp	ip, r1
 231 0110 08BF     		it	eq
 232 0112 0322     		moveq	r2, #3
 233 0114 0FE0     		b	.L21
 234              	.L17:
 178:./pprz_transport.h ****       pprz_status++;
 179:./pprz_transport.h ****     break;
 180:./pprz_transport.h ****   case GOT_PAYLOAD:
 181:./pprz_transport.h ****     if (c != _ck_a)
 235              		.loc 2 181 0
 236 0116 8342     		cmp	r3, r0
 237 0118 09D1     		bne	.L13
 238              	.LVL10:
 239 011a 1846     		mov	r0, r3
 240 011c 0422     		movs	r2, #4
 241 011e 0B46     		mov	r3, r1
 242 0120 09E0     		b	.L21
 243              	.LVL11:
 244              	.L18:
 182:./pprz_transport.h ****       goto error;
 183:./pprz_transport.h ****     pprz_status++;
 184:./pprz_transport.h ****     break;
 185:./pprz_transport.h ****   case GOT_CRC1:
 186:./pprz_transport.h ****     if (c != _ck_b)
 245              		.loc 2 186 0
 246 0122 8B42     		cmp	r3, r1
 247 0124 03D1     		bne	.L13
 248              	.LVL12:
 187:./pprz_transport.h ****       goto error;
 188:./pprz_transport.h ****     pprz_msg_received = TRUE;
 249              		.loc 2 188 0
 250 0126 514B     		ldr	r3, .L56+52
 251 0128 0122     		movs	r2, #1
 252 012a 1A70     		strb	r2, [r3, #0]
 253 012c 01E0     		b	.L23
 254              	.LVL13:
 255              	.L13:
 189:./pprz_transport.h ****     goto restart;
 190:./pprz_transport.h ****   default:
 191:./pprz_transport.h ****     goto error;
 192:./pprz_transport.h ****   }
 193:./pprz_transport.h ****   return;
 194:./pprz_transport.h ****  error:
 195:./pprz_transport.h ****   pprz_error++;
 256              		.loc 2 195 0
 257 012e 0135     		adds	r5, r5, #1
 258 0130 EDB2     		uxtb	r5, r5
 259              	.LVL14:
 260              	.L23:
 261 0132 0B46     		mov	r3, r1
 262 0134 0022     		movs	r2, #0
 263              	.LVL15:
 264              	.L21:
 265 0136 1946     		mov	r1, r3
 266              	.LVL16:
 267              	.L12:
 268              	.LBE53:
 269              	.LBE52:
 631:firmwares/fixedwing/main_ap.c ****   DatalinkEvent();
 270              		.loc 1 631 0
 271 0138 A742     		cmp	r7, r4
 272 013a 03D1     		bne	.L24
 273 013c 444B     		ldr	r3, .L56+24
 274 013e A3F88270 		strh	r7, [r3, #130]	@ movhi
 275 0142 08E0     		b	.L54
 276              	.LVL17:
 277              	.L24:
 278 0144 494B     		ldr	r3, .L56+52
 279 0146 93F80080 		ldrb	r8, [r3, #0]	@ zero_extendqisi2
 280 014a 414B     		ldr	r3, .L56+24
 281 014c B8F1000F 		cmp	r8, #0
 282 0150 B0D0     		beq	.L26
 283 0152 A3F88240 		strh	r4, [r3, #130]	@ movhi
 284              	.L54:
 285 0156 3F4B     		ldr	r3, .L56+28
 286 0158 1A70     		strb	r2, [r3, #0]
 287 015a 3F4B     		ldr	r3, .L56+32
 288 015c 1E70     		strb	r6, [r3, #0]
 289 015e 3F4B     		ldr	r3, .L56+36
 290 0160 1970     		strb	r1, [r3, #0]
 291 0162 3F4B     		ldr	r3, .L56+40
 292 0164 1870     		strb	r0, [r3, #0]
 293 0166 3F4B     		ldr	r3, .L56+44
 294 0168 83F800C0 		strb	ip, [r3, #0]
 295 016c 3E4B     		ldr	r3, .L56+48
 296 016e 1D70     		strb	r5, [r3, #0]
 297 0170 3E4B     		ldr	r3, .L56+52
 298 0172 1B78     		ldrb	r3, [r3, #0]	@ zero_extendqisi2
 299 0174 8BB1     		cbz	r3, .L11
 300 0176 0023     		movs	r3, #0
 301              	.LVL18:
 302 0178 05E0     		b	.L27
 303              	.L28:
 304              	.LBB54:
 305              	.LBB55:
 196:./pprz_transport.h ****  restart:
 197:./pprz_transport.h ****   pprz_status = UNINIT;
 198:./pprz_transport.h ****   return;
 199:./pprz_transport.h **** }
 200:./pprz_transport.h **** 
 201:./pprz_transport.h **** static inline void pprz_parse_payload(void) {
 202:./pprz_transport.h ****   uint8_t i;
 203:./pprz_transport.h ****   for(i = 0; i < pprz_payload_len; i++)
 204:./pprz_transport.h ****     dl_buffer[i] = pprz_payload[i];
 306              		.loc 2 204 0
 307 017a 3E4A     		ldr	r2, .L56+60
 308 017c D15C     		ldrb	r1, [r2, r3]	@ zero_extendqisi2
 309 017e 3E4A     		ldr	r2, .L56+64
 310 0180 D154     		strb	r1, [r2, r3]
 203:./pprz_transport.h ****   for(i = 0; i < pprz_payload_len; i++)
 311              		.loc 2 203 0
 312 0182 0133     		adds	r3, r3, #1
 313              	.LVL19:
 314 0184 DBB2     		uxtb	r3, r3
 315              	.LVL20:
 316              	.L27:
 317 0186 3A4A     		ldr	r2, .L56+56
 318 0188 1278     		ldrb	r2, [r2, #0]	@ zero_extendqisi2
 319 018a 9342     		cmp	r3, r2
 320 018c F5D3     		bcc	.L28
 205:./pprz_transport.h ****   dl_msg_available = TRUE;
 321              		.loc 2 205 0
 322 018e 3B4B     		ldr	r3, .L56+68
 323              	.LVL21:
 324 0190 0122     		movs	r2, #1
 325 0192 1A70     		strb	r2, [r3, #0]
 326              	.LBE55:
 327              	.LBE54:
 631:firmwares/fixedwing/main_ap.c ****   DatalinkEvent();
 328              		.loc 1 631 0
 329 0194 354B     		ldr	r3, .L56+52
 330 0196 013A     		subs	r2, r2, #1
 331 0198 1A70     		strb	r2, [r3, #0]
 332              	.L11:
 333 019a 384C     		ldr	r4, .L56+68
 334 019c 2378     		ldrb	r3, [r4, #0]	@ zero_extendqisi2
 335 019e 1BB1     		cbz	r3, .L29
 336 01a0 FFF7FEFF 		bl	dl_parse_msg
 337              	.LVL22:
 338 01a4 0023     		movs	r3, #0
 339 01a6 2370     		strb	r3, [r4, #0]
 340              	.LVL23:
 341              	.L29:
 638:firmwares/fixedwing/main_ap.c ****   if (inter_mcu_received_fbw) {
 342              		.loc 1 638 0
 343 01a8 354B     		ldr	r3, .L56+72
 344 01aa 1A78     		ldrb	r2, [r3, #0]	@ zero_extendqisi2
 345 01ac 002A     		cmp	r2, #0
 346 01ae 00F04781 		beq	.L51
 640:firmwares/fixedwing/main_ap.c ****     inter_mcu_received_fbw = FALSE;
 347              		.loc 1 640 0
 348 01b2 0022     		movs	r2, #0
 349 01b4 1A70     		strb	r2, [r3, #0]
 350              	.LBB56:
 351              	.LBB57:
 218:firmwares/fixedwing/main_ap.c ****   uint8_t really_lost = bit_is_set(fbw_state->status, STATUS_RADIO_REALLY_LOST) && (pprz_mode == PP
 352              		.loc 1 218 0
 353 01b6 334B     		ldr	r3, .L56+76
 354 01b8 1B68     		ldr	r3, [r3, #0]
 355 01ba DA7B     		ldrb	r2, [r3, #15]	@ zero_extendqisi2
 356 01bc 5208     		lsrs	r2, r2, #1
 357 01be 12F00102 		ands	r2, r2, #1
 358 01c2 05D0     		beq	.L32
 359 01c4 304B     		ldr	r3, .L56+80
 360 01c6 1A78     		ldrb	r2, [r3, #0]	@ zero_extendqisi2
 361 01c8 012A     		cmp	r2, #1
 362 01ca 8CBF     		ite	hi
 363 01cc 0022     		movhi	r2, #0
 364 01ce 0122     		movls	r2, #1
 365              	.L32:
 219:firmwares/fixedwing/main_ap.c ****   if (pprz_mode != PPRZ_MODE_HOME && pprz_mode != PPRZ_MODE_GPS_OUT_OF_ORDER && launch) {
 366              		.loc 1 219 0
 367 01d0 2D49     		ldr	r1, .L56+80
 368 01d2 0B78     		ldrb	r3, [r1, #0]	@ zero_extendqisi2
 369 01d4 033B     		subs	r3, r3, #3
 370 01d6 DBB2     		uxtb	r3, r3
 371 01d8 012B     		cmp	r3, #1
 372 01da 0ED9     		bls	.L33
 373 01dc 2B4B     		ldr	r3, .L56+84
 374 01de 1B78     		ldrb	r3, [r3, #0]	@ zero_extendqisi2
 375 01e0 5BB1     		cbz	r3, .L33
 220:firmwares/fixedwing/main_ap.c ****     if  (too_far_from_home) {
 376              		.loc 1 220 0
 377 01e2 2B4B     		ldr	r3, .L56+88
 378 01e4 1B78     		ldrb	r3, [r3, #0]	@ zero_extendqisi2
 379 01e6 13B1     		cbz	r3, .L35
 221:firmwares/fixedwing/main_ap.c ****       pprz_mode = PPRZ_MODE_HOME;
 380              		.loc 1 221 0
 381 01e8 0323     		movs	r3, #3
 382 01ea 0B70     		strb	r3, [r1, #0]
 383 01ec 023B     		subs	r3, r3, #2
 384              	.LVL24:
 385              	.L35:
 224:firmwares/fixedwing/main_ap.c ****     if  (really_lost) {
 386              		.loc 1 224 0
 387 01ee 2AB1     		cbz	r2, .L36
 225:firmwares/fixedwing/main_ap.c ****       pprz_mode = RC_LOST_MODE;
 388              		.loc 1 225 0
 389 01f0 254B     		ldr	r3, .L56+80
 390              	.LVL25:
 391 01f2 0322     		movs	r2, #3
 392 01f4 1A70     		strb	r2, [r3, #0]
 393 01f6 0123     		movs	r3, #1
 394              	.LVL26:
 395 01f8 00E0     		b	.L36
 396              	.LVL27:
 397              	.L33:
 398 01fa 0023     		movs	r3, #0
 399              	.LVL28:
 400              	.L36:
 229:firmwares/fixedwing/main_ap.c ****   if (bit_is_set(fbw_state->status, AVERAGED_CHANNELS_SENT)) {
 401              		.loc 1 229 0
 402 01fc 214A     		ldr	r2, .L56+76
 403 01fe 1268     		ldr	r2, [r2, #0]
 404 0200 D17B     		ldrb	r1, [r2, #15]	@ zero_extendqisi2
 405 0202 11F0100F 		tst	r1, #16
 406 0206 4BD0     		beq	.L37
 407              	.LBB58:
 408              	.LBB59:
 409              	.LBB60:
 142:firmwares/fixedwing/main_ap.c ****   if ((pprz_mode != PPRZ_MODE_HOME &&
 410              		.loc 1 142 0
 411 0208 1F49     		ldr	r1, .L56+80
 412 020a 0978     		ldrb	r1, [r1, #0]	@ zero_extendqisi2
 413 020c C81E     		subs	r0, r1, #3
 414              	.LVL29:
 415 020e C0B2     		uxtb	r0, r0
 416 0210 0128     		cmp	r0, #1
 417 0212 01D8     		bhi	.L38
 418 0214 0022     		movs	r2, #0
 419              	.LVL30:
 420 0216 41E0     		b	.L39
 421              	.LVL31:
 422              	.L38:
 423              	.LBB61:
 148:firmwares/fixedwing/main_ap.c ****     return ModeUpdate(pprz_mode, PPRZ_MODE_OF_PULSE(fbw_state->channels[RADIO_MODE], fbw_state->sta
 424              		.loc 1 148 0
 425 0218 B2F90C20 		ldrsh	r2, [r2, #12]
 426 021c B2F5965F 		cmp	r2, #4800
 427 0220 01DD     		ble	.L40
 428 0222 0222     		movs	r2, #2
 429              	.LVL32:
 430 0224 04E0     		b	.L41
 431              	.LVL33:
 432              	.L40:
 433 0226 12F5965F 		cmn	r2, #4800
 434 022a D4BF     		ite	le
 435 022c 0022     		movle	r2, #0
 436 022e 0122     		movgt	r2, #1
 437              	.LVL34:
 438              	.L41:
 439 0230 9142     		cmp	r1, r2
 440 0232 2FD1     		bne	.L42
 441 0234 0022     		movs	r2, #0
 442              	.LVL35:
 443 0236 30E0     		b	.L43
 444              	.L57:
 445              		.align	2
 446              	.L56:
 447 0238 00000000 		.word	on_ahrs_event
 448 023c 00000000 		.word	uart1
 449 0240 00000000 		.word	gps_ubx
 450 0244 00000000 		.word	gps
 451 0248 00000000 		.word	cpu_time_ticks
 452 024c 00000000 		.word	cpu_time_sec
 453 0250 00000000 		.word	uart2
 454 0254 00000000 		.word	.LANCHOR0
 455 0258 00000000 		.word	pprz_ovrn
 456 025c 00000000 		.word	.LANCHOR1
 457 0260 00000000 		.word	.LANCHOR2
 458 0264 00000000 		.word	.LANCHOR3
 459 0268 00000000 		.word	pprz_error
 460 026c 00000000 		.word	pprz_msg_received
 461 0270 00000000 		.word	pprz_payload_len
 462 0274 00000000 		.word	pprz_payload
 463 0278 00000000 		.word	dl_buffer
 464 027c 00000000 		.word	dl_msg_available
 465 0280 00000000 		.word	inter_mcu_received_fbw
 466 0284 00000000 		.word	fbw_state
 467 0288 00000000 		.word	.LANCHOR4
 468 028c 00000000 		.word	.LANCHOR5
 469 0290 00000000 		.word	too_far_from_home
 470              	.LVL36:
 471              	.L42:
 472 0294 6B49     		ldr	r1, .L58
 473 0296 0A70     		strb	r2, [r1, #0]
 474 0298 0122     		movs	r2, #1
 475              	.LVL37:
 476              	.L43:
 477              	.LBE61:
 478 029a D2B2     		uxtb	r2, r2
 479              	.LVL38:
 480              	.L39:
 481              	.LBE60:
 482              	.LBE59:
 231:firmwares/fixedwing/main_ap.c ****     mode_changed |= pprz_mode_changed;
 483              		.loc 1 231 0
 484 029c 42EA0303 		orr	r3, r2, r3
 485              	.LVL39:
 486              	.L37:
 487              	.LBE58:
 488              	.LBB62:
 489              	.LBB63:
 159:firmwares/fixedwing/main_ap.c ****   uint8_t new_status = fbw_state->status;
 490              		.loc 1 159 0
 491 02a0 694A     		ldr	r2, .L58+4
 492              	.LVL40:
 160:firmwares/fixedwing/main_ap.c ****   if (mcu1_status != new_status) {
 493              		.loc 1 160 0
 494 02a2 6A49     		ldr	r1, .L58+8
 159:firmwares/fixedwing/main_ap.c ****   uint8_t new_status = fbw_state->status;
 495              		.loc 1 159 0
 496 02a4 1268     		ldr	r2, [r2, #0]
 160:firmwares/fixedwing/main_ap.c ****   if (mcu1_status != new_status) {
 497              		.loc 1 160 0
 498 02a6 0878     		ldrb	r0, [r1, #0]	@ zero_extendqisi2
 499              	.LVL41:
 159:firmwares/fixedwing/main_ap.c ****   uint8_t new_status = fbw_state->status;
 500              		.loc 1 159 0
 501 02a8 D27B     		ldrb	r2, [r2, #15]	@ zero_extendqisi2
 502              	.LVL42:
 160:firmwares/fixedwing/main_ap.c ****   if (mcu1_status != new_status) {
 503              		.loc 1 160 0
 504 02aa 9042     		cmp	r0, r2
 505 02ac 05D0     		beq	.L53
 506              	.LBB64:
 161:firmwares/fixedwing/main_ap.c ****     bool_t changed = ((mcu1_status&MASK_FBW_CHANGED) != (new_status&MASK_FBW_CHANGED));
 507              		.loc 1 161 0
 508 02ae 82EA0000 		eor	r0, r2, r0
 509              	.LBE64:
 510              	.LBE63:
 511              	.LBE62:
 239:firmwares/fixedwing/main_ap.c ****   if ( mode_changed )
 512              		.loc 1 239 0
 513 02b2 10F00F0F 		tst	r0, #15
 514              	.LBB67:
 515              	.LBB66:
 516              	.LBB65:
 162:firmwares/fixedwing/main_ap.c ****     mcu1_status = new_status;
 517              		.loc 1 162 0
 518 02b6 0A70     		strb	r2, [r1, #0]
 519              	.LBE65:
 520              	.LBE66:
 521              	.LBE67:
 239:firmwares/fixedwing/main_ap.c ****   if ( mode_changed )
 522              		.loc 1 239 0
 523 02b8 01D1     		bne	.L52
 524              	.L53:
 525 02ba 002B     		cmp	r3, #0
 526 02bc 7FD0     		beq	.L46
 527              	.L52:
 240:firmwares/fixedwing/main_ap.c ****     PERIODIC_SEND_PPRZ_MODE(DefaultChannel);
 528              		.loc 1 240 0
 529 02be 6448     		ldr	r0, .L58+12
 530 02c0 0C21     		movs	r1, #12
 531 02c2 FFF7FEFF 		bl	uart_check_free_space
 532              	.LVL43:
 533 02c6 0028     		cmp	r0, #0
 534 02c8 75D0     		beq	.L48
 535 02ca 624B     		ldr	r3, .L58+16
 536              	.LBB68:
 537 02cc 6048     		ldr	r0, .L58+12
 538              	.LBE68:
 539 02ce 1A88     		ldrh	r2, [r3, #0]
 540              	.LBB69:
 541 02d0 9921     		movs	r1, #153
 542              	.LBE69:
 543 02d2 0C32     		adds	r2, r2, #12
 544 02d4 1A80     		strh	r2, [r3, #0]	@ movhi
 545 02d6 604B     		ldr	r3, .L58+20
 546              	.LBB70:
 547 02d8 604D     		ldr	r5, .L58+24
 548              	.LBE70:
 549 02da 1A88     		ldrh	r2, [r3, #0]
 550              	.LBB71:
 551 02dc 604C     		ldr	r4, .L58+28
 552              	.LBE71:
 553 02de 0132     		adds	r2, r2, #1
 554 02e0 1A80     		strh	r2, [r3, #0]	@ movhi
 555              	.LBB72:
 556 02e2 FFF7FEFF 		bl	uart_transmit
 557 02e6 5A48     		ldr	r0, .L58+12
 558 02e8 0C21     		movs	r1, #12
 559 02ea FFF7FEFF 		bl	uart_transmit
 560              	.LBE72:
 561 02ee 0D23     		movs	r3, #13
 562 02f0 2B70     		strb	r3, [r5, #0]
 563 02f2 0C33     		adds	r3, r3, #12
 564 02f4 2370     		strb	r3, [r4, #0]
 565 02f6 5648     		ldr	r0, .L58+12
 566 02f8 0121     		movs	r1, #1
 567 02fa FFF7FEFF 		bl	uart_transmit
 568 02fe 2B78     		ldrb	r3, [r5, #0]	@ zero_extendqisi2
 569 0300 2278     		ldrb	r2, [r4, #0]	@ zero_extendqisi2
 570 0302 0B33     		adds	r3, r3, #11
 571 0304 DBB2     		uxtb	r3, r3
 572 0306 2B70     		strb	r3, [r5, #0]
 573 0308 9B18     		adds	r3, r3, r2
 574 030a 2370     		strb	r3, [r4, #0]
 575 030c 5048     		ldr	r0, .L58+12
 576 030e 0B21     		movs	r1, #11
 577 0310 FFF7FEFF 		bl	uart_transmit
 578              	.LBB73:
 579 0314 4B4B     		ldr	r3, .L58
 580 0316 2278     		ldrb	r2, [r4, #0]	@ zero_extendqisi2
 581 0318 1978     		ldrb	r1, [r3, #0]	@ zero_extendqisi2
 582              	.LVL44:
 583 031a 2B78     		ldrb	r3, [r5, #0]	@ zero_extendqisi2
 584 031c 4C48     		ldr	r0, .L58+12
 585 031e CB18     		adds	r3, r1, r3
 586 0320 DBB2     		uxtb	r3, r3
 587 0322 2B70     		strb	r3, [r5, #0]
 588 0324 9B18     		adds	r3, r3, r2
 589 0326 2370     		strb	r3, [r4, #0]
 590 0328 FFF7FEFF 		bl	uart_transmit
 591              	.LVL45:
 592              	.LBE73:
 593              	.LBB74:
 594 032c 4D4B     		ldr	r3, .L58+32
 595 032e 2278     		ldrb	r2, [r4, #0]	@ zero_extendqisi2
 596 0330 1978     		ldrb	r1, [r3, #0]	@ zero_extendqisi2
 597              	.LVL46:
 598 0332 2B78     		ldrb	r3, [r5, #0]	@ zero_extendqisi2
 599 0334 4648     		ldr	r0, .L58+12
 600 0336 CB18     		adds	r3, r1, r3
 601 0338 DBB2     		uxtb	r3, r3
 602 033a 2B70     		strb	r3, [r5, #0]
 603 033c 9B18     		adds	r3, r3, r2
 604 033e 2370     		strb	r3, [r4, #0]
 605 0340 FFF7FEFF 		bl	uart_transmit
 606              	.LVL47:
 607              	.LBE74:
 608              	.LBB75:
 609 0344 484B     		ldr	r3, .L58+36
 610 0346 2278     		ldrb	r2, [r4, #0]	@ zero_extendqisi2
 611 0348 1978     		ldrb	r1, [r3, #0]	@ zero_extendqisi2
 612              	.LVL48:
 613 034a 2B78     		ldrb	r3, [r5, #0]	@ zero_extendqisi2
 614 034c 4048     		ldr	r0, .L58+12
 615 034e CB18     		adds	r3, r1, r3
 616 0350 DBB2     		uxtb	r3, r3
 617 0352 2B70     		strb	r3, [r5, #0]
 618 0354 9B18     		adds	r3, r3, r2
 619 0356 2370     		strb	r3, [r4, #0]
 620 0358 FFF7FEFF 		bl	uart_transmit
 621              	.LVL49:
 622              	.LBE75:
 623              	.LBB76:
 624 035c 434B     		ldr	r3, .L58+40
 625 035e 2278     		ldrb	r2, [r4, #0]	@ zero_extendqisi2
 626 0360 1978     		ldrb	r1, [r3, #0]	@ zero_extendqisi2
 627              	.LVL50:
 628 0362 2B78     		ldrb	r3, [r5, #0]	@ zero_extendqisi2
 629 0364 3A48     		ldr	r0, .L58+12
 630 0366 CB18     		adds	r3, r1, r3
 631 0368 DBB2     		uxtb	r3, r3
 632 036a 2B70     		strb	r3, [r5, #0]
 633 036c 9B18     		adds	r3, r3, r2
 634 036e 2370     		strb	r3, [r4, #0]
 635 0370 FFF7FEFF 		bl	uart_transmit
 636              	.LVL51:
 637              	.LBE76:
 638              	.LBB77:
 639 0374 3E4B     		ldr	r3, .L58+44
 640 0376 2278     		ldrb	r2, [r4, #0]	@ zero_extendqisi2
 641 0378 1978     		ldrb	r1, [r3, #0]	@ zero_extendqisi2
 642              	.LVL52:
 643 037a 2B78     		ldrb	r3, [r5, #0]	@ zero_extendqisi2
 644 037c 3448     		ldr	r0, .L58+12
 645 037e CB18     		adds	r3, r1, r3
 646 0380 DBB2     		uxtb	r3, r3
 647 0382 2B70     		strb	r3, [r5, #0]
 648 0384 9B18     		adds	r3, r3, r2
 649 0386 2370     		strb	r3, [r4, #0]
 650 0388 FFF7FEFF 		bl	uart_transmit
 651              	.LVL53:
 652              	.LBE77:
 653              	.LBB78:
 654 038c 2F4B     		ldr	r3, .L58+8
 655 038e 2278     		ldrb	r2, [r4, #0]	@ zero_extendqisi2
 656 0390 1978     		ldrb	r1, [r3, #0]	@ zero_extendqisi2
 657              	.LVL54:
 658 0392 2B78     		ldrb	r3, [r5, #0]	@ zero_extendqisi2
 659 0394 2E48     		ldr	r0, .L58+12
 660 0396 CB18     		adds	r3, r1, r3
 661 0398 DBB2     		uxtb	r3, r3
 662 039a 2B70     		strb	r3, [r5, #0]
 663 039c 9B18     		adds	r3, r3, r2
 664 039e 2370     		strb	r3, [r4, #0]
 665 03a0 FFF7FEFF 		bl	uart_transmit
 666              	.LVL55:
 667              	.LBE78:
 668 03a4 2978     		ldrb	r1, [r5, #0]	@ zero_extendqisi2
 669 03a6 2A48     		ldr	r0, .L58+12
 670 03a8 FFF7FEFF 		bl	uart_transmit
 671 03ac 2848     		ldr	r0, .L58+12
 672 03ae 2178     		ldrb	r1, [r4, #0]	@ zero_extendqisi2
 673 03b0 FFF7FEFF 		bl	uart_transmit
 674 03b4 03E0     		b	.L46
 675              	.L48:
 676 03b6 2F4B     		ldr	r3, .L58+48
 677 03b8 1A78     		ldrb	r2, [r3, #0]	@ zero_extendqisi2
 678 03ba 0132     		adds	r2, r2, #1
 679 03bc 1A70     		strb	r2, [r3, #0]
 680              	.LVL56:
 681              	.L46:
 246:firmwares/fixedwing/main_ap.c ****   if (pprz_mode == PPRZ_MODE_AUTO1) {
 682              		.loc 1 246 0
 683 03be 214B     		ldr	r3, .L58
 684              	.LVL57:
 685 03c0 1B78     		ldrb	r3, [r3, #0]	@ zero_extendqisi2
 686 03c2 012B     		cmp	r3, #1
 687 03c4 19D1     		bne	.L49
 248:firmwares/fixedwing/main_ap.c ****     h_ctl_roll_setpoint = FLOAT_OF_PPRZ(fbw_state->channels[RADIO_ROLL], 0., -AUTO1_MAX_ROLL);
 688              		.loc 1 248 0
 689 03c6 204B     		ldr	r3, .L58+4
 690 03c8 1C68     		ldr	r4, [r3, #0]
 691 03ca B4F90000 		ldrsh	r0, [r4, #0]
 692 03ce FFF7FEFF 		bl	__aeabi_i2f
 693              	.LVL58:
 694 03d2 2949     		ldr	r1, .L58+52
 695 03d4 FFF7FEFF 		bl	__aeabi_fdiv
 696 03d8 0021     		movs	r1, #0
 697 03da FFF7FEFF 		bl	__aeabi_fadd
 698 03de 274B     		ldr	r3, .L58+56
 699 03e0 1860     		str	r0, [r3, #0]	@ float
 251:firmwares/fixedwing/main_ap.c ****     h_ctl_pitch_setpoint = FLOAT_OF_PPRZ(fbw_state->channels[RADIO_PITCH], 0., AUTO1_MAX_PITCH);
 700              		.loc 1 251 0
 701 03e2 B4F90200 		ldrsh	r0, [r4, #2]
 702 03e6 FFF7FEFF 		bl	__aeabi_i2f
 703 03ea 2549     		ldr	r1, .L58+60
 704 03ec FFF7FEFF 		bl	__aeabi_fdiv
 705 03f0 0021     		movs	r1, #0
 706 03f2 FFF7FEFF 		bl	__aeabi_fadd
 707 03f6 234B     		ldr	r3, .L58+64
 708 03f8 1860     		str	r0, [r3, #0]	@ float
 709              	.LVL59:
 710              	.L49:
 256:firmwares/fixedwing/main_ap.c ****   if (pprz_mode == PPRZ_MODE_MANUAL || pprz_mode == PPRZ_MODE_AUTO1) {
 711              		.loc 1 256 0
 712 03fa 124B     		ldr	r3, .L58
 713 03fc 1B78     		ldrb	r3, [r3, #0]	@ zero_extendqisi2
 714 03fe 012B     		cmp	r3, #1
 715 0400 04D8     		bhi	.L50
 257:firmwares/fixedwing/main_ap.c ****     v_ctl_throttle_setpoint = fbw_state->channels[RADIO_THROTTLE];
 716              		.loc 1 257 0
 717 0402 114B     		ldr	r3, .L58+4
 718 0404 1A68     		ldr	r2, [r3, #0]
 719              	.LVL60:
 720 0406 204B     		ldr	r3, .L58+68
 721 0408 D288     		ldrh	r2, [r2, #6]
 722 040a 1A80     		strh	r2, [r3, #0]	@ movhi
 723              	.LVL61:
 724              	.L50:
 261:firmwares/fixedwing/main_ap.c ****   mcu1_ppm_cpt = fbw_state->ppm_cpt;
 725              		.loc 1 261 0
 726 040c 0E4B     		ldr	r3, .L58+4
 727 040e 1F4A     		ldr	r2, .L58+72
 728              	.LVL62:
 729 0410 1B68     		ldr	r3, [r3, #0]
 730 0412 997B     		ldrb	r1, [r3, #14]	@ zero_extendqisi2
 731 0414 1170     		strb	r1, [r2, #0]
 265:firmwares/fixedwing/main_ap.c ****   vsupply = fbw_state->vsupply;
 732              		.loc 1 265 0
 733 0416 597C     		ldrb	r1, [r3, #17]	@ zero_extendqisi2
 734 0418 1D4A     		ldr	r2, .L58+76
 735 041a 1170     		strb	r1, [r2, #0]
 266:firmwares/fixedwing/main_ap.c ****   current = fbw_state->current;
 736              		.loc 1 266 0
 737 041c 5969     		ldr	r1, [r3, #20]
 738 041e 1D4A     		ldr	r2, .L58+80
 739 0420 1160     		str	r1, [r2, #0]
 269:firmwares/fixedwing/main_ap.c ****   if (!estimator_flight_time) {
 740              		.loc 1 269 0
 741 0422 1D4A     		ldr	r2, .L58+84
 742 0424 1288     		ldrh	r2, [r2, #0]
 743 0426 5AB9     		cbnz	r2, .L51
 270:firmwares/fixedwing/main_ap.c ****     if (pprz_mode == PPRZ_MODE_AUTO2 && fbw_state->channels[RADIO_THROTTLE] > THROTTLE_THRESHOLD_TA
 744              		.loc 1 270 0
 745 0428 064A     		ldr	r2, .L58
 746 042a 1278     		ldrb	r2, [r2, #0]	@ zero_extendqisi2
 747 042c 022A     		cmp	r2, #2
 748 042e 07D1     		bne	.L51
 749 0430 B3F90630 		ldrsh	r3, [r3, #6]
 750 0434 B3F5075F 		cmp	r3, #8640
 751 0438 02DD     		ble	.L51
 271:firmwares/fixedwing/main_ap.c ****       launch = TRUE;
 752              		.loc 1 271 0
 753 043a 184B     		ldr	r3, .L58+88
 754 043c 013A     		subs	r2, r2, #1
 755 043e 1A70     		strb	r2, [r3, #0]
 756              	.LVL63:
 757              	.L51:
 758 0440 BDE8F081 		pop	{r4, r5, r6, r7, r8, pc}
 759              	.L59:
 760              		.align	2
 761              	.L58:
 762 0444 00000000 		.word	.LANCHOR4
 763 0448 00000000 		.word	fbw_state
 764 044c 00000000 		.word	.LANCHOR6
 765 0450 00000000 		.word	uart2
 766 0454 00000000 		.word	downlink_nb_bytes
 767 0458 00000000 		.word	downlink_nb_msgs
 768 045c 00000000 		.word	ck_a
 769 0460 00000000 		.word	ck_b
 770 0464 00000000 		.word	v_ctl_mode
 771 0468 00000000 		.word	.LANCHOR7
 772 046c 00000000 		.word	horizontal_mode
 773 0470 00000000 		.word	.LANCHOR8
 774 0474 00000000 		.word	downlink_nb_ovrn
 775 0478 000016C6 		.word	-971636736
 776 047c 00000000 		.word	h_ctl_roll_setpoint
 777 0480 00001646 		.word	1175846912
 778 0484 00000000 		.word	h_ctl_pitch_setpoint
 779 0488 00000000 		.word	v_ctl_throttle_setpoint
 780 048c 00000000 		.word	.LANCHOR9
 781 0490 00000000 		.word	.LANCHOR10
 782 0494 00000000 		.word	.LANCHOR11
 783 0498 00000000 		.word	estimator_flight_time
 784 049c 00000000 		.word	.LANCHOR5
 785              	.LBE57:
 786              	.LBE56:
 787              		.cfi_endproc
 788              	.LFE56:
 790              		.global	__aeabi_f2d
 791              		.global	__aeabi_ddiv
 792              		.global	__aeabi_d2uiz
 793              		.global	__aeabi_i2d
 794              		.global	__aeabi_dcmpgt
 795              		.global	__aeabi_ui2f
 796              		.global	__aeabi_dmul
 797              		.global	__aeabi_d2iz
 798              		.global	__aeabi_fcmpgt
 799              		.global	__aeabi_fcmplt
 800              		.global	__aeabi_fmul
 801              		.section	.text.navigation_task,"ax",%progbits
 802              		.align	1
 803              		.thumb
 804              		.thumb_func
 806              	navigation_task:
 807              	.LFB52:
 285:firmwares/fixedwing/main_ap.c **** static void navigation_task( void ) {
 808              		.loc 1 285 0
 809              		.cfi_startproc
 810              		@ args = 0, pretend = 0, frame = 0
 811              		@ frame_needed = 0, uses_anonymous_args = 0
 812 0000 F8B5     		push	{r3, r4, r5, r6, r7, lr}
 813              	.LCFI1:
 814              		.cfi_def_cfa_offset 24
 292:firmwares/fixedwing/main_ap.c ****   if (launch) {
 815              		.loc 1 292 0
 816 0002 994B     		ldr	r3, .L90
 817              		.cfi_offset 14, -4
 818              		.cfi_offset 7, -8
 819              		.cfi_offset 6, -12
 820              		.cfi_offset 5, -16
 821              		.cfi_offset 4, -20
 822              		.cfi_offset 3, -24
 823 0004 1B78     		ldrb	r3, [r3, #0]	@ zero_extendqisi2
 824 0006 002B     		cmp	r3, #0
 825 0008 00F02081 		beq	.L61
 293:firmwares/fixedwing/main_ap.c ****     if (GpsTimeoutError) {
 826              		.loc 1 293 0
 827 000c 974B     		ldr	r3, .L90+4
 828 000e 1A88     		ldrh	r2, [r3, #0]
 829 0010 974B     		ldr	r3, .L90+8
 830 0012 B3F8E830 		ldrh	r3, [r3, #232]
 831 0016 D31A     		subs	r3, r2, r3
 832 0018 012B     		cmp	r3, #1
 833 001a 40F38D80 		ble	.L62
 294:firmwares/fixedwing/main_ap.c ****       if (pprz_mode == PPRZ_MODE_AUTO2 || pprz_mode == PPRZ_MODE_HOME) {
 834              		.loc 1 294 0
 835 001e 954E     		ldr	r6, .L90+12
 836 0020 3378     		ldrb	r3, [r6, #0]	@ zero_extendqisi2
 837 0022 9A1E     		subs	r2, r3, #2
 838 0024 D2B2     		uxtb	r2, r2
 839 0026 012A     		cmp	r2, #1
 840 0028 00F21081 		bhi	.L61
 295:firmwares/fixedwing/main_ap.c ****         last_pprz_mode = pprz_mode;
 841              		.loc 1 295 0
 842 002c 924A     		ldr	r2, .L90+16
 297:firmwares/fixedwing/main_ap.c ****         PERIODIC_SEND_PPRZ_MODE(DefaultChannel);
 843              		.loc 1 297 0
 844 002e 9348     		ldr	r0, .L90+20
 295:firmwares/fixedwing/main_ap.c ****         last_pprz_mode = pprz_mode;
 845              		.loc 1 295 0
 846 0030 1370     		strb	r3, [r2, #0]
 296:firmwares/fixedwing/main_ap.c ****         pprz_mode = PPRZ_MODE_GPS_OUT_OF_ORDER;
 847              		.loc 1 296 0
 848 0032 0423     		movs	r3, #4
 849 0034 3370     		strb	r3, [r6, #0]
 297:firmwares/fixedwing/main_ap.c ****         PERIODIC_SEND_PPRZ_MODE(DefaultChannel);
 850              		.loc 1 297 0
 851 0036 0C21     		movs	r1, #12
 852 0038 FFF7FEFF 		bl	uart_check_free_space
 853 003c 0028     		cmp	r0, #0
 854 003e 74D0     		beq	.L63
 855 0040 8F4B     		ldr	r3, .L90+24
 856              	.LBB79:
 857 0042 8E48     		ldr	r0, .L90+20
 858              	.LBE79:
 859 0044 1A88     		ldrh	r2, [r3, #0]
 860              	.LBB80:
 861 0046 9921     		movs	r1, #153
 862              	.LBE80:
 863 0048 0C32     		adds	r2, r2, #12
 864 004a 1A80     		strh	r2, [r3, #0]	@ movhi
 865 004c 8D4B     		ldr	r3, .L90+28
 866 004e 8E4D     		ldr	r5, .L90+32
 867 0050 1A88     		ldrh	r2, [r3, #0]
 868 0052 8E4C     		ldr	r4, .L90+36
 869 0054 0132     		adds	r2, r2, #1
 870 0056 1A80     		strh	r2, [r3, #0]	@ movhi
 871              	.LBB81:
 872 0058 FFF7FEFF 		bl	uart_transmit
 873 005c 8748     		ldr	r0, .L90+20
 874 005e 0C21     		movs	r1, #12
 875 0060 FFF7FEFF 		bl	uart_transmit
 876              	.LBE81:
 877 0064 0D23     		movs	r3, #13
 878 0066 2B70     		strb	r3, [r5, #0]
 879 0068 0C33     		adds	r3, r3, #12
 880 006a 2370     		strb	r3, [r4, #0]
 881 006c 8348     		ldr	r0, .L90+20
 882 006e 0121     		movs	r1, #1
 883 0070 FFF7FEFF 		bl	uart_transmit
 884 0074 2B78     		ldrb	r3, [r5, #0]	@ zero_extendqisi2
 885 0076 2278     		ldrb	r2, [r4, #0]	@ zero_extendqisi2
 886 0078 0B33     		adds	r3, r3, #11
 887 007a DBB2     		uxtb	r3, r3
 888              	.LVL64:
 889 007c 2B70     		strb	r3, [r5, #0]
 890 007e 9B18     		adds	r3, r3, r2
 891              	.LVL65:
 892 0080 2370     		strb	r3, [r4, #0]
 893 0082 7E48     		ldr	r0, .L90+20
 894 0084 0B21     		movs	r1, #11
 895 0086 FFF7FEFF 		bl	uart_transmit
 896              	.LBB82:
 897 008a 3178     		ldrb	r1, [r6, #0]	@ zero_extendqisi2
 898              	.LVL66:
 899 008c 2B78     		ldrb	r3, [r5, #0]	@ zero_extendqisi2
 900 008e 2278     		ldrb	r2, [r4, #0]	@ zero_extendqisi2
 901 0090 CB18     		adds	r3, r1, r3
 902 0092 DBB2     		uxtb	r3, r3
 903              	.LVL67:
 904 0094 2B70     		strb	r3, [r5, #0]
 905 0096 9B18     		adds	r3, r3, r2
 906              	.LVL68:
 907 0098 2370     		strb	r3, [r4, #0]
 908 009a 7848     		ldr	r0, .L90+20
 909 009c FFF7FEFF 		bl	uart_transmit
 910              	.LVL69:
 911              	.LBE82:
 912              	.LBB83:
 913 00a0 7B4B     		ldr	r3, .L90+40
 914 00a2 2278     		ldrb	r2, [r4, #0]	@ zero_extendqisi2
 915 00a4 1978     		ldrb	r1, [r3, #0]	@ zero_extendqisi2
 916              	.LVL70:
 917 00a6 2B78     		ldrb	r3, [r5, #0]	@ zero_extendqisi2
 918 00a8 7448     		ldr	r0, .L90+20
 919 00aa CB18     		adds	r3, r1, r3
 920 00ac DBB2     		uxtb	r3, r3
 921              	.LVL71:
 922 00ae 2B70     		strb	r3, [r5, #0]
 923 00b0 9B18     		adds	r3, r3, r2
 924              	.LVL72:
 925 00b2 2370     		strb	r3, [r4, #0]
 926 00b4 FFF7FEFF 		bl	uart_transmit
 927              	.LVL73:
 928              	.LBE83:
 929              	.LBB84:
 930 00b8 764B     		ldr	r3, .L90+44
 931 00ba 2278     		ldrb	r2, [r4, #0]	@ zero_extendqisi2
 932 00bc 1978     		ldrb	r1, [r3, #0]	@ zero_extendqisi2
 933              	.LVL74:
 934 00be 2B78     		ldrb	r3, [r5, #0]	@ zero_extendqisi2
 935 00c0 6E48     		ldr	r0, .L90+20
 936 00c2 CB18     		adds	r3, r1, r3
 937 00c4 DBB2     		uxtb	r3, r3
 938              	.LVL75:
 939 00c6 2B70     		strb	r3, [r5, #0]
 940 00c8 9B18     		adds	r3, r3, r2
 941              	.LVL76:
 942 00ca 2370     		strb	r3, [r4, #0]
 943 00cc FFF7FEFF 		bl	uart_transmit
 944              	.LVL77:
 945              	.LBE84:
 946              	.LBB85:
 947 00d0 714B     		ldr	r3, .L90+48
 948 00d2 2278     		ldrb	r2, [r4, #0]	@ zero_extendqisi2
 949 00d4 1978     		ldrb	r1, [r3, #0]	@ zero_extendqisi2
 950              	.LVL78:
 951 00d6 2B78     		ldrb	r3, [r5, #0]	@ zero_extendqisi2
 952 00d8 6848     		ldr	r0, .L90+20
 953 00da CB18     		adds	r3, r1, r3
 954 00dc DBB2     		uxtb	r3, r3
 955              	.LVL79:
 956 00de 2B70     		strb	r3, [r5, #0]
 957 00e0 9B18     		adds	r3, r3, r2
 958              	.LVL80:
 959 00e2 2370     		strb	r3, [r4, #0]
 960 00e4 FFF7FEFF 		bl	uart_transmit
 961              	.LVL81:
 962              	.LBE85:
 963              	.LBB86:
 964 00e8 6C4B     		ldr	r3, .L90+52
 965 00ea 2278     		ldrb	r2, [r4, #0]	@ zero_extendqisi2
 966 00ec 1978     		ldrb	r1, [r3, #0]	@ zero_extendqisi2
 967              	.LVL82:
 968 00ee 2B78     		ldrb	r3, [r5, #0]	@ zero_extendqisi2
 969 00f0 6248     		ldr	r0, .L90+20
 970 00f2 CB18     		adds	r3, r1, r3
 971 00f4 DBB2     		uxtb	r3, r3
 972              	.LVL83:
 973 00f6 2B70     		strb	r3, [r5, #0]
 974 00f8 9B18     		adds	r3, r3, r2
 975              	.LVL84:
 976 00fa 2370     		strb	r3, [r4, #0]
 977 00fc FFF7FEFF 		bl	uart_transmit
 978              	.LVL85:
 979              	.LBE86:
 980              	.LBB87:
 981 0100 674B     		ldr	r3, .L90+56
 982 0102 2278     		ldrb	r2, [r4, #0]	@ zero_extendqisi2
 983 0104 1978     		ldrb	r1, [r3, #0]	@ zero_extendqisi2
 984              	.LVL86:
 985 0106 2B78     		ldrb	r3, [r5, #0]	@ zero_extendqisi2
 986 0108 5C48     		ldr	r0, .L90+20
 987 010a CB18     		adds	r3, r1, r3
 988 010c DBB2     		uxtb	r3, r3
 989              	.LVL87:
 990 010e 2B70     		strb	r3, [r5, #0]
 991 0110 9B18     		adds	r3, r3, r2
 992              	.LVL88:
 993 0112 2370     		strb	r3, [r4, #0]
 994 0114 FFF7FEFF 		bl	uart_transmit
 995              	.LVL89:
 996              	.LBE87:
 997 0118 2978     		ldrb	r1, [r5, #0]	@ zero_extendqisi2
 998 011a 5848     		ldr	r0, .L90+20
 999 011c FFF7FEFF 		bl	uart_transmit
 1000 0120 5648     		ldr	r0, .L90+20
 1001 0122 2178     		ldrb	r1, [r4, #0]	@ zero_extendqisi2
 1002 0124 FFF7FEFF 		bl	uart_transmit
 1003 0128 03E0     		b	.L64
 1004              	.L63:
 1005 012a 5E4B     		ldr	r3, .L90+60
 1006 012c 1A78     		ldrb	r2, [r3, #0]	@ zero_extendqisi2
 1007 012e 0132     		adds	r2, r2, #1
 1008 0130 1A70     		strb	r2, [r3, #0]
 1009              	.L64:
 298:firmwares/fixedwing/main_ap.c ****         gps_lost = TRUE;
 1010              		.loc 1 298 0
 1011 0132 0122     		movs	r2, #1
 1012 0134 5C4B     		ldr	r3, .L90+64
 1013 0136 88E0     		b	.L88
 1014              	.L62:
 300:firmwares/fixedwing/main_ap.c ****     } else if (gps_lost) { /* GPS is ok */
 1015              		.loc 1 300 0
 1016 0138 5B4B     		ldr	r3, .L90+64
 1017 013a 1A78     		ldrb	r2, [r3, #0]	@ zero_extendqisi2
 1018 013c 002A     		cmp	r2, #0
 1019 013e 00F08580 		beq	.L61
 302:firmwares/fixedwing/main_ap.c ****       pprz_mode = last_pprz_mode;
 1020              		.loc 1 302 0
 1021 0142 4D4A     		ldr	r2, .L90+16
 1022 0144 4B4E     		ldr	r6, .L90+12
 1023 0146 1278     		ldrb	r2, [r2, #0]	@ zero_extendqisi2
 305:firmwares/fixedwing/main_ap.c ****       PERIODIC_SEND_PPRZ_MODE(DefaultChannel);
 1024              		.loc 1 305 0
 1025 0148 4C48     		ldr	r0, .L90+20
 302:firmwares/fixedwing/main_ap.c ****       pprz_mode = last_pprz_mode;
 1026              		.loc 1 302 0
 1027 014a 3270     		strb	r2, [r6, #0]
 303:firmwares/fixedwing/main_ap.c ****       gps_lost = FALSE;
 1028              		.loc 1 303 0
 1029 014c 0022     		movs	r2, #0
 1030 014e 1A70     		strb	r2, [r3, #0]
 305:firmwares/fixedwing/main_ap.c ****       PERIODIC_SEND_PPRZ_MODE(DefaultChannel);
 1031              		.loc 1 305 0
 1032 0150 0C21     		movs	r1, #12
 1033 0152 FFF7FEFF 		bl	uart_check_free_space
 1034 0156 0028     		cmp	r0, #0
 1035 0158 74D0     		beq	.L65
 1036 015a 494B     		ldr	r3, .L90+24
 1037              	.LBB88:
 1038 015c 4748     		ldr	r0, .L90+20
 1039              	.LBE88:
 1040 015e 1A88     		ldrh	r2, [r3, #0]
 1041              	.LBB89:
 1042 0160 9921     		movs	r1, #153
 1043              	.LBE89:
 1044 0162 0C32     		adds	r2, r2, #12
 1045 0164 1A80     		strh	r2, [r3, #0]	@ movhi
 1046 0166 474B     		ldr	r3, .L90+28
 1047 0168 474D     		ldr	r5, .L90+32
 1048 016a 1A88     		ldrh	r2, [r3, #0]
 1049 016c 474C     		ldr	r4, .L90+36
 1050 016e 0132     		adds	r2, r2, #1
 1051 0170 1A80     		strh	r2, [r3, #0]	@ movhi
 1052              	.LBB90:
 1053 0172 FFF7FEFF 		bl	uart_transmit
 1054 0176 4148     		ldr	r0, .L90+20
 1055 0178 0C21     		movs	r1, #12
 1056 017a FFF7FEFF 		bl	uart_transmit
 1057              	.LBE90:
 1058 017e 0D23     		movs	r3, #13
 1059 0180 2B70     		strb	r3, [r5, #0]
 1060 0182 0C33     		adds	r3, r3, #12
 1061 0184 2370     		strb	r3, [r4, #0]
 1062 0186 3D48     		ldr	r0, .L90+20
 1063 0188 0121     		movs	r1, #1
 1064 018a FFF7FEFF 		bl	uart_transmit
 1065 018e 2B78     		ldrb	r3, [r5, #0]	@ zero_extendqisi2
 1066 0190 2278     		ldrb	r2, [r4, #0]	@ zero_extendqisi2
 1067 0192 0B33     		adds	r3, r3, #11
 1068 0194 DBB2     		uxtb	r3, r3
 1069              	.LVL90:
 1070 0196 2B70     		strb	r3, [r5, #0]
 1071 0198 9B18     		adds	r3, r3, r2
 1072              	.LVL91:
 1073 019a 2370     		strb	r3, [r4, #0]
 1074 019c 3748     		ldr	r0, .L90+20
 1075 019e 0B21     		movs	r1, #11
 1076 01a0 FFF7FEFF 		bl	uart_transmit
 1077              	.LBB91:
 1078 01a4 3178     		ldrb	r1, [r6, #0]	@ zero_extendqisi2
 1079              	.LVL92:
 1080 01a6 2B78     		ldrb	r3, [r5, #0]	@ zero_extendqisi2
 1081 01a8 2278     		ldrb	r2, [r4, #0]	@ zero_extendqisi2
 1082 01aa CB18     		adds	r3, r1, r3
 1083 01ac DBB2     		uxtb	r3, r3
 1084              	.LVL93:
 1085 01ae 2B70     		strb	r3, [r5, #0]
 1086 01b0 9B18     		adds	r3, r3, r2
 1087              	.LVL94:
 1088 01b2 2370     		strb	r3, [r4, #0]
 1089 01b4 3148     		ldr	r0, .L90+20
 1090 01b6 FFF7FEFF 		bl	uart_transmit
 1091              	.LVL95:
 1092              	.LBE91:
 1093              	.LBB92:
 1094 01ba 354B     		ldr	r3, .L90+40
 1095 01bc 2278     		ldrb	r2, [r4, #0]	@ zero_extendqisi2
 1096 01be 1978     		ldrb	r1, [r3, #0]	@ zero_extendqisi2
 1097              	.LVL96:
 1098 01c0 2B78     		ldrb	r3, [r5, #0]	@ zero_extendqisi2
 1099 01c2 2E48     		ldr	r0, .L90+20
 1100 01c4 CB18     		adds	r3, r1, r3
 1101 01c6 DBB2     		uxtb	r3, r3
 1102              	.LVL97:
 1103 01c8 2B70     		strb	r3, [r5, #0]
 1104 01ca 9B18     		adds	r3, r3, r2
 1105              	.LVL98:
 1106 01cc 2370     		strb	r3, [r4, #0]
 1107 01ce FFF7FEFF 		bl	uart_transmit
 1108              	.LVL99:
 1109              	.LBE92:
 1110              	.LBB93:
 1111 01d2 304B     		ldr	r3, .L90+44
 1112 01d4 2278     		ldrb	r2, [r4, #0]	@ zero_extendqisi2
 1113 01d6 1978     		ldrb	r1, [r3, #0]	@ zero_extendqisi2
 1114              	.LVL100:
 1115 01d8 2B78     		ldrb	r3, [r5, #0]	@ zero_extendqisi2
 1116 01da 2848     		ldr	r0, .L90+20
 1117 01dc CB18     		adds	r3, r1, r3
 1118 01de DBB2     		uxtb	r3, r3
 1119              	.LVL101:
 1120 01e0 2B70     		strb	r3, [r5, #0]
 1121 01e2 9B18     		adds	r3, r3, r2
 1122              	.LVL102:
 1123 01e4 2370     		strb	r3, [r4, #0]
 1124 01e6 FFF7FEFF 		bl	uart_transmit
 1125              	.LVL103:
 1126              	.LBE93:
 1127              	.LBB94:
 1128 01ea 2B4B     		ldr	r3, .L90+48
 1129 01ec 2278     		ldrb	r2, [r4, #0]	@ zero_extendqisi2
 1130 01ee 1978     		ldrb	r1, [r3, #0]	@ zero_extendqisi2
 1131              	.LVL104:
 1132 01f0 2B78     		ldrb	r3, [r5, #0]	@ zero_extendqisi2
 1133 01f2 2248     		ldr	r0, .L90+20
 1134 01f4 CB18     		adds	r3, r1, r3
 1135 01f6 DBB2     		uxtb	r3, r3
 1136              	.LVL105:
 1137 01f8 2B70     		strb	r3, [r5, #0]
 1138 01fa 9B18     		adds	r3, r3, r2
 1139              	.LVL106:
 1140 01fc 2370     		strb	r3, [r4, #0]
 1141 01fe FFF7FEFF 		bl	uart_transmit
 1142              	.LVL107:
 1143              	.LBE94:
 1144              	.LBB95:
 1145 0202 264B     		ldr	r3, .L90+52
 1146 0204 2278     		ldrb	r2, [r4, #0]	@ zero_extendqisi2
 1147 0206 1978     		ldrb	r1, [r3, #0]	@ zero_extendqisi2
 1148              	.LVL108:
 1149 0208 2B78     		ldrb	r3, [r5, #0]	@ zero_extendqisi2
 1150 020a 1C48     		ldr	r0, .L90+20
 1151 020c CB18     		adds	r3, r1, r3
 1152 020e DBB2     		uxtb	r3, r3
 1153              	.LVL109:
 1154 0210 2B70     		strb	r3, [r5, #0]
 1155 0212 9B18     		adds	r3, r3, r2
 1156              	.LVL110:
 1157 0214 2370     		strb	r3, [r4, #0]
 1158 0216 FFF7FEFF 		bl	uart_transmit
 1159              	.LVL111:
 1160              	.LBE95:
 1161              	.LBB96:
 1162 021a 214B     		ldr	r3, .L90+56
 1163 021c 2278     		ldrb	r2, [r4, #0]	@ zero_extendqisi2
 1164 021e 1978     		ldrb	r1, [r3, #0]	@ zero_extendqisi2
 1165              	.LVL112:
 1166 0220 2B78     		ldrb	r3, [r5, #0]	@ zero_extendqisi2
 1167 0222 1648     		ldr	r0, .L90+20
 1168 0224 CB18     		adds	r3, r1, r3
 1169 0226 DBB2     		uxtb	r3, r3
 1170              	.LVL113:
 1171 0228 2B70     		strb	r3, [r5, #0]
 1172 022a 9B18     		adds	r3, r3, r2
 1173              	.LVL114:
 1174 022c 2370     		strb	r3, [r4, #0]
 1175 022e FFF7FEFF 		bl	uart_transmit
 1176              	.LVL115:
 1177              	.LBE96:
 1178 0232 2978     		ldrb	r1, [r5, #0]	@ zero_extendqisi2
 1179 0234 1148     		ldr	r0, .L90+20
 1180 0236 FFF7FEFF 		bl	uart_transmit
 1181 023a 1048     		ldr	r0, .L90+20
 1182 023c 2178     		ldrb	r1, [r4, #0]	@ zero_extendqisi2
 1183 023e FFF7FEFF 		bl	uart_transmit
 1184 0242 03E0     		b	.L61
 1185              	.L65:
 1186 0244 174B     		ldr	r3, .L90+60
 1187 0246 1A78     		ldrb	r2, [r3, #0]	@ zero_extendqisi2
 1188 0248 0132     		adds	r2, r2, #1
 1189              	.L88:
 1190 024a 1A70     		strb	r2, [r3, #0]
 1191              	.L61:
 310:firmwares/fixedwing/main_ap.c ****   common_nav_periodic_task_4Hz();
 1192              		.loc 1 310 0
 1193 024c FFF7FEFF 		bl	common_nav_periodic_task_4Hz
 311:firmwares/fixedwing/main_ap.c ****   if (pprz_mode == PPRZ_MODE_HOME)
 1194              		.loc 1 311 0
 1195 0250 084B     		ldr	r3, .L90+12
 1196 0252 1B78     		ldrb	r3, [r3, #0]	@ zero_extendqisi2
 1197 0254 032B     		cmp	r3, #3
 1198 0256 02D1     		bne	.L66
 312:firmwares/fixedwing/main_ap.c ****     nav_home();
 1199              		.loc 1 312 0
 1200 0258 FFF7FEFF 		bl	nav_home
 1201 025c 28E0     		b	.L67
 1202              	.L66:
 313:firmwares/fixedwing/main_ap.c ****   else if (pprz_mode == PPRZ_MODE_GPS_OUT_OF_ORDER)
 1203              		.loc 1 313 0
 1204 025e 042B     		cmp	r3, #4
 1205 0260 24D1     		bne	.L68
 314:firmwares/fixedwing/main_ap.c ****     nav_without_gps();
 1206              		.loc 1 314 0
 1207 0262 FFF7FEFF 		bl	nav_without_gps
 1208 0266 23E0     		b	.L67
 1209              	.L91:
 1210              		.align	2
 1211              	.L90:
 1212 0268 00000000 		.word	.LANCHOR5
 1213 026c 00000000 		.word	cpu_time_sec
 1214 0270 00000000 		.word	gps
 1215 0274 00000000 		.word	.LANCHOR4
 1216 0278 00000000 		.word	.LANCHOR12
 1217 027c 00000000 		.word	uart2
 1218 0280 00000000 		.word	downlink_nb_bytes
 1219 0284 00000000 		.word	downlink_nb_msgs
 1220 0288 00000000 		.word	ck_a
 1221 028c 00000000 		.word	ck_b
 1222 0290 00000000 		.word	v_ctl_mode
 1223 0294 00000000 		.word	.LANCHOR7
 1224 0298 00000000 		.word	horizontal_mode
 1225 029c 00000000 		.word	.LANCHOR8
 1226 02a0 00000000 		.word	.LANCHOR6
 1227 02a4 00000000 		.word	downlink_nb_ovrn
 1228 02a8 00000000 		.word	.LANCHOR13
 1229              	.L68:
 316:firmwares/fixedwing/main_ap.c ****     nav_periodic_task();
 1230              		.loc 1 316 0
 1231 02ac FFF7FEFF 		bl	nav_periodic_task
 1232              	.L67:
 1233              	.LBB97:
 323:firmwares/fixedwing/main_ap.c ****   SEND_NAVIGATION(DefaultChannel);
 1234              		.loc 1 323 0
 1235 02b0 954B     		ldr	r3, .L92+8
 1236 02b2 9648     		ldr	r0, .L92+12
 1237 02b4 1A21     		movs	r1, #26
 1238 02b6 1C68     		ldr	r4, [r3, #0]	@ float
 1239 02b8 FFF7FEFF 		bl	uart_check_free_space
 1240 02bc 0028     		cmp	r0, #0
 1241 02be 00F03D81 		beq	.L69
 1242 02c2 24F00040 		bic	r0, r4, #-2147483648
 1243 02c6 FFF7FEFF 		bl	__aeabi_f2d
 1244 02ca 8DA3     		adr	r3, .L92
 1245 02cc D3E90023 		ldrd	r2, [r3]
 1246 02d0 FFF7FEFF 		bl	__aeabi_ddiv
 1247 02d4 FFF7FEFF 		bl	__aeabi_d2uiz
 1248 02d8 8D4B     		ldr	r3, .L92+16
 1249 02da C7B2     		uxtb	r7, r0
 1250              	.LVL116:
 1251 02dc 1A88     		ldrh	r2, [r3, #0]
 1252              	.LBB98:
 1253 02de 9921     		movs	r1, #153
 1254              	.LBE98:
 1255 02e0 1A32     		adds	r2, r2, #26
 1256 02e2 1A80     		strh	r2, [r3, #0]	@ movhi
 1257 02e4 8B4B     		ldr	r3, .L92+20
 1258              	.LBB99:
 1259 02e6 8948     		ldr	r0, .L92+12
 1260              	.LBE99:
 1261 02e8 1A88     		ldrh	r2, [r3, #0]
 1262 02ea 8B4D     		ldr	r5, .L92+24
 1263 02ec 0132     		adds	r2, r2, #1
 1264 02ee 1A80     		strh	r2, [r3, #0]	@ movhi
 1265              	.LBB100:
 1266 02f0 FFF7FEFF 		bl	uart_transmit
 1267 02f4 1A21     		movs	r1, #26
 1268 02f6 8548     		ldr	r0, .L92+12
 1269              	.LBE100:
 1270 02f8 884C     		ldr	r4, .L92+28
 1271              	.LBB101:
 1272 02fa FFF7FEFF 		bl	uart_transmit
 1273              	.LBE101:
 1274 02fe 1B23     		movs	r3, #27
 1275 0300 2B70     		strb	r3, [r5, #0]
 1276 0302 1A33     		adds	r3, r3, #26
 1277 0304 2370     		strb	r3, [r4, #0]
 1278 0306 0121     		movs	r1, #1
 1279 0308 8048     		ldr	r0, .L92+12
 1280 030a FFF7FEFF 		bl	uart_transmit
 1281 030e 2B78     		ldrb	r3, [r5, #0]	@ zero_extendqisi2
 1282 0310 2278     		ldrb	r2, [r4, #0]	@ zero_extendqisi2
 1283 0312 0A33     		adds	r3, r3, #10
 1284 0314 DBB2     		uxtb	r3, r3
 1285              	.LVL117:
 1286 0316 2B70     		strb	r3, [r5, #0]
 1287 0318 9B18     		adds	r3, r3, r2
 1288              	.LVL118:
 1289 031a 2370     		strb	r3, [r4, #0]
 1290 031c 0A21     		movs	r1, #10
 1291 031e 7B48     		ldr	r0, .L92+12
 1292 0320 FFF7FEFF 		bl	uart_transmit
 1293              	.LBB102:
 1294 0324 7E4B     		ldr	r3, .L92+32
 1295 0326 2278     		ldrb	r2, [r4, #0]	@ zero_extendqisi2
 1296 0328 1978     		ldrb	r1, [r3, #0]	@ zero_extendqisi2
 1297              	.LVL119:
 1298 032a 2B78     		ldrb	r3, [r5, #0]	@ zero_extendqisi2
 1299 032c 7748     		ldr	r0, .L92+12
 1300 032e CB18     		adds	r3, r1, r3
 1301 0330 DBB2     		uxtb	r3, r3
 1302              	.LVL120:
 1303 0332 2B70     		strb	r3, [r5, #0]
 1304 0334 9B18     		adds	r3, r3, r2
 1305              	.LVL121:
 1306 0336 2370     		strb	r3, [r4, #0]
 1307 0338 FFF7FEFF 		bl	uart_transmit
 1308              	.LVL122:
 1309              	.LBE102:
 1310              	.LBB103:
 1311 033c 794B     		ldr	r3, .L92+36
 1312 033e 2278     		ldrb	r2, [r4, #0]	@ zero_extendqisi2
 1313 0340 1978     		ldrb	r1, [r3, #0]	@ zero_extendqisi2
 1314              	.LVL123:
 1315 0342 2B78     		ldrb	r3, [r5, #0]	@ zero_extendqisi2
 1316              	.LBE103:
 1317              	.LBB104:
 1318 0344 784E     		ldr	r6, .L92+40
 1319              	.LBE104:
 1320              	.LBB105:
 1321 0346 CB18     		adds	r3, r1, r3
 1322 0348 DBB2     		uxtb	r3, r3
 1323              	.LVL124:
 1324 034a 2B70     		strb	r3, [r5, #0]
 1325 034c 9B18     		adds	r3, r3, r2
 1326              	.LVL125:
 1327 034e 2370     		strb	r3, [r4, #0]
 1328 0350 6E48     		ldr	r0, .L92+12
 1329 0352 FFF7FEFF 		bl	uart_transmit
 1330              	.LVL126:
 1331              	.LBE105:
 1332              	.LBB106:
 1333 0356 3178     		ldrb	r1, [r6, #0]	@ zero_extendqisi2
 1334              	.LVL127:
 1335 0358 2B78     		ldrb	r3, [r5, #0]	@ zero_extendqisi2
 1336 035a 2278     		ldrb	r2, [r4, #0]	@ zero_extendqisi2
 1337 035c CB18     		adds	r3, r1, r3
 1338 035e DBB2     		uxtb	r3, r3
 1339              	.LVL128:
 1340 0360 2B70     		strb	r3, [r5, #0]
 1341 0362 9B18     		adds	r3, r3, r2
 1342              	.LVL129:
 1343 0364 2370     		strb	r3, [r4, #0]
 1344 0366 6948     		ldr	r0, .L92+12
 1345 0368 FFF7FEFF 		bl	uart_transmit
 1346              	.LVL130:
 1347              	.LBE106:
 1348              	.LBB107:
 1349 036c 7178     		ldrb	r1, [r6, #1]	@ zero_extendqisi2
 1350              	.LVL131:
 1351 036e 2B78     		ldrb	r3, [r5, #0]	@ zero_extendqisi2
 1352 0370 2278     		ldrb	r2, [r4, #0]	@ zero_extendqisi2
 1353 0372 CB18     		adds	r3, r1, r3
 1354 0374 DBB2     		uxtb	r3, r3
 1355              	.LVL132:
 1356 0376 2B70     		strb	r3, [r5, #0]
 1357 0378 9B18     		adds	r3, r3, r2
 1358              	.LVL133:
 1359 037a 2370     		strb	r3, [r4, #0]
 1360 037c 6348     		ldr	r0, .L92+12
 1361 037e FFF7FEFF 		bl	uart_transmit
 1362              	.LVL134:
 1363              	.LBE107:
 1364              	.LBB108:
 1365 0382 B178     		ldrb	r1, [r6, #2]	@ zero_extendqisi2
 1366              	.LVL135:
 1367 0384 2B78     		ldrb	r3, [r5, #0]	@ zero_extendqisi2
 1368 0386 2278     		ldrb	r2, [r4, #0]	@ zero_extendqisi2
 1369 0388 CB18     		adds	r3, r1, r3
 1370 038a DBB2     		uxtb	r3, r3
 1371              	.LVL136:
 1372 038c 2B70     		strb	r3, [r5, #0]
 1373 038e 9B18     		adds	r3, r3, r2
 1374              	.LVL137:
 1375 0390 2370     		strb	r3, [r4, #0]
 1376 0392 5E48     		ldr	r0, .L92+12
 1377 0394 FFF7FEFF 		bl	uart_transmit
 1378              	.LVL138:
 1379              	.LBE108:
 1380              	.LBB109:
 1381 0398 F178     		ldrb	r1, [r6, #3]	@ zero_extendqisi2
 1382              	.LVL139:
 1383 039a 2B78     		ldrb	r3, [r5, #0]	@ zero_extendqisi2
 1384 039c 2278     		ldrb	r2, [r4, #0]	@ zero_extendqisi2
 1385 039e CB18     		adds	r3, r1, r3
 1386 03a0 DBB2     		uxtb	r3, r3
 1387              	.LVL140:
 1388              	.LBE109:
 1389              	.LBB110:
 1390 03a2 624E     		ldr	r6, .L92+44
 1391              	.LBE110:
 1392              	.LBB111:
 1393 03a4 2B70     		strb	r3, [r5, #0]
 1394 03a6 9B18     		adds	r3, r3, r2
 1395              	.LVL141:
 1396 03a8 2370     		strb	r3, [r4, #0]
 1397 03aa 5848     		ldr	r0, .L92+12
 1398 03ac FFF7FEFF 		bl	uart_transmit
 1399              	.LVL142:
 1400              	.LBE111:
 1401              	.LBB112:
 1402 03b0 3178     		ldrb	r1, [r6, #0]	@ zero_extendqisi2
 1403              	.LVL143:
 1404 03b2 2B78     		ldrb	r3, [r5, #0]	@ zero_extendqisi2
 1405 03b4 2278     		ldrb	r2, [r4, #0]	@ zero_extendqisi2
 1406 03b6 CB18     		adds	r3, r1, r3
 1407 03b8 DBB2     		uxtb	r3, r3
 1408              	.LVL144:
 1409 03ba 2B70     		strb	r3, [r5, #0]
 1410 03bc 9B18     		adds	r3, r3, r2
 1411              	.LVL145:
 1412 03be 2370     		strb	r3, [r4, #0]
 1413 03c0 5248     		ldr	r0, .L92+12
 1414 03c2 FFF7FEFF 		bl	uart_transmit
 1415              	.LVL146:
 1416              	.LBE112:
 1417              	.LBB113:
 1418 03c6 7178     		ldrb	r1, [r6, #1]	@ zero_extendqisi2
 1419              	.LVL147:
 1420 03c8 2B78     		ldrb	r3, [r5, #0]	@ zero_extendqisi2
 1421 03ca 2278     		ldrb	r2, [r4, #0]	@ zero_extendqisi2
 1422 03cc CB18     		adds	r3, r1, r3
 1423 03ce DBB2     		uxtb	r3, r3
 1424              	.LVL148:
 1425 03d0 2B70     		strb	r3, [r5, #0]
 1426 03d2 9B18     		adds	r3, r3, r2
 1427              	.LVL149:
 1428 03d4 2370     		strb	r3, [r4, #0]
 1429 03d6 4D48     		ldr	r0, .L92+12
 1430 03d8 FFF7FEFF 		bl	uart_transmit
 1431              	.LVL150:
 1432              	.LBE113:
 1433              	.LBB114:
 1434 03dc B178     		ldrb	r1, [r6, #2]	@ zero_extendqisi2
 1435              	.LVL151:
 1436 03de 2B78     		ldrb	r3, [r5, #0]	@ zero_extendqisi2
 1437 03e0 2278     		ldrb	r2, [r4, #0]	@ zero_extendqisi2
 1438 03e2 CB18     		adds	r3, r1, r3
 1439 03e4 DBB2     		uxtb	r3, r3
 1440              	.LVL152:
 1441 03e6 2B70     		strb	r3, [r5, #0]
 1442 03e8 9B18     		adds	r3, r3, r2
 1443              	.LVL153:
 1444 03ea 2370     		strb	r3, [r4, #0]
 1445 03ec 4748     		ldr	r0, .L92+12
 1446 03ee FFF7FEFF 		bl	uart_transmit
 1447              	.LVL154:
 1448              	.LBE114:
 1449              	.LBB115:
 1450 03f2 F178     		ldrb	r1, [r6, #3]	@ zero_extendqisi2
 1451              	.LVL155:
 1452 03f4 2B78     		ldrb	r3, [r5, #0]	@ zero_extendqisi2
 1453 03f6 2278     		ldrb	r2, [r4, #0]	@ zero_extendqisi2
 1454 03f8 CB18     		adds	r3, r1, r3
 1455 03fa DBB2     		uxtb	r3, r3
 1456              	.LVL156:
 1457              	.LBE115:
 1458              	.LBB116:
 1459 03fc 4C4E     		ldr	r6, .L92+48
 1460              	.LBE116:
 1461              	.LBB117:
 1462 03fe 2B70     		strb	r3, [r5, #0]
 1463 0400 9B18     		adds	r3, r3, r2
 1464              	.LVL157:
 1465 0402 2370     		strb	r3, [r4, #0]
 1466 0404 4148     		ldr	r0, .L92+12
 1467 0406 FFF7FEFF 		bl	uart_transmit
 1468              	.LVL158:
 1469              	.LBE117:
 1470              	.LBB118:
 1471 040a 3178     		ldrb	r1, [r6, #0]	@ zero_extendqisi2
 1472              	.LVL159:
 1473 040c 2B78     		ldrb	r3, [r5, #0]	@ zero_extendqisi2
 1474 040e 2278     		ldrb	r2, [r4, #0]	@ zero_extendqisi2
 1475 0410 CB18     		adds	r3, r1, r3
 1476 0412 DBB2     		uxtb	r3, r3
 1477              	.LVL160:
 1478 0414 2B70     		strb	r3, [r5, #0]
 1479 0416 9B18     		adds	r3, r3, r2
 1480              	.LVL161:
 1481 0418 2370     		strb	r3, [r4, #0]
 1482 041a 3C48     		ldr	r0, .L92+12
 1483 041c FFF7FEFF 		bl	uart_transmit
 1484              	.LVL162:
 1485              	.LBE118:
 1486              	.LBB119:
 1487 0420 7178     		ldrb	r1, [r6, #1]	@ zero_extendqisi2
 1488              	.LVL163:
 1489 0422 2B78     		ldrb	r3, [r5, #0]	@ zero_extendqisi2
 1490 0424 2278     		ldrb	r2, [r4, #0]	@ zero_extendqisi2
 1491 0426 CB18     		adds	r3, r1, r3
 1492 0428 DBB2     		uxtb	r3, r3
 1493              	.LVL164:
 1494 042a 2B70     		strb	r3, [r5, #0]
 1495 042c 9B18     		adds	r3, r3, r2
 1496              	.LVL165:
 1497 042e 2370     		strb	r3, [r4, #0]
 1498 0430 3648     		ldr	r0, .L92+12
 1499 0432 FFF7FEFF 		bl	uart_transmit
 1500              	.LVL166:
 1501              	.LBE119:
 1502              	.LBB120:
 1503 0436 B178     		ldrb	r1, [r6, #2]	@ zero_extendqisi2
 1504              	.LVL167:
 1505 0438 2B78     		ldrb	r3, [r5, #0]	@ zero_extendqisi2
 1506 043a 2278     		ldrb	r2, [r4, #0]	@ zero_extendqisi2
 1507 043c CB18     		adds	r3, r1, r3
 1508 043e DBB2     		uxtb	r3, r3
 1509              	.LVL168:
 1510 0440 2B70     		strb	r3, [r5, #0]
 1511 0442 9B18     		adds	r3, r3, r2
 1512              	.LVL169:
 1513 0444 2370     		strb	r3, [r4, #0]
 1514 0446 3148     		ldr	r0, .L92+12
 1515 0448 FFF7FEFF 		bl	uart_transmit
 1516              	.LVL170:
 1517              	.LBE120:
 1518              	.LBB121:
 1519 044c F178     		ldrb	r1, [r6, #3]	@ zero_extendqisi2
 1520              	.LVL171:
 1521 044e 2B78     		ldrb	r3, [r5, #0]	@ zero_extendqisi2
 1522 0450 2278     		ldrb	r2, [r4, #0]	@ zero_extendqisi2
 1523 0452 CB18     		adds	r3, r1, r3
 1524 0454 DBB2     		uxtb	r3, r3
 1525              	.LVL172:
 1526              	.LBE121:
 1527              	.LBB122:
 1528 0456 374E     		ldr	r6, .L92+52
 1529              	.LBE122:
 1530              	.LBB123:
 1531 0458 2B70     		strb	r3, [r5, #0]
 1532 045a 9B18     		adds	r3, r3, r2
 1533              	.LVL173:
 1534 045c 2370     		strb	r3, [r4, #0]
 1535 045e 2B48     		ldr	r0, .L92+12
 1536 0460 FFF7FEFF 		bl	uart_transmit
 1537              	.LVL174:
 1538              	.LBE123:
 1539              	.LBB124:
 1540 0464 3178     		ldrb	r1, [r6, #0]	@ zero_extendqisi2
 1541              	.LVL175:
 1542 0466 2B78     		ldrb	r3, [r5, #0]	@ zero_extendqisi2
 1543 0468 2278     		ldrb	r2, [r4, #0]	@ zero_extendqisi2
 1544 046a CB18     		adds	r3, r1, r3
 1545 046c DBB2     		uxtb	r3, r3
 1546              	.LVL176:
 1547 046e 2B70     		strb	r3, [r5, #0]
 1548 0470 9B18     		adds	r3, r3, r2
 1549              	.LVL177:
 1550 0472 2370     		strb	r3, [r4, #0]
 1551 0474 2548     		ldr	r0, .L92+12
 1552 0476 FFF7FEFF 		bl	uart_transmit
 1553              	.LVL178:
 1554              	.LBE124:
 1555              	.LBB125:
 1556 047a 7178     		ldrb	r1, [r6, #1]	@ zero_extendqisi2
 1557              	.LVL179:
 1558 047c 2B78     		ldrb	r3, [r5, #0]	@ zero_extendqisi2
 1559 047e 2278     		ldrb	r2, [r4, #0]	@ zero_extendqisi2
 1560 0480 CB18     		adds	r3, r1, r3
 1561 0482 DBB2     		uxtb	r3, r3
 1562              	.LVL180:
 1563 0484 2B70     		strb	r3, [r5, #0]
 1564 0486 9B18     		adds	r3, r3, r2
 1565              	.LVL181:
 1566 0488 2370     		strb	r3, [r4, #0]
 1567 048a 2048     		ldr	r0, .L92+12
 1568 048c FFF7FEFF 		bl	uart_transmit
 1569              	.LVL182:
 1570              	.LBE125:
 1571              	.LBB126:
 1572 0490 B178     		ldrb	r1, [r6, #2]	@ zero_extendqisi2
 1573              	.LVL183:
 1574 0492 2B78     		ldrb	r3, [r5, #0]	@ zero_extendqisi2
 1575 0494 2278     		ldrb	r2, [r4, #0]	@ zero_extendqisi2
 1576 0496 CB18     		adds	r3, r1, r3
 1577 0498 DBB2     		uxtb	r3, r3
 1578              	.LVL184:
 1579 049a 2B70     		strb	r3, [r5, #0]
 1580 049c 9B18     		adds	r3, r3, r2
 1581              	.LVL185:
 1582 049e 2370     		strb	r3, [r4, #0]
 1583 04a0 1A48     		ldr	r0, .L92+12
 1584 04a2 FFF7FEFF 		bl	uart_transmit
 1585              	.LVL186:
 1586              	.LBE126:
 1587              	.LBB127:
 1588 04a6 F178     		ldrb	r1, [r6, #3]	@ zero_extendqisi2
 1589              	.LVL187:
 1590 04a8 2B78     		ldrb	r3, [r5, #0]	@ zero_extendqisi2
 1591 04aa 2278     		ldrb	r2, [r4, #0]	@ zero_extendqisi2
 1592 04ac CB18     		adds	r3, r1, r3
 1593 04ae DBB2     		uxtb	r3, r3
 1594              	.LVL188:
 1595 04b0 2B70     		strb	r3, [r5, #0]
 1596 04b2 9B18     		adds	r3, r3, r2
 1597              	.LVL189:
 1598 04b4 2370     		strb	r3, [r4, #0]
 1599 04b6 1548     		ldr	r0, .L92+12
 1600 04b8 FFF7FEFF 		bl	uart_transmit
 1601              	.LVL190:
 1602              	.LBE127:
 1603              	.LBB128:
 1604 04bc 2B78     		ldrb	r3, [r5, #0]	@ zero_extendqisi2
 1605 04be 2278     		ldrb	r2, [r4, #0]	@ zero_extendqisi2
 1606 04c0 FB18     		adds	r3, r7, r3
 1607 04c2 DBB2     		uxtb	r3, r3
 1608              	.LVL191:
 1609 04c4 2B70     		strb	r3, [r5, #0]
 1610 04c6 9B18     		adds	r3, r3, r2
 1611              	.LVL192:
 1612 04c8 2370     		strb	r3, [r4, #0]
 1613 04ca 3946     		mov	r1, r7
 1614 04cc 0F48     		ldr	r0, .L92+12
 1615 04ce FFF7FEFF 		bl	uart_transmit
 1616              	.LBE128:
 1617              	.LBB129:
 1618 04d2 194B     		ldr	r3, .L92+56
 1619 04d4 2278     		ldrb	r2, [r4, #0]	@ zero_extendqisi2
 1620 04d6 1978     		ldrb	r1, [r3, #0]	@ zero_extendqisi2
 1621              	.LVL193:
 1622 04d8 2B78     		ldrb	r3, [r5, #0]	@ zero_extendqisi2
 1623 04da 0C48     		ldr	r0, .L92+12
 1624 04dc CB18     		adds	r3, r1, r3
 1625 04de DBB2     		uxtb	r3, r3
 1626              	.LVL194:
 1627 04e0 2B70     		strb	r3, [r5, #0]
 1628 04e2 9B18     		adds	r3, r3, r2
 1629              	.LVL195:
 1630 04e4 2370     		strb	r3, [r4, #0]
 1631 04e6 FFF7FEFF 		bl	uart_transmit
 1632              	.LVL196:
 1633              	.LBE129:
 1634 04ea 2978     		ldrb	r1, [r5, #0]	@ zero_extendqisi2
 1635 04ec 0748     		ldr	r0, .L92+12
 1636 04ee FFF7FEFF 		bl	uart_transmit
 1637 04f2 0648     		ldr	r0, .L92+12
 1638 04f4 2178     		ldrb	r1, [r4, #0]	@ zero_extendqisi2
 1639 04f6 FFF7FEFF 		bl	uart_transmit
 1640 04fa 23E0     		b	.L70
 1641              	.L93:
 1642 04fc AFF30080 		.align	3
 1643              	.L92:
 1644 0500 182D4454 		.word	1413754136
 1645 0504 FB211940 		.word	1075388923
 1646 0508 00000000 		.word	nav_circle_radians
 1647 050c 00000000 		.word	uart2
 1648 0510 00000000 		.word	downlink_nb_bytes
 1649 0514 00000000 		.word	downlink_nb_msgs
 1650 0518 00000000 		.word	ck_a
 1651 051c 00000000 		.word	ck_b
 1652 0520 00000000 		.word	nav_block
 1653 0524 00000000 		.word	nav_stage
 1654 0528 00000000 		.word	estimator_x
 1655 052c 00000000 		.word	estimator_y
 1656 0530 00000000 		.word	dist2_to_wp
 1657 0534 00000000 		.word	dist2_to_home
 1658 0538 00000000 		.word	nav_oval_count
 1659              	.LVL197:
 1660              	.L69:
 1661 053c 444B     		ldr	r3, .L94+8
 1662 053e 1A78     		ldrb	r2, [r3, #0]	@ zero_extendqisi2
 1663 0540 0132     		adds	r2, r2, #1
 1664 0542 1A70     		strb	r2, [r3, #0]
 1665              	.LVL198:
 1666              	.L70:
 1667              	.LBE97:
 331:firmwares/fixedwing/main_ap.c ****   if (v_ctl_mode == V_CTL_MODE_AUTO_ALT)
 1668              		.loc 1 331 0
 1669 0544 434B     		ldr	r3, .L94+12
 1670 0546 1B78     		ldrb	r3, [r3, #0]	@ zero_extendqisi2
 1671 0548 032B     		cmp	r3, #3
 1672 054a 01D1     		bne	.L71
 332:firmwares/fixedwing/main_ap.c ****     v_ctl_altitude_loop();
 1673              		.loc 1 332 0
 1674 054c FFF7FEFF 		bl	v_ctl_altitude_loop
 1675              	.L71:
 334:firmwares/fixedwing/main_ap.c ****   if (pprz_mode == PPRZ_MODE_AUTO2 || pprz_mode == PPRZ_MODE_HOME
 1676              		.loc 1 334 0
 1677 0550 414B     		ldr	r3, .L94+16
 1678 0552 1B78     		ldrb	r3, [r3, #0]	@ zero_extendqisi2
 1679 0554 023B     		subs	r3, r3, #2
 1680 0556 DBB2     		uxtb	r3, r3
 1681 0558 022B     		cmp	r3, #2
 1682 055a 61D8     		bhi	.L72
 340:firmwares/fixedwing/main_ap.c ****     if (lateral_mode >=LATERAL_MODE_COURSE)
 1683              		.loc 1 340 0
 1684 055c 3F4B     		ldr	r3, .L94+20
 1685 055e 1B78     		ldrb	r3, [r3, #0]	@ zero_extendqisi2
 1686 0560 022B     		cmp	r3, #2
 1687 0562 01D9     		bls	.L73
 341:firmwares/fixedwing/main_ap.c ****       h_ctl_course_loop(); /* aka compute nav_desired_roll */
 1688              		.loc 1 341 0
 1689 0564 FFF7FEFF 		bl	h_ctl_course_loop
 1690              	.L73:
 342:firmwares/fixedwing/main_ap.c ****     if (v_ctl_mode >= V_CTL_MODE_AUTO_CLIMB)
 1691              		.loc 1 342 0
 1692 0568 3A4B     		ldr	r3, .L94+12
 1693 056a 1B78     		ldrb	r3, [r3, #0]	@ zero_extendqisi2
 1694 056c 012B     		cmp	r3, #1
 1695 056e 01D9     		bls	.L74
 343:firmwares/fixedwing/main_ap.c ****       v_ctl_climb_loop();
 1696              		.loc 1 343 0
 1697 0570 FFF7FEFF 		bl	v_ctl_climb_loop
 1698              	.L74:
 344:firmwares/fixedwing/main_ap.c ****     if (v_ctl_mode == V_CTL_MODE_AUTO_THROTTLE)
 1699              		.loc 1 344 0
 1700 0574 374B     		ldr	r3, .L94+12
 1701 0576 1B78     		ldrb	r3, [r3, #0]	@ zero_extendqisi2
 1702 0578 012B     		cmp	r3, #1
 1703 057a 03D1     		bne	.L75
 345:firmwares/fixedwing/main_ap.c ****       v_ctl_throttle_setpoint = nav_throttle_setpoint;
 1704              		.loc 1 345 0
 1705 057c 384A     		ldr	r2, .L94+24
 1706 057e 394B     		ldr	r3, .L94+28
 1707 0580 1288     		ldrh	r2, [r2, #0]
 1708 0582 1A80     		strh	r2, [r3, #0]	@ movhi
 1709              	.L75:
 352:firmwares/fixedwing/main_ap.c ****     if (vsupply > 0.) {
 1710              		.loc 1 352 0
 1711 0584 384B     		ldr	r3, .L94+32
 1712 0586 1D78     		ldrb	r5, [r3, #0]	@ zero_extendqisi2
 1713 0588 2846     		mov	r0, r5
 1714 058a FFF7FEFF 		bl	__aeabi_i2d
 1715 058e 0022     		movs	r2, #0
 1716 0590 0023     		movs	r3, #0
 1717 0592 FFF7FEFF 		bl	__aeabi_dcmpgt
 1718 0596 18B3     		cbz	r0, .L76
 354:firmwares/fixedwing/main_ap.c ****       v_ctl_throttle_setpoint = TRIM_UPPRZ(v_ctl_throttle_setpoint);
 1719              		.loc 1 354 0
 1720 0598 324C     		ldr	r4, .L94+28
 1721 059a B4F90000 		ldrsh	r0, [r4, #0]
 1722 059e FFF7FEFF 		bl	__aeabi_i2d
 1723 05a2 0646     		mov	r6, r0
 1724 05a4 2846     		mov	r0, r5
 1725 05a6 0F46     		mov	r7, r1
 1726              	.LVL199:
 1727 05a8 FFF7FEFF 		bl	__aeabi_ui2f
 1728 05ac FFF7FEFF 		bl	__aeabi_f2d
 1729 05b0 0246     		mov	r2, r0
 1730 05b2 0B46     		mov	r3, r1
 1731 05b4 24A1     		adr	r1, .L94
 1732 05b6 D1E90001 		ldrd	r0, [r1]
 1733 05ba FFF7FEFF 		bl	__aeabi_ddiv
 1734 05be 0B46     		mov	r3, r1
 1735 05c0 0246     		mov	r2, r0
 1736 05c2 3946     		mov	r1, r7
 1737 05c4 3046     		mov	r0, r6
 1738 05c6 FFF7FEFF 		bl	__aeabi_dmul
 1739 05ca FFF7FEFF 		bl	__aeabi_d2iz
 1740 05ce 03B2     		sxth	r3, r0
 1741 05d0 B3F5165F 		cmp	r3, #9600
 1742 05d4 A8BF     		it	ge
 1743 05d6 4FF41653 		movge	r3, #9600
 1744              	.LVL200:
 1745 05da 23EAE373 		bic	r3, r3, r3, asr #31
 1746              	.LVL201:
 1747 05de 2380     		strh	r3, [r4, #0]	@ movhi
 1748              	.LVL202:
 1749              	.L76:
 358:firmwares/fixedwing/main_ap.c ****     h_ctl_pitch_setpoint = nav_pitch;
 1750              		.loc 1 358 0
 1751 05e0 224B     		ldr	r3, .L94+36
 1752 05e2 234C     		ldr	r4, .L94+40
 1753 05e4 1D68     		ldr	r5, [r3, #0]	@ float
 1754              	.LVL203:
 359:firmwares/fixedwing/main_ap.c ****     Bound(h_ctl_pitch_setpoint, H_CTL_PITCH_MIN_SETPOINT, H_CTL_PITCH_MAX_SETPOINT);
 1755              		.loc 1 359 0
 1756 05e6 4FF07C56 		mov	r6, #1056964608
 358:firmwares/fixedwing/main_ap.c ****     h_ctl_pitch_setpoint = nav_pitch;
 1757              		.loc 1 358 0
 1758 05ea 2560     		str	r5, [r4, #0]	@ float
 359:firmwares/fixedwing/main_ap.c ****     Bound(h_ctl_pitch_setpoint, H_CTL_PITCH_MIN_SETPOINT, H_CTL_PITCH_MAX_SETPOINT);
 1759              		.loc 1 359 0
 1760 05ec 2846     		mov	r0, r5
 1761 05ee 3146     		mov	r1, r6
 1762 05f0 FFF7FEFF 		bl	__aeabi_fcmpgt
 1763 05f4 30B9     		cbnz	r0, .L89
 1764 05f6 4FF03F46 		mov	r6, #-1090519040
 1765 05fa 2846     		mov	r0, r5
 1766 05fc 3146     		mov	r1, r6
 1767 05fe FFF7FEFF 		bl	__aeabi_fcmplt
 1768 0602 00B1     		cbz	r0, .L80
 1769              	.L89:
 1770 0604 2660     		str	r6, [r4, #0]	@ float
 1771              	.L80:
 360:firmwares/fixedwing/main_ap.c ****     if (kill_throttle || (!estimator_flight_time && !launch))
 1772              		.loc 1 360 0
 1773 0606 1B4B     		ldr	r3, .L94+44
 1774 0608 1B78     		ldrb	r3, [r3, #0]	@ zero_extendqisi2
 1775 060a 2BB9     		cbnz	r3, .L82
 1776 060c 1A4B     		ldr	r3, .L94+48
 1777 060e 1B88     		ldrh	r3, [r3, #0]
 1778 0610 33B9     		cbnz	r3, .L72
 1779 0612 1A4B     		ldr	r3, .L94+52
 1780 0614 1B78     		ldrb	r3, [r3, #0]	@ zero_extendqisi2
 1781 0616 1BB9     		cbnz	r3, .L72
 1782              	.L82:
 361:firmwares/fixedwing/main_ap.c ****       v_ctl_throttle_setpoint = 0;
 1783              		.loc 1 361 0
 1784 0618 124B     		ldr	r3, .L94+28
 1785 061a 4FF00002 		mov	r2, #0	@ movhi
 1786 061e 1A80     		strh	r2, [r3, #0]	@ movhi
 1787              	.L72:
 363:firmwares/fixedwing/main_ap.c ****   energy += ((float)current) / 3600.0f * 0.25f;	// mAh = mA * dt (4Hz -> hours)
 1788              		.loc 1 363 0
 1789 0620 174B     		ldr	r3, .L94+56
 1790 0622 184C     		ldr	r4, .L94+60
 1791 0624 1868     		ldr	r0, [r3, #0]
 1792 0626 FFF7FEFF 		bl	__aeabi_i2f
 1793 062a 1749     		ldr	r1, .L94+64
 1794 062c FFF7FEFF 		bl	__aeabi_fdiv
 1795 0630 4FF07A51 		mov	r1, #1048576000
 1796 0634 FFF7FEFF 		bl	__aeabi_fmul
 1797 0638 0146     		mov	r1, r0
 1798 063a 2068     		ldr	r0, [r4, #0]	@ float
 1799 063c FFF7FEFF 		bl	__aeabi_fadd
 1800 0640 2060     		str	r0, [r4, #0]	@ float
 364:firmwares/fixedwing/main_ap.c **** }
 1801              		.loc 1 364 0
 1802 0642 F8BD     		pop	{r3, r4, r5, r6, r7, pc}
 1803              	.L95:
 1804 0644 AFF30080 		.align	3
 1805              	.L94:
 1806 0648 00000000 		.word	0
 1807 064c 00C05B40 		.word	1079754752
 1808 0650 00000000 		.word	downlink_nb_ovrn
 1809 0654 00000000 		.word	v_ctl_mode
 1810 0658 00000000 		.word	.LANCHOR4
 1811 065c 00000000 		.word	.LANCHOR7
 1812 0660 00000000 		.word	nav_throttle_setpoint
 1813 0664 00000000 		.word	v_ctl_throttle_setpoint
 1814 0668 00000000 		.word	.LANCHOR10
 1815 066c 00000000 		.word	nav_pitch
 1816 0670 00000000 		.word	h_ctl_pitch_setpoint
 1817 0674 00000000 		.word	.LANCHOR14
 1818 0678 00000000 		.word	estimator_flight_time
 1819 067c 00000000 		.word	.LANCHOR5
 1820 0680 00000000 		.word	.LANCHOR11
 1821 0684 00000000 		.word	.LANCHOR15
 1822 0688 00006145 		.word	1163984896
 1823              		.cfi_endproc
 1824              	.LFE52:
 1826 068c AFF30080 		.section	.text.attitude_loop,"ax",%progbits
 1827              		.align	1
 1828              		.thumb
 1829              		.thumb_func
 1831              	attitude_loop:
 1832              	.LFB53:
 393:firmwares/fixedwing/main_ap.c **** static inline void attitude_loop( void ) {
 1833              		.loc 1 393 0
 1834              		.cfi_startproc
 1835              		@ args = 0, pretend = 0, frame = 0
 1836              		@ frame_needed = 0, uses_anonymous_args = 0
 1837 0000 08B5     		push	{r3, lr}
 1838              	.LCFI2:
 1839              		.cfi_def_cfa_offset 8
 403:firmwares/fixedwing/main_ap.c ****   h_ctl_attitude_loop(); /* Set  h_ctl_aileron_setpoint & h_ctl_elevator_setpoint */
 1840              		.loc 1 403 0
 1841              		.cfi_offset 14, -4
 1842              		.cfi_offset 3, -8
 1843 0002 FFF7FEFF 		bl	h_ctl_attitude_loop
 404:firmwares/fixedwing/main_ap.c ****   v_ctl_throttle_slew();
 1844              		.loc 1 404 0
 1845 0006 FFF7FEFF 		bl	v_ctl_throttle_slew
 405:firmwares/fixedwing/main_ap.c ****   ap_state->commands[COMMAND_THROTTLE] = v_ctl_throttle_slewed;
 1846              		.loc 1 405 0
 1847 000a 074B     		ldr	r3, .L98
 1848 000c 074A     		ldr	r2, .L98+4
 1849 000e 1B68     		ldr	r3, [r3, #0]
 1850 0010 1288     		ldrh	r2, [r2, #0]
 1851 0012 1A80     		strh	r2, [r3, #0]	@ movhi
 406:firmwares/fixedwing/main_ap.c ****   ap_state->commands[COMMAND_ROLL] = h_ctl_aileron_setpoint;
 1852              		.loc 1 406 0
 1853 0014 064A     		ldr	r2, .L98+8
 1854 0016 1288     		ldrh	r2, [r2, #0]
 1855 0018 5A80     		strh	r2, [r3, #2]	@ movhi
 408:firmwares/fixedwing/main_ap.c ****   ap_state->commands[COMMAND_PITCH] = h_ctl_elevator_setpoint;
 1856              		.loc 1 408 0
 1857 001a 064A     		ldr	r2, .L98+12
 1858 001c 1288     		ldrh	r2, [r2, #0]
 1859 001e 9A80     		strh	r2, [r3, #4]	@ movhi
 414:firmwares/fixedwing/main_ap.c ****   inter_mcu_received_ap = TRUE;
 1860              		.loc 1 414 0
 1861 0020 054B     		ldr	r3, .L98+16
 1862 0022 0122     		movs	r2, #1
 1863 0024 1A70     		strb	r2, [r3, #0]
 417:firmwares/fixedwing/main_ap.c **** }
 1864              		.loc 1 417 0
 1865 0026 08BD     		pop	{r3, pc}
 1866              	.L99:
 1867              		.align	2
 1868              	.L98:
 1869 0028 00000000 		.word	ap_state
 1870 002c 00000000 		.word	v_ctl_throttle_slewed
 1871 0030 00000000 		.word	h_ctl_aileron_setpoint
 1872 0034 00000000 		.word	h_ctl_elevator_setpoint
 1873 0038 00000000 		.word	inter_mcu_received_ap
 1874              		.cfi_endproc
 1875              	.LFE53:
 1877              		.global	__aeabi_f2iz
 1878              		.global	__aeabi_dcmplt
 1879              		.section	.text.periodic_task_ap,"ax",%progbits
 1880              		.align	1
 1881              		.global	periodic_task_ap
 1882              		.thumb
 1883              		.thumb_func
 1885              	periodic_task_ap:
 1886              	.LFB54:
 425:firmwares/fixedwing/main_ap.c **** void periodic_task_ap( void ) {
 1887              		.loc 1 425 0
 1888              		.cfi_startproc
 1889              		@ args = 0, pretend = 0, frame = 16
 1890              		@ frame_needed = 0, uses_anonymous_args = 0
 1891 0000 2DE9F045 		push	{r4, r5, r6, r7, r8, sl, lr}
 1892              	.LCFI3:
 1893              		.cfi_def_cfa_offset 28
 448:firmwares/fixedwing/main_ap.c ****   _60Hz++;
 1894              		.loc 1 448 0
 1895 0004 424B     		ldr	r3, .L322
 425:firmwares/fixedwing/main_ap.c **** void periodic_task_ap( void ) {
 1896              		.loc 1 425 0
 1897 0006 85B0     		sub	sp, sp, #20
 1898              	.LCFI4:
 1899              		.cfi_def_cfa_offset 48
 448:firmwares/fixedwing/main_ap.c ****   _60Hz++;
 1900              		.loc 1 448 0
 1901 0008 1A78     		ldrb	r2, [r3, #0]	@ zero_extendqisi2
 1902 000a 0132     		adds	r2, r2, #1
 1903 000c D2B2     		uxtb	r2, r2
 1904 000e 1A70     		strb	r2, [r3, #0]
 449:firmwares/fixedwing/main_ap.c ****   if (_60Hz >= (PERIODIC_FREQUENCY / 60))
 1905              		.loc 1 449 0
 1906 0010 002A     		cmp	r2, #0
 1907 0012 05F03585 		beq	.L299
 1908              		.cfi_offset 14, -4
 1909              		.cfi_offset 10, -8
 1910              		.cfi_offset 8, -12
 1911              		.cfi_offset 7, -16
 1912              		.cfi_offset 6, -20
 1913              		.cfi_offset 5, -24
 1914              		.cfi_offset 4, -28
 451:firmwares/fixedwing/main_ap.c ****     _60Hz = 0;
 1915              		.loc 1 451 0
 1916 0016 0022     		movs	r2, #0
 1917 0018 1A70     		strb	r2, [r3, #0]
 460:firmwares/fixedwing/main_ap.c ****   _20Hz++;
 1918              		.loc 1 460 0
 1919 001a 3E4B     		ldr	r3, .L322+4
 1920 001c 1978     		ldrb	r1, [r3, #0]	@ zero_extendqisi2
 1921 001e 0131     		adds	r1, r1, #1
 1922 0020 C9B2     		uxtb	r1, r1
 461:firmwares/fixedwing/main_ap.c ****   if (_20Hz>=3) _20Hz=0;
 1923              		.loc 1 461 0
 1924 0022 0229     		cmp	r1, #2
 460:firmwares/fixedwing/main_ap.c ****   _20Hz++;
 1925              		.loc 1 460 0
 1926 0024 1970     		strb	r1, [r3, #0]
 461:firmwares/fixedwing/main_ap.c ****   if (_20Hz>=3) _20Hz=0;
 1927              		.loc 1 461 0
 1928 0026 88BF     		it	hi
 1929 0028 1A70     		strbhi	r2, [r3, #0]
 462:firmwares/fixedwing/main_ap.c ****   _10Hz++;
 1930              		.loc 1 462 0
 1931 002a 3B4B     		ldr	r3, .L322+8
 1932 002c 1A78     		ldrb	r2, [r3, #0]	@ zero_extendqisi2
 1933 002e 0132     		adds	r2, r2, #1
 1934 0030 D2B2     		uxtb	r2, r2
 463:firmwares/fixedwing/main_ap.c ****   if (_10Hz>=6) _10Hz=0;
 1935              		.loc 1 463 0
 1936 0032 052A     		cmp	r2, #5
 462:firmwares/fixedwing/main_ap.c ****   _10Hz++;
 1937              		.loc 1 462 0
 1938 0034 1A70     		strb	r2, [r3, #0]
 463:firmwares/fixedwing/main_ap.c ****   if (_10Hz>=6) _10Hz=0;
 1939              		.loc 1 463 0
 1940 0036 01D9     		bls	.L103
 1941 0038 0022     		movs	r2, #0
 1942 003a 1A70     		strb	r2, [r3, #0]
 1943              	.L103:
 464:firmwares/fixedwing/main_ap.c ****   _4Hz++;
 1944              		.loc 1 464 0
 1945 003c 374B     		ldr	r3, .L322+12
 1946 003e 1A78     		ldrb	r2, [r3, #0]	@ zero_extendqisi2
 1947 0040 0132     		adds	r2, r2, #1
 1948 0042 D2B2     		uxtb	r2, r2
 465:firmwares/fixedwing/main_ap.c ****   if (_4Hz>=15) _4Hz=0;
 1949              		.loc 1 465 0
 1950 0044 0E2A     		cmp	r2, #14
 464:firmwares/fixedwing/main_ap.c ****   _4Hz++;
 1951              		.loc 1 464 0
 1952 0046 1A70     		strb	r2, [r3, #0]
 465:firmwares/fixedwing/main_ap.c ****   if (_4Hz>=15) _4Hz=0;
 1953              		.loc 1 465 0
 1954 0048 01D9     		bls	.L104
 1955 004a 0022     		movs	r2, #0
 1956 004c 1A70     		strb	r2, [r3, #0]
 1957              	.L104:
 466:firmwares/fixedwing/main_ap.c ****   _1Hz++;
 1958              		.loc 1 466 0
 1959 004e 344B     		ldr	r3, .L322+16
 1960 0050 1A78     		ldrb	r2, [r3, #0]	@ zero_extendqisi2
 1961 0052 0132     		adds	r2, r2, #1
 1962 0054 D2B2     		uxtb	r2, r2
 467:firmwares/fixedwing/main_ap.c ****   if (_1Hz>=60) _1Hz=0;
 1963              		.loc 1 467 0
 1964 0056 3B2A     		cmp	r2, #59
 466:firmwares/fixedwing/main_ap.c ****   _1Hz++;
 1965              		.loc 1 466 0
 1966 0058 1A70     		strb	r2, [r3, #0]
 467:firmwares/fixedwing/main_ap.c ****   if (_1Hz>=60) _1Hz=0;
 1967              		.loc 1 467 0
 1968 005a 01D9     		bls	.L105
 1969 005c 0022     		movs	r2, #0
 1970 005e 1A70     		strb	r2, [r3, #0]
 1971              	.L105:
 1972              	.LBB778:
 1973              	.LBB779:
 199:firmwares/fixedwing/main_ap.c ****   if (boot) {
 1974              		.loc 1 199 0
 1975 0060 304B     		ldr	r3, .L322+20
 1976 0062 1B78     		ldrb	r3, [r3, #0]	@ zero_extendqisi2
 1977 0064 002B     		cmp	r3, #0
 1978 0066 6DD0     		beq	.L106
 200:firmwares/fixedwing/main_ap.c ****     DOWNLINK_SEND_BOOT(DefaultChannel, &version);
 1979              		.loc 1 200 0
 1980 0068 2F48     		ldr	r0, .L322+24
 1981 006a 0821     		movs	r1, #8
 1982 006c FFF7FEFF 		bl	uart_check_free_space
 1983 0070 0028     		cmp	r0, #0
 1984 0072 44D0     		beq	.L107
 1985 0074 2D4B     		ldr	r3, .L322+28
 1986              	.LBB780:
 1987 0076 9921     		movs	r1, #153
 1988              	.LBE780:
 1989 0078 1A88     		ldrh	r2, [r3, #0]
 1990              	.LBB781:
 1991 007a 2B48     		ldr	r0, .L322+24
 1992              	.LBE781:
 1993 007c 0832     		adds	r2, r2, #8
 1994 007e 1A80     		strh	r2, [r3, #0]	@ movhi
 1995 0080 2B4B     		ldr	r3, .L322+32
 1996              	.LBB782:
 1997 0082 2C4D     		ldr	r5, .L322+36
 1998              	.LBE782:
 1999 0084 1A88     		ldrh	r2, [r3, #0]
 2000              	.LBB783:
 2001 0086 2C4C     		ldr	r4, .L322+40
 2002              	.LBE783:
 2003 0088 0132     		adds	r2, r2, #1
 2004 008a 1A80     		strh	r2, [r3, #0]	@ movhi
 2005              	.LBB784:
 2006 008c FFF7FEFF 		bl	uart_transmit
 2007 0090 0821     		movs	r1, #8
 2008 0092 2548     		ldr	r0, .L322+24
 2009 0094 FFF7FEFF 		bl	uart_transmit
 2010              	.LBE784:
 2011 0098 0923     		movs	r3, #9
 2012 009a 2B70     		strb	r3, [r5, #0]
 2013 009c 0833     		adds	r3, r3, #8
 2014 009e 2370     		strb	r3, [r4, #0]
 2015 00a0 0121     		movs	r1, #1
 2016 00a2 2148     		ldr	r0, .L322+24
 2017 00a4 FFF7FEFF 		bl	uart_transmit
 2018 00a8 2B78     		ldrb	r3, [r5, #0]	@ zero_extendqisi2
 2019 00aa 2278     		ldrb	r2, [r4, #0]	@ zero_extendqisi2
 2020 00ac 0133     		adds	r3, r3, #1
 2021 00ae DBB2     		uxtb	r3, r3
 2022 00b0 2B70     		strb	r3, [r5, #0]
 2023              	.LBB785:
 2024 00b2 224E     		ldr	r6, .L322+44
 2025              	.LBE785:
 2026 00b4 9B18     		adds	r3, r3, r2
 2027 00b6 2370     		strb	r3, [r4, #0]
 2028 00b8 0121     		movs	r1, #1
 2029 00ba 1B48     		ldr	r0, .L322+24
 2030 00bc FFF7FEFF 		bl	uart_transmit
 2031              	.LBB786:
 2032 00c0 3178     		ldrb	r1, [r6, #0]	@ zero_extendqisi2
 2033              	.LVL204:
 2034 00c2 2B78     		ldrb	r3, [r5, #0]	@ zero_extendqisi2
 2035 00c4 2278     		ldrb	r2, [r4, #0]	@ zero_extendqisi2
 2036 00c6 CB18     		adds	r3, r1, r3
 2037 00c8 DBB2     		uxtb	r3, r3
 2038 00ca 2B70     		strb	r3, [r5, #0]
 2039 00cc 9B18     		adds	r3, r3, r2
 2040 00ce 2370     		strb	r3, [r4, #0]
 2041 00d0 1548     		ldr	r0, .L322+24
 2042 00d2 FFF7FEFF 		bl	uart_transmit
 2043              	.LVL205:
 2044              	.LBE786:
 2045              	.LBB787:
 2046 00d6 7178     		ldrb	r1, [r6, #1]	@ zero_extendqisi2
 2047              	.LVL206:
 2048 00d8 2B78     		ldrb	r3, [r5, #0]	@ zero_extendqisi2
 2049 00da 2278     		ldrb	r2, [r4, #0]	@ zero_extendqisi2
 2050 00dc CB18     		adds	r3, r1, r3
 2051 00de DBB2     		uxtb	r3, r3
 2052 00e0 2B70     		strb	r3, [r5, #0]
 2053 00e2 9B18     		adds	r3, r3, r2
 2054 00e4 2370     		strb	r3, [r4, #0]
 2055 00e6 1048     		ldr	r0, .L322+24
 2056 00e8 FFF7FEFF 		bl	uart_transmit
 2057              	.LVL207:
 2058              	.LBE787:
 2059 00ec 2978     		ldrb	r1, [r5, #0]	@ zero_extendqisi2
 2060 00ee 0E48     		ldr	r0, .L322+24
 2061 00f0 FFF7FEFF 		bl	uart_transmit
 2062 00f4 0C48     		ldr	r0, .L322+24
 2063 00f6 2178     		ldrb	r1, [r4, #0]	@ zero_extendqisi2
 2064 00f8 FFF7FEFF 		bl	uart_transmit
 2065 00fc 03E0     		b	.L108
 2066              	.L107:
 2067 00fe 104B     		ldr	r3, .L322+48
 2068 0100 1A78     		ldrb	r2, [r3, #0]	@ zero_extendqisi2
 2069 0102 0132     		adds	r2, r2, #1
 2070 0104 1A70     		strb	r2, [r3, #0]
 2071              	.L108:
 201:firmwares/fixedwing/main_ap.c ****     boot = FALSE;
 2072              		.loc 1 201 0
 2073 0106 0022     		movs	r2, #0
 2074 0108 064B     		ldr	r3, .L322+20
 2075 010a 05F01BBC 		b	.L314
 2076              	.L323:
 2077 010e 00BF     		.align	2
 2078              	.L322:
 2079 0110 00000000 		.word	.LANCHOR16
 2080 0114 00000000 		.word	.LANCHOR17
 2081 0118 00000000 		.word	.LANCHOR18
 2082 011c 00000000 		.word	.LANCHOR19
 2083 0120 00000000 		.word	.LANCHOR20
 2084 0124 00000000 		.word	.LANCHOR21
 2085 0128 00000000 		.word	uart2
 2086 012c 00000000 		.word	downlink_nb_bytes
 2087 0130 00000000 		.word	downlink_nb_msgs
 2088 0134 00000000 		.word	ck_a
 2089 0138 00000000 		.word	ck_b
 2090 013c 00000000 		.word	.LANCHOR22
 2091 0140 00000000 		.word	downlink_nb_ovrn
 2092              	.L106:
 205:firmwares/fixedwing/main_ap.c ****     PeriodicSendAp(DefaultChannel);
 2093              		.loc 1 205 0
 2094 0144 9E4B     		ldr	r3, .L324+16
 2095 0146 1A78     		ldrb	r2, [r3, #0]	@ zero_extendqisi2
 2096 0148 002A     		cmp	r2, #0
 2097 014a 42F08981 		bne	.L110
 2098              	.LBB788:
 2099 014e 9D4B     		ldr	r3, .L324+20
 2100 0150 1978     		ldrb	r1, [r3, #0]	@ zero_extendqisi2
 2101 0152 0131     		adds	r1, r1, #1
 2102 0154 C9B2     		uxtb	r1, r1
 2103 0156 0E29     		cmp	r1, #14
 2104 0158 1970     		strb	r1, [r3, #0]
 2105 015a 88BF     		it	hi
 2106 015c 1A70     		strbhi	r2, [r3, #0]
 2107 015e 9A4B     		ldr	r3, .L324+24
 2108 0160 1A78     		ldrb	r2, [r3, #0]	@ zero_extendqisi2
 2109 0162 0132     		adds	r2, r2, #1
 2110 0164 D2B2     		uxtb	r2, r2
 2111 0166 1D2A     		cmp	r2, #29
 2112 0168 1A70     		strb	r2, [r3, #0]
 2113 016a 01D9     		bls	.L112
 2114 016c 0022     		movs	r2, #0
 2115 016e 1A70     		strb	r2, [r3, #0]
 2116              	.L112:
 2117 0170 964B     		ldr	r3, .L324+28
 2118 0172 1A78     		ldrb	r2, [r3, #0]	@ zero_extendqisi2
 2119 0174 0132     		adds	r2, r2, #1
 2120 0176 D2B2     		uxtb	r2, r2
 2121 0178 3B2A     		cmp	r2, #59
 2122 017a 1A70     		strb	r2, [r3, #0]
 2123 017c 01D9     		bls	.L113
 2124 017e 0022     		movs	r2, #0
 2125 0180 1A70     		strb	r2, [r3, #0]
 2126              	.L113:
 2127 0182 934B     		ldr	r3, .L324+32
 2128 0184 1A78     		ldrb	r2, [r3, #0]	@ zero_extendqisi2
 2129 0186 0132     		adds	r2, r2, #1
 2130 0188 D2B2     		uxtb	r2, r2
 2131 018a 3E2A     		cmp	r2, #62
 2132 018c 1A70     		strb	r2, [r3, #0]
 2133 018e 01D9     		bls	.L114
 2134 0190 0022     		movs	r2, #0
 2135 0192 1A70     		strb	r2, [r3, #0]
 2136              	.L114:
 2137 0194 8F4B     		ldr	r3, .L324+36
 2138 0196 1A78     		ldrb	r2, [r3, #0]	@ zero_extendqisi2
 2139 0198 0132     		adds	r2, r2, #1
 2140 019a D2B2     		uxtb	r2, r2
 2141 019c 412A     		cmp	r2, #65
 2142 019e 1A70     		strb	r2, [r3, #0]
 2143 01a0 01D9     		bls	.L115
 2144 01a2 0022     		movs	r2, #0
 2145 01a4 1A70     		strb	r2, [r3, #0]
 2146              	.L115:
 2147 01a6 8C4B     		ldr	r3, .L324+40
 2148 01a8 1A78     		ldrb	r2, [r3, #0]	@ zero_extendqisi2
 2149 01aa 0132     		adds	r2, r2, #1
 2150 01ac D2B2     		uxtb	r2, r2
 2151 01ae 472A     		cmp	r2, #71
 2152 01b0 1A70     		strb	r2, [r3, #0]
 2153 01b2 01D9     		bls	.L116
 2154 01b4 0022     		movs	r2, #0
 2155 01b6 1A70     		strb	r2, [r3, #0]
 2156              	.L116:
 2157 01b8 884B     		ldr	r3, .L324+44
 2158 01ba 1A78     		ldrb	r2, [r3, #0]	@ zero_extendqisi2
 2159 01bc 0132     		adds	r2, r2, #1
 2160 01be D2B2     		uxtb	r2, r2
 2161 01c0 592A     		cmp	r2, #89
 2162 01c2 1A70     		strb	r2, [r3, #0]
 2163 01c4 01D9     		bls	.L117
 2164 01c6 0022     		movs	r2, #0
 2165 01c8 1A70     		strb	r2, [r3, #0]
 2166              	.L117:
 2167 01ca 854B     		ldr	r3, .L324+48
 2168 01cc 1A78     		ldrb	r2, [r3, #0]	@ zero_extendqisi2
 2169 01ce 0132     		adds	r2, r2, #1
 2170 01d0 D2B2     		uxtb	r2, r2
 2171 01d2 772A     		cmp	r2, #119
 2172 01d4 1A70     		strb	r2, [r3, #0]
 2173 01d6 01D9     		bls	.L118
 2174 01d8 0022     		movs	r2, #0
 2175 01da 1A70     		strb	r2, [r3, #0]
 2176              	.L118:
 2177 01dc 814B     		ldr	r3, .L324+52
 2178 01de 1A78     		ldrb	r2, [r3, #0]	@ zero_extendqisi2
 2179 01e0 0132     		adds	r2, r2, #1
 2180 01e2 D2B2     		uxtb	r2, r2
 2181 01e4 7D2A     		cmp	r2, #125
 2182 01e6 1A70     		strb	r2, [r3, #0]
 2183 01e8 01D9     		bls	.L119
 2184 01ea 0022     		movs	r2, #0
 2185 01ec 1A70     		strb	r2, [r3, #0]
 2186              	.L119:
 2187 01ee 7E4B     		ldr	r3, .L324+56
 2188 01f0 1A78     		ldrb	r2, [r3, #0]	@ zero_extendqisi2
 2189 01f2 0132     		adds	r2, r2, #1
 2190 01f4 D2B2     		uxtb	r2, r2
 2191 01f6 952A     		cmp	r2, #149
 2192 01f8 1A70     		strb	r2, [r3, #0]
 2193 01fa 01D9     		bls	.L120
 2194 01fc 0022     		movs	r2, #0
 2195 01fe 1A70     		strb	r2, [r3, #0]
 2196              	.L120:
 2197 0200 7A4B     		ldr	r3, .L324+60
 2198 0202 1A88     		ldrh	r2, [r3, #0]
 2199 0204 0132     		adds	r2, r2, #1
 2200 0206 92B2     		uxth	r2, r2
 2201 0208 B2F5967F 		cmp	r2, #300
 2202 020c 1A80     		strh	r2, [r3, #0]	@ movhi
 2203 020e 24BF     		itt	cs
 2204 0210 0022     		movcs	r2, #0	@ movhi
 2205 0212 1A80     		strhcs	r2, [r3, #0]	@ movhi
 2206 0214 764B     		ldr	r3, .L324+64
 2207 0216 1A88     		ldrh	r2, [r3, #0]
 2208 0218 0132     		adds	r2, r2, #1
 2209 021a 92B2     		uxth	r2, r2
 2210 021c B2F5997F 		cmp	r2, #306
 2211 0220 1A80     		strh	r2, [r3, #0]	@ movhi
 2212 0222 24BF     		itt	cs
 2213 0224 0022     		movcs	r2, #0	@ movhi
 2214 0226 1A80     		strhcs	r2, [r3, #0]	@ movhi
 2215 0228 724B     		ldr	r3, .L324+68
 2216 022a 1A88     		ldrh	r2, [r3, #0]
 2217 022c 0132     		adds	r2, r2, #1
 2218 022e 92B2     		uxth	r2, r2
 2219 0230 B2F5077F 		cmp	r2, #540
 2220 0234 1A80     		strh	r2, [r3, #0]	@ movhi
 2221 0236 24BF     		itt	cs
 2222 0238 0022     		movcs	r2, #0	@ movhi
 2223 023a 1A80     		strhcs	r2, [r3, #0]	@ movhi
 2224 023c 614B     		ldr	r3, .L324+20
 2225 023e 1B78     		ldrb	r3, [r3, #0]	@ zero_extendqisi2
 2226 0240 002B     		cmp	r3, #0
 2227 0242 40F0AD82 		bne	.L124
 2228              	.LBB789:
 2229 0246 6C4C     		ldr	r4, .L324+72
 2230 0248 236C     		ldr	r3, [r4, #64]
 2231 024a A06C     		ldr	r0, [r4, #72]
 2232 024c 5B42     		negs	r3, r3
 2233 024e ADF80C30 		strh	r3, [sp, #12]	@ movhi
 2234              	.LVL208:
 2235 0252 FFF7FEFF 		bl	__aeabi_i2d
 2236 0256 56A3     		adr	r3, .L324
 2237 0258 D3E90023 		ldrd	r2, [r3]
 2238 025c FFF7FEFF 		bl	__aeabi_dmul
 2239 0260 55A3     		adr	r3, .L324+8
 2240 0262 D3E90023 		ldrd	r2, [r3]
 2241 0266 FFF7FEFF 		bl	__aeabi_ddiv
 2242 026a FFF7FEFF 		bl	__aeabi_d2iz
 2243 026e 2121     		movs	r1, #33
 2244 0270 ADF80E00 		strh	r0, [sp, #14]	@ movhi
 2245              	.LVL209:
 2246 0274 6148     		ldr	r0, .L324+76
 2247 0276 FFF7FEFF 		bl	uart_check_free_space
 2248 027a 0028     		cmp	r0, #0
 2249 027c 00F0A681 		beq	.L125
 2250 0280 5F4B     		ldr	r3, .L324+80
 2251              	.LBB790:
 2252 0282 9921     		movs	r1, #153
 2253              	.LBE790:
 2254 0284 1A88     		ldrh	r2, [r3, #0]
 2255              	.LBB791:
 2256 0286 5D48     		ldr	r0, .L324+76
 2257              	.LBE791:
 2258 0288 2132     		adds	r2, r2, #33
 2259 028a 1A80     		strh	r2, [r3, #0]	@ movhi
 2260 028c 5D4B     		ldr	r3, .L324+84
 2261              	.LBB792:
 2262 028e 5E4E     		ldr	r6, .L324+88
 2263              	.LBE792:
 2264 0290 1A88     		ldrh	r2, [r3, #0]
 2265              	.LBB793:
 2266 0292 5E4D     		ldr	r5, .L324+92
 2267              	.LBE793:
 2268 0294 0132     		adds	r2, r2, #1
 2269 0296 1A80     		strh	r2, [r3, #0]	@ movhi
 2270              	.LBB794:
 2271 0298 FFF7FEFF 		bl	uart_transmit
 2272 029c 2121     		movs	r1, #33
 2273 029e 5748     		ldr	r0, .L324+76
 2274 02a0 FFF7FEFF 		bl	uart_transmit
 2275              	.LBE794:
 2276 02a4 2223     		movs	r3, #34
 2277 02a6 3370     		strb	r3, [r6, #0]
 2278 02a8 2133     		adds	r3, r3, #33
 2279 02aa 2B70     		strb	r3, [r5, #0]
 2280 02ac 0121     		movs	r1, #1
 2281 02ae 5348     		ldr	r0, .L324+76
 2282 02b0 FFF7FEFF 		bl	uart_transmit
 2283 02b4 3378     		ldrb	r3, [r6, #0]	@ zero_extendqisi2
 2284 02b6 2A78     		ldrb	r2, [r5, #0]	@ zero_extendqisi2
 2285 02b8 0833     		adds	r3, r3, #8
 2286 02ba DBB2     		uxtb	r3, r3
 2287 02bc 3370     		strb	r3, [r6, #0]
 2288 02be 9B18     		adds	r3, r3, r2
 2289 02c0 2B70     		strb	r3, [r5, #0]
 2290 02c2 0821     		movs	r1, #8
 2291 02c4 4D48     		ldr	r0, .L324+76
 2292 02c6 FFF7FEFF 		bl	uart_transmit
 2293              	.LBB795:
 2294 02ca 94F85710 		ldrb	r1, [r4, #87]	@ zero_extendqisi2
 2295              	.LVL210:
 2296 02ce 3378     		ldrb	r3, [r6, #0]	@ zero_extendqisi2
 2297 02d0 2A78     		ldrb	r2, [r5, #0]	@ zero_extendqisi2
 2298 02d2 CB18     		adds	r3, r1, r3
 2299 02d4 DBB2     		uxtb	r3, r3
 2300 02d6 3370     		strb	r3, [r6, #0]
 2301 02d8 9B18     		adds	r3, r3, r2
 2302 02da 2B70     		strb	r3, [r5, #0]
 2303 02dc 4748     		ldr	r0, .L324+76
 2304 02de FFF7FEFF 		bl	uart_transmit
 2305              	.LVL211:
 2306              	.LBE795:
 2307              	.LBB796:
 2308 02e2 217F     		ldrb	r1, [r4, #28]	@ zero_extendqisi2
 2309              	.LVL212:
 2310 02e4 3378     		ldrb	r3, [r6, #0]	@ zero_extendqisi2
 2311 02e6 2A78     		ldrb	r2, [r5, #0]	@ zero_extendqisi2
 2312 02e8 CB18     		adds	r3, r1, r3
 2313 02ea DBB2     		uxtb	r3, r3
 2314 02ec 3370     		strb	r3, [r6, #0]
 2315 02ee 9B18     		adds	r3, r3, r2
 2316 02f0 04F11C07 		add	r7, r4, #28
 2317 02f4 2B70     		strb	r3, [r5, #0]
 2318 02f6 4148     		ldr	r0, .L324+76
 2319 02f8 FFF7FEFF 		bl	uart_transmit
 2320              	.LVL213:
 2321              	.LBE796:
 2322              	.LBB797:
 2323 02fc 7978     		ldrb	r1, [r7, #1]	@ zero_extendqisi2
 2324              	.LVL214:
 2325 02fe 3378     		ldrb	r3, [r6, #0]	@ zero_extendqisi2
 2326 0300 2A78     		ldrb	r2, [r5, #0]	@ zero_extendqisi2
 2327 0302 CB18     		adds	r3, r1, r3
 2328 0304 DBB2     		uxtb	r3, r3
 2329 0306 3370     		strb	r3, [r6, #0]
 2330 0308 9B18     		adds	r3, r3, r2
 2331 030a 2B70     		strb	r3, [r5, #0]
 2332 030c 3B48     		ldr	r0, .L324+76
 2333 030e FFF7FEFF 		bl	uart_transmit
 2334              	.LVL215:
 2335              	.LBE797:
 2336              	.LBB798:
 2337 0312 B978     		ldrb	r1, [r7, #2]	@ zero_extendqisi2
 2338              	.LVL216:
 2339 0314 3378     		ldrb	r3, [r6, #0]	@ zero_extendqisi2
 2340 0316 2A78     		ldrb	r2, [r5, #0]	@ zero_extendqisi2
 2341 0318 CB18     		adds	r3, r1, r3
 2342 031a DBB2     		uxtb	r3, r3
 2343 031c 3370     		strb	r3, [r6, #0]
 2344 031e 9B18     		adds	r3, r3, r2
 2345 0320 2B70     		strb	r3, [r5, #0]
 2346 0322 3648     		ldr	r0, .L324+76
 2347 0324 FFF7FEFF 		bl	uart_transmit
 2348              	.LVL217:
 2349              	.LBE798:
 2350              	.LBB799:
 2351 0328 F978     		ldrb	r1, [r7, #3]	@ zero_extendqisi2
 2352              	.LVL218:
 2353 032a 3378     		ldrb	r3, [r6, #0]	@ zero_extendqisi2
 2354 032c 2A78     		ldrb	r2, [r5, #0]	@ zero_extendqisi2
 2355 032e CB18     		adds	r3, r1, r3
 2356 0330 DBB2     		uxtb	r3, r3
 2357 0332 3370     		strb	r3, [r6, #0]
 2358 0334 9B18     		adds	r3, r3, r2
 2359 0336 2B70     		strb	r3, [r5, #0]
 2360 0338 3048     		ldr	r0, .L324+76
 2361 033a FFF7FEFF 		bl	uart_transmit
 2362              	.LVL219:
 2363              	.LBE799:
 2364              	.LBB800:
 2365 033e 217E     		ldrb	r1, [r4, #24]	@ zero_extendqisi2
 2366              	.LVL220:
 2367 0340 3378     		ldrb	r3, [r6, #0]	@ zero_extendqisi2
 2368 0342 2A78     		ldrb	r2, [r5, #0]	@ zero_extendqisi2
 2369 0344 CB18     		adds	r3, r1, r3
 2370 0346 DBB2     		uxtb	r3, r3
 2371 0348 3370     		strb	r3, [r6, #0]
 2372 034a 9B18     		adds	r3, r3, r2
 2373 034c 04F11807 		add	r7, r4, #24
 2374 0350 2B70     		strb	r3, [r5, #0]
 2375 0352 2A48     		ldr	r0, .L324+76
 2376 0354 FFF7FEFF 		bl	uart_transmit
 2377              	.LVL221:
 2378              	.LBE800:
 2379              	.LBB801:
 2380 0358 7978     		ldrb	r1, [r7, #1]	@ zero_extendqisi2
 2381              	.LVL222:
 2382 035a 3378     		ldrb	r3, [r6, #0]	@ zero_extendqisi2
 2383 035c 2A78     		ldrb	r2, [r5, #0]	@ zero_extendqisi2
 2384 035e CB18     		adds	r3, r1, r3
 2385 0360 DBB2     		uxtb	r3, r3
 2386 0362 3370     		strb	r3, [r6, #0]
 2387 0364 9B18     		adds	r3, r3, r2
 2388 0366 2B70     		strb	r3, [r5, #0]
 2389 0368 2448     		ldr	r0, .L324+76
 2390 036a FFF7FEFF 		bl	uart_transmit
 2391              	.LVL223:
 2392              	.LBE801:
 2393              	.LBB802:
 2394 036e B978     		ldrb	r1, [r7, #2]	@ zero_extendqisi2
 2395              	.LVL224:
 2396 0370 3378     		ldrb	r3, [r6, #0]	@ zero_extendqisi2
 2397 0372 2A78     		ldrb	r2, [r5, #0]	@ zero_extendqisi2
 2398 0374 CB18     		adds	r3, r1, r3
 2399 0376 DBB2     		uxtb	r3, r3
 2400 0378 3370     		strb	r3, [r6, #0]
 2401 037a 9B18     		adds	r3, r3, r2
 2402 037c 2B70     		strb	r3, [r5, #0]
 2403 037e 1F48     		ldr	r0, .L324+76
 2404 0380 FFF7FEFF 		bl	uart_transmit
 2405              	.LVL225:
 2406              	.LBE802:
 2407              	.LBB803:
 2408 0384 F978     		ldrb	r1, [r7, #3]	@ zero_extendqisi2
 2409              	.LVL226:
 2410 0386 3378     		ldrb	r3, [r6, #0]	@ zero_extendqisi2
 2411 0388 2A78     		ldrb	r2, [r5, #0]	@ zero_extendqisi2
 2412 038a CB18     		adds	r3, r1, r3
 2413 038c DBB2     		uxtb	r3, r3
 2414 038e 3370     		strb	r3, [r6, #0]
 2415 0390 9B18     		adds	r3, r3, r2
 2416 0392 2B70     		strb	r3, [r5, #0]
 2417 0394 1948     		ldr	r0, .L324+76
 2418 0396 FFF7FEFF 		bl	uart_transmit
 2419              	.LVL227:
 2420              	.LBE803:
 2421              	.LBB804:
 2422 039a 9DF80E10 		ldrb	r1, [sp, #14]	@ zero_extendqisi2
 2423              	.LVL228:
 2424 039e 3378     		ldrb	r3, [r6, #0]	@ zero_extendqisi2
 2425 03a0 2A78     		ldrb	r2, [r5, #0]	@ zero_extendqisi2
 2426 03a2 CB18     		adds	r3, r1, r3
 2427 03a4 DBB2     		uxtb	r3, r3
 2428 03a6 3370     		strb	r3, [r6, #0]
 2429 03a8 9B18     		adds	r3, r3, r2
 2430 03aa 31E0     		b	.L325
 2431              	.L326:
 2432 03ac AFF30080 		.align	3
 2433              	.L324:
 2434 03b0 F8C1631A 		.word	442745336
 2435 03b4 DCA54C40 		.word	1078765020
 2436 03b8 00000000 		.word	0
 2437 03bc 80842E41 		.word	1093567616
 2438 03c0 00000000 		.word	telemetry_mode_Ap_DefaultChannel
 2439 03c4 00000000 		.word	.LANCHOR23
 2440 03c8 00000000 		.word	.LANCHOR24
 2441 03cc 00000000 		.word	.LANCHOR25
 2442 03d0 00000000 		.word	.LANCHOR26
 2443 03d4 00000000 		.word	.LANCHOR27
 2444 03d8 00000000 		.word	.LANCHOR28
 2445 03dc 00000000 		.word	.LANCHOR29
 2446 03e0 00000000 		.word	.LANCHOR30
 2447 03e4 00000000 		.word	.LANCHOR31
 2448 03e8 00000000 		.word	.LANCHOR32
 2449 03ec 00000000 		.word	.LANCHOR33
 2450 03f0 00000000 		.word	.LANCHOR34
 2451 03f4 00000000 		.word	.LANCHOR35
 2452 03f8 00000000 		.word	gps
 2453 03fc 00000000 		.word	uart2
 2454 0400 00000000 		.word	downlink_nb_bytes
 2455 0404 00000000 		.word	downlink_nb_msgs
 2456 0408 00000000 		.word	ck_a
 2457 040c 00000000 		.word	ck_b
 2458              	.L325:
 2459 0410 2B70     		strb	r3, [r5, #0]
 2460 0412 6C48     		ldr	r0, .L327
 2461 0414 FFF7FEFF 		bl	uart_transmit
 2462              	.LVL229:
 2463              	.LBE804:
 2464              	.LBB805:
 2465 0418 0DF10E03 		add	r3, sp, #14
 2466 041c 5978     		ldrb	r1, [r3, #1]	@ zero_extendqisi2
 2467              	.LVL230:
 2468 041e 3378     		ldrb	r3, [r6, #0]	@ zero_extendqisi2
 2469 0420 2A78     		ldrb	r2, [r5, #0]	@ zero_extendqisi2
 2470 0422 CB18     		adds	r3, r1, r3
 2471 0424 DBB2     		uxtb	r3, r3
 2472 0426 3370     		strb	r3, [r6, #0]
 2473 0428 9B18     		adds	r3, r3, r2
 2474 042a 2B70     		strb	r3, [r5, #0]
 2475 042c 6548     		ldr	r0, .L327
 2476 042e FFF7FEFF 		bl	uart_transmit
 2477              	.LVL231:
 2478              	.LBE805:
 2479              	.LBB806:
 2480 0432 94F82810 		ldrb	r1, [r4, #40]	@ zero_extendqisi2
 2481              	.LVL232:
 2482 0436 3378     		ldrb	r3, [r6, #0]	@ zero_extendqisi2
 2483 0438 2A78     		ldrb	r2, [r5, #0]	@ zero_extendqisi2
 2484 043a CB18     		adds	r3, r1, r3
 2485 043c DBB2     		uxtb	r3, r3
 2486 043e 3370     		strb	r3, [r6, #0]
 2487 0440 9B18     		adds	r3, r3, r2
 2488 0442 04F12807 		add	r7, r4, #40
 2489 0446 2B70     		strb	r3, [r5, #0]
 2490 0448 5E48     		ldr	r0, .L327
 2491 044a FFF7FEFF 		bl	uart_transmit
 2492              	.LVL233:
 2493              	.LBE806:
 2494              	.LBB807:
 2495 044e 7978     		ldrb	r1, [r7, #1]	@ zero_extendqisi2
 2496              	.LVL234:
 2497 0450 3378     		ldrb	r3, [r6, #0]	@ zero_extendqisi2
 2498 0452 2A78     		ldrb	r2, [r5, #0]	@ zero_extendqisi2
 2499 0454 CB18     		adds	r3, r1, r3
 2500 0456 DBB2     		uxtb	r3, r3
 2501 0458 3370     		strb	r3, [r6, #0]
 2502 045a 9B18     		adds	r3, r3, r2
 2503 045c 2B70     		strb	r3, [r5, #0]
 2504 045e 5948     		ldr	r0, .L327
 2505 0460 FFF7FEFF 		bl	uart_transmit
 2506              	.LVL235:
 2507              	.LBE807:
 2508              	.LBB808:
 2509 0464 B978     		ldrb	r1, [r7, #2]	@ zero_extendqisi2
 2510              	.LVL236:
 2511 0466 3378     		ldrb	r3, [r6, #0]	@ zero_extendqisi2
 2512 0468 2A78     		ldrb	r2, [r5, #0]	@ zero_extendqisi2
 2513 046a CB18     		adds	r3, r1, r3
 2514 046c DBB2     		uxtb	r3, r3
 2515 046e 3370     		strb	r3, [r6, #0]
 2516 0470 9B18     		adds	r3, r3, r2
 2517 0472 2B70     		strb	r3, [r5, #0]
 2518 0474 5348     		ldr	r0, .L327
 2519 0476 FFF7FEFF 		bl	uart_transmit
 2520              	.LVL237:
 2521              	.LBE808:
 2522              	.LBB809:
 2523 047a F978     		ldrb	r1, [r7, #3]	@ zero_extendqisi2
 2524              	.LVL238:
 2525 047c 3378     		ldrb	r3, [r6, #0]	@ zero_extendqisi2
 2526 047e 2A78     		ldrb	r2, [r5, #0]	@ zero_extendqisi2
 2527 0480 CB18     		adds	r3, r1, r3
 2528 0482 DBB2     		uxtb	r3, r3
 2529 0484 3370     		strb	r3, [r6, #0]
 2530 0486 9B18     		adds	r3, r3, r2
 2531 0488 2B70     		strb	r3, [r5, #0]
 2532 048a 4E48     		ldr	r0, .L327
 2533 048c FFF7FEFF 		bl	uart_transmit
 2534              	.LVL239:
 2535              	.LBE809:
 2536              	.LBB810:
 2537 0490 94F84410 		ldrb	r1, [r4, #68]	@ zero_extendqisi2
 2538              	.LVL240:
 2539 0494 3378     		ldrb	r3, [r6, #0]	@ zero_extendqisi2
 2540 0496 2A78     		ldrb	r2, [r5, #0]	@ zero_extendqisi2
 2541 0498 CB18     		adds	r3, r1, r3
 2542 049a DBB2     		uxtb	r3, r3
 2543 049c 3370     		strb	r3, [r6, #0]
 2544 049e 9B18     		adds	r3, r3, r2
 2545 04a0 04F14407 		add	r7, r4, #68
 2546 04a4 2B70     		strb	r3, [r5, #0]
 2547 04a6 4748     		ldr	r0, .L327
 2548 04a8 FFF7FEFF 		bl	uart_transmit
 2549              	.LVL241:
 2550              	.LBE810:
 2551              	.LBB811:
 2552 04ac 7978     		ldrb	r1, [r7, #1]	@ zero_extendqisi2
 2553              	.LVL242:
 2554 04ae 3378     		ldrb	r3, [r6, #0]	@ zero_extendqisi2
 2555 04b0 2A78     		ldrb	r2, [r5, #0]	@ zero_extendqisi2
 2556 04b2 CB18     		adds	r3, r1, r3
 2557 04b4 DBB2     		uxtb	r3, r3
 2558 04b6 3370     		strb	r3, [r6, #0]
 2559 04b8 9B18     		adds	r3, r3, r2
 2560 04ba 2B70     		strb	r3, [r5, #0]
 2561 04bc 4148     		ldr	r0, .L327
 2562 04be FFF7FEFF 		bl	uart_transmit
 2563              	.LVL243:
 2564              	.LBE811:
 2565              	.LBB812:
 2566 04c2 9DF80C10 		ldrb	r1, [sp, #12]	@ zero_extendqisi2
 2567              	.LVL244:
 2568 04c6 3378     		ldrb	r3, [r6, #0]	@ zero_extendqisi2
 2569 04c8 2A78     		ldrb	r2, [r5, #0]	@ zero_extendqisi2
 2570 04ca CB18     		adds	r3, r1, r3
 2571 04cc DBB2     		uxtb	r3, r3
 2572 04ce 3370     		strb	r3, [r6, #0]
 2573 04d0 9B18     		adds	r3, r3, r2
 2574 04d2 2B70     		strb	r3, [r5, #0]
 2575 04d4 3B48     		ldr	r0, .L327
 2576 04d6 FFF7FEFF 		bl	uart_transmit
 2577              	.LVL245:
 2578              	.LBE812:
 2579              	.LBB813:
 2580 04da 03AB     		add	r3, sp, #12
 2581 04dc 5978     		ldrb	r1, [r3, #1]	@ zero_extendqisi2
 2582              	.LVL246:
 2583 04de 3378     		ldrb	r3, [r6, #0]	@ zero_extendqisi2
 2584 04e0 2A78     		ldrb	r2, [r5, #0]	@ zero_extendqisi2
 2585 04e2 CB18     		adds	r3, r1, r3
 2586 04e4 DBB2     		uxtb	r3, r3
 2587 04e6 3370     		strb	r3, [r6, #0]
 2588 04e8 9B18     		adds	r3, r3, r2
 2589 04ea 2B70     		strb	r3, [r5, #0]
 2590 04ec 3548     		ldr	r0, .L327
 2591 04ee FFF7FEFF 		bl	uart_transmit
 2592              	.LVL247:
 2593              	.LBE813:
 2594              	.LBB814:
 2595 04f2 94F85810 		ldrb	r1, [r4, #88]	@ zero_extendqisi2
 2596              	.LVL248:
 2597 04f6 3378     		ldrb	r3, [r6, #0]	@ zero_extendqisi2
 2598 04f8 2A78     		ldrb	r2, [r5, #0]	@ zero_extendqisi2
 2599 04fa CB18     		adds	r3, r1, r3
 2600 04fc DBB2     		uxtb	r3, r3
 2601 04fe 3370     		strb	r3, [r6, #0]
 2602 0500 9B18     		adds	r3, r3, r2
 2603 0502 04F15807 		add	r7, r4, #88
 2604 0506 2B70     		strb	r3, [r5, #0]
 2605 0508 2E48     		ldr	r0, .L327
 2606 050a FFF7FEFF 		bl	uart_transmit
 2607              	.LVL249:
 2608              	.LBE814:
 2609              	.LBB815:
 2610 050e 7978     		ldrb	r1, [r7, #1]	@ zero_extendqisi2
 2611              	.LVL250:
 2612 0510 3378     		ldrb	r3, [r6, #0]	@ zero_extendqisi2
 2613 0512 2A78     		ldrb	r2, [r5, #0]	@ zero_extendqisi2
 2614 0514 CB18     		adds	r3, r1, r3
 2615 0516 DBB2     		uxtb	r3, r3
 2616 0518 3370     		strb	r3, [r6, #0]
 2617 051a 9B18     		adds	r3, r3, r2
 2618 051c 2B70     		strb	r3, [r5, #0]
 2619 051e 2948     		ldr	r0, .L327
 2620 0520 FFF7FEFF 		bl	uart_transmit
 2621              	.LVL251:
 2622              	.LBE815:
 2623              	.LBB816:
 2624 0524 94F85C10 		ldrb	r1, [r4, #92]	@ zero_extendqisi2
 2625              	.LVL252:
 2626 0528 3378     		ldrb	r3, [r6, #0]	@ zero_extendqisi2
 2627 052a 2A78     		ldrb	r2, [r5, #0]	@ zero_extendqisi2
 2628 052c CB18     		adds	r3, r1, r3
 2629 052e DBB2     		uxtb	r3, r3
 2630 0530 3370     		strb	r3, [r6, #0]
 2631 0532 9B18     		adds	r3, r3, r2
 2632 0534 04F15C07 		add	r7, r4, #92
 2633 0538 2B70     		strb	r3, [r5, #0]
 2634 053a 2248     		ldr	r0, .L327
 2635 053c FFF7FEFF 		bl	uart_transmit
 2636              	.LVL253:
 2637              	.LBE816:
 2638              	.LBB817:
 2639 0540 7978     		ldrb	r1, [r7, #1]	@ zero_extendqisi2
 2640              	.LVL254:
 2641 0542 3378     		ldrb	r3, [r6, #0]	@ zero_extendqisi2
 2642 0544 2A78     		ldrb	r2, [r5, #0]	@ zero_extendqisi2
 2643 0546 CB18     		adds	r3, r1, r3
 2644 0548 DBB2     		uxtb	r3, r3
 2645 054a 3370     		strb	r3, [r6, #0]
 2646 054c 9B18     		adds	r3, r3, r2
 2647 054e 2B70     		strb	r3, [r5, #0]
 2648 0550 1C48     		ldr	r0, .L327
 2649 0552 FFF7FEFF 		bl	uart_transmit
 2650              	.LVL255:
 2651              	.LBE817:
 2652              	.LBB818:
 2653 0556 B978     		ldrb	r1, [r7, #2]	@ zero_extendqisi2
 2654              	.LVL256:
 2655 0558 3378     		ldrb	r3, [r6, #0]	@ zero_extendqisi2
 2656 055a 2A78     		ldrb	r2, [r5, #0]	@ zero_extendqisi2
 2657 055c CB18     		adds	r3, r1, r3
 2658 055e DBB2     		uxtb	r3, r3
 2659 0560 3370     		strb	r3, [r6, #0]
 2660 0562 9B18     		adds	r3, r3, r2
 2661 0564 2B70     		strb	r3, [r5, #0]
 2662 0566 1748     		ldr	r0, .L327
 2663 0568 FFF7FEFF 		bl	uart_transmit
 2664              	.LVL257:
 2665              	.LBE818:
 2666              	.LBB819:
 2667 056c F978     		ldrb	r1, [r7, #3]	@ zero_extendqisi2
 2668              	.LVL258:
 2669 056e 3378     		ldrb	r3, [r6, #0]	@ zero_extendqisi2
 2670 0570 2A78     		ldrb	r2, [r5, #0]	@ zero_extendqisi2
 2671 0572 CB18     		adds	r3, r1, r3
 2672 0574 DBB2     		uxtb	r3, r3
 2673 0576 3370     		strb	r3, [r6, #0]
 2674 0578 9B18     		adds	r3, r3, r2
 2675 057a 2B70     		strb	r3, [r5, #0]
 2676 057c 1148     		ldr	r0, .L327
 2677 057e FFF7FEFF 		bl	uart_transmit
 2678              	.LVL259:
 2679              	.LBE819:
 2680              	.LBB820:
 2681 0582 94F82410 		ldrb	r1, [r4, #36]	@ zero_extendqisi2
 2682              	.LVL260:
 2683 0586 3378     		ldrb	r3, [r6, #0]	@ zero_extendqisi2
 2684 0588 2A78     		ldrb	r2, [r5, #0]	@ zero_extendqisi2
 2685 058a CB18     		adds	r3, r1, r3
 2686 058c DBB2     		uxtb	r3, r3
 2687 058e 3370     		strb	r3, [r6, #0]
 2688 0590 9B18     		adds	r3, r3, r2
 2689 0592 2B70     		strb	r3, [r5, #0]
 2690 0594 0B48     		ldr	r0, .L327
 2691 0596 FFF7FEFF 		bl	uart_transmit
 2692              	.LVL261:
 2693              	.LBE820:
 2694              	.LBB821:
 2695 059a 0B4B     		ldr	r3, .L327+4
 2696 059c 2A78     		ldrb	r2, [r5, #0]	@ zero_extendqisi2
 2697 059e 1978     		ldrb	r1, [r3, #0]	@ zero_extendqisi2
 2698              	.LVL262:
 2699 05a0 3378     		ldrb	r3, [r6, #0]	@ zero_extendqisi2
 2700 05a2 0848     		ldr	r0, .L327
 2701 05a4 CB18     		adds	r3, r1, r3
 2702 05a6 DBB2     		uxtb	r3, r3
 2703 05a8 3370     		strb	r3, [r6, #0]
 2704 05aa 9B18     		adds	r3, r3, r2
 2705 05ac 2B70     		strb	r3, [r5, #0]
 2706 05ae FFF7FEFF 		bl	uart_transmit
 2707              	.LVL263:
 2708              	.LBE821:
 2709 05b2 3178     		ldrb	r1, [r6, #0]	@ zero_extendqisi2
 2710 05b4 0348     		ldr	r0, .L327
 2711 05b6 FFF7FEFF 		bl	uart_transmit
 2712 05ba 0248     		ldr	r0, .L327
 2713 05bc 2978     		ldrb	r1, [r5, #0]	@ zero_extendqisi2
 2714 05be FFF7FEFF 		bl	uart_transmit
 2715 05c2 07E0     		b	.L126
 2716              	.L328:
 2717              		.align	2
 2718              	.L327:
 2719 05c4 00000000 		.word	uart2
 2720 05c8 00000000 		.word	.LANCHOR36
 2721              	.L125:
 2722 05cc 684B     		ldr	r3, .L329
 2723 05ce 1A78     		ldrb	r2, [r3, #0]	@ zero_extendqisi2
 2724 05d0 0132     		adds	r2, r2, #1
 2725 05d2 1A70     		strb	r2, [r3, #0]
 2726              	.L126:
 2727 05d4 674A     		ldr	r2, .L329+4
 2728 05d6 92F85730 		ldrb	r3, [r2, #87]	@ zero_extendqisi2
 2729 05da 032B     		cmp	r3, #3
 2730 05dc 07D0     		beq	.L127
 2731 05de 664B     		ldr	r3, .L329+8
 2732 05e0 92F86020 		ldrb	r2, [r2, #96]	@ zero_extendqisi2
 2733 05e4 1978     		ldrb	r1, [r3, #0]	@ zero_extendqisi2
 2734 05e6 9142     		cmp	r1, r2
 2735 05e8 01D3     		bcc	.L127
 2736 05ea 0022     		movs	r2, #0
 2737 05ec 1A70     		strb	r2, [r3, #0]
 2738              	.L127:
 2739 05ee 614B     		ldr	r3, .L329+4
 2740 05f0 93F86020 		ldrb	r2, [r3, #96]	@ zero_extendqisi2
 2741 05f4 604B     		ldr	r3, .L329+8
 2742 05f6 1978     		ldrb	r1, [r3, #0]	@ zero_extendqisi2
 2743 05f8 B1EB420F 		cmp	r1, r2, lsl #1
 2744 05fc 01DB     		blt	.L128
 2745 05fe 0021     		movs	r1, #0
 2746 0600 1970     		strb	r1, [r3, #0]
 2747              	.L128:
 2748 0602 5D4E     		ldr	r6, .L329+8
 2749 0604 3378     		ldrb	r3, [r6, #0]	@ zero_extendqisi2
 2750 0606 9342     		cmp	r3, r2
 2751 0608 80F0C680 		bcs	.L129
 2752 060c 594F     		ldr	r7, .L329+4
 2753 060e 07EBC303 		add	r3, r7, r3, lsl #3
 2754 0612 93F86530 		ldrb	r3, [r3, #101]	@ zero_extendqisi2
 2755 0616 002B     		cmp	r3, #0
 2756 0618 00F0BE80 		beq	.L129
 2757 061c 5748     		ldr	r0, .L329+12
 2758 061e 0E21     		movs	r1, #14
 2759 0620 FFF7FEFF 		bl	uart_check_free_space
 2760 0624 0028     		cmp	r0, #0
 2761 0626 00F0B380 		beq	.L130
 2762 062a 554B     		ldr	r3, .L329+16
 2763              	.LBB822:
 2764 062c 9921     		movs	r1, #153
 2765              	.LBE822:
 2766 062e 1A88     		ldrh	r2, [r3, #0]
 2767              	.LBB823:
 2768 0630 5248     		ldr	r0, .L329+12
 2769              	.LBE823:
 2770 0632 0E32     		adds	r2, r2, #14
 2771 0634 1A80     		strh	r2, [r3, #0]	@ movhi
 2772 0636 534B     		ldr	r3, .L329+20
 2773              	.LBB824:
 2774 0638 534D     		ldr	r5, .L329+24
 2775              	.LBE824:
 2776 063a 1A88     		ldrh	r2, [r3, #0]
 2777              	.LBB825:
 2778 063c 534C     		ldr	r4, .L329+28
 2779              	.LBE825:
 2780 063e 0132     		adds	r2, r2, #1
 2781 0640 1A80     		strh	r2, [r3, #0]	@ movhi
 2782              	.LBB826:
 2783 0642 FFF7FEFF 		bl	uart_transmit
 2784 0646 0E21     		movs	r1, #14
 2785 0648 4C48     		ldr	r0, .L329+12
 2786 064a FFF7FEFF 		bl	uart_transmit
 2787              	.LBE826:
 2788 064e 0F23     		movs	r3, #15
 2789 0650 2B70     		strb	r3, [r5, #0]
 2790 0652 0E33     		adds	r3, r3, #14
 2791 0654 2370     		strb	r3, [r4, #0]
 2792 0656 0121     		movs	r1, #1
 2793 0658 4848     		ldr	r0, .L329+12
 2794 065a FFF7FEFF 		bl	uart_transmit
 2795 065e 2B78     		ldrb	r3, [r5, #0]	@ zero_extendqisi2
 2796 0660 2278     		ldrb	r2, [r4, #0]	@ zero_extendqisi2
 2797 0662 1933     		adds	r3, r3, #25
 2798 0664 DBB2     		uxtb	r3, r3
 2799 0666 2B70     		strb	r3, [r5, #0]
 2800 0668 9B18     		adds	r3, r3, r2
 2801 066a 2370     		strb	r3, [r4, #0]
 2802 066c 1921     		movs	r1, #25
 2803 066e 4348     		ldr	r0, .L329+12
 2804 0670 FFF7FEFF 		bl	uart_transmit
 2805              	.LBB827:
 2806 0674 3178     		ldrb	r1, [r6, #0]	@ zero_extendqisi2
 2807              	.LVL264:
 2808 0676 2B78     		ldrb	r3, [r5, #0]	@ zero_extendqisi2
 2809 0678 2278     		ldrb	r2, [r4, #0]	@ zero_extendqisi2
 2810 067a CB18     		adds	r3, r1, r3
 2811 067c DBB2     		uxtb	r3, r3
 2812 067e 2B70     		strb	r3, [r5, #0]
 2813 0680 9B18     		adds	r3, r3, r2
 2814 0682 2370     		strb	r3, [r4, #0]
 2815 0684 3D48     		ldr	r0, .L329+12
 2816 0686 FFF7FEFF 		bl	uart_transmit
 2817              	.LVL265:
 2818              	.LBE827:
 2819              	.LBB828:
 2820 068a 3378     		ldrb	r3, [r6, #0]	@ zero_extendqisi2
 2821 068c 2278     		ldrb	r2, [r4, #0]	@ zero_extendqisi2
 2822 068e 07EBC303 		add	r3, r7, r3, lsl #3
 2823 0692 93F86210 		ldrb	r1, [r3, #98]	@ zero_extendqisi2
 2824              	.LVL266:
 2825 0696 2B78     		ldrb	r3, [r5, #0]	@ zero_extendqisi2
 2826 0698 3848     		ldr	r0, .L329+12
 2827 069a CB18     		adds	r3, r1, r3
 2828 069c DBB2     		uxtb	r3, r3
 2829 069e 2B70     		strb	r3, [r5, #0]
 2830 06a0 9B18     		adds	r3, r3, r2
 2831 06a2 2370     		strb	r3, [r4, #0]
 2832 06a4 FFF7FEFF 		bl	uart_transmit
 2833              	.LVL267:
 2834              	.LBE828:
 2835              	.LBB829:
 2836 06a8 3378     		ldrb	r3, [r6, #0]	@ zero_extendqisi2
 2837 06aa 2278     		ldrb	r2, [r4, #0]	@ zero_extendqisi2
 2838 06ac 07EBC303 		add	r3, r7, r3, lsl #3
 2839 06b0 93F86310 		ldrb	r1, [r3, #99]	@ zero_extendqisi2
 2840              	.LVL268:
 2841 06b4 2B78     		ldrb	r3, [r5, #0]	@ zero_extendqisi2
 2842 06b6 3148     		ldr	r0, .L329+12
 2843 06b8 CB18     		adds	r3, r1, r3
 2844 06ba DBB2     		uxtb	r3, r3
 2845 06bc 2B70     		strb	r3, [r5, #0]
 2846 06be 9B18     		adds	r3, r3, r2
 2847 06c0 2370     		strb	r3, [r4, #0]
 2848 06c2 FFF7FEFF 		bl	uart_transmit
 2849              	.LVL269:
 2850              	.LBE829:
 2851              	.LBB830:
 2852 06c6 3378     		ldrb	r3, [r6, #0]	@ zero_extendqisi2
 2853 06c8 2278     		ldrb	r2, [r4, #0]	@ zero_extendqisi2
 2854 06ca 07EBC303 		add	r3, r7, r3, lsl #3
 2855 06ce 93F86410 		ldrb	r1, [r3, #100]	@ zero_extendqisi2
 2856              	.LVL270:
 2857 06d2 2B78     		ldrb	r3, [r5, #0]	@ zero_extendqisi2
 2858 06d4 2948     		ldr	r0, .L329+12
 2859 06d6 CB18     		adds	r3, r1, r3
 2860 06d8 DBB2     		uxtb	r3, r3
 2861 06da 2B70     		strb	r3, [r5, #0]
 2862 06dc 9B18     		adds	r3, r3, r2
 2863 06de 2370     		strb	r3, [r4, #0]
 2864 06e0 FFF7FEFF 		bl	uart_transmit
 2865              	.LVL271:
 2866              	.LBE830:
 2867              	.LBB831:
 2868 06e4 3378     		ldrb	r3, [r6, #0]	@ zero_extendqisi2
 2869 06e6 2278     		ldrb	r2, [r4, #0]	@ zero_extendqisi2
 2870 06e8 07EBC303 		add	r3, r7, r3, lsl #3
 2871 06ec 93F86510 		ldrb	r1, [r3, #101]	@ zero_extendqisi2
 2872              	.LVL272:
 2873 06f0 2B78     		ldrb	r3, [r5, #0]	@ zero_extendqisi2
 2874 06f2 2248     		ldr	r0, .L329+12
 2875 06f4 CB18     		adds	r3, r1, r3
 2876 06f6 DBB2     		uxtb	r3, r3
 2877 06f8 2B70     		strb	r3, [r5, #0]
 2878 06fa 9B18     		adds	r3, r3, r2
 2879 06fc 2370     		strb	r3, [r4, #0]
 2880 06fe FFF7FEFF 		bl	uart_transmit
 2881              	.LVL273:
 2882              	.LBE831:
 2883              	.LBB832:
 2884 0702 3378     		ldrb	r3, [r6, #0]	@ zero_extendqisi2
 2885 0704 2278     		ldrb	r2, [r4, #0]	@ zero_extendqisi2
 2886 0706 07EBC303 		add	r3, r7, r3, lsl #3
 2887 070a 93F86610 		ldrb	r1, [r3, #102]	@ zero_extendqisi2
 2888              	.LVL274:
 2889 070e 2B78     		ldrb	r3, [r5, #0]	@ zero_extendqisi2
 2890 0710 1A48     		ldr	r0, .L329+12
 2891 0712 CB18     		adds	r3, r1, r3
 2892 0714 DBB2     		uxtb	r3, r3
 2893 0716 2B70     		strb	r3, [r5, #0]
 2894 0718 9B18     		adds	r3, r3, r2
 2895 071a 2370     		strb	r3, [r4, #0]
 2896 071c FFF7FEFF 		bl	uart_transmit
 2897              	.LVL275:
 2898              	.LBE832:
 2899              	.LBB833:
 2900 0720 3378     		ldrb	r3, [r6, #0]	@ zero_extendqisi2
 2901 0722 2278     		ldrb	r2, [r4, #0]	@ zero_extendqisi2
 2902 0724 07EBC303 		add	r3, r7, r3, lsl #3
 2903 0728 93F86810 		ldrb	r1, [r3, #104]	@ zero_extendqisi2
 2904              	.LVL276:
 2905 072c 2B78     		ldrb	r3, [r5, #0]	@ zero_extendqisi2
 2906 072e 1348     		ldr	r0, .L329+12
 2907 0730 CB18     		adds	r3, r1, r3
 2908 0732 DBB2     		uxtb	r3, r3
 2909 0734 2B70     		strb	r3, [r5, #0]
 2910 0736 9B18     		adds	r3, r3, r2
 2911 0738 2370     		strb	r3, [r4, #0]
 2912 073a FFF7FEFF 		bl	uart_transmit
 2913              	.LVL277:
 2914              	.LBE833:
 2915              	.LBB834:
 2916 073e 3378     		ldrb	r3, [r6, #0]	@ zero_extendqisi2
 2917 0740 2278     		ldrb	r2, [r4, #0]	@ zero_extendqisi2
 2918 0742 07EBC307 		add	r7, r7, r3, lsl #3
 2919 0746 97F86910 		ldrb	r1, [r7, #105]	@ zero_extendqisi2
 2920              	.LVL278:
 2921 074a 2B78     		ldrb	r3, [r5, #0]	@ zero_extendqisi2
 2922 074c 0B48     		ldr	r0, .L329+12
 2923 074e CB18     		adds	r3, r1, r3
 2924 0750 DBB2     		uxtb	r3, r3
 2925 0752 2B70     		strb	r3, [r5, #0]
 2926 0754 9B18     		adds	r3, r3, r2
 2927 0756 2370     		strb	r3, [r4, #0]
 2928 0758 FFF7FEFF 		bl	uart_transmit
 2929              	.LVL279:
 2930              	.LBE834:
 2931 075c 2978     		ldrb	r1, [r5, #0]	@ zero_extendqisi2
 2932 075e 0748     		ldr	r0, .L329+12
 2933 0760 FFF7FEFF 		bl	uart_transmit
 2934 0764 0548     		ldr	r0, .L329+12
 2935 0766 2178     		ldrb	r1, [r4, #0]	@ zero_extendqisi2
 2936 0768 FFF7FEFF 		bl	uart_transmit
 2937 076c 14E0     		b	.L129
 2938              	.L330:
 2939 076e 00BF     		.align	2
 2940              	.L329:
 2941 0770 00000000 		.word	downlink_nb_ovrn
 2942 0774 00000000 		.word	gps
 2943 0778 00000000 		.word	.LANCHOR36
 2944 077c 00000000 		.word	uart2
 2945 0780 00000000 		.word	downlink_nb_bytes
 2946 0784 00000000 		.word	downlink_nb_msgs
 2947 0788 00000000 		.word	ck_a
 2948 078c 00000000 		.word	ck_b
 2949              	.L130:
 2950 0790 934B     		ldr	r3, .L331
 2951 0792 1A78     		ldrb	r2, [r3, #0]	@ zero_extendqisi2
 2952 0794 0132     		adds	r2, r2, #1
 2953 0796 1A70     		strb	r2, [r3, #0]
 2954              	.L129:
 2955 0798 924B     		ldr	r3, .L331+4
 2956 079a 1A78     		ldrb	r2, [r3, #0]	@ zero_extendqisi2
 2957 079c 0132     		adds	r2, r2, #1
 2958 079e 1A70     		strb	r2, [r3, #0]
 2959              	.L124:
 2960              	.LBE789:
 2961 07a0 914B     		ldr	r3, .L331+8
 2962 07a2 1E78     		ldrb	r6, [r3, #0]	@ zero_extendqisi2
 2963 07a4 062E     		cmp	r6, #6
 2964 07a6 40F08880 		bne	.L131
 2965 07aa 9048     		ldr	r0, .L331+12
 2966 07ac 1221     		movs	r1, #18
 2967 07ae FFF7FEFF 		bl	uart_check_free_space
 2968 07b2 0028     		cmp	r0, #0
 2969 07b4 00F04082 		beq	.L137
 2970 07b8 8D4B     		ldr	r3, .L331+16
 2971              	.LBB835:
 2972 07ba 9921     		movs	r1, #153
 2973              	.LBE835:
 2974 07bc 1A88     		ldrh	r2, [r3, #0]
 2975              	.LBB836:
 2976 07be 8B48     		ldr	r0, .L331+12
 2977              	.LBE836:
 2978 07c0 1232     		adds	r2, r2, #18
 2979 07c2 1A80     		strh	r2, [r3, #0]	@ movhi
 2980 07c4 8B4B     		ldr	r3, .L331+20
 2981              	.LBB837:
 2982 07c6 8C4D     		ldr	r5, .L331+24
 2983              	.LBE837:
 2984 07c8 1A88     		ldrh	r2, [r3, #0]
 2985              	.LBB838:
 2986 07ca 8C4C     		ldr	r4, .L331+28
 2987              	.LBE838:
 2988 07cc 0132     		adds	r2, r2, #1
 2989 07ce 1A80     		strh	r2, [r3, #0]	@ movhi
 2990              	.LBB839:
 2991 07d0 FFF7FEFF 		bl	uart_transmit
 2992 07d4 1221     		movs	r1, #18
 2993 07d6 8548     		ldr	r0, .L331+12
 2994 07d8 FFF7FEFF 		bl	uart_transmit
 2995              	.LBE839:
 2996 07dc 1323     		movs	r3, #19
 2997 07de 2B70     		strb	r3, [r5, #0]
 2998 07e0 1233     		adds	r3, r3, #18
 2999 07e2 0121     		movs	r1, #1
 3000 07e4 2370     		strb	r3, [r4, #0]
 3001 07e6 8148     		ldr	r0, .L331+12
 3002 07e8 FFF7FEFF 		bl	uart_transmit
 3003 07ec 2B78     		ldrb	r3, [r5, #0]	@ zero_extendqisi2
 3004 07ee 2278     		ldrb	r2, [r4, #0]	@ zero_extendqisi2
 3005 07f0 0633     		adds	r3, r3, #6
 3006 07f2 DBB2     		uxtb	r3, r3
 3007 07f4 3146     		mov	r1, r6
 3008 07f6 2B70     		strb	r3, [r5, #0]
 3009              	.LBB840:
 3010 07f8 814E     		ldr	r6, .L331+32
 3011              	.LBE840:
 3012 07fa 9B18     		adds	r3, r3, r2
 3013 07fc 2370     		strb	r3, [r4, #0]
 3014 07fe 7B48     		ldr	r0, .L331+12
 3015 0800 FFF7FEFF 		bl	uart_transmit
 3016              	.LBB841:
 3017 0804 3178     		ldrb	r1, [r6, #0]	@ zero_extendqisi2
 3018              	.LVL280:
 3019 0806 2B78     		ldrb	r3, [r5, #0]	@ zero_extendqisi2
 3020 0808 2278     		ldrb	r2, [r4, #0]	@ zero_extendqisi2
 3021 080a CB18     		adds	r3, r1, r3
 3022 080c DBB2     		uxtb	r3, r3
 3023 080e 2B70     		strb	r3, [r5, #0]
 3024 0810 9B18     		adds	r3, r3, r2
 3025 0812 2370     		strb	r3, [r4, #0]
 3026 0814 7548     		ldr	r0, .L331+12
 3027 0816 FFF7FEFF 		bl	uart_transmit
 3028              	.LVL281:
 3029              	.LBE841:
 3030              	.LBB842:
 3031 081a 7178     		ldrb	r1, [r6, #1]	@ zero_extendqisi2
 3032              	.LVL282:
 3033 081c 2B78     		ldrb	r3, [r5, #0]	@ zero_extendqisi2
 3034 081e 2278     		ldrb	r2, [r4, #0]	@ zero_extendqisi2
 3035 0820 CB18     		adds	r3, r1, r3
 3036 0822 DBB2     		uxtb	r3, r3
 3037 0824 2B70     		strb	r3, [r5, #0]
 3038 0826 9B18     		adds	r3, r3, r2
 3039 0828 2370     		strb	r3, [r4, #0]
 3040 082a 7048     		ldr	r0, .L331+12
 3041 082c FFF7FEFF 		bl	uart_transmit
 3042              	.LVL283:
 3043              	.LBE842:
 3044              	.LBB843:
 3045 0830 B178     		ldrb	r1, [r6, #2]	@ zero_extendqisi2
 3046              	.LVL284:
 3047 0832 2B78     		ldrb	r3, [r5, #0]	@ zero_extendqisi2
 3048 0834 2278     		ldrb	r2, [r4, #0]	@ zero_extendqisi2
 3049 0836 CB18     		adds	r3, r1, r3
 3050 0838 DBB2     		uxtb	r3, r3
 3051 083a 2B70     		strb	r3, [r5, #0]
 3052 083c 9B18     		adds	r3, r3, r2
 3053 083e 2370     		strb	r3, [r4, #0]
 3054 0840 6A48     		ldr	r0, .L331+12
 3055 0842 FFF7FEFF 		bl	uart_transmit
 3056              	.LVL285:
 3057              	.LBE843:
 3058              	.LBB844:
 3059 0846 F178     		ldrb	r1, [r6, #3]	@ zero_extendqisi2
 3060              	.LVL286:
 3061 0848 2B78     		ldrb	r3, [r5, #0]	@ zero_extendqisi2
 3062 084a 2278     		ldrb	r2, [r4, #0]	@ zero_extendqisi2
 3063 084c CB18     		adds	r3, r1, r3
 3064 084e DBB2     		uxtb	r3, r3
 3065              	.LBE844:
 3066              	.LBB845:
 3067 0850 6C4E     		ldr	r6, .L331+36
 3068              	.LBE845:
 3069              	.LBB846:
 3070 0852 2B70     		strb	r3, [r5, #0]
 3071 0854 9B18     		adds	r3, r3, r2
 3072 0856 2370     		strb	r3, [r4, #0]
 3073 0858 6448     		ldr	r0, .L331+12
 3074 085a FFF7FEFF 		bl	uart_transmit
 3075              	.LVL287:
 3076              	.LBE846:
 3077              	.LBB847:
 3078 085e 3178     		ldrb	r1, [r6, #0]	@ zero_extendqisi2
 3079              	.LVL288:
 3080 0860 2B78     		ldrb	r3, [r5, #0]	@ zero_extendqisi2
 3081 0862 2278     		ldrb	r2, [r4, #0]	@ zero_extendqisi2
 3082 0864 CB18     		adds	r3, r1, r3
 3083 0866 DBB2     		uxtb	r3, r3
 3084 0868 2B70     		strb	r3, [r5, #0]
 3085 086a 9B18     		adds	r3, r3, r2
 3086 086c 2370     		strb	r3, [r4, #0]
 3087 086e 5F48     		ldr	r0, .L331+12
 3088 0870 FFF7FEFF 		bl	uart_transmit
 3089              	.LVL289:
 3090              	.LBE847:
 3091              	.LBB848:
 3092 0874 7178     		ldrb	r1, [r6, #1]	@ zero_extendqisi2
 3093              	.LVL290:
 3094 0876 2B78     		ldrb	r3, [r5, #0]	@ zero_extendqisi2
 3095 0878 2278     		ldrb	r2, [r4, #0]	@ zero_extendqisi2
 3096 087a CB18     		adds	r3, r1, r3
 3097 087c DBB2     		uxtb	r3, r3
 3098 087e 2B70     		strb	r3, [r5, #0]
 3099 0880 9B18     		adds	r3, r3, r2
 3100 0882 2370     		strb	r3, [r4, #0]
 3101 0884 5948     		ldr	r0, .L331+12
 3102 0886 FFF7FEFF 		bl	uart_transmit
 3103              	.LVL291:
 3104              	.LBE848:
 3105              	.LBB849:
 3106 088a B178     		ldrb	r1, [r6, #2]	@ zero_extendqisi2
 3107              	.LVL292:
 3108 088c 2B78     		ldrb	r3, [r5, #0]	@ zero_extendqisi2
 3109 088e 2278     		ldrb	r2, [r4, #0]	@ zero_extendqisi2
 3110 0890 CB18     		adds	r3, r1, r3
 3111 0892 DBB2     		uxtb	r3, r3
 3112 0894 2B70     		strb	r3, [r5, #0]
 3113 0896 9B18     		adds	r3, r3, r2
 3114 0898 2370     		strb	r3, [r4, #0]
 3115 089a 5448     		ldr	r0, .L331+12
 3116 089c FFF7FEFF 		bl	uart_transmit
 3117              	.LVL293:
 3118              	.LBE849:
 3119              	.LBB850:
 3120 08a0 F178     		ldrb	r1, [r6, #3]	@ zero_extendqisi2
 3121              	.LVL294:
 3122 08a2 2B78     		ldrb	r3, [r5, #0]	@ zero_extendqisi2
 3123 08a4 2278     		ldrb	r2, [r4, #0]	@ zero_extendqisi2
 3124 08a6 CB18     		adds	r3, r1, r3
 3125 08a8 DBB2     		uxtb	r3, r3
 3126 08aa 2B70     		strb	r3, [r5, #0]
 3127 08ac 9B18     		adds	r3, r3, r2
 3128 08ae 2370     		strb	r3, [r4, #0]
 3129 08b0 4E48     		ldr	r0, .L331+12
 3130 08b2 FFF7FEFF 		bl	uart_transmit
 3131              	.LVL295:
 3132              	.LBE850:
 3133              	.LBB851:
 3134 08b6 544E     		ldr	r6, .L331+40
 3135 08b8 5CE0     		b	.L303
 3136              	.L131:
 3137              	.LBE851:
 3138 08ba 0C2E     		cmp	r6, #12
 3139 08bc 40F0AA80 		bne	.L134
 3140 08c0 4A48     		ldr	r0, .L331+12
 3141 08c2 0E21     		movs	r1, #14
 3142 08c4 FFF7FEFF 		bl	uart_check_free_space
 3143 08c8 0028     		cmp	r0, #0
 3144 08ca 00F0B581 		beq	.L137
 3145 08ce 484B     		ldr	r3, .L331+16
 3146              	.LBB852:
 3147 08d0 4648     		ldr	r0, .L331+12
 3148              	.LBE852:
 3149 08d2 1A88     		ldrh	r2, [r3, #0]
 3150              	.LBB853:
 3151 08d4 9921     		movs	r1, #153
 3152              	.LBE853:
 3153 08d6 0E32     		adds	r2, r2, #14
 3154 08d8 1A80     		strh	r2, [r3, #0]	@ movhi
 3155 08da 464B     		ldr	r3, .L331+20
 3156              	.LBB854:
 3157 08dc 464D     		ldr	r5, .L331+24
 3158              	.LBE854:
 3159 08de 1A88     		ldrh	r2, [r3, #0]
 3160              	.LBB855:
 3161 08e0 464C     		ldr	r4, .L331+28
 3162              	.LBE855:
 3163 08e2 0132     		adds	r2, r2, #1
 3164 08e4 1A80     		strh	r2, [r3, #0]	@ movhi
 3165              	.LBB856:
 3166 08e6 FFF7FEFF 		bl	uart_transmit
 3167 08ea 4048     		ldr	r0, .L331+12
 3168 08ec 0E21     		movs	r1, #14
 3169 08ee FFF7FEFF 		bl	uart_transmit
 3170              	.LBE856:
 3171 08f2 0F23     		movs	r3, #15
 3172 08f4 2B70     		strb	r3, [r5, #0]
 3173 08f6 0E33     		adds	r3, r3, #14
 3174 08f8 2370     		strb	r3, [r4, #0]
 3175 08fa 3C48     		ldr	r0, .L331+12
 3176 08fc 0121     		movs	r1, #1
 3177 08fe FFF7FEFF 		bl	uart_transmit
 3178 0902 2B78     		ldrb	r3, [r5, #0]	@ zero_extendqisi2
 3179 0904 2278     		ldrb	r2, [r4, #0]	@ zero_extendqisi2
 3180 0906 2A33     		adds	r3, r3, #42
 3181 0908 DBB2     		uxtb	r3, r3
 3182              	.LBB857:
 3183 090a 404E     		ldr	r6, .L331+44
 3184              	.LBE857:
 3185 090c 2B70     		strb	r3, [r5, #0]
 3186 090e 9B18     		adds	r3, r3, r2
 3187 0910 2370     		strb	r3, [r4, #0]
 3188 0912 3648     		ldr	r0, .L331+12
 3189 0914 2A21     		movs	r1, #42
 3190 0916 FFF7FEFF 		bl	uart_transmit
 3191              	.LBB858:
 3192 091a 3178     		ldrb	r1, [r6, #0]	@ zero_extendqisi2
 3193              	.LVL296:
 3194 091c 2B78     		ldrb	r3, [r5, #0]	@ zero_extendqisi2
 3195 091e 2278     		ldrb	r2, [r4, #0]	@ zero_extendqisi2
 3196 0920 CB18     		adds	r3, r1, r3
 3197 0922 DBB2     		uxtb	r3, r3
 3198 0924 2B70     		strb	r3, [r5, #0]
 3199 0926 9B18     		adds	r3, r3, r2
 3200 0928 2370     		strb	r3, [r4, #0]
 3201 092a 3048     		ldr	r0, .L331+12
 3202 092c FFF7FEFF 		bl	uart_transmit
 3203              	.LVL297:
 3204              	.LBE858:
 3205              	.LBB859:
 3206 0930 7178     		ldrb	r1, [r6, #1]	@ zero_extendqisi2
 3207              	.LVL298:
 3208 0932 2B78     		ldrb	r3, [r5, #0]	@ zero_extendqisi2
 3209 0934 2278     		ldrb	r2, [r4, #0]	@ zero_extendqisi2
 3210 0936 CB18     		adds	r3, r1, r3
 3211 0938 DBB2     		uxtb	r3, r3
 3212 093a 2B70     		strb	r3, [r5, #0]
 3213 093c 9B18     		adds	r3, r3, r2
 3214 093e 2370     		strb	r3, [r4, #0]
 3215 0940 2A48     		ldr	r0, .L331+12
 3216 0942 FFF7FEFF 		bl	uart_transmit
 3217              	.LVL299:
 3218              	.LBE859:
 3219              	.LBB860:
 3220 0946 B178     		ldrb	r1, [r6, #2]	@ zero_extendqisi2
 3221              	.LVL300:
 3222 0948 2B78     		ldrb	r3, [r5, #0]	@ zero_extendqisi2
 3223 094a 2278     		ldrb	r2, [r4, #0]	@ zero_extendqisi2
 3224 094c CB18     		adds	r3, r1, r3
 3225 094e DBB2     		uxtb	r3, r3
 3226 0950 2B70     		strb	r3, [r5, #0]
 3227 0952 9B18     		adds	r3, r3, r2
 3228 0954 2370     		strb	r3, [r4, #0]
 3229 0956 2548     		ldr	r0, .L331+12
 3230 0958 FFF7FEFF 		bl	uart_transmit
 3231              	.LVL301:
 3232              	.LBE860:
 3233              	.LBB861:
 3234 095c F178     		ldrb	r1, [r6, #3]	@ zero_extendqisi2
 3235              	.LVL302:
 3236 095e 2B78     		ldrb	r3, [r5, #0]	@ zero_extendqisi2
 3237 0960 2278     		ldrb	r2, [r4, #0]	@ zero_extendqisi2
 3238 0962 CB18     		adds	r3, r1, r3
 3239 0964 DBB2     		uxtb	r3, r3
 3240 0966 2B70     		strb	r3, [r5, #0]
 3241 0968 9B18     		adds	r3, r3, r2
 3242 096a 2370     		strb	r3, [r4, #0]
 3243 096c 1F48     		ldr	r0, .L331+12
 3244 096e FFF7FEFF 		bl	uart_transmit
 3245              	.LVL303:
 3246              	.LBE861:
 3247              	.LBB862:
 3248 0972 274E     		ldr	r6, .L331+48
 3249              	.L303:
 3250 0974 3178     		ldrb	r1, [r6, #0]	@ zero_extendqisi2
 3251              	.LVL304:
 3252 0976 2B78     		ldrb	r3, [r5, #0]	@ zero_extendqisi2
 3253 0978 2278     		ldrb	r2, [r4, #0]	@ zero_extendqisi2
 3254 097a CB18     		adds	r3, r1, r3
 3255 097c DBB2     		uxtb	r3, r3
 3256 097e 2B70     		strb	r3, [r5, #0]
 3257 0980 9B18     		adds	r3, r3, r2
 3258 0982 2370     		strb	r3, [r4, #0]
 3259 0984 1948     		ldr	r0, .L331+12
 3260 0986 FFF7FEFF 		bl	uart_transmit
 3261              	.LVL305:
 3262              	.LBE862:
 3263              	.LBB863:
 3264 098a 7178     		ldrb	r1, [r6, #1]	@ zero_extendqisi2
 3265              	.LVL306:
 3266 098c 2B78     		ldrb	r3, [r5, #0]	@ zero_extendqisi2
 3267 098e 2278     		ldrb	r2, [r4, #0]	@ zero_extendqisi2
 3268 0990 CB18     		adds	r3, r1, r3
 3269 0992 DBB2     		uxtb	r3, r3
 3270 0994 2B70     		strb	r3, [r5, #0]
 3271 0996 9B18     		adds	r3, r3, r2
 3272 0998 2370     		strb	r3, [r4, #0]
 3273 099a 1448     		ldr	r0, .L331+12
 3274 099c FFF7FEFF 		bl	uart_transmit
 3275              	.LVL307:
 3276              	.LBE863:
 3277              	.LBB864:
 3278 09a0 B178     		ldrb	r1, [r6, #2]	@ zero_extendqisi2
 3279              	.LVL308:
 3280 09a2 2B78     		ldrb	r3, [r5, #0]	@ zero_extendqisi2
 3281 09a4 2278     		ldrb	r2, [r4, #0]	@ zero_extendqisi2
 3282 09a6 CB18     		adds	r3, r1, r3
 3283 09a8 DBB2     		uxtb	r3, r3
 3284 09aa 2B70     		strb	r3, [r5, #0]
 3285 09ac 9B18     		adds	r3, r3, r2
 3286 09ae 2370     		strb	r3, [r4, #0]
 3287 09b0 0E48     		ldr	r0, .L331+12
 3288 09b2 FFF7FEFF 		bl	uart_transmit
 3289              	.LVL309:
 3290              	.LBE864:
 3291              	.LBB865:
 3292 09b6 F178     		ldrb	r1, [r6, #3]	@ zero_extendqisi2
 3293              	.LVL310:
 3294              	.L304:
 3295 09b8 2B78     		ldrb	r3, [r5, #0]	@ zero_extendqisi2
 3296 09ba 2278     		ldrb	r2, [r4, #0]	@ zero_extendqisi2
 3297 09bc CB18     		adds	r3, r1, r3
 3298 09be DBB2     		uxtb	r3, r3
 3299 09c0 2B70     		strb	r3, [r5, #0]
 3300 09c2 9B18     		adds	r3, r3, r2
 3301 09c4 2370     		strb	r3, [r4, #0]
 3302 09c6 0948     		ldr	r0, .L331+12
 3303 09c8 FFF7FEFF 		bl	uart_transmit
 3304              	.LVL311:
 3305              	.LBE865:
 3306 09cc 2978     		ldrb	r1, [r5, #0]	@ zero_extendqisi2
 3307 09ce 0748     		ldr	r0, .L331+12
 3308 09d0 FFF7FEFF 		bl	uart_transmit
 3309 09d4 0548     		ldr	r0, .L331+12
 3310 09d6 2178     		ldrb	r1, [r4, #0]	@ zero_extendqisi2
 3311 09d8 FFF7FEFF 		bl	uart_transmit
 3312 09dc 30E1     		b	.L133
 3313              	.L332:
 3314 09de 00BF     		.align	2
 3315              	.L331:
 3316 09e0 00000000 		.word	downlink_nb_ovrn
 3317 09e4 00000000 		.word	.LANCHOR36
 3318 09e8 00000000 		.word	.LANCHOR24
 3319 09ec 00000000 		.word	uart2
 3320 09f0 00000000 		.word	downlink_nb_bytes
 3321 09f4 00000000 		.word	downlink_nb_msgs
 3322 09f8 00000000 		.word	ck_a
 3323 09fc 00000000 		.word	ck_b
 3324 0a00 00000000 		.word	estimator_phi
 3325 0a04 00000000 		.word	estimator_psi
 3326 0a08 00000000 		.word	estimator_theta
 3327 0a0c 00000000 		.word	estimator_z
 3328 0a10 00000000 		.word	estimator_z_dot
 3329              	.LVL312:
 3330              	.L134:
 3331 0a14 122E     		cmp	r6, #18
 3332 0a16 40F01381 		bne	.L133
 3333              	.LBB866:
 3334 0a1a 7C4B     		ldr	r3, .L333
 3335 0a1c 7C49     		ldr	r1, .L333+4
 3336 0a1e 1A78     		ldrb	r2, [r3, #0]	@ zero_extendqisi2
 3337 0a20 0978     		ldrb	r1, [r1, #0]	@ zero_extendqisi2
 3338 0a22 0132     		adds	r2, r2, #1
 3339 0a24 D2B2     		uxtb	r2, r2
 3340 0a26 9142     		cmp	r1, r2
 3341 0a28 1A70     		strb	r2, [r3, #0]
 3342 0a2a 01D8     		bhi	.L136
 3343 0a2c 0022     		movs	r2, #0
 3344 0a2e 1A70     		strb	r2, [r3, #0]
 3345              	.L136:
 3346              	.LBB867:
 3347 0a30 784B     		ldr	r3, .L333+8
 3348 0a32 764F     		ldr	r7, .L333
 3349 0a34 1868     		ldr	r0, [r3, #0]
 3350 0a36 FFF7FEFF 		bl	__aeabi_i2f
 3351 0a3a 3B78     		ldrb	r3, [r7, #0]	@ zero_extendqisi2
 3352 0a3c 4FF00C08 		mov	r8, #12
 3353 0a40 08FB03F3 		mul	r3, r8, r3
 3354 0a44 744E     		ldr	r6, .L333+12
 3355 0a46 9959     		ldr	r1, [r3, r6]	@ float
 3356 0a48 9C19     		adds	r4, r3, r6
 3357 0a4a FFF7FEFF 		bl	__aeabi_fadd
 3358 0a4e 734B     		ldr	r3, .L333+16
 3359 0a50 0090     		str	r0, [sp, #0]	@ float
 3360              	.LVL313:
 3361 0a52 1868     		ldr	r0, [r3, #0]
 3362 0a54 FFF7FEFF 		bl	__aeabi_i2f
 3363 0a58 6168     		ldr	r1, [r4, #4]	@ float
 3364 0a5a FFF7FEFF 		bl	__aeabi_fadd
 3365 0a5e 1421     		movs	r1, #20
 3366 0a60 0290     		str	r0, [sp, #8]	@ float
 3367              	.LVL314:
 3368 0a62 6F48     		ldr	r0, .L333+20
 3369 0a64 FFF7FEFF 		bl	uart_check_free_space
 3370 0a68 0028     		cmp	r0, #0
 3371 0a6a 00F0E580 		beq	.L137
 3372 0a6e 6D4B     		ldr	r3, .L333+24
 3373              	.LBB868:
 3374 0a70 9921     		movs	r1, #153
 3375              	.LBE868:
 3376 0a72 1A88     		ldrh	r2, [r3, #0]
 3377              	.LBB869:
 3378 0a74 6A48     		ldr	r0, .L333+20
 3379              	.LBE869:
 3380 0a76 1432     		adds	r2, r2, #20
 3381 0a78 1A80     		strh	r2, [r3, #0]	@ movhi
 3382 0a7a 6B4B     		ldr	r3, .L333+28
 3383              	.LBB870:
 3384 0a7c 6B4D     		ldr	r5, .L333+32
 3385              	.LBE870:
 3386 0a7e 1A88     		ldrh	r2, [r3, #0]
 3387              	.LBB871:
 3388 0a80 6B4C     		ldr	r4, .L333+36
 3389              	.LBE871:
 3390 0a82 0132     		adds	r2, r2, #1
 3391 0a84 1A80     		strh	r2, [r3, #0]	@ movhi
 3392              	.LBB872:
 3393 0a86 FFF7FEFF 		bl	uart_transmit
 3394 0a8a 1421     		movs	r1, #20
 3395 0a8c 6448     		ldr	r0, .L333+20
 3396 0a8e FFF7FEFF 		bl	uart_transmit
 3397              	.LBE872:
 3398 0a92 1523     		movs	r3, #21
 3399 0a94 2B70     		strb	r3, [r5, #0]
 3400 0a96 1433     		adds	r3, r3, #20
 3401 0a98 0121     		movs	r1, #1
 3402 0a9a 2370     		strb	r3, [r4, #0]
 3403 0a9c 6048     		ldr	r0, .L333+20
 3404 0a9e FFF7FEFF 		bl	uart_transmit
 3405 0aa2 2B78     		ldrb	r3, [r5, #0]	@ zero_extendqisi2
 3406 0aa4 2278     		ldrb	r2, [r4, #0]	@ zero_extendqisi2
 3407 0aa6 2333     		adds	r3, r3, #35
 3408 0aa8 DBB2     		uxtb	r3, r3
 3409 0aaa 2B70     		strb	r3, [r5, #0]
 3410 0aac 9B18     		adds	r3, r3, r2
 3411 0aae 2321     		movs	r1, #35
 3412 0ab0 2370     		strb	r3, [r4, #0]
 3413 0ab2 5B48     		ldr	r0, .L333+20
 3414 0ab4 FFF7FEFF 		bl	uart_transmit
 3415              	.LBB873:
 3416 0ab8 3978     		ldrb	r1, [r7, #0]	@ zero_extendqisi2
 3417              	.LVL315:
 3418 0aba 2B78     		ldrb	r3, [r5, #0]	@ zero_extendqisi2
 3419 0abc 2278     		ldrb	r2, [r4, #0]	@ zero_extendqisi2
 3420 0abe CB18     		adds	r3, r1, r3
 3421 0ac0 DBB2     		uxtb	r3, r3
 3422 0ac2 2B70     		strb	r3, [r5, #0]
 3423 0ac4 9B18     		adds	r3, r3, r2
 3424 0ac6 2370     		strb	r3, [r4, #0]
 3425 0ac8 5548     		ldr	r0, .L333+20
 3426 0aca FFF7FEFF 		bl	uart_transmit
 3427              	.LVL316:
 3428              	.LBE873:
 3429              	.LBB874:
 3430 0ace 9DF80010 		ldrb	r1, [sp, #0]	@ zero_extendqisi2
 3431              	.LVL317:
 3432 0ad2 2B78     		ldrb	r3, [r5, #0]	@ zero_extendqisi2
 3433 0ad4 2278     		ldrb	r2, [r4, #0]	@ zero_extendqisi2
 3434 0ad6 CB18     		adds	r3, r1, r3
 3435 0ad8 DBB2     		uxtb	r3, r3
 3436 0ada 2B70     		strb	r3, [r5, #0]
 3437 0adc 9B18     		adds	r3, r3, r2
 3438 0ade EA46     		mov	sl, sp
 3439 0ae0 2370     		strb	r3, [r4, #0]
 3440 0ae2 4F48     		ldr	r0, .L333+20
 3441 0ae4 FFF7FEFF 		bl	uart_transmit
 3442              	.LVL318:
 3443              	.LBE874:
 3444              	.LBB875:
 3445 0ae8 9AF80110 		ldrb	r1, [sl, #1]	@ zero_extendqisi2
 3446              	.LVL319:
 3447 0aec 2B78     		ldrb	r3, [r5, #0]	@ zero_extendqisi2
 3448 0aee 2278     		ldrb	r2, [r4, #0]	@ zero_extendqisi2
 3449 0af0 CB18     		adds	r3, r1, r3
 3450 0af2 DBB2     		uxtb	r3, r3
 3451 0af4 2B70     		strb	r3, [r5, #0]
 3452 0af6 9B18     		adds	r3, r3, r2
 3453 0af8 2370     		strb	r3, [r4, #0]
 3454 0afa 4948     		ldr	r0, .L333+20
 3455 0afc FFF7FEFF 		bl	uart_transmit
 3456              	.LVL320:
 3457              	.LBE875:
 3458              	.LBB876:
 3459 0b00 9AF80210 		ldrb	r1, [sl, #2]	@ zero_extendqisi2
 3460              	.LVL321:
 3461 0b04 2B78     		ldrb	r3, [r5, #0]	@ zero_extendqisi2
 3462 0b06 2278     		ldrb	r2, [r4, #0]	@ zero_extendqisi2
 3463 0b08 CB18     		adds	r3, r1, r3
 3464 0b0a DBB2     		uxtb	r3, r3
 3465 0b0c 2B70     		strb	r3, [r5, #0]
 3466 0b0e 9B18     		adds	r3, r3, r2
 3467 0b10 2370     		strb	r3, [r4, #0]
 3468 0b12 4348     		ldr	r0, .L333+20
 3469 0b14 FFF7FEFF 		bl	uart_transmit
 3470              	.LVL322:
 3471              	.LBE876:
 3472              	.LBB877:
 3473 0b18 9AF80310 		ldrb	r1, [sl, #3]	@ zero_extendqisi2
 3474              	.LVL323:
 3475 0b1c 2B78     		ldrb	r3, [r5, #0]	@ zero_extendqisi2
 3476 0b1e 2278     		ldrb	r2, [r4, #0]	@ zero_extendqisi2
 3477 0b20 CB18     		adds	r3, r1, r3
 3478 0b22 DBB2     		uxtb	r3, r3
 3479 0b24 2B70     		strb	r3, [r5, #0]
 3480 0b26 9B18     		adds	r3, r3, r2
 3481 0b28 2370     		strb	r3, [r4, #0]
 3482 0b2a 3D48     		ldr	r0, .L333+20
 3483 0b2c FFF7FEFF 		bl	uart_transmit
 3484              	.LVL324:
 3485              	.LBE877:
 3486              	.LBB878:
 3487 0b30 9DF80810 		ldrb	r1, [sp, #8]	@ zero_extendqisi2
 3488              	.LVL325:
 3489 0b34 2B78     		ldrb	r3, [r5, #0]	@ zero_extendqisi2
 3490 0b36 2278     		ldrb	r2, [r4, #0]	@ zero_extendqisi2
 3491 0b38 CB18     		adds	r3, r1, r3
 3492 0b3a DBB2     		uxtb	r3, r3
 3493 0b3c 2B70     		strb	r3, [r5, #0]
 3494 0b3e 9B18     		adds	r3, r3, r2
 3495 0b40 0DF1080A 		add	sl, sp, #8
 3496 0b44 2370     		strb	r3, [r4, #0]
 3497 0b46 3648     		ldr	r0, .L333+20
 3498 0b48 FFF7FEFF 		bl	uart_transmit
 3499              	.LVL326:
 3500              	.LBE878:
 3501              	.LBB879:
 3502 0b4c 9AF80110 		ldrb	r1, [sl, #1]	@ zero_extendqisi2
 3503              	.LVL327:
 3504 0b50 2B78     		ldrb	r3, [r5, #0]	@ zero_extendqisi2
 3505 0b52 2278     		ldrb	r2, [r4, #0]	@ zero_extendqisi2
 3506 0b54 CB18     		adds	r3, r1, r3
 3507 0b56 DBB2     		uxtb	r3, r3
 3508 0b58 2B70     		strb	r3, [r5, #0]
 3509 0b5a 9B18     		adds	r3, r3, r2
 3510 0b5c 2370     		strb	r3, [r4, #0]
 3511 0b5e 3048     		ldr	r0, .L333+20
 3512 0b60 FFF7FEFF 		bl	uart_transmit
 3513              	.LVL328:
 3514              	.LBE879:
 3515              	.LBB880:
 3516 0b64 9AF80210 		ldrb	r1, [sl, #2]	@ zero_extendqisi2
 3517              	.LVL329:
 3518 0b68 2B78     		ldrb	r3, [r5, #0]	@ zero_extendqisi2
 3519 0b6a 2278     		ldrb	r2, [r4, #0]	@ zero_extendqisi2
 3520 0b6c CB18     		adds	r3, r1, r3
 3521 0b6e DBB2     		uxtb	r3, r3
 3522 0b70 2B70     		strb	r3, [r5, #0]
 3523 0b72 9B18     		adds	r3, r3, r2
 3524 0b74 2370     		strb	r3, [r4, #0]
 3525 0b76 2A48     		ldr	r0, .L333+20
 3526 0b78 FFF7FEFF 		bl	uart_transmit
 3527              	.LVL330:
 3528              	.LBE880:
 3529              	.LBB881:
 3530 0b7c 9AF80310 		ldrb	r1, [sl, #3]	@ zero_extendqisi2
 3531              	.LVL331:
 3532 0b80 2B78     		ldrb	r3, [r5, #0]	@ zero_extendqisi2
 3533 0b82 2278     		ldrb	r2, [r4, #0]	@ zero_extendqisi2
 3534 0b84 CB18     		adds	r3, r1, r3
 3535 0b86 DBB2     		uxtb	r3, r3
 3536 0b88 2B70     		strb	r3, [r5, #0]
 3537 0b8a 9B18     		adds	r3, r3, r2
 3538 0b8c 2370     		strb	r3, [r4, #0]
 3539 0b8e 2448     		ldr	r0, .L333+20
 3540 0b90 FFF7FEFF 		bl	uart_transmit
 3541              	.LVL332:
 3542              	.LBE881:
 3543              	.LBB882:
 3544 0b94 3B78     		ldrb	r3, [r7, #0]	@ zero_extendqisi2
 3545 0b96 2278     		ldrb	r2, [r4, #0]	@ zero_extendqisi2
 3546 0b98 08FB0363 		mla	r3, r8, r3, r6
 3547 0b9c 197A     		ldrb	r1, [r3, #8]	@ zero_extendqisi2
 3548              	.LVL333:
 3549 0b9e 2B78     		ldrb	r3, [r5, #0]	@ zero_extendqisi2
 3550 0ba0 1F48     		ldr	r0, .L333+20
 3551 0ba2 CB18     		adds	r3, r1, r3
 3552 0ba4 DBB2     		uxtb	r3, r3
 3553 0ba6 2B70     		strb	r3, [r5, #0]
 3554 0ba8 9B18     		adds	r3, r3, r2
 3555 0baa 2370     		strb	r3, [r4, #0]
 3556 0bac FFF7FEFF 		bl	uart_transmit
 3557              	.LVL334:
 3558              	.LBE882:
 3559              	.LBB883:
 3560 0bb0 3B78     		ldrb	r3, [r7, #0]	@ zero_extendqisi2
 3561 0bb2 2278     		ldrb	r2, [r4, #0]	@ zero_extendqisi2
 3562 0bb4 08FB0363 		mla	r3, r8, r3, r6
 3563 0bb8 597A     		ldrb	r1, [r3, #9]	@ zero_extendqisi2
 3564              	.LVL335:
 3565 0bba 2B78     		ldrb	r3, [r5, #0]	@ zero_extendqisi2
 3566 0bbc 1848     		ldr	r0, .L333+20
 3567 0bbe CB18     		adds	r3, r1, r3
 3568 0bc0 DBB2     		uxtb	r3, r3
 3569 0bc2 2B70     		strb	r3, [r5, #0]
 3570 0bc4 9B18     		adds	r3, r3, r2
 3571 0bc6 2370     		strb	r3, [r4, #0]
 3572 0bc8 FFF7FEFF 		bl	uart_transmit
 3573              	.LVL336:
 3574              	.LBE883:
 3575              	.LBB884:
 3576 0bcc 3B78     		ldrb	r3, [r7, #0]	@ zero_extendqisi2
 3577 0bce 2278     		ldrb	r2, [r4, #0]	@ zero_extendqisi2
 3578 0bd0 08FB0363 		mla	r3, r8, r3, r6
 3579 0bd4 997A     		ldrb	r1, [r3, #10]	@ zero_extendqisi2
 3580              	.LVL337:
 3581 0bd6 2B78     		ldrb	r3, [r5, #0]	@ zero_extendqisi2
 3582 0bd8 1148     		ldr	r0, .L333+20
 3583 0bda CB18     		adds	r3, r1, r3
 3584 0bdc DBB2     		uxtb	r3, r3
 3585 0bde 2B70     		strb	r3, [r5, #0]
 3586 0be0 9B18     		adds	r3, r3, r2
 3587 0be2 2370     		strb	r3, [r4, #0]
 3588 0be4 FFF7FEFF 		bl	uart_transmit
 3589              	.LVL338:
 3590              	.LBE884:
 3591              	.LBB885:
 3592 0be8 3B78     		ldrb	r3, [r7, #0]	@ zero_extendqisi2
 3593 0bea 2278     		ldrb	r2, [r4, #0]	@ zero_extendqisi2
 3594 0bec 08FB0366 		mla	r6, r8, r3, r6
 3595 0bf0 2B78     		ldrb	r3, [r5, #0]	@ zero_extendqisi2
 3596 0bf2 F17A     		ldrb	r1, [r6, #11]	@ zero_extendqisi2
 3597              	.LVL339:
 3598 0bf4 0A48     		ldr	r0, .L333+20
 3599 0bf6 CB18     		adds	r3, r1, r3
 3600 0bf8 DBB2     		uxtb	r3, r3
 3601 0bfa 2B70     		strb	r3, [r5, #0]
 3602 0bfc 9B18     		adds	r3, r3, r2
 3603 0bfe 2370     		strb	r3, [r4, #0]
 3604 0c00 FFF7FEFF 		bl	uart_transmit
 3605              	.LVL340:
 3606              	.LBE885:
 3607              	.LBB886:
 3608 0c04 0B4B     		ldr	r3, .L333+40
 3609 0c06 1978     		ldrb	r1, [r3, #0]	@ zero_extendqisi2
 3610              	.LVL341:
 3611 0c08 D6E6     		b	.L304
 3612              	.L334:
 3613 0c0a 00BF     		.align	2
 3614              	.L333:
 3615 0c0c 00000000 		.word	.LANCHOR37
 3616 0c10 00000000 		.word	nb_waypoint
 3617 0c14 00000000 		.word	nav_utm_east0
 3618 0c18 00000000 		.word	waypoints
 3619 0c1c 00000000 		.word	nav_utm_north0
 3620 0c20 00000000 		.word	uart2
 3621 0c24 00000000 		.word	downlink_nb_bytes
 3622 0c28 00000000 		.word	downlink_nb_msgs
 3623 0c2c 00000000 		.word	ck_a
 3624 0c30 00000000 		.word	ck_b
 3625 0c34 00000000 		.word	nav_utm_zone0
 3626              	.LVL342:
 3627              	.L137:
 3628              	.LBE886:
 3629 0c38 9B4B     		ldr	r3, .L335+8
 3630 0c3a 1A78     		ldrb	r2, [r3, #0]	@ zero_extendqisi2
 3631 0c3c 0132     		adds	r2, r2, #1
 3632 0c3e 1A70     		strb	r2, [r3, #0]
 3633              	.L133:
 3634              	.LBE867:
 3635              	.LBE866:
 3636 0c40 9A4B     		ldr	r3, .L335+12
 3637 0c42 1B78     		ldrb	r3, [r3, #0]	@ zero_extendqisi2
 3638 0c44 182B     		cmp	r3, #24
 3639 0c46 00F05181 		beq	.L138
 3640 0c4a 1E2B     		cmp	r3, #30
 3641 0c4c 40F04E81 		bne	.L138
 3642              	.LBB887:
 3643 0c50 974B     		ldr	r3, .L335+16
 3644 0c52 9848     		ldr	r0, .L335+20
 3645 0c54 1A21     		movs	r1, #26
 3646 0c56 1C68     		ldr	r4, [r3, #0]	@ float
 3647 0c58 FFF7FEFF 		bl	uart_check_free_space
 3648 0c5c 0028     		cmp	r0, #0
 3649 0c5e 00F04181 		beq	.L139
 3650 0c62 24F00040 		bic	r0, r4, #-2147483648
 3651 0c66 FFF7FEFF 		bl	__aeabi_f2d
 3652 0c6a 8DA3     		adr	r3, .L335
 3653 0c6c D3E90023 		ldrd	r2, [r3]
 3654 0c70 FFF7FEFF 		bl	__aeabi_ddiv
 3655 0c74 FFF7FEFF 		bl	__aeabi_d2uiz
 3656 0c78 8F4B     		ldr	r3, .L335+24
 3657 0c7a C7B2     		uxtb	r7, r0
 3658 0c7c 1A88     		ldrh	r2, [r3, #0]
 3659              	.LBB888:
 3660 0c7e 9921     		movs	r1, #153
 3661              	.LBE888:
 3662 0c80 1A32     		adds	r2, r2, #26
 3663 0c82 1A80     		strh	r2, [r3, #0]	@ movhi
 3664 0c84 8D4B     		ldr	r3, .L335+28
 3665              	.LBB889:
 3666 0c86 8B48     		ldr	r0, .L335+20
 3667              	.LBE889:
 3668 0c88 1A88     		ldrh	r2, [r3, #0]
 3669              	.LBB890:
 3670 0c8a 8D4D     		ldr	r5, .L335+32
 3671              	.LBE890:
 3672 0c8c 0132     		adds	r2, r2, #1
 3673 0c8e 1A80     		strh	r2, [r3, #0]	@ movhi
 3674              	.LBB891:
 3675 0c90 FFF7FEFF 		bl	uart_transmit
 3676 0c94 1A21     		movs	r1, #26
 3677 0c96 8748     		ldr	r0, .L335+20
 3678 0c98 8A4C     		ldr	r4, .L335+36
 3679 0c9a FFF7FEFF 		bl	uart_transmit
 3680              	.LBE891:
 3681 0c9e 1B23     		movs	r3, #27
 3682 0ca0 2B70     		strb	r3, [r5, #0]
 3683 0ca2 1A33     		adds	r3, r3, #26
 3684 0ca4 2370     		strb	r3, [r4, #0]
 3685 0ca6 0121     		movs	r1, #1
 3686 0ca8 8248     		ldr	r0, .L335+20
 3687 0caa FFF7FEFF 		bl	uart_transmit
 3688 0cae 2B78     		ldrb	r3, [r5, #0]	@ zero_extendqisi2
 3689 0cb0 2278     		ldrb	r2, [r4, #0]	@ zero_extendqisi2
 3690 0cb2 0A33     		adds	r3, r3, #10
 3691 0cb4 DBB2     		uxtb	r3, r3
 3692 0cb6 2B70     		strb	r3, [r5, #0]
 3693 0cb8 9B18     		adds	r3, r3, r2
 3694 0cba 2370     		strb	r3, [r4, #0]
 3695 0cbc 0A21     		movs	r1, #10
 3696 0cbe 7D48     		ldr	r0, .L335+20
 3697 0cc0 FFF7FEFF 		bl	uart_transmit
 3698              	.LBB892:
 3699 0cc4 804B     		ldr	r3, .L335+40
 3700 0cc6 2278     		ldrb	r2, [r4, #0]	@ zero_extendqisi2
 3701 0cc8 1978     		ldrb	r1, [r3, #0]	@ zero_extendqisi2
 3702              	.LVL343:
 3703 0cca 2B78     		ldrb	r3, [r5, #0]	@ zero_extendqisi2
 3704 0ccc 7948     		ldr	r0, .L335+20
 3705 0cce CB18     		adds	r3, r1, r3
 3706 0cd0 DBB2     		uxtb	r3, r3
 3707 0cd2 2B70     		strb	r3, [r5, #0]
 3708 0cd4 9B18     		adds	r3, r3, r2
 3709 0cd6 2370     		strb	r3, [r4, #0]
 3710 0cd8 FFF7FEFF 		bl	uart_transmit
 3711              	.LVL344:
 3712              	.LBE892:
 3713              	.LBB893:
 3714 0cdc 7B4B     		ldr	r3, .L335+44
 3715 0cde 2278     		ldrb	r2, [r4, #0]	@ zero_extendqisi2
 3716 0ce0 1978     		ldrb	r1, [r3, #0]	@ zero_extendqisi2
 3717              	.LVL345:
 3718 0ce2 2B78     		ldrb	r3, [r5, #0]	@ zero_extendqisi2
 3719              	.LBE893:
 3720              	.LBB894:
 3721 0ce4 7A4E     		ldr	r6, .L335+48
 3722              	.LBE894:
 3723              	.LBB895:
 3724 0ce6 CB18     		adds	r3, r1, r3
 3725 0ce8 DBB2     		uxtb	r3, r3
 3726 0cea 2B70     		strb	r3, [r5, #0]
 3727 0cec 9B18     		adds	r3, r3, r2
 3728 0cee 2370     		strb	r3, [r4, #0]
 3729 0cf0 7048     		ldr	r0, .L335+20
 3730 0cf2 FFF7FEFF 		bl	uart_transmit
 3731              	.LVL346:
 3732              	.LBE895:
 3733              	.LBB896:
 3734 0cf6 3178     		ldrb	r1, [r6, #0]	@ zero_extendqisi2
 3735              	.LVL347:
 3736 0cf8 2B78     		ldrb	r3, [r5, #0]	@ zero_extendqisi2
 3737 0cfa 2278     		ldrb	r2, [r4, #0]	@ zero_extendqisi2
 3738 0cfc CB18     		adds	r3, r1, r3
 3739 0cfe DBB2     		uxtb	r3, r3
 3740 0d00 2B70     		strb	r3, [r5, #0]
 3741 0d02 9B18     		adds	r3, r3, r2
 3742 0d04 2370     		strb	r3, [r4, #0]
 3743 0d06 6B48     		ldr	r0, .L335+20
 3744 0d08 FFF7FEFF 		bl	uart_transmit
 3745              	.LVL348:
 3746              	.LBE896:
 3747              	.LBB897:
 3748 0d0c 7178     		ldrb	r1, [r6, #1]	@ zero_extendqisi2
 3749              	.LVL349:
 3750 0d0e 2B78     		ldrb	r3, [r5, #0]	@ zero_extendqisi2
 3751 0d10 2278     		ldrb	r2, [r4, #0]	@ zero_extendqisi2
 3752 0d12 CB18     		adds	r3, r1, r3
 3753 0d14 DBB2     		uxtb	r3, r3
 3754 0d16 2B70     		strb	r3, [r5, #0]
 3755 0d18 9B18     		adds	r3, r3, r2
 3756 0d1a 2370     		strb	r3, [r4, #0]
 3757 0d1c 6548     		ldr	r0, .L335+20
 3758 0d1e FFF7FEFF 		bl	uart_transmit
 3759              	.LVL350:
 3760              	.LBE897:
 3761              	.LBB898:
 3762 0d22 B178     		ldrb	r1, [r6, #2]	@ zero_extendqisi2
 3763              	.LVL351:
 3764 0d24 2B78     		ldrb	r3, [r5, #0]	@ zero_extendqisi2
 3765 0d26 2278     		ldrb	r2, [r4, #0]	@ zero_extendqisi2
 3766 0d28 CB18     		adds	r3, r1, r3
 3767 0d2a DBB2     		uxtb	r3, r3
 3768 0d2c 2B70     		strb	r3, [r5, #0]
 3769 0d2e 9B18     		adds	r3, r3, r2
 3770 0d30 2370     		strb	r3, [r4, #0]
 3771 0d32 6048     		ldr	r0, .L335+20
 3772 0d34 FFF7FEFF 		bl	uart_transmit
 3773              	.LVL352:
 3774              	.LBE898:
 3775              	.LBB899:
 3776 0d38 F178     		ldrb	r1, [r6, #3]	@ zero_extendqisi2
 3777              	.LVL353:
 3778 0d3a 2B78     		ldrb	r3, [r5, #0]	@ zero_extendqisi2
 3779 0d3c 2278     		ldrb	r2, [r4, #0]	@ zero_extendqisi2
 3780 0d3e CB18     		adds	r3, r1, r3
 3781 0d40 DBB2     		uxtb	r3, r3
 3782              	.LBE899:
 3783              	.LBB900:
 3784 0d42 644E     		ldr	r6, .L335+52
 3785              	.LBE900:
 3786              	.LBB901:
 3787 0d44 2B70     		strb	r3, [r5, #0]
 3788 0d46 9B18     		adds	r3, r3, r2
 3789 0d48 2370     		strb	r3, [r4, #0]
 3790 0d4a 5A48     		ldr	r0, .L335+20
 3791 0d4c FFF7FEFF 		bl	uart_transmit
 3792              	.LVL354:
 3793              	.LBE901:
 3794              	.LBB902:
 3795 0d50 3178     		ldrb	r1, [r6, #0]	@ zero_extendqisi2
 3796              	.LVL355:
 3797 0d52 2B78     		ldrb	r3, [r5, #0]	@ zero_extendqisi2
 3798 0d54 2278     		ldrb	r2, [r4, #0]	@ zero_extendqisi2
 3799 0d56 CB18     		adds	r3, r1, r3
 3800 0d58 DBB2     		uxtb	r3, r3
 3801 0d5a 2B70     		strb	r3, [r5, #0]
 3802 0d5c 9B18     		adds	r3, r3, r2
 3803 0d5e 2370     		strb	r3, [r4, #0]
 3804 0d60 5448     		ldr	r0, .L335+20
 3805 0d62 FFF7FEFF 		bl	uart_transmit
 3806              	.LVL356:
 3807              	.LBE902:
 3808              	.LBB903:
 3809 0d66 7178     		ldrb	r1, [r6, #1]	@ zero_extendqisi2
 3810              	.LVL357:
 3811 0d68 2B78     		ldrb	r3, [r5, #0]	@ zero_extendqisi2
 3812 0d6a 2278     		ldrb	r2, [r4, #0]	@ zero_extendqisi2
 3813 0d6c CB18     		adds	r3, r1, r3
 3814 0d6e DBB2     		uxtb	r3, r3
 3815 0d70 2B70     		strb	r3, [r5, #0]
 3816 0d72 9B18     		adds	r3, r3, r2
 3817 0d74 2370     		strb	r3, [r4, #0]
 3818 0d76 4F48     		ldr	r0, .L335+20
 3819 0d78 FFF7FEFF 		bl	uart_transmit
 3820              	.LVL358:
 3821              	.LBE903:
 3822              	.LBB904:
 3823 0d7c B178     		ldrb	r1, [r6, #2]	@ zero_extendqisi2
 3824              	.LVL359:
 3825 0d7e 2B78     		ldrb	r3, [r5, #0]	@ zero_extendqisi2
 3826 0d80 2278     		ldrb	r2, [r4, #0]	@ zero_extendqisi2
 3827 0d82 CB18     		adds	r3, r1, r3
 3828 0d84 DBB2     		uxtb	r3, r3
 3829 0d86 2B70     		strb	r3, [r5, #0]
 3830 0d88 9B18     		adds	r3, r3, r2
 3831 0d8a 2370     		strb	r3, [r4, #0]
 3832 0d8c 4948     		ldr	r0, .L335+20
 3833 0d8e FFF7FEFF 		bl	uart_transmit
 3834              	.LVL360:
 3835              	.LBE904:
 3836              	.LBB905:
 3837 0d92 F178     		ldrb	r1, [r6, #3]	@ zero_extendqisi2
 3838              	.LVL361:
 3839 0d94 2B78     		ldrb	r3, [r5, #0]	@ zero_extendqisi2
 3840 0d96 2278     		ldrb	r2, [r4, #0]	@ zero_extendqisi2
 3841 0d98 CB18     		adds	r3, r1, r3
 3842 0d9a DBB2     		uxtb	r3, r3
 3843              	.LBE905:
 3844              	.LBB906:
 3845 0d9c 4E4E     		ldr	r6, .L335+56
 3846              	.LBE906:
 3847              	.LBB907:
 3848 0d9e 2B70     		strb	r3, [r5, #0]
 3849 0da0 9B18     		adds	r3, r3, r2
 3850 0da2 2370     		strb	r3, [r4, #0]
 3851 0da4 4348     		ldr	r0, .L335+20
 3852 0da6 FFF7FEFF 		bl	uart_transmit
 3853              	.LVL362:
 3854              	.LBE907:
 3855              	.LBB908:
 3856 0daa 3178     		ldrb	r1, [r6, #0]	@ zero_extendqisi2
 3857              	.LVL363:
 3858 0dac 2B78     		ldrb	r3, [r5, #0]	@ zero_extendqisi2
 3859 0dae 2278     		ldrb	r2, [r4, #0]	@ zero_extendqisi2
 3860 0db0 CB18     		adds	r3, r1, r3
 3861 0db2 DBB2     		uxtb	r3, r3
 3862 0db4 2B70     		strb	r3, [r5, #0]
 3863 0db6 9B18     		adds	r3, r3, r2
 3864 0db8 2370     		strb	r3, [r4, #0]
 3865 0dba 3E48     		ldr	r0, .L335+20
 3866 0dbc FFF7FEFF 		bl	uart_transmit
 3867              	.LVL364:
 3868              	.LBE908:
 3869              	.LBB909:
 3870 0dc0 7178     		ldrb	r1, [r6, #1]	@ zero_extendqisi2
 3871              	.LVL365:
 3872 0dc2 2B78     		ldrb	r3, [r5, #0]	@ zero_extendqisi2
 3873 0dc4 2278     		ldrb	r2, [r4, #0]	@ zero_extendqisi2
 3874 0dc6 CB18     		adds	r3, r1, r3
 3875 0dc8 DBB2     		uxtb	r3, r3
 3876 0dca 2B70     		strb	r3, [r5, #0]
 3877 0dcc 9B18     		adds	r3, r3, r2
 3878 0dce 2370     		strb	r3, [r4, #0]
 3879 0dd0 3848     		ldr	r0, .L335+20
 3880 0dd2 FFF7FEFF 		bl	uart_transmit
 3881              	.LVL366:
 3882              	.LBE909:
 3883              	.LBB910:
 3884 0dd6 B178     		ldrb	r1, [r6, #2]	@ zero_extendqisi2
 3885              	.LVL367:
 3886 0dd8 2B78     		ldrb	r3, [r5, #0]	@ zero_extendqisi2
 3887 0dda 2278     		ldrb	r2, [r4, #0]	@ zero_extendqisi2
 3888 0ddc CB18     		adds	r3, r1, r3
 3889 0dde DBB2     		uxtb	r3, r3
 3890 0de0 2B70     		strb	r3, [r5, #0]
 3891 0de2 9B18     		adds	r3, r3, r2
 3892 0de4 2370     		strb	r3, [r4, #0]
 3893 0de6 3348     		ldr	r0, .L335+20
 3894 0de8 FFF7FEFF 		bl	uart_transmit
 3895              	.LVL368:
 3896              	.LBE910:
 3897              	.LBB911:
 3898 0dec F178     		ldrb	r1, [r6, #3]	@ zero_extendqisi2
 3899              	.LVL369:
 3900 0dee 2B78     		ldrb	r3, [r5, #0]	@ zero_extendqisi2
 3901 0df0 2278     		ldrb	r2, [r4, #0]	@ zero_extendqisi2
 3902 0df2 CB18     		adds	r3, r1, r3
 3903 0df4 DBB2     		uxtb	r3, r3
 3904              	.LBE911:
 3905              	.LBB912:
 3906 0df6 394E     		ldr	r6, .L335+60
 3907              	.LBE912:
 3908              	.LBB913:
 3909 0df8 2B70     		strb	r3, [r5, #0]
 3910 0dfa 9B18     		adds	r3, r3, r2
 3911 0dfc 2370     		strb	r3, [r4, #0]
 3912 0dfe 2D48     		ldr	r0, .L335+20
 3913 0e00 FFF7FEFF 		bl	uart_transmit
 3914              	.LVL370:
 3915              	.LBE913:
 3916              	.LBB914:
 3917 0e04 3178     		ldrb	r1, [r6, #0]	@ zero_extendqisi2
 3918              	.LVL371:
 3919 0e06 2B78     		ldrb	r3, [r5, #0]	@ zero_extendqisi2
 3920 0e08 2278     		ldrb	r2, [r4, #0]	@ zero_extendqisi2
 3921 0e0a CB18     		adds	r3, r1, r3
 3922 0e0c DBB2     		uxtb	r3, r3
 3923 0e0e 2B70     		strb	r3, [r5, #0]
 3924 0e10 9B18     		adds	r3, r3, r2
 3925 0e12 2370     		strb	r3, [r4, #0]
 3926 0e14 2748     		ldr	r0, .L335+20
 3927 0e16 FFF7FEFF 		bl	uart_transmit
 3928              	.LVL372:
 3929              	.LBE914:
 3930              	.LBB915:
 3931 0e1a 7178     		ldrb	r1, [r6, #1]	@ zero_extendqisi2
 3932              	.LVL373:
 3933 0e1c 2B78     		ldrb	r3, [r5, #0]	@ zero_extendqisi2
 3934 0e1e 2278     		ldrb	r2, [r4, #0]	@ zero_extendqisi2
 3935 0e20 CB18     		adds	r3, r1, r3
 3936 0e22 DBB2     		uxtb	r3, r3
 3937 0e24 2B70     		strb	r3, [r5, #0]
 3938 0e26 9B18     		adds	r3, r3, r2
 3939 0e28 2370     		strb	r3, [r4, #0]
 3940 0e2a 2248     		ldr	r0, .L335+20
 3941 0e2c FFF7FEFF 		bl	uart_transmit
 3942              	.LVL374:
 3943              	.LBE915:
 3944              	.LBB916:
 3945 0e30 B178     		ldrb	r1, [r6, #2]	@ zero_extendqisi2
 3946              	.LVL375:
 3947 0e32 2B78     		ldrb	r3, [r5, #0]	@ zero_extendqisi2
 3948 0e34 2278     		ldrb	r2, [r4, #0]	@ zero_extendqisi2
 3949 0e36 CB18     		adds	r3, r1, r3
 3950 0e38 DBB2     		uxtb	r3, r3
 3951 0e3a 2B70     		strb	r3, [r5, #0]
 3952 0e3c 9B18     		adds	r3, r3, r2
 3953 0e3e 2370     		strb	r3, [r4, #0]
 3954 0e40 1C48     		ldr	r0, .L335+20
 3955 0e42 FFF7FEFF 		bl	uart_transmit
 3956              	.LVL376:
 3957              	.LBE916:
 3958              	.LBB917:
 3959 0e46 F178     		ldrb	r1, [r6, #3]	@ zero_extendqisi2
 3960              	.LVL377:
 3961 0e48 2B78     		ldrb	r3, [r5, #0]	@ zero_extendqisi2
 3962 0e4a 2278     		ldrb	r2, [r4, #0]	@ zero_extendqisi2
 3963 0e4c CB18     		adds	r3, r1, r3
 3964 0e4e DBB2     		uxtb	r3, r3
 3965 0e50 2B70     		strb	r3, [r5, #0]
 3966 0e52 9B18     		adds	r3, r3, r2
 3967 0e54 2370     		strb	r3, [r4, #0]
 3968 0e56 1748     		ldr	r0, .L335+20
 3969 0e58 FFF7FEFF 		bl	uart_transmit
 3970              	.LVL378:
 3971              	.LBE917:
 3972              	.LBB918:
 3973 0e5c 2B78     		ldrb	r3, [r5, #0]	@ zero_extendqisi2
 3974 0e5e 2278     		ldrb	r2, [r4, #0]	@ zero_extendqisi2
 3975 0e60 FB18     		adds	r3, r7, r3
 3976 0e62 DBB2     		uxtb	r3, r3
 3977 0e64 2B70     		strb	r3, [r5, #0]
 3978 0e66 9B18     		adds	r3, r3, r2
 3979 0e68 2370     		strb	r3, [r4, #0]
 3980 0e6a 3946     		mov	r1, r7
 3981 0e6c 1148     		ldr	r0, .L335+20
 3982 0e6e FFF7FEFF 		bl	uart_transmit
 3983              	.LBE918:
 3984              	.LBB919:
 3985 0e72 1B4B     		ldr	r3, .L335+64
 3986 0e74 2278     		ldrb	r2, [r4, #0]	@ zero_extendqisi2
 3987 0e76 1978     		ldrb	r1, [r3, #0]	@ zero_extendqisi2
 3988              	.LVL379:
 3989 0e78 2B78     		ldrb	r3, [r5, #0]	@ zero_extendqisi2
 3990 0e7a 0E48     		ldr	r0, .L335+20
 3991 0e7c CB18     		adds	r3, r1, r3
 3992 0e7e DBB2     		uxtb	r3, r3
 3993 0e80 2B70     		strb	r3, [r5, #0]
 3994 0e82 9B18     		adds	r3, r3, r2
 3995 0e84 2370     		strb	r3, [r4, #0]
 3996 0e86 FFF7FEFF 		bl	uart_transmit
 3997              	.LVL380:
 3998              	.LBE919:
 3999 0e8a 2978     		ldrb	r1, [r5, #0]	@ zero_extendqisi2
 4000 0e8c 0948     		ldr	r0, .L335+20
 4001 0e8e FFF7FEFF 		bl	uart_transmit
 4002 0e92 0848     		ldr	r0, .L335+20
 4003 0e94 2178     		ldrb	r1, [r4, #0]	@ zero_extendqisi2
 4004 0e96 FFF7FEFF 		bl	uart_transmit
 4005 0e9a 27E0     		b	.L138
 4006              	.L336:
 4007 0e9c AFF30080 		.align	3
 4008              	.L335:
 4009 0ea0 182D4454 		.word	1413754136
 4010 0ea4 FB211940 		.word	1075388923
 4011 0ea8 00000000 		.word	downlink_nb_ovrn
 4012 0eac 00000000 		.word	.LANCHOR25
 4013 0eb0 00000000 		.word	nav_circle_radians
 4014 0eb4 00000000 		.word	uart2
 4015 0eb8 00000000 		.word	downlink_nb_bytes
 4016 0ebc 00000000 		.word	downlink_nb_msgs
 4017 0ec0 00000000 		.word	ck_a
 4018 0ec4 00000000 		.word	ck_b
 4019 0ec8 00000000 		.word	nav_block
 4020 0ecc 00000000 		.word	nav_stage
 4021 0ed0 00000000 		.word	estimator_x
 4022 0ed4 00000000 		.word	estimator_y
 4023 0ed8 00000000 		.word	dist2_to_wp
 4024 0edc 00000000 		.word	dist2_to_home
 4025 0ee0 00000000 		.word	nav_oval_count
 4026              	.L139:
 4027 0ee4 4A4B     		ldr	r3, .L337
 4028 0ee6 1A78     		ldrb	r2, [r3, #0]	@ zero_extendqisi2
 4029 0ee8 0132     		adds	r2, r2, #1
 4030 0eea 1A70     		strb	r2, [r3, #0]
 4031              	.L138:
 4032              	.LBE887:
 4033 0eec 494B     		ldr	r3, .L337+4
 4034 0eee 1B78     		ldrb	r3, [r3, #0]	@ zero_extendqisi2
 4035 0ef0 302B     		cmp	r3, #48
 4036 0ef2 40F0A380 		bne	.L140
 4037 0ef6 484B     		ldr	r3, .L337+8
 4038 0ef8 1B78     		ldrb	r3, [r3, #0]	@ zero_extendqisi2
 4039 0efa 002B     		cmp	r3, #0
 4040 0efc 00F02D82 		beq	.L141
 4041 0f00 4648     		ldr	r0, .L337+12
 4042 0f02 1221     		movs	r1, #18
 4043 0f04 FFF7FEFF 		bl	uart_check_free_space
 4044 0f08 0028     		cmp	r0, #0
 4045 0f0a 00F02282 		beq	.L143
 4046 0f0e 444B     		ldr	r3, .L337+16
 4047              	.LBB920:
 4048 0f10 9921     		movs	r1, #153
 4049              	.LBE920:
 4050 0f12 1A88     		ldrh	r2, [r3, #0]
 4051              	.LBB921:
 4052 0f14 4148     		ldr	r0, .L337+12
 4053              	.LBE921:
 4054 0f16 1232     		adds	r2, r2, #18
 4055 0f18 1A80     		strh	r2, [r3, #0]	@ movhi
 4056 0f1a 424B     		ldr	r3, .L337+20
 4057              	.LBB922:
 4058 0f1c 424D     		ldr	r5, .L337+24
 4059              	.LBE922:
 4060 0f1e 1A88     		ldrh	r2, [r3, #0]
 4061              	.LBB923:
 4062 0f20 424C     		ldr	r4, .L337+28
 4063              	.LBE923:
 4064 0f22 0132     		adds	r2, r2, #1
 4065 0f24 1A80     		strh	r2, [r3, #0]	@ movhi
 4066              	.LBB924:
 4067 0f26 FFF7FEFF 		bl	uart_transmit
 4068 0f2a 1221     		movs	r1, #18
 4069 0f2c 3B48     		ldr	r0, .L337+12
 4070 0f2e FFF7FEFF 		bl	uart_transmit
 4071              	.LBE924:
 4072 0f32 1323     		movs	r3, #19
 4073 0f34 2B70     		strb	r3, [r5, #0]
 4074 0f36 1233     		adds	r3, r3, #18
 4075 0f38 0121     		movs	r1, #1
 4076 0f3a 2370     		strb	r3, [r4, #0]
 4077 0f3c 3748     		ldr	r0, .L337+12
 4078 0f3e FFF7FEFF 		bl	uart_transmit
 4079 0f42 2B78     		ldrb	r3, [r5, #0]	@ zero_extendqisi2
 4080 0f44 2278     		ldrb	r2, [r4, #0]	@ zero_extendqisi2
 4081 0f46 1533     		adds	r3, r3, #21
 4082 0f48 DBB2     		uxtb	r3, r3
 4083              	.LBB925:
 4084 0f4a 394E     		ldr	r6, .L337+32
 4085              	.LBE925:
 4086 0f4c 2B70     		strb	r3, [r5, #0]
 4087 0f4e 9B18     		adds	r3, r3, r2
 4088 0f50 1521     		movs	r1, #21
 4089 0f52 2370     		strb	r3, [r4, #0]
 4090 0f54 3148     		ldr	r0, .L337+12
 4091 0f56 FFF7FEFF 		bl	uart_transmit
 4092              	.LBB926:
 4093 0f5a 3178     		ldrb	r1, [r6, #0]	@ zero_extendqisi2
 4094              	.LVL381:
 4095 0f5c 2B78     		ldrb	r3, [r5, #0]	@ zero_extendqisi2
 4096 0f5e 2278     		ldrb	r2, [r4, #0]	@ zero_extendqisi2
 4097 0f60 CB18     		adds	r3, r1, r3
 4098 0f62 DBB2     		uxtb	r3, r3
 4099 0f64 2B70     		strb	r3, [r5, #0]
 4100 0f66 9B18     		adds	r3, r3, r2
 4101 0f68 2370     		strb	r3, [r4, #0]
 4102 0f6a 2C48     		ldr	r0, .L337+12
 4103 0f6c FFF7FEFF 		bl	uart_transmit
 4104              	.LVL382:
 4105              	.LBE926:
 4106              	.LBB927:
 4107 0f70 7178     		ldrb	r1, [r6, #1]	@ zero_extendqisi2
 4108              	.LVL383:
 4109 0f72 2B78     		ldrb	r3, [r5, #0]	@ zero_extendqisi2
 4110 0f74 2278     		ldrb	r2, [r4, #0]	@ zero_extendqisi2
 4111 0f76 CB18     		adds	r3, r1, r3
 4112 0f78 DBB2     		uxtb	r3, r3
 4113 0f7a 2B70     		strb	r3, [r5, #0]
 4114 0f7c 9B18     		adds	r3, r3, r2
 4115 0f7e 2370     		strb	r3, [r4, #0]
 4116 0f80 2648     		ldr	r0, .L337+12
 4117 0f82 FFF7FEFF 		bl	uart_transmit
 4118              	.LVL384:
 4119              	.LBE927:
 4120              	.LBB928:
 4121 0f86 B178     		ldrb	r1, [r6, #2]	@ zero_extendqisi2
 4122              	.LVL385:
 4123 0f88 2B78     		ldrb	r3, [r5, #0]	@ zero_extendqisi2
 4124 0f8a 2278     		ldrb	r2, [r4, #0]	@ zero_extendqisi2
 4125 0f8c CB18     		adds	r3, r1, r3
 4126 0f8e DBB2     		uxtb	r3, r3
 4127 0f90 2B70     		strb	r3, [r5, #0]
 4128 0f92 9B18     		adds	r3, r3, r2
 4129 0f94 2370     		strb	r3, [r4, #0]
 4130 0f96 2148     		ldr	r0, .L337+12
 4131 0f98 FFF7FEFF 		bl	uart_transmit
 4132              	.LVL386:
 4133              	.LBE928:
 4134              	.LBB929:
 4135 0f9c F178     		ldrb	r1, [r6, #3]	@ zero_extendqisi2
 4136              	.LVL387:
 4137 0f9e 2B78     		ldrb	r3, [r5, #0]	@ zero_extendqisi2
 4138 0fa0 2278     		ldrb	r2, [r4, #0]	@ zero_extendqisi2
 4139 0fa2 CB18     		adds	r3, r1, r3
 4140 0fa4 DBB2     		uxtb	r3, r3
 4141              	.LBE929:
 4142              	.LBB930:
 4143 0fa6 234E     		ldr	r6, .L337+36
 4144              	.LBE930:
 4145              	.LBB931:
 4146 0fa8 2B70     		strb	r3, [r5, #0]
 4147 0faa 9B18     		adds	r3, r3, r2
 4148 0fac 2370     		strb	r3, [r4, #0]
 4149 0fae 1B48     		ldr	r0, .L337+12
 4150 0fb0 FFF7FEFF 		bl	uart_transmit
 4151              	.LVL388:
 4152              	.LBE931:
 4153              	.LBB932:
 4154 0fb4 3178     		ldrb	r1, [r6, #0]	@ zero_extendqisi2
 4155              	.LVL389:
 4156 0fb6 2B78     		ldrb	r3, [r5, #0]	@ zero_extendqisi2
 4157 0fb8 2278     		ldrb	r2, [r4, #0]	@ zero_extendqisi2
 4158 0fba CB18     		adds	r3, r1, r3
 4159 0fbc DBB2     		uxtb	r3, r3
 4160 0fbe 2B70     		strb	r3, [r5, #0]
 4161 0fc0 9B18     		adds	r3, r3, r2
 4162 0fc2 2370     		strb	r3, [r4, #0]
 4163 0fc4 1548     		ldr	r0, .L337+12
 4164 0fc6 FFF7FEFF 		bl	uart_transmit
 4165              	.LVL390:
 4166              	.LBE932:
 4167              	.LBB933:
 4168 0fca 7178     		ldrb	r1, [r6, #1]	@ zero_extendqisi2
 4169              	.LVL391:
 4170 0fcc 2B78     		ldrb	r3, [r5, #0]	@ zero_extendqisi2
 4171 0fce 2278     		ldrb	r2, [r4, #0]	@ zero_extendqisi2
 4172 0fd0 CB18     		adds	r3, r1, r3
 4173 0fd2 DBB2     		uxtb	r3, r3
 4174 0fd4 2B70     		strb	r3, [r5, #0]
 4175 0fd6 9B18     		adds	r3, r3, r2
 4176 0fd8 2370     		strb	r3, [r4, #0]
 4177 0fda 1048     		ldr	r0, .L337+12
 4178 0fdc FFF7FEFF 		bl	uart_transmit
 4179              	.LVL392:
 4180              	.LBE933:
 4181              	.LBB934:
 4182 0fe0 B178     		ldrb	r1, [r6, #2]	@ zero_extendqisi2
 4183              	.LVL393:
 4184 0fe2 2B78     		ldrb	r3, [r5, #0]	@ zero_extendqisi2
 4185 0fe4 2278     		ldrb	r2, [r4, #0]	@ zero_extendqisi2
 4186 0fe6 CB18     		adds	r3, r1, r3
 4187 0fe8 DBB2     		uxtb	r3, r3
 4188 0fea 2B70     		strb	r3, [r5, #0]
 4189 0fec 9B18     		adds	r3, r3, r2
 4190 0fee 2370     		strb	r3, [r4, #0]
 4191 0ff0 0A48     		ldr	r0, .L337+12
 4192 0ff2 FFF7FEFF 		bl	uart_transmit
 4193              	.LVL394:
 4194              	.LBE934:
 4195              	.LBB935:
 4196 0ff6 F178     		ldrb	r1, [r6, #3]	@ zero_extendqisi2
 4197              	.LVL395:
 4198 0ff8 2B78     		ldrb	r3, [r5, #0]	@ zero_extendqisi2
 4199 0ffa 2278     		ldrb	r2, [r4, #0]	@ zero_extendqisi2
 4200 0ffc CB18     		adds	r3, r1, r3
 4201 0ffe DBB2     		uxtb	r3, r3
 4202 1000 2B70     		strb	r3, [r5, #0]
 4203 1002 9B18     		adds	r3, r3, r2
 4204 1004 2370     		strb	r3, [r4, #0]
 4205 1006 0548     		ldr	r0, .L337+12
 4206 1008 FFF7FEFF 		bl	uart_transmit
 4207              	.LVL396:
 4208              	.LBE935:
 4209              	.LBB936:
 4210 100c 0A4E     		ldr	r6, .L337+40
 4211 100e 6BE1     		b	.L305
 4212              	.L338:
 4213              		.align	2
 4214              	.L337:
 4215 1010 00000000 		.word	downlink_nb_ovrn
 4216 1014 00000000 		.word	.LANCHOR26
 4217 1018 00000000 		.word	nav_in_circle
 4218 101c 00000000 		.word	uart2
 4219 1020 00000000 		.word	downlink_nb_bytes
 4220 1024 00000000 		.word	downlink_nb_msgs
 4221 1028 00000000 		.word	ck_a
 4222 102c 00000000 		.word	ck_b
 4223 1030 00000000 		.word	nav_circle_x
 4224 1034 00000000 		.word	nav_circle_y
 4225 1038 00000000 		.word	nav_circle_radius
 4226              	.L140:
 4227              	.LBE936:
 4228 103c 362B     		cmp	r3, #54
 4229 103e 40F08C81 		bne	.L141
 4230 1042 9C48     		ldr	r0, .L339
 4231 1044 2221     		movs	r1, #34
 4232 1046 FFF7FEFF 		bl	uart_check_free_space
 4233 104a 0028     		cmp	r0, #0
 4234 104c 00F08181 		beq	.L143
 4235 1050 994B     		ldr	r3, .L339+4
 4236              	.LBB937:
 4237 1052 9921     		movs	r1, #153
 4238              	.LBE937:
 4239 1054 1A88     		ldrh	r2, [r3, #0]
 4240              	.LBB938:
 4241 1056 9748     		ldr	r0, .L339
 4242              	.LBE938:
 4243 1058 2232     		adds	r2, r2, #34
 4244 105a 1A80     		strh	r2, [r3, #0]	@ movhi
 4245 105c 974B     		ldr	r3, .L339+8
 4246              	.LBB939:
 4247 105e 984D     		ldr	r5, .L339+12
 4248              	.LBE939:
 4249 1060 1A88     		ldrh	r2, [r3, #0]
 4250              	.LBB940:
 4251 1062 984C     		ldr	r4, .L339+16
 4252              	.LBE940:
 4253 1064 0132     		adds	r2, r2, #1
 4254 1066 1A80     		strh	r2, [r3, #0]	@ movhi
 4255              	.LBB941:
 4256 1068 FFF7FEFF 		bl	uart_transmit
 4257 106c 2221     		movs	r1, #34
 4258 106e 9148     		ldr	r0, .L339
 4259 1070 FFF7FEFF 		bl	uart_transmit
 4260              	.LBE941:
 4261 1074 2323     		movs	r3, #35
 4262 1076 2B70     		strb	r3, [r5, #0]
 4263 1078 2233     		adds	r3, r3, #34
 4264 107a 0121     		movs	r1, #1
 4265 107c 2370     		strb	r3, [r4, #0]
 4266 107e 8D48     		ldr	r0, .L339
 4267 1080 FFF7FEFF 		bl	uart_transmit
 4268 1084 2B78     		ldrb	r3, [r5, #0]	@ zero_extendqisi2
 4269 1086 2278     		ldrb	r2, [r4, #0]	@ zero_extendqisi2
 4270 1088 1033     		adds	r3, r3, #16
 4271 108a DBB2     		uxtb	r3, r3
 4272              	.LBB942:
 4273 108c 8E4E     		ldr	r6, .L339+20
 4274              	.LBE942:
 4275 108e 2B70     		strb	r3, [r5, #0]
 4276 1090 9B18     		adds	r3, r3, r2
 4277 1092 1021     		movs	r1, #16
 4278 1094 2370     		strb	r3, [r4, #0]
 4279 1096 8748     		ldr	r0, .L339
 4280 1098 FFF7FEFF 		bl	uart_transmit
 4281              	.LBB943:
 4282 109c 3178     		ldrb	r1, [r6, #0]	@ zero_extendqisi2
 4283              	.LVL397:
 4284 109e 2B78     		ldrb	r3, [r5, #0]	@ zero_extendqisi2
 4285 10a0 2278     		ldrb	r2, [r4, #0]	@ zero_extendqisi2
 4286 10a2 CB18     		adds	r3, r1, r3
 4287 10a4 DBB2     		uxtb	r3, r3
 4288 10a6 2B70     		strb	r3, [r5, #0]
 4289 10a8 9B18     		adds	r3, r3, r2
 4290 10aa 2370     		strb	r3, [r4, #0]
 4291 10ac 8148     		ldr	r0, .L339
 4292 10ae FFF7FEFF 		bl	uart_transmit
 4293              	.LVL398:
 4294              	.LBE943:
 4295              	.LBB944:
 4296 10b2 7178     		ldrb	r1, [r6, #1]	@ zero_extendqisi2
 4297              	.LVL399:
 4298 10b4 2B78     		ldrb	r3, [r5, #0]	@ zero_extendqisi2
 4299 10b6 2278     		ldrb	r2, [r4, #0]	@ zero_extendqisi2
 4300 10b8 CB18     		adds	r3, r1, r3
 4301 10ba DBB2     		uxtb	r3, r3
 4302 10bc 2B70     		strb	r3, [r5, #0]
 4303 10be 9B18     		adds	r3, r3, r2
 4304 10c0 2370     		strb	r3, [r4, #0]
 4305 10c2 7C48     		ldr	r0, .L339
 4306 10c4 FFF7FEFF 		bl	uart_transmit
 4307              	.LVL400:
 4308              	.LBE944:
 4309              	.LBB945:
 4310 10c8 B178     		ldrb	r1, [r6, #2]	@ zero_extendqisi2
 4311              	.LVL401:
 4312 10ca 2B78     		ldrb	r3, [r5, #0]	@ zero_extendqisi2
 4313 10cc 2278     		ldrb	r2, [r4, #0]	@ zero_extendqisi2
 4314 10ce CB18     		adds	r3, r1, r3
 4315 10d0 DBB2     		uxtb	r3, r3
 4316 10d2 2B70     		strb	r3, [r5, #0]
 4317 10d4 9B18     		adds	r3, r3, r2
 4318 10d6 2370     		strb	r3, [r4, #0]
 4319 10d8 7648     		ldr	r0, .L339
 4320 10da FFF7FEFF 		bl	uart_transmit
 4321              	.LVL402:
 4322              	.LBE945:
 4323              	.LBB946:
 4324 10de F178     		ldrb	r1, [r6, #3]	@ zero_extendqisi2
 4325              	.LVL403:
 4326 10e0 2B78     		ldrb	r3, [r5, #0]	@ zero_extendqisi2
 4327 10e2 2278     		ldrb	r2, [r4, #0]	@ zero_extendqisi2
 4328 10e4 CB18     		adds	r3, r1, r3
 4329 10e6 DBB2     		uxtb	r3, r3
 4330              	.LBE946:
 4331              	.LBB947:
 4332 10e8 784E     		ldr	r6, .L339+24
 4333              	.LBE947:
 4334              	.LBB948:
 4335 10ea 2B70     		strb	r3, [r5, #0]
 4336 10ec 9B18     		adds	r3, r3, r2
 4337 10ee 2370     		strb	r3, [r4, #0]
 4338 10f0 7048     		ldr	r0, .L339
 4339 10f2 FFF7FEFF 		bl	uart_transmit
 4340              	.LVL404:
 4341              	.LBE948:
 4342              	.LBB949:
 4343 10f6 3178     		ldrb	r1, [r6, #0]	@ zero_extendqisi2
 4344              	.LVL405:
 4345 10f8 2B78     		ldrb	r3, [r5, #0]	@ zero_extendqisi2
 4346 10fa 2278     		ldrb	r2, [r4, #0]	@ zero_extendqisi2
 4347 10fc CB18     		adds	r3, r1, r3
 4348 10fe DBB2     		uxtb	r3, r3
 4349 1100 2B70     		strb	r3, [r5, #0]
 4350 1102 9B18     		adds	r3, r3, r2
 4351 1104 2370     		strb	r3, [r4, #0]
 4352 1106 6B48     		ldr	r0, .L339
 4353 1108 FFF7FEFF 		bl	uart_transmit
 4354              	.LVL406:
 4355              	.LBE949:
 4356              	.LBB950:
 4357 110c 7178     		ldrb	r1, [r6, #1]	@ zero_extendqisi2
 4358              	.LVL407:
 4359 110e 2B78     		ldrb	r3, [r5, #0]	@ zero_extendqisi2
 4360 1110 2278     		ldrb	r2, [r4, #0]	@ zero_extendqisi2
 4361 1112 CB18     		adds	r3, r1, r3
 4362 1114 DBB2     		uxtb	r3, r3
 4363 1116 2B70     		strb	r3, [r5, #0]
 4364 1118 9B18     		adds	r3, r3, r2
 4365 111a 2370     		strb	r3, [r4, #0]
 4366 111c 6548     		ldr	r0, .L339
 4367 111e FFF7FEFF 		bl	uart_transmit
 4368              	.LVL408:
 4369              	.LBE950:
 4370              	.LBB951:
 4371 1122 B178     		ldrb	r1, [r6, #2]	@ zero_extendqisi2
 4372              	.LVL409:
 4373 1124 2B78     		ldrb	r3, [r5, #0]	@ zero_extendqisi2
 4374 1126 2278     		ldrb	r2, [r4, #0]	@ zero_extendqisi2
 4375 1128 CB18     		adds	r3, r1, r3
 4376 112a DBB2     		uxtb	r3, r3
 4377 112c 2B70     		strb	r3, [r5, #0]
 4378 112e 9B18     		adds	r3, r3, r2
 4379 1130 2370     		strb	r3, [r4, #0]
 4380 1132 6048     		ldr	r0, .L339
 4381 1134 FFF7FEFF 		bl	uart_transmit
 4382              	.LVL410:
 4383              	.LBE951:
 4384              	.LBB952:
 4385 1138 F178     		ldrb	r1, [r6, #3]	@ zero_extendqisi2
 4386              	.LVL411:
 4387 113a 2B78     		ldrb	r3, [r5, #0]	@ zero_extendqisi2
 4388 113c 2278     		ldrb	r2, [r4, #0]	@ zero_extendqisi2
 4389 113e CB18     		adds	r3, r1, r3
 4390 1140 DBB2     		uxtb	r3, r3
 4391              	.LBE952:
 4392              	.LBB953:
 4393 1142 634E     		ldr	r6, .L339+28
 4394              	.LBE953:
 4395              	.LBB954:
 4396 1144 2B70     		strb	r3, [r5, #0]
 4397 1146 9B18     		adds	r3, r3, r2
 4398 1148 2370     		strb	r3, [r4, #0]
 4399 114a 5A48     		ldr	r0, .L339
 4400 114c FFF7FEFF 		bl	uart_transmit
 4401              	.LVL412:
 4402              	.LBE954:
 4403              	.LBB955:
 4404 1150 3178     		ldrb	r1, [r6, #0]	@ zero_extendqisi2
 4405              	.LVL413:
 4406 1152 2B78     		ldrb	r3, [r5, #0]	@ zero_extendqisi2
 4407 1154 2278     		ldrb	r2, [r4, #0]	@ zero_extendqisi2
 4408 1156 CB18     		adds	r3, r1, r3
 4409 1158 DBB2     		uxtb	r3, r3
 4410 115a 2B70     		strb	r3, [r5, #0]
 4411 115c 9B18     		adds	r3, r3, r2
 4412 115e 2370     		strb	r3, [r4, #0]
 4413 1160 5448     		ldr	r0, .L339
 4414 1162 FFF7FEFF 		bl	uart_transmit
 4415              	.LVL414:
 4416              	.LBE955:
 4417              	.LBB956:
 4418 1166 7178     		ldrb	r1, [r6, #1]	@ zero_extendqisi2
 4419              	.LVL415:
 4420 1168 2B78     		ldrb	r3, [r5, #0]	@ zero_extendqisi2
 4421 116a 2278     		ldrb	r2, [r4, #0]	@ zero_extendqisi2
 4422 116c CB18     		adds	r3, r1, r3
 4423 116e DBB2     		uxtb	r3, r3
 4424 1170 2B70     		strb	r3, [r5, #0]
 4425 1172 9B18     		adds	r3, r3, r2
 4426 1174 2370     		strb	r3, [r4, #0]
 4427 1176 4F48     		ldr	r0, .L339
 4428 1178 FFF7FEFF 		bl	uart_transmit
 4429              	.LVL416:
 4430              	.LBE956:
 4431              	.LBB957:
 4432 117c B178     		ldrb	r1, [r6, #2]	@ zero_extendqisi2
 4433              	.LVL417:
 4434 117e 2B78     		ldrb	r3, [r5, #0]	@ zero_extendqisi2
 4435 1180 2278     		ldrb	r2, [r4, #0]	@ zero_extendqisi2
 4436 1182 CB18     		adds	r3, r1, r3
 4437 1184 DBB2     		uxtb	r3, r3
 4438 1186 2B70     		strb	r3, [r5, #0]
 4439 1188 9B18     		adds	r3, r3, r2
 4440 118a 2370     		strb	r3, [r4, #0]
 4441 118c 4948     		ldr	r0, .L339
 4442 118e FFF7FEFF 		bl	uart_transmit
 4443              	.LVL418:
 4444              	.LBE957:
 4445              	.LBB958:
 4446 1192 F178     		ldrb	r1, [r6, #3]	@ zero_extendqisi2
 4447              	.LVL419:
 4448 1194 2B78     		ldrb	r3, [r5, #0]	@ zero_extendqisi2
 4449 1196 2278     		ldrb	r2, [r4, #0]	@ zero_extendqisi2
 4450 1198 CB18     		adds	r3, r1, r3
 4451 119a DBB2     		uxtb	r3, r3
 4452              	.LBE958:
 4453              	.LBB959:
 4454 119c 4D4E     		ldr	r6, .L339+32
 4455              	.LBE959:
 4456              	.LBB960:
 4457 119e 2B70     		strb	r3, [r5, #0]
 4458 11a0 9B18     		adds	r3, r3, r2
 4459 11a2 2370     		strb	r3, [r4, #0]
 4460 11a4 4348     		ldr	r0, .L339
 4461 11a6 FFF7FEFF 		bl	uart_transmit
 4462              	.LVL420:
 4463              	.LBE960:
 4464              	.LBB961:
 4465 11aa 3178     		ldrb	r1, [r6, #0]	@ zero_extendqisi2
 4466              	.LVL421:
 4467 11ac 2B78     		ldrb	r3, [r5, #0]	@ zero_extendqisi2
 4468 11ae 2278     		ldrb	r2, [r4, #0]	@ zero_extendqisi2
 4469 11b0 CB18     		adds	r3, r1, r3
 4470 11b2 DBB2     		uxtb	r3, r3
 4471 11b4 2B70     		strb	r3, [r5, #0]
 4472 11b6 9B18     		adds	r3, r3, r2
 4473 11b8 2370     		strb	r3, [r4, #0]
 4474 11ba 3E48     		ldr	r0, .L339
 4475 11bc FFF7FEFF 		bl	uart_transmit
 4476              	.LVL422:
 4477              	.LBE961:
 4478              	.LBB962:
 4479 11c0 7178     		ldrb	r1, [r6, #1]	@ zero_extendqisi2
 4480              	.LVL423:
 4481 11c2 2B78     		ldrb	r3, [r5, #0]	@ zero_extendqisi2
 4482 11c4 2278     		ldrb	r2, [r4, #0]	@ zero_extendqisi2
 4483 11c6 CB18     		adds	r3, r1, r3
 4484 11c8 DBB2     		uxtb	r3, r3
 4485 11ca 2B70     		strb	r3, [r5, #0]
 4486 11cc 9B18     		adds	r3, r3, r2
 4487 11ce 2370     		strb	r3, [r4, #0]
 4488 11d0 3848     		ldr	r0, .L339
 4489 11d2 FFF7FEFF 		bl	uart_transmit
 4490              	.LVL424:
 4491              	.LBE962:
 4492              	.LBB963:
 4493 11d6 B178     		ldrb	r1, [r6, #2]	@ zero_extendqisi2
 4494              	.LVL425:
 4495 11d8 2B78     		ldrb	r3, [r5, #0]	@ zero_extendqisi2
 4496 11da 2278     		ldrb	r2, [r4, #0]	@ zero_extendqisi2
 4497 11dc CB18     		adds	r3, r1, r3
 4498 11de DBB2     		uxtb	r3, r3
 4499 11e0 2B70     		strb	r3, [r5, #0]
 4500 11e2 9B18     		adds	r3, r3, r2
 4501 11e4 2370     		strb	r3, [r4, #0]
 4502 11e6 3348     		ldr	r0, .L339
 4503 11e8 FFF7FEFF 		bl	uart_transmit
 4504              	.LVL426:
 4505              	.LBE963:
 4506              	.LBB964:
 4507 11ec F178     		ldrb	r1, [r6, #3]	@ zero_extendqisi2
 4508              	.LVL427:
 4509 11ee 2B78     		ldrb	r3, [r5, #0]	@ zero_extendqisi2
 4510 11f0 2278     		ldrb	r2, [r4, #0]	@ zero_extendqisi2
 4511 11f2 CB18     		adds	r3, r1, r3
 4512 11f4 DBB2     		uxtb	r3, r3
 4513              	.LBE964:
 4514              	.LBB965:
 4515 11f6 384E     		ldr	r6, .L339+36
 4516              	.LBE965:
 4517              	.LBB966:
 4518 11f8 2B70     		strb	r3, [r5, #0]
 4519 11fa 9B18     		adds	r3, r3, r2
 4520 11fc 2370     		strb	r3, [r4, #0]
 4521 11fe 2D48     		ldr	r0, .L339
 4522 1200 FFF7FEFF 		bl	uart_transmit
 4523              	.LVL428:
 4524              	.LBE966:
 4525              	.LBB967:
 4526 1204 3178     		ldrb	r1, [r6, #0]	@ zero_extendqisi2
 4527              	.LVL429:
 4528 1206 2B78     		ldrb	r3, [r5, #0]	@ zero_extendqisi2
 4529 1208 2278     		ldrb	r2, [r4, #0]	@ zero_extendqisi2
 4530 120a CB18     		adds	r3, r1, r3
 4531 120c DBB2     		uxtb	r3, r3
 4532 120e 2B70     		strb	r3, [r5, #0]
 4533 1210 9B18     		adds	r3, r3, r2
 4534 1212 2370     		strb	r3, [r4, #0]
 4535 1214 2748     		ldr	r0, .L339
 4536 1216 FFF7FEFF 		bl	uart_transmit
 4537              	.LVL430:
 4538              	.LBE967:
 4539              	.LBB968:
 4540 121a 7178     		ldrb	r1, [r6, #1]	@ zero_extendqisi2
 4541              	.LVL431:
 4542 121c 2B78     		ldrb	r3, [r5, #0]	@ zero_extendqisi2
 4543 121e 2278     		ldrb	r2, [r4, #0]	@ zero_extendqisi2
 4544 1220 CB18     		adds	r3, r1, r3
 4545 1222 DBB2     		uxtb	r3, r3
 4546 1224 2B70     		strb	r3, [r5, #0]
 4547 1226 9B18     		adds	r3, r3, r2
 4548 1228 2370     		strb	r3, [r4, #0]
 4549 122a 2248     		ldr	r0, .L339
 4550 122c FFF7FEFF 		bl	uart_transmit
 4551              	.LVL432:
 4552              	.LBE968:
 4553              	.LBB969:
 4554 1230 B178     		ldrb	r1, [r6, #2]	@ zero_extendqisi2
 4555              	.LVL433:
 4556 1232 2B78     		ldrb	r3, [r5, #0]	@ zero_extendqisi2
 4557 1234 2278     		ldrb	r2, [r4, #0]	@ zero_extendqisi2
 4558 1236 CB18     		adds	r3, r1, r3
 4559 1238 DBB2     		uxtb	r3, r3
 4560 123a 2B70     		strb	r3, [r5, #0]
 4561 123c 9B18     		adds	r3, r3, r2
 4562 123e 2370     		strb	r3, [r4, #0]
 4563 1240 1C48     		ldr	r0, .L339
 4564 1242 FFF7FEFF 		bl	uart_transmit
 4565              	.LVL434:
 4566              	.LBE969:
 4567              	.LBB970:
 4568 1246 F178     		ldrb	r1, [r6, #3]	@ zero_extendqisi2
 4569              	.LVL435:
 4570 1248 2B78     		ldrb	r3, [r5, #0]	@ zero_extendqisi2
 4571 124a 2278     		ldrb	r2, [r4, #0]	@ zero_extendqisi2
 4572 124c CB18     		adds	r3, r1, r3
 4573 124e DBB2     		uxtb	r3, r3
 4574              	.LBE970:
 4575              	.LBB971:
 4576 1250 224E     		ldr	r6, .L339+40
 4577              	.LBE971:
 4578              	.LBB972:
 4579 1252 2B70     		strb	r3, [r5, #0]
 4580 1254 9B18     		adds	r3, r3, r2
 4581 1256 2370     		strb	r3, [r4, #0]
 4582 1258 1648     		ldr	r0, .L339
 4583 125a FFF7FEFF 		bl	uart_transmit
 4584              	.LVL436:
 4585              	.LBE972:
 4586              	.LBB973:
 4587 125e 3178     		ldrb	r1, [r6, #0]	@ zero_extendqisi2
 4588              	.LVL437:
 4589 1260 2B78     		ldrb	r3, [r5, #0]	@ zero_extendqisi2
 4590 1262 2278     		ldrb	r2, [r4, #0]	@ zero_extendqisi2
 4591 1264 CB18     		adds	r3, r1, r3
 4592 1266 DBB2     		uxtb	r3, r3
 4593 1268 2B70     		strb	r3, [r5, #0]
 4594 126a 9B18     		adds	r3, r3, r2
 4595 126c 2370     		strb	r3, [r4, #0]
 4596 126e 1148     		ldr	r0, .L339
 4597 1270 FFF7FEFF 		bl	uart_transmit
 4598              	.LVL438:
 4599              	.LBE973:
 4600              	.LBB974:
 4601 1274 7178     		ldrb	r1, [r6, #1]	@ zero_extendqisi2
 4602              	.LVL439:
 4603 1276 2B78     		ldrb	r3, [r5, #0]	@ zero_extendqisi2
 4604 1278 2278     		ldrb	r2, [r4, #0]	@ zero_extendqisi2
 4605 127a CB18     		adds	r3, r1, r3
 4606 127c DBB2     		uxtb	r3, r3
 4607 127e 2B70     		strb	r3, [r5, #0]
 4608 1280 9B18     		adds	r3, r3, r2
 4609 1282 2370     		strb	r3, [r4, #0]
 4610 1284 0B48     		ldr	r0, .L339
 4611 1286 FFF7FEFF 		bl	uart_transmit
 4612              	.LVL440:
 4613              	.LBE974:
 4614              	.LBB975:
 4615 128a B178     		ldrb	r1, [r6, #2]	@ zero_extendqisi2
 4616              	.LVL441:
 4617 128c 2B78     		ldrb	r3, [r5, #0]	@ zero_extendqisi2
 4618 128e 2278     		ldrb	r2, [r4, #0]	@ zero_extendqisi2
 4619 1290 CB18     		adds	r3, r1, r3
 4620 1292 DBB2     		uxtb	r3, r3
 4621 1294 2B70     		strb	r3, [r5, #0]
 4622 1296 9B18     		adds	r3, r3, r2
 4623 1298 2370     		strb	r3, [r4, #0]
 4624 129a 0648     		ldr	r0, .L339
 4625 129c FFF7FEFF 		bl	uart_transmit
 4626              	.LVL442:
 4627              	.LBE975:
 4628              	.LBB976:
 4629 12a0 F178     		ldrb	r1, [r6, #3]	@ zero_extendqisi2
 4630              	.LVL443:
 4631 12a2 2B78     		ldrb	r3, [r5, #0]	@ zero_extendqisi2
 4632 12a4 2278     		ldrb	r2, [r4, #0]	@ zero_extendqisi2
 4633 12a6 CB18     		adds	r3, r1, r3
 4634 12a8 DBB2     		uxtb	r3, r3
 4635 12aa 2B70     		strb	r3, [r5, #0]
 4636 12ac 9B18     		adds	r3, r3, r2
 4637 12ae 2370     		strb	r3, [r4, #0]
 4638 12b0 16E0     		b	.L340
 4639              	.L341:
 4640 12b2 00BF     		.align	2
 4641              	.L339:
 4642 12b4 00000000 		.word	uart2
 4643 12b8 00000000 		.word	downlink_nb_bytes
 4644 12bc 00000000 		.word	downlink_nb_msgs
 4645 12c0 00000000 		.word	ck_a
 4646 12c4 00000000 		.word	ck_b
 4647 12c8 00000000 		.word	h_ctl_roll_setpoint
 4648 12cc 00000000 		.word	h_ctl_pitch_loop_setpoint
 4649 12d0 00000000 		.word	h_ctl_course_setpoint
 4650 12d4 00000000 		.word	desired_x
 4651 12d8 00000000 		.word	desired_y
 4652 12dc 00000000 		.word	v_ctl_altitude_setpoint
 4653              	.L340:
 4654 12e0 9448     		ldr	r0, .L342
 4655 12e2 FFF7FEFF 		bl	uart_transmit
 4656              	.LVL444:
 4657              	.LBE976:
 4658              	.LBB977:
 4659 12e6 944E     		ldr	r6, .L342+4
 4660              	.L305:
 4661 12e8 3178     		ldrb	r1, [r6, #0]	@ zero_extendqisi2
 4662              	.LVL445:
 4663 12ea 2B78     		ldrb	r3, [r5, #0]	@ zero_extendqisi2
 4664 12ec 2278     		ldrb	r2, [r4, #0]	@ zero_extendqisi2
 4665 12ee CB18     		adds	r3, r1, r3
 4666 12f0 DBB2     		uxtb	r3, r3
 4667 12f2 2B70     		strb	r3, [r5, #0]
 4668 12f4 9B18     		adds	r3, r3, r2
 4669 12f6 2370     		strb	r3, [r4, #0]
 4670 12f8 8E48     		ldr	r0, .L342
 4671 12fa FFF7FEFF 		bl	uart_transmit
 4672              	.LVL446:
 4673              	.LBE977:
 4674              	.LBB978:
 4675 12fe 7178     		ldrb	r1, [r6, #1]	@ zero_extendqisi2
 4676              	.LVL447:
 4677 1300 2B78     		ldrb	r3, [r5, #0]	@ zero_extendqisi2
 4678 1302 2278     		ldrb	r2, [r4, #0]	@ zero_extendqisi2
 4679 1304 CB18     		adds	r3, r1, r3
 4680 1306 DBB2     		uxtb	r3, r3
 4681 1308 2B70     		strb	r3, [r5, #0]
 4682 130a 9B18     		adds	r3, r3, r2
 4683 130c 2370     		strb	r3, [r4, #0]
 4684 130e 8948     		ldr	r0, .L342
 4685 1310 FFF7FEFF 		bl	uart_transmit
 4686              	.LVL448:
 4687              	.LBE978:
 4688              	.LBB979:
 4689 1314 B178     		ldrb	r1, [r6, #2]	@ zero_extendqisi2
 4690              	.LVL449:
 4691 1316 2B78     		ldrb	r3, [r5, #0]	@ zero_extendqisi2
 4692 1318 2278     		ldrb	r2, [r4, #0]	@ zero_extendqisi2
 4693 131a CB18     		adds	r3, r1, r3
 4694 131c DBB2     		uxtb	r3, r3
 4695 131e 2B70     		strb	r3, [r5, #0]
 4696 1320 9B18     		adds	r3, r3, r2
 4697 1322 2370     		strb	r3, [r4, #0]
 4698 1324 8348     		ldr	r0, .L342
 4699 1326 FFF7FEFF 		bl	uart_transmit
 4700              	.LVL450:
 4701              	.LBE979:
 4702              	.LBB980:
 4703 132a F178     		ldrb	r1, [r6, #3]	@ zero_extendqisi2
 4704              	.LVL451:
 4705 132c 2B78     		ldrb	r3, [r5, #0]	@ zero_extendqisi2
 4706 132e 2278     		ldrb	r2, [r4, #0]	@ zero_extendqisi2
 4707 1330 CB18     		adds	r3, r1, r3
 4708 1332 DBB2     		uxtb	r3, r3
 4709 1334 2B70     		strb	r3, [r5, #0]
 4710 1336 9B18     		adds	r3, r3, r2
 4711 1338 2370     		strb	r3, [r4, #0]
 4712 133a 7E48     		ldr	r0, .L342
 4713 133c FFF7FEFF 		bl	uart_transmit
 4714              	.LVL452:
 4715              	.LBE980:
 4716 1340 2978     		ldrb	r1, [r5, #0]	@ zero_extendqisi2
 4717 1342 7C48     		ldr	r0, .L342
 4718 1344 FFF7FEFF 		bl	uart_transmit
 4719 1348 7A48     		ldr	r0, .L342
 4720 134a 2178     		ldrb	r1, [r4, #0]	@ zero_extendqisi2
 4721 134c FFF7FEFF 		bl	uart_transmit
 4722 1350 03E0     		b	.L141
 4723              	.L143:
 4724 1352 7A4B     		ldr	r3, .L342+8
 4725 1354 1A78     		ldrb	r2, [r3, #0]	@ zero_extendqisi2
 4726 1356 0132     		adds	r2, r2, #1
 4727 1358 1A70     		strb	r2, [r3, #0]
 4728              	.L141:
 4729 135a 794B     		ldr	r3, .L342+12
 4730 135c 1B78     		ldrb	r3, [r3, #0]	@ zero_extendqisi2
 4731 135e 3C2B     		cmp	r3, #60
 4732 1360 40F00C81 		bne	.L144
 4733              	.LBB981:
 4734 1364 774B     		ldr	r3, .L342+16
 4735 1366 1A68     		ldr	r2, [r3, #0]
 4736 1368 0A23     		movs	r3, #10
 4737 136a 92FBF3F3 		sdiv	r3, r2, r3
 4738 136e ADF80E30 		strh	r3, [sp, #14]	@ movhi
 4739              	.LVL453:
 4740              	.LBB982:
 4741 1372 754B     		ldr	r3, .L342+20
 4742 1374 1868     		ldr	r0, [r3, #0]	@ float
 4743 1376 FFF7FEFF 		bl	__aeabi_f2iz
 4744 137a 1421     		movs	r1, #20
 4745 137c ADF80C00 		strh	r0, [sp, #12]	@ movhi
 4746              	.LVL454:
 4747 1380 6C48     		ldr	r0, .L342
 4748 1382 FFF7FEFF 		bl	uart_check_free_space
 4749 1386 0028     		cmp	r0, #0
 4750 1388 00F0F480 		beq	.L145
 4751 138c 6F4B     		ldr	r3, .L342+24
 4752              	.LBB983:
 4753 138e 9921     		movs	r1, #153
 4754              	.LBE983:
 4755 1390 1A88     		ldrh	r2, [r3, #0]
 4756              	.LBB984:
 4757 1392 6848     		ldr	r0, .L342
 4758              	.LBE984:
 4759 1394 1432     		adds	r2, r2, #20
 4760 1396 1A80     		strh	r2, [r3, #0]	@ movhi
 4761 1398 6D4B     		ldr	r3, .L342+28
 4762              	.LBB985:
 4763 139a 6E4D     		ldr	r5, .L342+32
 4764              	.LBE985:
 4765 139c 1A88     		ldrh	r2, [r3, #0]
 4766              	.LBB986:
 4767 139e 6E4C     		ldr	r4, .L342+36
 4768              	.LBE986:
 4769 13a0 0132     		adds	r2, r2, #1
 4770 13a2 1A80     		strh	r2, [r3, #0]	@ movhi
 4771              	.LBB987:
 4772 13a4 FFF7FEFF 		bl	uart_transmit
 4773 13a8 1421     		movs	r1, #20
 4774 13aa 6248     		ldr	r0, .L342
 4775 13ac FFF7FEFF 		bl	uart_transmit
 4776              	.LBE987:
 4777 13b0 1523     		movs	r3, #21
 4778 13b2 2B70     		strb	r3, [r5, #0]
 4779 13b4 1433     		adds	r3, r3, #20
 4780 13b6 2370     		strb	r3, [r4, #0]
 4781 13b8 0121     		movs	r1, #1
 4782 13ba 5E48     		ldr	r0, .L342
 4783 13bc FFF7FEFF 		bl	uart_transmit
 4784 13c0 2B78     		ldrb	r3, [r5, #0]	@ zero_extendqisi2
 4785 13c2 2278     		ldrb	r2, [r4, #0]	@ zero_extendqisi2
 4786 13c4 0C33     		adds	r3, r3, #12
 4787 13c6 DBB2     		uxtb	r3, r3
 4788 13c8 2B70     		strb	r3, [r5, #0]
 4789              	.LBB988:
 4790 13ca 644E     		ldr	r6, .L342+40
 4791              	.LBE988:
 4792 13cc 9B18     		adds	r3, r3, r2
 4793 13ce 2370     		strb	r3, [r4, #0]
 4794 13d0 0C21     		movs	r1, #12
 4795 13d2 5848     		ldr	r0, .L342
 4796 13d4 FFF7FEFF 		bl	uart_transmit
 4797              	.LBB989:
 4798 13d8 3178     		ldrb	r1, [r6, #0]	@ zero_extendqisi2
 4799              	.LVL455:
 4800 13da 2B78     		ldrb	r3, [r5, #0]	@ zero_extendqisi2
 4801 13dc 2278     		ldrb	r2, [r4, #0]	@ zero_extendqisi2
 4802 13de CB18     		adds	r3, r1, r3
 4803 13e0 DBB2     		uxtb	r3, r3
 4804 13e2 2B70     		strb	r3, [r5, #0]
 4805 13e4 9B18     		adds	r3, r3, r2
 4806 13e6 2370     		strb	r3, [r4, #0]
 4807 13e8 5248     		ldr	r0, .L342
 4808 13ea FFF7FEFF 		bl	uart_transmit
 4809              	.LVL456:
 4810              	.LBE989:
 4811              	.LBB990:
 4812 13ee 7178     		ldrb	r1, [r6, #1]	@ zero_extendqisi2
 4813              	.LVL457:
 4814 13f0 2B78     		ldrb	r3, [r5, #0]	@ zero_extendqisi2
 4815 13f2 2278     		ldrb	r2, [r4, #0]	@ zero_extendqisi2
 4816 13f4 CB18     		adds	r3, r1, r3
 4817 13f6 DBB2     		uxtb	r3, r3
 4818 13f8 2B70     		strb	r3, [r5, #0]
 4819 13fa 9B18     		adds	r3, r3, r2
 4820 13fc 2370     		strb	r3, [r4, #0]
 4821 13fe 4D48     		ldr	r0, .L342
 4822 1400 FFF7FEFF 		bl	uart_transmit
 4823              	.LVL458:
 4824              	.LBE990:
 4825              	.LBB991:
 4826 1404 564B     		ldr	r3, .L342+44
 4827 1406 2278     		ldrb	r2, [r4, #0]	@ zero_extendqisi2
 4828 1408 1978     		ldrb	r1, [r3, #0]	@ zero_extendqisi2
 4829              	.LVL459:
 4830 140a 2B78     		ldrb	r3, [r5, #0]	@ zero_extendqisi2
 4831 140c 4948     		ldr	r0, .L342
 4832 140e CB18     		adds	r3, r1, r3
 4833 1410 DBB2     		uxtb	r3, r3
 4834 1412 2B70     		strb	r3, [r5, #0]
 4835 1414 9B18     		adds	r3, r3, r2
 4836 1416 2370     		strb	r3, [r4, #0]
 4837 1418 FFF7FEFF 		bl	uart_transmit
 4838              	.LVL460:
 4839              	.LBE991:
 4840              	.LBB992:
 4841 141c 9DF80E10 		ldrb	r1, [sp, #14]	@ zero_extendqisi2
 4842              	.LVL461:
 4843 1420 2B78     		ldrb	r3, [r5, #0]	@ zero_extendqisi2
 4844 1422 2278     		ldrb	r2, [r4, #0]	@ zero_extendqisi2
 4845 1424 CB18     		adds	r3, r1, r3
 4846 1426 DBB2     		uxtb	r3, r3
 4847 1428 2B70     		strb	r3, [r5, #0]
 4848 142a 9B18     		adds	r3, r3, r2
 4849 142c 2370     		strb	r3, [r4, #0]
 4850 142e 4148     		ldr	r0, .L342
 4851 1430 FFF7FEFF 		bl	uart_transmit
 4852              	.LVL462:
 4853              	.LBE992:
 4854              	.LBB993:
 4855 1434 0DF10E03 		add	r3, sp, #14
 4856 1438 5978     		ldrb	r1, [r3, #1]	@ zero_extendqisi2
 4857              	.LVL463:
 4858 143a 2B78     		ldrb	r3, [r5, #0]	@ zero_extendqisi2
 4859 143c 2278     		ldrb	r2, [r4, #0]	@ zero_extendqisi2
 4860 143e CB18     		adds	r3, r1, r3
 4861 1440 DBB2     		uxtb	r3, r3
 4862 1442 2B70     		strb	r3, [r5, #0]
 4863              	.LBE993:
 4864              	.LBB994:
 4865 1444 474E     		ldr	r6, .L342+48
 4866              	.LBE994:
 4867              	.LBB995:
 4868 1446 9B18     		adds	r3, r3, r2
 4869 1448 2370     		strb	r3, [r4, #0]
 4870 144a 3A48     		ldr	r0, .L342
 4871 144c FFF7FEFF 		bl	uart_transmit
 4872              	.LVL464:
 4873              	.LBE995:
 4874              	.LBB996:
 4875 1450 3178     		ldrb	r1, [r6, #0]	@ zero_extendqisi2
 4876              	.LVL465:
 4877 1452 2B78     		ldrb	r3, [r5, #0]	@ zero_extendqisi2
 4878 1454 2278     		ldrb	r2, [r4, #0]	@ zero_extendqisi2
 4879 1456 CB18     		adds	r3, r1, r3
 4880 1458 DBB2     		uxtb	r3, r3
 4881 145a 2B70     		strb	r3, [r5, #0]
 4882 145c 9B18     		adds	r3, r3, r2
 4883 145e 2370     		strb	r3, [r4, #0]
 4884 1460 3448     		ldr	r0, .L342
 4885 1462 FFF7FEFF 		bl	uart_transmit
 4886              	.LVL466:
 4887              	.LBE996:
 4888              	.LBB997:
 4889 1466 7178     		ldrb	r1, [r6, #1]	@ zero_extendqisi2
 4890              	.LVL467:
 4891 1468 2B78     		ldrb	r3, [r5, #0]	@ zero_extendqisi2
 4892 146a 2278     		ldrb	r2, [r4, #0]	@ zero_extendqisi2
 4893 146c CB18     		adds	r3, r1, r3
 4894 146e DBB2     		uxtb	r3, r3
 4895 1470 2B70     		strb	r3, [r5, #0]
 4896 1472 9B18     		adds	r3, r3, r2
 4897 1474 2370     		strb	r3, [r4, #0]
 4898 1476 2F48     		ldr	r0, .L342
 4899 1478 FFF7FEFF 		bl	uart_transmit
 4900              	.LVL468:
 4901              	.LBE997:
 4902              	.LBB998:
 4903 147c 3A4B     		ldr	r3, .L342+52
 4904 147e 2278     		ldrb	r2, [r4, #0]	@ zero_extendqisi2
 4905 1480 1978     		ldrb	r1, [r3, #0]	@ zero_extendqisi2
 4906              	.LVL469:
 4907 1482 2B78     		ldrb	r3, [r5, #0]	@ zero_extendqisi2
 4908              	.LBE998:
 4909              	.LBB999:
 4910 1484 394E     		ldr	r6, .L342+56
 4911              	.LBE999:
 4912              	.LBB1000:
 4913 1486 CB18     		adds	r3, r1, r3
 4914 1488 DBB2     		uxtb	r3, r3
 4915 148a 2B70     		strb	r3, [r5, #0]
 4916 148c 9B18     		adds	r3, r3, r2
 4917 148e 2370     		strb	r3, [r4, #0]
 4918 1490 2848     		ldr	r0, .L342
 4919 1492 FFF7FEFF 		bl	uart_transmit
 4920              	.LVL470:
 4921              	.LBE1000:
 4922              	.LBB1001:
 4923 1496 3178     		ldrb	r1, [r6, #0]	@ zero_extendqisi2
 4924              	.LVL471:
 4925 1498 2B78     		ldrb	r3, [r5, #0]	@ zero_extendqisi2
 4926 149a 2278     		ldrb	r2, [r4, #0]	@ zero_extendqisi2
 4927 149c CB18     		adds	r3, r1, r3
 4928 149e DBB2     		uxtb	r3, r3
 4929 14a0 2B70     		strb	r3, [r5, #0]
 4930 14a2 9B18     		adds	r3, r3, r2
 4931 14a4 2370     		strb	r3, [r4, #0]
 4932 14a6 2348     		ldr	r0, .L342
 4933 14a8 FFF7FEFF 		bl	uart_transmit
 4934              	.LVL472:
 4935              	.LBE1001:
 4936              	.LBB1002:
 4937 14ac 7178     		ldrb	r1, [r6, #1]	@ zero_extendqisi2
 4938              	.LVL473:
 4939 14ae 2B78     		ldrb	r3, [r5, #0]	@ zero_extendqisi2
 4940 14b0 2278     		ldrb	r2, [r4, #0]	@ zero_extendqisi2
 4941 14b2 CB18     		adds	r3, r1, r3
 4942 14b4 DBB2     		uxtb	r3, r3
 4943 14b6 2B70     		strb	r3, [r5, #0]
 4944              	.LBE1002:
 4945              	.LBB1003:
 4946 14b8 2D4E     		ldr	r6, .L342+60
 4947              	.LBE1003:
 4948              	.LBB1004:
 4949 14ba 9B18     		adds	r3, r3, r2
 4950 14bc 2370     		strb	r3, [r4, #0]
 4951 14be 1D48     		ldr	r0, .L342
 4952 14c0 FFF7FEFF 		bl	uart_transmit
 4953              	.LVL474:
 4954              	.LBE1004:
 4955              	.LBB1005:
 4956 14c4 3178     		ldrb	r1, [r6, #0]	@ zero_extendqisi2
 4957              	.LVL475:
 4958 14c6 2B78     		ldrb	r3, [r5, #0]	@ zero_extendqisi2
 4959 14c8 2278     		ldrb	r2, [r4, #0]	@ zero_extendqisi2
 4960 14ca CB18     		adds	r3, r1, r3
 4961 14cc DBB2     		uxtb	r3, r3
 4962 14ce 2B70     		strb	r3, [r5, #0]
 4963 14d0 9B18     		adds	r3, r3, r2
 4964 14d2 2370     		strb	r3, [r4, #0]
 4965 14d4 1748     		ldr	r0, .L342
 4966 14d6 FFF7FEFF 		bl	uart_transmit
 4967              	.LVL476:
 4968              	.LBE1005:
 4969              	.LBB1006:
 4970 14da 7178     		ldrb	r1, [r6, #1]	@ zero_extendqisi2
 4971              	.LVL477:
 4972 14dc 2B78     		ldrb	r3, [r5, #0]	@ zero_extendqisi2
 4973 14de 2278     		ldrb	r2, [r4, #0]	@ zero_extendqisi2
 4974 14e0 CB18     		adds	r3, r1, r3
 4975 14e2 DBB2     		uxtb	r3, r3
 4976 14e4 2B70     		strb	r3, [r5, #0]
 4977 14e6 9B18     		adds	r3, r3, r2
 4978 14e8 2370     		strb	r3, [r4, #0]
 4979 14ea 1248     		ldr	r0, .L342
 4980 14ec FFF7FEFF 		bl	uart_transmit
 4981              	.LVL478:
 4982              	.LBE1006:
 4983              	.LBB1007:
 4984 14f0 9DF80C10 		ldrb	r1, [sp, #12]	@ zero_extendqisi2
 4985              	.LVL479:
 4986 14f4 2B78     		ldrb	r3, [r5, #0]	@ zero_extendqisi2
 4987 14f6 2278     		ldrb	r2, [r4, #0]	@ zero_extendqisi2
 4988 14f8 CB18     		adds	r3, r1, r3
 4989 14fa DBB2     		uxtb	r3, r3
 4990 14fc 2B70     		strb	r3, [r5, #0]
 4991 14fe 9B18     		adds	r3, r3, r2
 4992 1500 2370     		strb	r3, [r4, #0]
 4993 1502 0C48     		ldr	r0, .L342
 4994 1504 FFF7FEFF 		bl	uart_transmit
 4995              	.LVL480:
 4996              	.LBE1007:
 4997              	.LBB1008:
 4998 1508 03AB     		add	r3, sp, #12
 4999 150a 5978     		ldrb	r1, [r3, #1]	@ zero_extendqisi2
 5000              	.LVL481:
 5001 150c 2B78     		ldrb	r3, [r5, #0]	@ zero_extendqisi2
 5002 150e 2278     		ldrb	r2, [r4, #0]	@ zero_extendqisi2
 5003 1510 CB18     		adds	r3, r1, r3
 5004 1512 DBB2     		uxtb	r3, r3
 5005 1514 2B70     		strb	r3, [r5, #0]
 5006 1516 9B18     		adds	r3, r3, r2
 5007 1518 2370     		strb	r3, [r4, #0]
 5008 151a 0648     		ldr	r0, .L342
 5009 151c FFF7FEFF 		bl	uart_transmit
 5010              	.LVL482:
 5011              	.LBE1008:
 5012 1520 2978     		ldrb	r1, [r5, #0]	@ zero_extendqisi2
 5013 1522 0448     		ldr	r0, .L342
 5014 1524 FFF7FEFF 		bl	uart_transmit
 5015 1528 0248     		ldr	r0, .L342
 5016 152a 2178     		ldrb	r1, [r4, #0]	@ zero_extendqisi2
 5017 152c FFF7FEFF 		bl	uart_transmit
 5018 1530 24E0     		b	.L144
 5019              	.L343:
 5020 1532 00BF     		.align	2
 5021              	.L342:
 5022 1534 00000000 		.word	uart2
 5023 1538 00000000 		.word	v_ctl_climb_setpoint
 5024 153c 00000000 		.word	downlink_nb_ovrn
 5025 1540 00000000 		.word	.LANCHOR27
 5026 1544 00000000 		.word	.LANCHOR11
 5027 1548 00000000 		.word	.LANCHOR15
 5028 154c 00000000 		.word	downlink_nb_bytes
 5029 1550 00000000 		.word	downlink_nb_msgs
 5030 1554 00000000 		.word	ck_a
 5031 1558 00000000 		.word	ck_b
 5032 155c 00000000 		.word	v_ctl_throttle_slewed
 5033 1560 00000000 		.word	.LANCHOR10
 5034 1564 00000000 		.word	estimator_flight_time
 5035 1568 00000000 		.word	.LANCHOR14
 5036 156c 00000000 		.word	block_time
 5037 1570 00000000 		.word	stage_time
 5038              	.L145:
 5039 1574 924B     		ldr	r3, .L344
 5040 1576 1A78     		ldrb	r2, [r3, #0]	@ zero_extendqisi2
 5041 1578 0132     		adds	r2, r2, #1
 5042 157a 1A70     		strb	r2, [r3, #0]
 5043              	.L144:
 5044              	.LBE982:
 5045              	.LBE981:
 5046 157c 914B     		ldr	r3, .L344+4
 5047 157e 1B78     		ldrb	r3, [r3, #0]	@ zero_extendqisi2
 5048 1580 062B     		cmp	r3, #6
 5049 1582 40F0F280 		bne	.L146
 5050 1586 904B     		ldr	r3, .L344+8
 5051 1588 1B78     		ldrb	r3, [r3, #0]	@ zero_extendqisi2
 5052 158a 002B     		cmp	r3, #0
 5053 158c 00F0ED80 		beq	.L146
 5054 1590 8E48     		ldr	r0, .L344+12
 5055 1592 1621     		movs	r1, #22
 5056 1594 FFF7FEFF 		bl	uart_check_free_space
 5057 1598 0028     		cmp	r0, #0
 5058 159a 00F0E280 		beq	.L147
 5059 159e 8C4B     		ldr	r3, .L344+16
 5060              	.LBB1009:
 5061 15a0 9921     		movs	r1, #153
 5062              	.LBE1009:
 5063 15a2 1A88     		ldrh	r2, [r3, #0]
 5064              	.LBB1010:
 5065 15a4 8948     		ldr	r0, .L344+12
 5066              	.LBE1010:
 5067 15a6 1632     		adds	r2, r2, #22
 5068 15a8 1A80     		strh	r2, [r3, #0]	@ movhi
 5069 15aa 8A4B     		ldr	r3, .L344+20
 5070              	.LBB1011:
 5071 15ac 8A4D     		ldr	r5, .L344+24
 5072              	.LBE1011:
 5073 15ae 1A88     		ldrh	r2, [r3, #0]
 5074              	.LBB1012:
 5075 15b0 8A4C     		ldr	r4, .L344+28
 5076              	.LBE1012:
 5077 15b2 0132     		adds	r2, r2, #1
 5078 15b4 1A80     		strh	r2, [r3, #0]	@ movhi
 5079              	.LBB1013:
 5080 15b6 FFF7FEFF 		bl	uart_transmit
 5081 15ba 1621     		movs	r1, #22
 5082 15bc 8348     		ldr	r0, .L344+12
 5083 15be FFF7FEFF 		bl	uart_transmit
 5084              	.LBE1013:
 5085 15c2 1723     		movs	r3, #23
 5086 15c4 2B70     		strb	r3, [r5, #0]
 5087 15c6 1633     		adds	r3, r3, #22
 5088 15c8 2370     		strb	r3, [r4, #0]
 5089 15ca 0121     		movs	r1, #1
 5090 15cc 7F48     		ldr	r0, .L344+12
 5091 15ce FFF7FEFF 		bl	uart_transmit
 5092 15d2 2B78     		ldrb	r3, [r5, #0]	@ zero_extendqisi2
 5093 15d4 2278     		ldrb	r2, [r4, #0]	@ zero_extendqisi2
 5094 15d6 1633     		adds	r3, r3, #22
 5095 15d8 DBB2     		uxtb	r3, r3
 5096              	.LBB1014:
 5097 15da 814E     		ldr	r6, .L344+32
 5098              	.LBE1014:
 5099 15dc 2B70     		strb	r3, [r5, #0]
 5100 15de 9B18     		adds	r3, r3, r2
 5101 15e0 2370     		strb	r3, [r4, #0]
 5102 15e2 1621     		movs	r1, #22
 5103 15e4 7948     		ldr	r0, .L344+12
 5104 15e6 FFF7FEFF 		bl	uart_transmit
 5105              	.LBB1015:
 5106 15ea 3178     		ldrb	r1, [r6, #0]	@ zero_extendqisi2
 5107              	.LVL483:
 5108 15ec 2B78     		ldrb	r3, [r5, #0]	@ zero_extendqisi2
 5109 15ee 2278     		ldrb	r2, [r4, #0]	@ zero_extendqisi2
 5110 15f0 CB18     		adds	r3, r1, r3
 5111 15f2 DBB2     		uxtb	r3, r3
 5112 15f4 2B70     		strb	r3, [r5, #0]
 5113 15f6 9B18     		adds	r3, r3, r2
 5114 15f8 2370     		strb	r3, [r4, #0]
 5115 15fa 7448     		ldr	r0, .L344+12
 5116 15fc FFF7FEFF 		bl	uart_transmit
 5117              	.LVL484:
 5118              	.LBE1015:
 5119              	.LBB1016:
 5120 1600 7178     		ldrb	r1, [r6, #1]	@ zero_extendqisi2
 5121              	.LVL485:
 5122 1602 2B78     		ldrb	r3, [r5, #0]	@ zero_extendqisi2
 5123 1604 2278     		ldrb	r2, [r4, #0]	@ zero_extendqisi2
 5124 1606 CB18     		adds	r3, r1, r3
 5125 1608 DBB2     		uxtb	r3, r3
 5126 160a 2B70     		strb	r3, [r5, #0]
 5127 160c 9B18     		adds	r3, r3, r2
 5128 160e 2370     		strb	r3, [r4, #0]
 5129 1610 6E48     		ldr	r0, .L344+12
 5130 1612 FFF7FEFF 		bl	uart_transmit
 5131              	.LVL486:
 5132              	.LBE1016:
 5133              	.LBB1017:
 5134 1616 B178     		ldrb	r1, [r6, #2]	@ zero_extendqisi2
 5135              	.LVL487:
 5136 1618 2B78     		ldrb	r3, [r5, #0]	@ zero_extendqisi2
 5137 161a 2278     		ldrb	r2, [r4, #0]	@ zero_extendqisi2
 5138 161c CB18     		adds	r3, r1, r3
 5139 161e DBB2     		uxtb	r3, r3
 5140 1620 2B70     		strb	r3, [r5, #0]
 5141 1622 9B18     		adds	r3, r3, r2
 5142 1624 2370     		strb	r3, [r4, #0]
 5143 1626 6948     		ldr	r0, .L344+12
 5144 1628 FFF7FEFF 		bl	uart_transmit
 5145              	.LVL488:
 5146              	.LBE1017:
 5147              	.LBB1018:
 5148 162c F178     		ldrb	r1, [r6, #3]	@ zero_extendqisi2
 5149              	.LVL489:
 5150 162e 2B78     		ldrb	r3, [r5, #0]	@ zero_extendqisi2
 5151 1630 2278     		ldrb	r2, [r4, #0]	@ zero_extendqisi2
 5152 1632 CB18     		adds	r3, r1, r3
 5153 1634 DBB2     		uxtb	r3, r3
 5154              	.LBE1018:
 5155              	.LBB1019:
 5156 1636 6B4E     		ldr	r6, .L344+36
 5157              	.LBE1019:
 5158              	.LBB1020:
 5159 1638 2B70     		strb	r3, [r5, #0]
 5160 163a 9B18     		adds	r3, r3, r2
 5161 163c 2370     		strb	r3, [r4, #0]
 5162 163e 6348     		ldr	r0, .L344+12
 5163 1640 FFF7FEFF 		bl	uart_transmit
 5164              	.LVL490:
 5165              	.LBE1020:
 5166              	.LBB1021:
 5167 1644 3178     		ldrb	r1, [r6, #0]	@ zero_extendqisi2
 5168              	.LVL491:
 5169 1646 2B78     		ldrb	r3, [r5, #0]	@ zero_extendqisi2
 5170 1648 2278     		ldrb	r2, [r4, #0]	@ zero_extendqisi2
 5171 164a CB18     		adds	r3, r1, r3
 5172 164c DBB2     		uxtb	r3, r3
 5173 164e 2B70     		strb	r3, [r5, #0]
 5174 1650 9B18     		adds	r3, r3, r2
 5175 1652 2370     		strb	r3, [r4, #0]
 5176 1654 5D48     		ldr	r0, .L344+12
 5177 1656 FFF7FEFF 		bl	uart_transmit
 5178              	.LVL492:
 5179              	.LBE1021:
 5180              	.LBB1022:
 5181 165a 7178     		ldrb	r1, [r6, #1]	@ zero_extendqisi2
 5182              	.LVL493:
 5183 165c 2B78     		ldrb	r3, [r5, #0]	@ zero_extendqisi2
 5184 165e 2278     		ldrb	r2, [r4, #0]	@ zero_extendqisi2
 5185 1660 CB18     		adds	r3, r1, r3
 5186 1662 DBB2     		uxtb	r3, r3
 5187 1664 2B70     		strb	r3, [r5, #0]
 5188 1666 9B18     		adds	r3, r3, r2
 5189 1668 2370     		strb	r3, [r4, #0]
 5190 166a 5848     		ldr	r0, .L344+12
 5191 166c FFF7FEFF 		bl	uart_transmit
 5192              	.LVL494:
 5193              	.LBE1022:
 5194              	.LBB1023:
 5195 1670 B178     		ldrb	r1, [r6, #2]	@ zero_extendqisi2
 5196              	.LVL495:
 5197 1672 2B78     		ldrb	r3, [r5, #0]	@ zero_extendqisi2
 5198 1674 2278     		ldrb	r2, [r4, #0]	@ zero_extendqisi2
 5199 1676 CB18     		adds	r3, r1, r3
 5200 1678 DBB2     		uxtb	r3, r3
 5201 167a 2B70     		strb	r3, [r5, #0]
 5202 167c 9B18     		adds	r3, r3, r2
 5203 167e 2370     		strb	r3, [r4, #0]
 5204 1680 5248     		ldr	r0, .L344+12
 5205 1682 FFF7FEFF 		bl	uart_transmit
 5206              	.LVL496:
 5207              	.LBE1023:
 5208              	.LBB1024:
 5209 1686 F178     		ldrb	r1, [r6, #3]	@ zero_extendqisi2
 5210              	.LVL497:
 5211 1688 2B78     		ldrb	r3, [r5, #0]	@ zero_extendqisi2
 5212 168a 2278     		ldrb	r2, [r4, #0]	@ zero_extendqisi2
 5213 168c CB18     		adds	r3, r1, r3
 5214 168e DBB2     		uxtb	r3, r3
 5215              	.LBE1024:
 5216              	.LBB1025:
 5217 1690 554E     		ldr	r6, .L344+40
 5218              	.LBE1025:
 5219              	.LBB1026:
 5220 1692 2B70     		strb	r3, [r5, #0]
 5221 1694 9B18     		adds	r3, r3, r2
 5222 1696 2370     		strb	r3, [r4, #0]
 5223 1698 4C48     		ldr	r0, .L344+12
 5224 169a FFF7FEFF 		bl	uart_transmit
 5225              	.LVL498:
 5226              	.LBE1026:
 5227              	.LBB1027:
 5228 169e 3178     		ldrb	r1, [r6, #0]	@ zero_extendqisi2
 5229              	.LVL499:
 5230 16a0 2B78     		ldrb	r3, [r5, #0]	@ zero_extendqisi2
 5231 16a2 2278     		ldrb	r2, [r4, #0]	@ zero_extendqisi2
 5232 16a4 CB18     		adds	r3, r1, r3
 5233 16a6 DBB2     		uxtb	r3, r3
 5234 16a8 2B70     		strb	r3, [r5, #0]
 5235 16aa 9B18     		adds	r3, r3, r2
 5236 16ac 2370     		strb	r3, [r4, #0]
 5237 16ae 4748     		ldr	r0, .L344+12
 5238 16b0 FFF7FEFF 		bl	uart_transmit
 5239              	.LVL500:
 5240              	.LBE1027:
 5241              	.LBB1028:
 5242 16b4 7178     		ldrb	r1, [r6, #1]	@ zero_extendqisi2
 5243              	.LVL501:
 5244 16b6 2B78     		ldrb	r3, [r5, #0]	@ zero_extendqisi2
 5245 16b8 2278     		ldrb	r2, [r4, #0]	@ zero_extendqisi2
 5246 16ba CB18     		adds	r3, r1, r3
 5247 16bc DBB2     		uxtb	r3, r3
 5248 16be 2B70     		strb	r3, [r5, #0]
 5249 16c0 9B18     		adds	r3, r3, r2
 5250 16c2 2370     		strb	r3, [r4, #0]
 5251 16c4 4148     		ldr	r0, .L344+12
 5252 16c6 FFF7FEFF 		bl	uart_transmit
 5253              	.LVL502:
 5254              	.LBE1028:
 5255              	.LBB1029:
 5256 16ca B178     		ldrb	r1, [r6, #2]	@ zero_extendqisi2
 5257              	.LVL503:
 5258 16cc 2B78     		ldrb	r3, [r5, #0]	@ zero_extendqisi2
 5259 16ce 2278     		ldrb	r2, [r4, #0]	@ zero_extendqisi2
 5260 16d0 CB18     		adds	r3, r1, r3
 5261 16d2 DBB2     		uxtb	r3, r3
 5262 16d4 2B70     		strb	r3, [r5, #0]
 5263 16d6 9B18     		adds	r3, r3, r2
 5264 16d8 2370     		strb	r3, [r4, #0]
 5265 16da 3C48     		ldr	r0, .L344+12
 5266 16dc FFF7FEFF 		bl	uart_transmit
 5267              	.LVL504:
 5268              	.LBE1029:
 5269              	.LBB1030:
 5270 16e0 F178     		ldrb	r1, [r6, #3]	@ zero_extendqisi2
 5271              	.LVL505:
 5272 16e2 2B78     		ldrb	r3, [r5, #0]	@ zero_extendqisi2
 5273 16e4 2278     		ldrb	r2, [r4, #0]	@ zero_extendqisi2
 5274 16e6 CB18     		adds	r3, r1, r3
 5275 16e8 DBB2     		uxtb	r3, r3
 5276              	.LBE1030:
 5277              	.LBB1031:
 5278 16ea 404E     		ldr	r6, .L344+44
 5279              	.LBE1031:
 5280              	.LBB1032:
 5281 16ec 2B70     		strb	r3, [r5, #0]
 5282 16ee 9B18     		adds	r3, r3, r2
 5283 16f0 2370     		strb	r3, [r4, #0]
 5284 16f2 3648     		ldr	r0, .L344+12
 5285 16f4 FFF7FEFF 		bl	uart_transmit
 5286              	.LVL506:
 5287              	.LBE1032:
 5288              	.LBB1033:
 5289 16f8 3178     		ldrb	r1, [r6, #0]	@ zero_extendqisi2
 5290              	.LVL507:
 5291 16fa 2B78     		ldrb	r3, [r5, #0]	@ zero_extendqisi2
 5292 16fc 2278     		ldrb	r2, [r4, #0]	@ zero_extendqisi2
 5293 16fe CB18     		adds	r3, r1, r3
 5294 1700 DBB2     		uxtb	r3, r3
 5295 1702 2B70     		strb	r3, [r5, #0]
 5296 1704 9B18     		adds	r3, r3, r2
 5297 1706 2370     		strb	r3, [r4, #0]
 5298 1708 3048     		ldr	r0, .L344+12
 5299 170a FFF7FEFF 		bl	uart_transmit
 5300              	.LVL508:
 5301              	.LBE1033:
 5302              	.LBB1034:
 5303 170e 7178     		ldrb	r1, [r6, #1]	@ zero_extendqisi2
 5304              	.LVL509:
 5305 1710 2B78     		ldrb	r3, [r5, #0]	@ zero_extendqisi2
 5306 1712 2278     		ldrb	r2, [r4, #0]	@ zero_extendqisi2
 5307 1714 CB18     		adds	r3, r1, r3
 5308 1716 DBB2     		uxtb	r3, r3
 5309 1718 2B70     		strb	r3, [r5, #0]
 5310 171a 9B18     		adds	r3, r3, r2
 5311 171c 2370     		strb	r3, [r4, #0]
 5312 171e 2B48     		ldr	r0, .L344+12
 5313 1720 FFF7FEFF 		bl	uart_transmit
 5314              	.LVL510:
 5315              	.LBE1034:
 5316              	.LBB1035:
 5317 1724 B178     		ldrb	r1, [r6, #2]	@ zero_extendqisi2
 5318              	.LVL511:
 5319 1726 2B78     		ldrb	r3, [r5, #0]	@ zero_extendqisi2
 5320 1728 2278     		ldrb	r2, [r4, #0]	@ zero_extendqisi2
 5321 172a CB18     		adds	r3, r1, r3
 5322 172c DBB2     		uxtb	r3, r3
 5323 172e 2B70     		strb	r3, [r5, #0]
 5324 1730 9B18     		adds	r3, r3, r2
 5325 1732 2370     		strb	r3, [r4, #0]
 5326 1734 2548     		ldr	r0, .L344+12
 5327 1736 FFF7FEFF 		bl	uart_transmit
 5328              	.LVL512:
 5329              	.LBE1035:
 5330              	.LBB1036:
 5331 173a F178     		ldrb	r1, [r6, #3]	@ zero_extendqisi2
 5332              	.LVL513:
 5333 173c 2B78     		ldrb	r3, [r5, #0]	@ zero_extendqisi2
 5334 173e 2278     		ldrb	r2, [r4, #0]	@ zero_extendqisi2
 5335 1740 CB18     		adds	r3, r1, r3
 5336 1742 DBB2     		uxtb	r3, r3
 5337 1744 2B70     		strb	r3, [r5, #0]
 5338 1746 9B18     		adds	r3, r3, r2
 5339 1748 2370     		strb	r3, [r4, #0]
 5340 174a 2048     		ldr	r0, .L344+12
 5341 174c FFF7FEFF 		bl	uart_transmit
 5342              	.LVL514:
 5343              	.LBE1036:
 5344 1750 2978     		ldrb	r1, [r5, #0]	@ zero_extendqisi2
 5345 1752 1E48     		ldr	r0, .L344+12
 5346 1754 FFF7FEFF 		bl	uart_transmit
 5347 1758 1C48     		ldr	r0, .L344+12
 5348 175a 2178     		ldrb	r1, [r4, #0]	@ zero_extendqisi2
 5349 175c FFF7FEFF 		bl	uart_transmit
 5350 1760 03E0     		b	.L146
 5351              	.L147:
 5352 1762 174B     		ldr	r3, .L344
 5353 1764 1A78     		ldrb	r2, [r3, #0]	@ zero_extendqisi2
 5354 1766 0132     		adds	r2, r2, #1
 5355 1768 1A70     		strb	r2, [r3, #0]
 5356              	.L146:
 5357 176a 214B     		ldr	r3, .L344+48
 5358 176c 1B78     		ldrb	r3, [r3, #0]	@ zero_extendqisi2
 5359 176e 122B     		cmp	r3, #18
 5360 1770 40F0D680 		bne	.L148
 5361              	.LBB1037:
 5362 1774 1F4B     		ldr	r3, .L344+52
 5363 1776 1A78     		ldrb	r2, [r3, #0]	@ zero_extendqisi2
 5364 1778 0A2A     		cmp	r2, #10
 5365 177a 01D9     		bls	.L149
 5366 177c 0022     		movs	r2, #0
 5367 177e 1A70     		strb	r2, [r3, #0]
 5368              	.L149:
 5369 1780 1C4B     		ldr	r3, .L344+52
 5370 1782 1B78     		ldrb	r3, [r3, #0]	@ zero_extendqisi2
 5371 1784 0A2B     		cmp	r3, #10
 5372 1786 53D8     		bhi	.L150
 5373 1788 DFE803F0 		tbb	[pc, r3]
 5374              	.L162:
 5375 178c 06       		.byte	(.L151-.L162)/2
 5376 178d 08       		.byte	(.L152-.L162)/2
 5377 178e 0B       		.byte	(.L153-.L162)/2
 5378 178f 0D       		.byte	(.L154-.L162)/2
 5379 1790 10       		.byte	(.L155-.L162)/2
 5380 1791 12       		.byte	(.L156-.L162)/2
 5381 1792 14       		.byte	(.L157-.L162)/2
 5382 1793 16       		.byte	(.L158-.L162)/2
 5383 1794 18       		.byte	(.L159-.L162)/2
 5384 1795 48       		.byte	(.L160-.L162)/2
 5385 1796 4B       		.byte	(.L161-.L162)/2
 5386 1797 00       		.align	1
 5387              	.L151:
 5388 1798 174B     		ldr	r3, .L344+56
 5389 179a 00E0     		b	.L316
 5390              	.L152:
 5391 179c 174B     		ldr	r3, .L344+60
 5392              	.L316:
 5393 179e 1B68     		ldr	r3, [r3, #0]	@ float
 5394 17a0 47E0     		b	.L306
 5395              	.L153:
 5396 17a2 174B     		ldr	r3, .L344+64
 5397 17a4 FBE7     		b	.L316
 5398              	.L154:
 5399 17a6 174B     		ldr	r3, .L344+68
 5400 17a8 1888     		ldrh	r0, [r3, #0]
 5401 17aa 3DE0     		b	.L307
 5402              	.L155:
 5403 17ac 164B     		ldr	r3, .L344+72
 5404 17ae F6E7     		b	.L316
 5405              	.L156:
 5406 17b0 164B     		ldr	r3, .L344+76
 5407 17b2 34E0     		b	.L315
 5408              	.L157:
 5409 17b4 164B     		ldr	r3, .L344+80
 5410 17b6 32E0     		b	.L315
 5411              	.L158:
 5412 17b8 164B     		ldr	r3, .L344+84
 5413 17ba 30E0     		b	.L315
 5414              	.L159:
 5415 17bc 164B     		ldr	r3, .L344+88
 5416 17be 2EE0     		b	.L315
 5417              	.L345:
 5418              		.align	2
 5419              	.L344:
 5420 17c0 00000000 		.word	downlink_nb_ovrn
 5421 17c4 00000000 		.word	.LANCHOR28
 5422 17c8 00000000 		.word	nav_in_segment
 5423 17cc 00000000 		.word	uart2
 5424 17d0 00000000 		.word	downlink_nb_bytes
 5425 17d4 00000000 		.word	downlink_nb_msgs
 5426 17d8 00000000 		.word	ck_a
 5427 17dc 00000000 		.word	ck_b
 5428 17e0 00000000 		.word	nav_segment_x_1
 5429 17e4 00000000 		.word	nav_segment_y_1
 5430 17e8 00000000 		.word	nav_segment_x_2
 5431 17ec 00000000 		.word	nav_segment_y_2
 5432 17f0 00000000 		.word	.LANCHOR29
 5433 17f4 00000000 		.word	.LANCHOR38
 5434 17f8 00000000 		.word	flight_altitude
 5435 17fc 00000000 		.word	nav_course
 5436 1800 00000000 		.word	nav_shift
 5437 1804 00000000 		.word	estimator_flight_time
 5438 1808 00000000 		.word	nav_radius
 5439 180c 00000000 		.word	.LANCHOR4
 5440 1810 00000000 		.word	.LANCHOR5
 5441 1814 00000000 		.word	.LANCHOR14
 5442 1818 00000000 		.word	telemetry_mode_Ap_DefaultChannel
 5443              	.L160:
 5444 181c 9C4B     		ldr	r3, .L346
 5445              	.L315:
 5446 181e 1878     		ldrb	r0, [r3, #0]	@ zero_extendqisi2
 5447 1820 02E0     		b	.L307
 5448              	.L161:
 5449 1822 9C4B     		ldr	r3, .L346+4
 5450 1824 B3F8EA00 		ldrh	r0, [r3, #234]
 5451              	.L307:
 5452 1828 FFF7FEFF 		bl	__aeabi_ui2f
 5453 182c 0290     		str	r0, [sp, #8]	@ float
 5454              	.LVL515:
 5455 182e 01E0     		b	.L163
 5456              	.LVL516:
 5457              	.L150:
 5458 1830 0023     		movs	r3, #0
 5459              	.L306:
 5460 1832 0293     		str	r3, [sp, #8]	@ float
 5461              	.LVL517:
 5462              	.L163:
 5463 1834 9848     		ldr	r0, .L346+8
 5464 1836 0B21     		movs	r1, #11
 5465 1838 FFF7FEFF 		bl	uart_check_free_space
 5466 183c 0028     		cmp	r0, #0
 5467 183e 67D0     		beq	.L164
 5468 1840 964B     		ldr	r3, .L346+12
 5469              	.LBB1038:
 5470 1842 9921     		movs	r1, #153
 5471              	.LBE1038:
 5472 1844 1A88     		ldrh	r2, [r3, #0]
 5473              	.LBB1039:
 5474 1846 9448     		ldr	r0, .L346+8
 5475              	.LBE1039:
 5476 1848 0B32     		adds	r2, r2, #11
 5477 184a 1A80     		strh	r2, [r3, #0]	@ movhi
 5478 184c 944B     		ldr	r3, .L346+16
 5479              	.LBB1040:
 5480 184e 954D     		ldr	r5, .L346+20
 5481              	.LBE1040:
 5482 1850 1A88     		ldrh	r2, [r3, #0]
 5483              	.LBB1041:
 5484 1852 954C     		ldr	r4, .L346+24
 5485              	.LBE1041:
 5486 1854 0132     		adds	r2, r2, #1
 5487 1856 1A80     		strh	r2, [r3, #0]	@ movhi
 5488              	.LBB1042:
 5489 1858 FFF7FEFF 		bl	uart_transmit
 5490 185c 0B21     		movs	r1, #11
 5491 185e 8E48     		ldr	r0, .L346+8
 5492 1860 FFF7FEFF 		bl	uart_transmit
 5493              	.LBE1042:
 5494 1864 0C23     		movs	r3, #12
 5495 1866 2B70     		strb	r3, [r5, #0]
 5496 1868 0B33     		adds	r3, r3, #11
 5497 186a 2370     		strb	r3, [r4, #0]
 5498 186c 0121     		movs	r1, #1
 5499 186e 8A48     		ldr	r0, .L346+8
 5500 1870 FFF7FEFF 		bl	uart_transmit
 5501 1874 2B78     		ldrb	r3, [r5, #0]	@ zero_extendqisi2
 5502 1876 2278     		ldrb	r2, [r4, #0]	@ zero_extendqisi2
 5503 1878 1F33     		adds	r3, r3, #31
 5504 187a DBB2     		uxtb	r3, r3
 5505 187c 2B70     		strb	r3, [r5, #0]
 5506 187e 9B18     		adds	r3, r3, r2
 5507 1880 2370     		strb	r3, [r4, #0]
 5508 1882 1F21     		movs	r1, #31
 5509 1884 8448     		ldr	r0, .L346+8
 5510 1886 FFF7FEFF 		bl	uart_transmit
 5511              	.LBB1043:
 5512 188a 884B     		ldr	r3, .L346+28
 5513 188c 2278     		ldrb	r2, [r4, #0]	@ zero_extendqisi2
 5514 188e 1978     		ldrb	r1, [r3, #0]	@ zero_extendqisi2
 5515              	.LVL518:
 5516 1890 2B78     		ldrb	r3, [r5, #0]	@ zero_extendqisi2
 5517 1892 8148     		ldr	r0, .L346+8
 5518 1894 CB18     		adds	r3, r1, r3
 5519 1896 DBB2     		uxtb	r3, r3
 5520 1898 2B70     		strb	r3, [r5, #0]
 5521 189a 9B18     		adds	r3, r3, r2
 5522 189c 2370     		strb	r3, [r4, #0]
 5523 189e FFF7FEFF 		bl	uart_transmit
 5524              	.LVL519:
 5525              	.LBE1043:
 5526              	.LBB1044:
 5527 18a2 9DF80810 		ldrb	r1, [sp, #8]	@ zero_extendqisi2
 5528              	.LVL520:
 5529 18a6 2B78     		ldrb	r3, [r5, #0]	@ zero_extendqisi2
 5530 18a8 2278     		ldrb	r2, [r4, #0]	@ zero_extendqisi2
 5531 18aa CB18     		adds	r3, r1, r3
 5532 18ac DBB2     		uxtb	r3, r3
 5533 18ae 2B70     		strb	r3, [r5, #0]
 5534 18b0 9B18     		adds	r3, r3, r2
 5535 18b2 02AE     		add	r6, sp, #8
 5536 18b4 2370     		strb	r3, [r4, #0]
 5537 18b6 7848     		ldr	r0, .L346+8
 5538 18b8 FFF7FEFF 		bl	uart_transmit
 5539              	.LVL521:
 5540              	.LBE1044:
 5541              	.LBB1045:
 5542 18bc 7178     		ldrb	r1, [r6, #1]	@ zero_extendqisi2
 5543              	.LVL522:
 5544 18be 2B78     		ldrb	r3, [r5, #0]	@ zero_extendqisi2
 5545 18c0 2278     		ldrb	r2, [r4, #0]	@ zero_extendqisi2
 5546 18c2 CB18     		adds	r3, r1, r3
 5547 18c4 DBB2     		uxtb	r3, r3
 5548 18c6 2B70     		strb	r3, [r5, #0]
 5549 18c8 9B18     		adds	r3, r3, r2
 5550 18ca 2370     		strb	r3, [r4, #0]
 5551 18cc 7248     		ldr	r0, .L346+8
 5552 18ce FFF7FEFF 		bl	uart_transmit
 5553              	.LVL523:
 5554              	.LBE1045:
 5555              	.LBB1046:
 5556 18d2 B178     		ldrb	r1, [r6, #2]	@ zero_extendqisi2
 5557              	.LVL524:
 5558 18d4 2B78     		ldrb	r3, [r5, #0]	@ zero_extendqisi2
 5559 18d6 2278     		ldrb	r2, [r4, #0]	@ zero_extendqisi2
 5560 18d8 CB18     		adds	r3, r1, r3
 5561 18da DBB2     		uxtb	r3, r3
 5562 18dc 2B70     		strb	r3, [r5, #0]
 5563 18de 9B18     		adds	r3, r3, r2
 5564 18e0 2370     		strb	r3, [r4, #0]
 5565 18e2 6D48     		ldr	r0, .L346+8
 5566 18e4 FFF7FEFF 		bl	uart_transmit
 5567              	.LVL525:
 5568              	.LBE1046:
 5569              	.LBB1047:
 5570 18e8 F178     		ldrb	r1, [r6, #3]	@ zero_extendqisi2
 5571              	.LVL526:
 5572 18ea 2B78     		ldrb	r3, [r5, #0]	@ zero_extendqisi2
 5573 18ec 2278     		ldrb	r2, [r4, #0]	@ zero_extendqisi2
 5574 18ee CB18     		adds	r3, r1, r3
 5575 18f0 DBB2     		uxtb	r3, r3
 5576 18f2 2B70     		strb	r3, [r5, #0]
 5577 18f4 9B18     		adds	r3, r3, r2
 5578 18f6 2370     		strb	r3, [r4, #0]
 5579 18f8 6748     		ldr	r0, .L346+8
 5580 18fa FFF7FEFF 		bl	uart_transmit
 5581              	.LVL527:
 5582              	.LBE1047:
 5583 18fe 2978     		ldrb	r1, [r5, #0]	@ zero_extendqisi2
 5584 1900 6548     		ldr	r0, .L346+8
 5585 1902 FFF7FEFF 		bl	uart_transmit
 5586 1906 6448     		ldr	r0, .L346+8
 5587 1908 2178     		ldrb	r1, [r4, #0]	@ zero_extendqisi2
 5588 190a FFF7FEFF 		bl	uart_transmit
 5589 190e 03E0     		b	.L165
 5590              	.L164:
 5591 1910 674B     		ldr	r3, .L346+32
 5592 1912 1A78     		ldrb	r2, [r3, #0]	@ zero_extendqisi2
 5593 1914 0132     		adds	r2, r2, #1
 5594 1916 1A70     		strb	r2, [r3, #0]
 5595              	.L165:
 5596 1918 644B     		ldr	r3, .L346+28
 5597 191a 1A78     		ldrb	r2, [r3, #0]	@ zero_extendqisi2
 5598 191c 0132     		adds	r2, r2, #1
 5599 191e 1A70     		strb	r2, [r3, #0]
 5600              	.L148:
 5601              	.LBE1037:
 5602 1920 644B     		ldr	r3, .L346+36
 5603 1922 1B78     		ldrb	r3, [r3, #0]	@ zero_extendqisi2
 5604 1924 182B     		cmp	r3, #24
 5605 1926 40F0CD80 		bne	.L166
 5606 192a 5B48     		ldr	r0, .L346+8
 5607 192c 1121     		movs	r1, #17
 5608 192e FFF7FEFF 		bl	uart_check_free_space
 5609 1932 0028     		cmp	r0, #0
 5610 1934 00F0C280 		beq	.L167
 5611 1938 584B     		ldr	r3, .L346+12
 5612              	.LBB1048:
 5613 193a 9921     		movs	r1, #153
 5614              	.LBE1048:
 5615 193c 1A88     		ldrh	r2, [r3, #0]
 5616              	.LBB1049:
 5617 193e 5648     		ldr	r0, .L346+8
 5618              	.LBE1049:
 5619 1940 1132     		adds	r2, r2, #17
 5620 1942 1A80     		strh	r2, [r3, #0]	@ movhi
 5621 1944 564B     		ldr	r3, .L346+16
 5622              	.LBB1050:
 5623 1946 574D     		ldr	r5, .L346+20
 5624              	.LBE1050:
 5625 1948 1A88     		ldrh	r2, [r3, #0]
 5626              	.LBB1051:
 5627 194a 574C     		ldr	r4, .L346+24
 5628              	.LBE1051:
 5629 194c 0132     		adds	r2, r2, #1
 5630 194e 1A80     		strh	r2, [r3, #0]	@ movhi
 5631              	.LBB1052:
 5632 1950 FFF7FEFF 		bl	uart_transmit
 5633 1954 1121     		movs	r1, #17
 5634 1956 5048     		ldr	r0, .L346+8
 5635 1958 FFF7FEFF 		bl	uart_transmit
 5636              	.LBE1052:
 5637 195c 1223     		movs	r3, #18
 5638 195e 2B70     		strb	r3, [r5, #0]
 5639 1960 1133     		adds	r3, r3, #17
 5640 1962 2370     		strb	r3, [r4, #0]
 5641 1964 0121     		movs	r1, #1
 5642 1966 4C48     		ldr	r0, .L346+8
 5643 1968 FFF7FEFF 		bl	uart_transmit
 5644 196c 2B78     		ldrb	r3, [r5, #0]	@ zero_extendqisi2
 5645 196e 2278     		ldrb	r2, [r4, #0]	@ zero_extendqisi2
 5646 1970 1133     		adds	r3, r3, #17
 5647 1972 DBB2     		uxtb	r3, r3
 5648              	.LBB1053:
 5649 1974 504E     		ldr	r6, .L346+40
 5650              	.LBE1053:
 5651 1976 2B70     		strb	r3, [r5, #0]
 5652 1978 9B18     		adds	r3, r3, r2
 5653 197a 2370     		strb	r3, [r4, #0]
 5654 197c 1121     		movs	r1, #17
 5655 197e 4648     		ldr	r0, .L346+8
 5656 1980 FFF7FEFF 		bl	uart_transmit
 5657              	.LBB1054:
 5658 1984 3178     		ldrb	r1, [r6, #0]	@ zero_extendqisi2
 5659              	.LVL528:
 5660 1986 2B78     		ldrb	r3, [r5, #0]	@ zero_extendqisi2
 5661 1988 2278     		ldrb	r2, [r4, #0]	@ zero_extendqisi2
 5662 198a CB18     		adds	r3, r1, r3
 5663 198c DBB2     		uxtb	r3, r3
 5664 198e 2B70     		strb	r3, [r5, #0]
 5665 1990 9B18     		adds	r3, r3, r2
 5666 1992 2370     		strb	r3, [r4, #0]
 5667 1994 4048     		ldr	r0, .L346+8
 5668 1996 FFF7FEFF 		bl	uart_transmit
 5669              	.LVL529:
 5670              	.LBE1054:
 5671              	.LBB1055:
 5672 199a 7178     		ldrb	r1, [r6, #1]	@ zero_extendqisi2
 5673              	.LVL530:
 5674 199c 2B78     		ldrb	r3, [r5, #0]	@ zero_extendqisi2
 5675 199e 2278     		ldrb	r2, [r4, #0]	@ zero_extendqisi2
 5676 19a0 CB18     		adds	r3, r1, r3
 5677 19a2 DBB2     		uxtb	r3, r3
 5678 19a4 2B70     		strb	r3, [r5, #0]
 5679 19a6 9B18     		adds	r3, r3, r2
 5680 19a8 2370     		strb	r3, [r4, #0]
 5681 19aa 3B48     		ldr	r0, .L346+8
 5682 19ac FFF7FEFF 		bl	uart_transmit
 5683              	.LVL531:
 5684              	.LBE1055:
 5685              	.LBB1056:
 5686 19b0 B178     		ldrb	r1, [r6, #2]	@ zero_extendqisi2
 5687              	.LVL532:
 5688 19b2 2B78     		ldrb	r3, [r5, #0]	@ zero_extendqisi2
 5689 19b4 2278     		ldrb	r2, [r4, #0]	@ zero_extendqisi2
 5690 19b6 CB18     		adds	r3, r1, r3
 5691 19b8 DBB2     		uxtb	r3, r3
 5692 19ba 2B70     		strb	r3, [r5, #0]
 5693 19bc 9B18     		adds	r3, r3, r2
 5694 19be 2370     		strb	r3, [r4, #0]
 5695 19c0 3548     		ldr	r0, .L346+8
 5696 19c2 FFF7FEFF 		bl	uart_transmit
 5697              	.LVL533:
 5698              	.LBE1056:
 5699              	.LBB1057:
 5700 19c6 F178     		ldrb	r1, [r6, #3]	@ zero_extendqisi2
 5701              	.LVL534:
 5702 19c8 2B78     		ldrb	r3, [r5, #0]	@ zero_extendqisi2
 5703 19ca 2278     		ldrb	r2, [r4, #0]	@ zero_extendqisi2
 5704 19cc CB18     		adds	r3, r1, r3
 5705 19ce DBB2     		uxtb	r3, r3
 5706 19d0 2B70     		strb	r3, [r5, #0]
 5707 19d2 9B18     		adds	r3, r3, r2
 5708 19d4 2370     		strb	r3, [r4, #0]
 5709 19d6 3048     		ldr	r0, .L346+8
 5710 19d8 FFF7FEFF 		bl	uart_transmit
 5711              	.LVL535:
 5712              	.LBE1057:
 5713              	.LBB1058:
 5714 19dc 3179     		ldrb	r1, [r6, #4]	@ zero_extendqisi2
 5715              	.LVL536:
 5716 19de 2B78     		ldrb	r3, [r5, #0]	@ zero_extendqisi2
 5717 19e0 2278     		ldrb	r2, [r4, #0]	@ zero_extendqisi2
 5718 19e2 CB18     		adds	r3, r1, r3
 5719 19e4 DBB2     		uxtb	r3, r3
 5720 19e6 2B70     		strb	r3, [r5, #0]
 5721 19e8 9B18     		adds	r3, r3, r2
 5722 19ea 371D     		adds	r7, r6, #4
 5723 19ec 2370     		strb	r3, [r4, #0]
 5724 19ee 2A48     		ldr	r0, .L346+8
 5725 19f0 FFF7FEFF 		bl	uart_transmit
 5726              	.LVL537:
 5727              	.LBE1058:
 5728              	.LBB1059:
 5729 19f4 7978     		ldrb	r1, [r7, #1]	@ zero_extendqisi2
 5730              	.LVL538:
 5731 19f6 2B78     		ldrb	r3, [r5, #0]	@ zero_extendqisi2
 5732 19f8 2278     		ldrb	r2, [r4, #0]	@ zero_extendqisi2
 5733 19fa CB18     		adds	r3, r1, r3
 5734 19fc DBB2     		uxtb	r3, r3
 5735 19fe 2B70     		strb	r3, [r5, #0]
 5736 1a00 9B18     		adds	r3, r3, r2
 5737 1a02 2370     		strb	r3, [r4, #0]
 5738 1a04 2448     		ldr	r0, .L346+8
 5739 1a06 FFF7FEFF 		bl	uart_transmit
 5740              	.LVL539:
 5741              	.LBE1059:
 5742              	.LBB1060:
 5743 1a0a B978     		ldrb	r1, [r7, #2]	@ zero_extendqisi2
 5744              	.LVL540:
 5745 1a0c 2B78     		ldrb	r3, [r5, #0]	@ zero_extendqisi2
 5746 1a0e 2278     		ldrb	r2, [r4, #0]	@ zero_extendqisi2
 5747 1a10 CB18     		adds	r3, r1, r3
 5748 1a12 DBB2     		uxtb	r3, r3
 5749 1a14 2B70     		strb	r3, [r5, #0]
 5750 1a16 9B18     		adds	r3, r3, r2
 5751 1a18 2370     		strb	r3, [r4, #0]
 5752 1a1a 1F48     		ldr	r0, .L346+8
 5753 1a1c FFF7FEFF 		bl	uart_transmit
 5754              	.LVL541:
 5755              	.LBE1060:
 5756              	.LBB1061:
 5757 1a20 F978     		ldrb	r1, [r7, #3]	@ zero_extendqisi2
 5758              	.LVL542:
 5759 1a22 2B78     		ldrb	r3, [r5, #0]	@ zero_extendqisi2
 5760 1a24 2278     		ldrb	r2, [r4, #0]	@ zero_extendqisi2
 5761 1a26 CB18     		adds	r3, r1, r3
 5762 1a28 DBB2     		uxtb	r3, r3
 5763 1a2a 2B70     		strb	r3, [r5, #0]
 5764 1a2c 9B18     		adds	r3, r3, r2
 5765 1a2e 2370     		strb	r3, [r4, #0]
 5766 1a30 1948     		ldr	r0, .L346+8
 5767 1a32 FFF7FEFF 		bl	uart_transmit
 5768              	.LVL543:
 5769              	.LBE1061:
 5770              	.LBB1062:
 5771 1a36 317A     		ldrb	r1, [r6, #8]	@ zero_extendqisi2
 5772              	.LVL544:
 5773 1a38 2B78     		ldrb	r3, [r5, #0]	@ zero_extendqisi2
 5774 1a3a 2278     		ldrb	r2, [r4, #0]	@ zero_extendqisi2
 5775 1a3c CB18     		adds	r3, r1, r3
 5776 1a3e DBB2     		uxtb	r3, r3
 5777 1a40 2B70     		strb	r3, [r5, #0]
 5778 1a42 9B18     		adds	r3, r3, r2
 5779 1a44 2370     		strb	r3, [r4, #0]
 5780 1a46 06F10807 		add	r7, r6, #8
 5781 1a4a 1348     		ldr	r0, .L346+8
 5782 1a4c FFF7FEFF 		bl	uart_transmit
 5783              	.LVL545:
 5784              	.LBE1062:
 5785              	.LBB1063:
 5786 1a50 7978     		ldrb	r1, [r7, #1]	@ zero_extendqisi2
 5787              	.LVL546:
 5788 1a52 2B78     		ldrb	r3, [r5, #0]	@ zero_extendqisi2
 5789 1a54 2278     		ldrb	r2, [r4, #0]	@ zero_extendqisi2
 5790 1a56 CB18     		adds	r3, r1, r3
 5791 1a58 DBB2     		uxtb	r3, r3
 5792 1a5a 2B70     		strb	r3, [r5, #0]
 5793 1a5c 9B18     		adds	r3, r3, r2
 5794 1a5e 2370     		strb	r3, [r4, #0]
 5795 1a60 0D48     		ldr	r0, .L346+8
 5796 1a62 FFF7FEFF 		bl	uart_transmit
 5797              	.LVL547:
 5798              	.LBE1063:
 5799              	.LBB1064:
 5800 1a66 B17A     		ldrb	r1, [r6, #10]	@ zero_extendqisi2
 5801              	.LVL548:
 5802 1a68 2B78     		ldrb	r3, [r5, #0]	@ zero_extendqisi2
 5803 1a6a 2278     		ldrb	r2, [r4, #0]	@ zero_extendqisi2
 5804 1a6c CB18     		adds	r3, r1, r3
 5805 1a6e DBB2     		uxtb	r3, r3
 5806 1a70 2B70     		strb	r3, [r5, #0]
 5807 1a72 9B18     		adds	r3, r3, r2
 5808 1a74 2370     		strb	r3, [r4, #0]
 5809 1a76 0848     		ldr	r0, .L346+8
 5810 1a78 FFF7FEFF 		bl	uart_transmit
 5811              	.LVL549:
 5812              	.LBE1064:
 5813 1a7c 2978     		ldrb	r1, [r5, #0]	@ zero_extendqisi2
 5814 1a7e 0648     		ldr	r0, .L346+8
 5815 1a80 FFF7FEFF 		bl	uart_transmit
 5816 1a84 0448     		ldr	r0, .L346+8
 5817 1a86 2178     		ldrb	r1, [r4, #0]	@ zero_extendqisi2
 5818 1a88 FFF7FEFF 		bl	uart_transmit
 5819 1a8c 1AE0     		b	.L166
 5820              	.L347:
 5821 1a8e 00BF     		.align	2
 5822              	.L346:
 5823 1a90 00000000 		.word	telemetry_mode_Fbw_DefaultChannel
 5824 1a94 00000000 		.word	gps
 5825 1a98 00000000 		.word	uart2
 5826 1a9c 00000000 		.word	downlink_nb_bytes
 5827 1aa0 00000000 		.word	downlink_nb_msgs
 5828 1aa4 00000000 		.word	ck_a
 5829 1aa8 00000000 		.word	ck_b
 5830 1aac 00000000 		.word	.LANCHOR38
 5831 1ab0 00000000 		.word	downlink_nb_ovrn
 5832 1ab4 00000000 		.word	.LANCHOR30
 5833 1ab8 4C000000 		.word	gps+76
 5834              	.L167:
 5835 1abc 314B     		ldr	r3, .L348
 5836 1abe 1A78     		ldrb	r2, [r3, #0]	@ zero_extendqisi2
 5837 1ac0 0132     		adds	r2, r2, #1
 5838 1ac2 1A70     		strb	r2, [r3, #0]
 5839              	.L166:
 5840 1ac4 304B     		ldr	r3, .L348+4
 5841 1ac6 1B78     		ldrb	r3, [r3, #0]	@ zero_extendqisi2
 5842 1ac8 1E2B     		cmp	r3, #30
 5843 1aca 6DD1     		bne	.L168
 5844 1acc 2F48     		ldr	r0, .L348+8
 5845 1ace 0B21     		movs	r1, #11
 5846 1ad0 FFF7FEFF 		bl	uart_check_free_space
 5847 1ad4 0028     		cmp	r0, #0
 5848 1ad6 00F06D81 		beq	.L171
 5849 1ada 2D4B     		ldr	r3, .L348+12
 5850              	.LBB1065:
 5851 1adc 2B48     		ldr	r0, .L348+8
 5852              	.LBE1065:
 5853 1ade 1A88     		ldrh	r2, [r3, #0]
 5854              	.LBB1066:
 5855 1ae0 9921     		movs	r1, #153
 5856              	.LBE1066:
 5857 1ae2 0B32     		adds	r2, r2, #11
 5858 1ae4 1A80     		strh	r2, [r3, #0]	@ movhi
 5859 1ae6 2B4B     		ldr	r3, .L348+16
 5860              	.LBB1067:
 5861 1ae8 2B4D     		ldr	r5, .L348+20
 5862              	.LBE1067:
 5863 1aea 1A88     		ldrh	r2, [r3, #0]
 5864              	.LBB1068:
 5865 1aec 2B4C     		ldr	r4, .L348+24
 5866              	.LBE1068:
 5867 1aee 0132     		adds	r2, r2, #1
 5868 1af0 1A80     		strh	r2, [r3, #0]	@ movhi
 5869              	.LBB1069:
 5870 1af2 FFF7FEFF 		bl	uart_transmit
 5871 1af6 2548     		ldr	r0, .L348+8
 5872 1af8 0B21     		movs	r1, #11
 5873 1afa FFF7FEFF 		bl	uart_transmit
 5874              	.LBE1069:
 5875 1afe 0C23     		movs	r3, #12
 5876 1b00 2B70     		strb	r3, [r5, #0]
 5877 1b02 0B33     		adds	r3, r3, #11
 5878 1b04 2370     		strb	r3, [r4, #0]
 5879 1b06 2148     		ldr	r0, .L348+8
 5880 1b08 0121     		movs	r1, #1
 5881 1b0a FFF7FEFF 		bl	uart_transmit
 5882 1b0e 2B78     		ldrb	r3, [r5, #0]	@ zero_extendqisi2
 5883 1b10 2278     		ldrb	r2, [r4, #0]	@ zero_extendqisi2
 5884 1b12 0E33     		adds	r3, r3, #14
 5885 1b14 DBB2     		uxtb	r3, r3
 5886              	.LBB1070:
 5887 1b16 224E     		ldr	r6, .L348+28
 5888              	.LBE1070:
 5889 1b18 2B70     		strb	r3, [r5, #0]
 5890 1b1a 9B18     		adds	r3, r3, r2
 5891 1b1c 2370     		strb	r3, [r4, #0]
 5892 1b1e 1B48     		ldr	r0, .L348+8
 5893 1b20 0E21     		movs	r1, #14
 5894 1b22 FFF7FEFF 		bl	uart_transmit
 5895              	.LBB1071:
 5896 1b26 3178     		ldrb	r1, [r6, #0]	@ zero_extendqisi2
 5897              	.LVL550:
 5898 1b28 2B78     		ldrb	r3, [r5, #0]	@ zero_extendqisi2
 5899 1b2a 2278     		ldrb	r2, [r4, #0]	@ zero_extendqisi2
 5900 1b2c CB18     		adds	r3, r1, r3
 5901 1b2e DBB2     		uxtb	r3, r3
 5902 1b30 2B70     		strb	r3, [r5, #0]
 5903 1b32 9B18     		adds	r3, r3, r2
 5904 1b34 2370     		strb	r3, [r4, #0]
 5905 1b36 1548     		ldr	r0, .L348+8
 5906 1b38 FFF7FEFF 		bl	uart_transmit
 5907              	.LVL551:
 5908              	.LBE1071:
 5909              	.LBB1072:
 5910 1b3c 7178     		ldrb	r1, [r6, #1]	@ zero_extendqisi2
 5911              	.LVL552:
 5912 1b3e 2B78     		ldrb	r3, [r5, #0]	@ zero_extendqisi2
 5913 1b40 2278     		ldrb	r2, [r4, #0]	@ zero_extendqisi2
 5914 1b42 CB18     		adds	r3, r1, r3
 5915 1b44 DBB2     		uxtb	r3, r3
 5916 1b46 2B70     		strb	r3, [r5, #0]
 5917 1b48 9B18     		adds	r3, r3, r2
 5918 1b4a 2370     		strb	r3, [r4, #0]
 5919 1b4c 0F48     		ldr	r0, .L348+8
 5920 1b4e FFF7FEFF 		bl	uart_transmit
 5921              	.LVL553:
 5922              	.LBE1072:
 5923              	.LBB1073:
 5924 1b52 B178     		ldrb	r1, [r6, #2]	@ zero_extendqisi2
 5925              	.LVL554:
 5926 1b54 2B78     		ldrb	r3, [r5, #0]	@ zero_extendqisi2
 5927 1b56 2278     		ldrb	r2, [r4, #0]	@ zero_extendqisi2
 5928 1b58 CB18     		adds	r3, r1, r3
 5929 1b5a DBB2     		uxtb	r3, r3
 5930 1b5c 2B70     		strb	r3, [r5, #0]
 5931 1b5e 9B18     		adds	r3, r3, r2
 5932 1b60 2370     		strb	r3, [r4, #0]
 5933 1b62 0A48     		ldr	r0, .L348+8
 5934 1b64 FFF7FEFF 		bl	uart_transmit
 5935              	.LVL555:
 5936              	.LBE1073:
 5937              	.LBB1074:
 5938 1b68 F178     		ldrb	r1, [r6, #3]	@ zero_extendqisi2
 5939              	.LVL556:
 5940 1b6a 2B78     		ldrb	r3, [r5, #0]	@ zero_extendqisi2
 5941 1b6c 2278     		ldrb	r2, [r4, #0]	@ zero_extendqisi2
 5942 1b6e CB18     		adds	r3, r1, r3
 5943 1b70 DBB2     		uxtb	r3, r3
 5944 1b72 2B70     		strb	r3, [r5, #0]
 5945 1b74 9B18     		adds	r3, r3, r2
 5946 1b76 2370     		strb	r3, [r4, #0]
 5947 1b78 0448     		ldr	r0, .L348+8
 5948 1b7a FFF7FEFF 		bl	uart_transmit
 5949              	.LVL557:
 5950              	.LBE1074:
 5951              	.LBB1075:
 5952 1b7e 094B     		ldr	r3, .L348+32
 5953 1b80 1978     		ldrb	r1, [r3, #0]	@ zero_extendqisi2
 5954              	.LVL558:
 5955 1b82 EFE0     		b	.L308
 5956              	.L349:
 5957              		.align	2
 5958              	.L348:
 5959 1b84 00000000 		.word	downlink_nb_ovrn
 5960 1b88 00000000 		.word	.LANCHOR31
 5961 1b8c 00000000 		.word	uart2
 5962 1b90 00000000 		.word	downlink_nb_bytes
 5963 1b94 00000000 		.word	downlink_nb_msgs
 5964 1b98 00000000 		.word	ck_a
 5965 1b9c 00000000 		.word	ck_b
 5966 1ba0 00000000 		.word	v_ctl_auto_throttle_sum_err
 5967 1ba4 00000000 		.word	v_ctl_auto_throttle_submode
 5968              	.LVL559:
 5969              	.L168:
 5970              	.LBE1075:
 5971 1ba8 242B     		cmp	r3, #36
 5972 1baa 40F00781 		bne	.L170
 5973 1bae 774B     		ldr	r3, .L350
 5974 1bb0 1B78     		ldrb	r3, [r3, #0]	@ zero_extendqisi2
 5975 1bb2 002B     		cmp	r3, #0
 5976 1bb4 00F00281 		beq	.L170
 5977 1bb8 7548     		ldr	r0, .L350+4
 5978 1bba 1621     		movs	r1, #22
 5979 1bbc FFF7FEFF 		bl	uart_check_free_space
 5980 1bc0 0028     		cmp	r0, #0
 5981 1bc2 00F0F780 		beq	.L171
 5982 1bc6 734B     		ldr	r3, .L350+8
 5983              	.LBB1076:
 5984 1bc8 9921     		movs	r1, #153
 5985              	.LBE1076:
 5986 1bca 1A88     		ldrh	r2, [r3, #0]
 5987              	.LBB1077:
 5988 1bcc 7048     		ldr	r0, .L350+4
 5989              	.LBE1077:
 5990 1bce 1632     		adds	r2, r2, #22
 5991 1bd0 1A80     		strh	r2, [r3, #0]	@ movhi
 5992 1bd2 714B     		ldr	r3, .L350+12
 5993              	.LBB1078:
 5994 1bd4 714D     		ldr	r5, .L350+16
 5995              	.LBE1078:
 5996 1bd6 1A88     		ldrh	r2, [r3, #0]
 5997              	.LBB1079:
 5998 1bd8 714C     		ldr	r4, .L350+20
 5999              	.LBE1079:
 6000 1bda 0132     		adds	r2, r2, #1
 6001 1bdc 1A80     		strh	r2, [r3, #0]	@ movhi
 6002              	.LBB1080:
 6003 1bde FFF7FEFF 		bl	uart_transmit
 6004 1be2 1621     		movs	r1, #22
 6005 1be4 6A48     		ldr	r0, .L350+4
 6006 1be6 FFF7FEFF 		bl	uart_transmit
 6007              	.LBE1080:
 6008 1bea 1723     		movs	r3, #23
 6009 1bec 2B70     		strb	r3, [r5, #0]
 6010 1bee 1633     		adds	r3, r3, #22
 6011 1bf0 0121     		movs	r1, #1
 6012 1bf2 2370     		strb	r3, [r4, #0]
 6013 1bf4 6648     		ldr	r0, .L350+4
 6014 1bf6 FFF7FEFF 		bl	uart_transmit
 6015 1bfa 2B78     		ldrb	r3, [r5, #0]	@ zero_extendqisi2
 6016 1bfc 2278     		ldrb	r2, [r4, #0]	@ zero_extendqisi2
 6017 1bfe 1B33     		adds	r3, r3, #27
 6018 1c00 DBB2     		uxtb	r3, r3
 6019              	.LBB1081:
 6020 1c02 684E     		ldr	r6, .L350+24
 6021              	.LBE1081:
 6022 1c04 2B70     		strb	r3, [r5, #0]
 6023 1c06 9B18     		adds	r3, r3, r2
 6024 1c08 1B21     		movs	r1, #27
 6025 1c0a 2370     		strb	r3, [r4, #0]
 6026 1c0c 6048     		ldr	r0, .L350+4
 6027 1c0e FFF7FEFF 		bl	uart_transmit
 6028              	.LBB1082:
 6029 1c12 3178     		ldrb	r1, [r6, #0]	@ zero_extendqisi2
 6030              	.LVL560:
 6031 1c14 2B78     		ldrb	r3, [r5, #0]	@ zero_extendqisi2
 6032 1c16 2278     		ldrb	r2, [r4, #0]	@ zero_extendqisi2
 6033 1c18 CB18     		adds	r3, r1, r3
 6034 1c1a DBB2     		uxtb	r3, r3
 6035 1c1c 2B70     		strb	r3, [r5, #0]
 6036 1c1e 9B18     		adds	r3, r3, r2
 6037 1c20 2370     		strb	r3, [r4, #0]
 6038 1c22 5B48     		ldr	r0, .L350+4
 6039 1c24 FFF7FEFF 		bl	uart_transmit
 6040              	.LVL561:
 6041              	.LBE1082:
 6042              	.LBB1083:
 6043 1c28 7178     		ldrb	r1, [r6, #1]	@ zero_extendqisi2
 6044              	.LVL562:
 6045 1c2a 2B78     		ldrb	r3, [r5, #0]	@ zero_extendqisi2
 6046 1c2c 2278     		ldrb	r2, [r4, #0]	@ zero_extendqisi2
 6047 1c2e CB18     		adds	r3, r1, r3
 6048 1c30 DBB2     		uxtb	r3, r3
 6049 1c32 2B70     		strb	r3, [r5, #0]
 6050 1c34 9B18     		adds	r3, r3, r2
 6051 1c36 2370     		strb	r3, [r4, #0]
 6052 1c38 5548     		ldr	r0, .L350+4
 6053 1c3a FFF7FEFF 		bl	uart_transmit
 6054              	.LVL563:
 6055              	.LBE1083:
 6056              	.LBB1084:
 6057 1c3e B178     		ldrb	r1, [r6, #2]	@ zero_extendqisi2
 6058              	.LVL564:
 6059 1c40 2B78     		ldrb	r3, [r5, #0]	@ zero_extendqisi2
 6060 1c42 2278     		ldrb	r2, [r4, #0]	@ zero_extendqisi2
 6061 1c44 CB18     		adds	r3, r1, r3
 6062 1c46 DBB2     		uxtb	r3, r3
 6063 1c48 2B70     		strb	r3, [r5, #0]
 6064 1c4a 9B18     		adds	r3, r3, r2
 6065 1c4c 2370     		strb	r3, [r4, #0]
 6066 1c4e 5048     		ldr	r0, .L350+4
 6067 1c50 FFF7FEFF 		bl	uart_transmit
 6068              	.LVL565:
 6069              	.LBE1084:
 6070              	.LBB1085:
 6071 1c54 F178     		ldrb	r1, [r6, #3]	@ zero_extendqisi2
 6072              	.LVL566:
 6073 1c56 2B78     		ldrb	r3, [r5, #0]	@ zero_extendqisi2
 6074 1c58 2278     		ldrb	r2, [r4, #0]	@ zero_extendqisi2
 6075 1c5a CB18     		adds	r3, r1, r3
 6076 1c5c DBB2     		uxtb	r3, r3
 6077              	.LBE1085:
 6078              	.LBB1086:
 6079 1c5e 524E     		ldr	r6, .L350+28
 6080              	.LBE1086:
 6081              	.LBB1087:
 6082 1c60 2B70     		strb	r3, [r5, #0]
 6083 1c62 9B18     		adds	r3, r3, r2
 6084 1c64 2370     		strb	r3, [r4, #0]
 6085 1c66 4A48     		ldr	r0, .L350+4
 6086 1c68 FFF7FEFF 		bl	uart_transmit
 6087              	.LVL567:
 6088              	.LBE1087:
 6089              	.LBB1088:
 6090 1c6c 3178     		ldrb	r1, [r6, #0]	@ zero_extendqisi2
 6091              	.LVL568:
 6092 1c6e 2B78     		ldrb	r3, [r5, #0]	@ zero_extendqisi2
 6093 1c70 2278     		ldrb	r2, [r4, #0]	@ zero_extendqisi2
 6094 1c72 CB18     		adds	r3, r1, r3
 6095 1c74 DBB2     		uxtb	r3, r3
 6096 1c76 2B70     		strb	r3, [r5, #0]
 6097 1c78 9B18     		adds	r3, r3, r2
 6098 1c7a 2370     		strb	r3, [r4, #0]
 6099 1c7c 4448     		ldr	r0, .L350+4
 6100 1c7e FFF7FEFF 		bl	uart_transmit
 6101              	.LVL569:
 6102              	.LBE1088:
 6103              	.LBB1089:
 6104 1c82 7178     		ldrb	r1, [r6, #1]	@ zero_extendqisi2
 6105              	.LVL570:
 6106 1c84 2B78     		ldrb	r3, [r5, #0]	@ zero_extendqisi2
 6107 1c86 2278     		ldrb	r2, [r4, #0]	@ zero_extendqisi2
 6108 1c88 CB18     		adds	r3, r1, r3
 6109 1c8a DBB2     		uxtb	r3, r3
 6110 1c8c 2B70     		strb	r3, [r5, #0]
 6111 1c8e 9B18     		adds	r3, r3, r2
 6112 1c90 2370     		strb	r3, [r4, #0]
 6113 1c92 3F48     		ldr	r0, .L350+4
 6114 1c94 FFF7FEFF 		bl	uart_transmit
 6115              	.LVL571:
 6116              	.LBE1089:
 6117              	.LBB1090:
 6118 1c98 B178     		ldrb	r1, [r6, #2]	@ zero_extendqisi2
 6119              	.LVL572:
 6120 1c9a 2B78     		ldrb	r3, [r5, #0]	@ zero_extendqisi2
 6121 1c9c 2278     		ldrb	r2, [r4, #0]	@ zero_extendqisi2
 6122 1c9e CB18     		adds	r3, r1, r3
 6123 1ca0 DBB2     		uxtb	r3, r3
 6124 1ca2 2B70     		strb	r3, [r5, #0]
 6125 1ca4 9B18     		adds	r3, r3, r2
 6126 1ca6 2370     		strb	r3, [r4, #0]
 6127 1ca8 3948     		ldr	r0, .L350+4
 6128 1caa FFF7FEFF 		bl	uart_transmit
 6129              	.LVL573:
 6130              	.LBE1090:
 6131              	.LBB1091:
 6132 1cae F178     		ldrb	r1, [r6, #3]	@ zero_extendqisi2
 6133              	.LVL574:
 6134 1cb0 2B78     		ldrb	r3, [r5, #0]	@ zero_extendqisi2
 6135 1cb2 2278     		ldrb	r2, [r4, #0]	@ zero_extendqisi2
 6136 1cb4 CB18     		adds	r3, r1, r3
 6137 1cb6 DBB2     		uxtb	r3, r3
 6138              	.LBE1091:
 6139              	.LBB1092:
 6140 1cb8 3C4E     		ldr	r6, .L350+32
 6141              	.LBE1092:
 6142              	.LBB1093:
 6143 1cba 2B70     		strb	r3, [r5, #0]
 6144 1cbc 9B18     		adds	r3, r3, r2
 6145 1cbe 2370     		strb	r3, [r4, #0]
 6146 1cc0 3348     		ldr	r0, .L350+4
 6147 1cc2 FFF7FEFF 		bl	uart_transmit
 6148              	.LVL575:
 6149              	.LBE1093:
 6150              	.LBB1094:
 6151 1cc6 3178     		ldrb	r1, [r6, #0]	@ zero_extendqisi2
 6152              	.LVL576:
 6153 1cc8 2B78     		ldrb	r3, [r5, #0]	@ zero_extendqisi2
 6154 1cca 2278     		ldrb	r2, [r4, #0]	@ zero_extendqisi2
 6155 1ccc CB18     		adds	r3, r1, r3
 6156 1cce DBB2     		uxtb	r3, r3
 6157 1cd0 2B70     		strb	r3, [r5, #0]
 6158 1cd2 9B18     		adds	r3, r3, r2
 6159 1cd4 2370     		strb	r3, [r4, #0]
 6160 1cd6 2E48     		ldr	r0, .L350+4
 6161 1cd8 FFF7FEFF 		bl	uart_transmit
 6162              	.LVL577:
 6163              	.LBE1094:
 6164              	.LBB1095:
 6165 1cdc 7178     		ldrb	r1, [r6, #1]	@ zero_extendqisi2
 6166              	.LVL578:
 6167 1cde 2B78     		ldrb	r3, [r5, #0]	@ zero_extendqisi2
 6168 1ce0 2278     		ldrb	r2, [r4, #0]	@ zero_extendqisi2
 6169 1ce2 CB18     		adds	r3, r1, r3
 6170 1ce4 DBB2     		uxtb	r3, r3
 6171 1ce6 2B70     		strb	r3, [r5, #0]
 6172 1ce8 9B18     		adds	r3, r3, r2
 6173 1cea 2370     		strb	r3, [r4, #0]
 6174 1cec 2848     		ldr	r0, .L350+4
 6175 1cee FFF7FEFF 		bl	uart_transmit
 6176              	.LVL579:
 6177              	.LBE1095:
 6178              	.LBB1096:
 6179 1cf2 B178     		ldrb	r1, [r6, #2]	@ zero_extendqisi2
 6180              	.LVL580:
 6181 1cf4 2B78     		ldrb	r3, [r5, #0]	@ zero_extendqisi2
 6182 1cf6 2278     		ldrb	r2, [r4, #0]	@ zero_extendqisi2
 6183 1cf8 CB18     		adds	r3, r1, r3
 6184 1cfa DBB2     		uxtb	r3, r3
 6185 1cfc 2B70     		strb	r3, [r5, #0]
 6186 1cfe 9B18     		adds	r3, r3, r2
 6187 1d00 2370     		strb	r3, [r4, #0]
 6188 1d02 2348     		ldr	r0, .L350+4
 6189 1d04 FFF7FEFF 		bl	uart_transmit
 6190              	.LVL581:
 6191              	.LBE1096:
 6192              	.LBB1097:
 6193 1d08 F178     		ldrb	r1, [r6, #3]	@ zero_extendqisi2
 6194              	.LVL582:
 6195 1d0a 2B78     		ldrb	r3, [r5, #0]	@ zero_extendqisi2
 6196 1d0c 2278     		ldrb	r2, [r4, #0]	@ zero_extendqisi2
 6197 1d0e CB18     		adds	r3, r1, r3
 6198 1d10 DBB2     		uxtb	r3, r3
 6199              	.LBE1097:
 6200              	.LBB1098:
 6201 1d12 274E     		ldr	r6, .L350+36
 6202              	.LBE1098:
 6203              	.LBB1099:
 6204 1d14 2B70     		strb	r3, [r5, #0]
 6205 1d16 9B18     		adds	r3, r3, r2
 6206 1d18 2370     		strb	r3, [r4, #0]
 6207 1d1a 1D48     		ldr	r0, .L350+4
 6208 1d1c FFF7FEFF 		bl	uart_transmit
 6209              	.LVL583:
 6210              	.LBE1099:
 6211              	.LBB1100:
 6212 1d20 3178     		ldrb	r1, [r6, #0]	@ zero_extendqisi2
 6213              	.LVL584:
 6214 1d22 2B78     		ldrb	r3, [r5, #0]	@ zero_extendqisi2
 6215 1d24 2278     		ldrb	r2, [r4, #0]	@ zero_extendqisi2
 6216 1d26 CB18     		adds	r3, r1, r3
 6217 1d28 DBB2     		uxtb	r3, r3
 6218 1d2a 2B70     		strb	r3, [r5, #0]
 6219 1d2c 9B18     		adds	r3, r3, r2
 6220 1d2e 2370     		strb	r3, [r4, #0]
 6221 1d30 1748     		ldr	r0, .L350+4
 6222 1d32 FFF7FEFF 		bl	uart_transmit
 6223              	.LVL585:
 6224              	.LBE1100:
 6225              	.LBB1101:
 6226 1d36 7178     		ldrb	r1, [r6, #1]	@ zero_extendqisi2
 6227              	.LVL586:
 6228 1d38 2B78     		ldrb	r3, [r5, #0]	@ zero_extendqisi2
 6229 1d3a 2278     		ldrb	r2, [r4, #0]	@ zero_extendqisi2
 6230 1d3c CB18     		adds	r3, r1, r3
 6231 1d3e DBB2     		uxtb	r3, r3
 6232 1d40 2B70     		strb	r3, [r5, #0]
 6233 1d42 9B18     		adds	r3, r3, r2
 6234 1d44 2370     		strb	r3, [r4, #0]
 6235 1d46 1248     		ldr	r0, .L350+4
 6236 1d48 FFF7FEFF 		bl	uart_transmit
 6237              	.LVL587:
 6238              	.LBE1101:
 6239              	.LBB1102:
 6240 1d4c B178     		ldrb	r1, [r6, #2]	@ zero_extendqisi2
 6241              	.LVL588:
 6242 1d4e 2B78     		ldrb	r3, [r5, #0]	@ zero_extendqisi2
 6243 1d50 2278     		ldrb	r2, [r4, #0]	@ zero_extendqisi2
 6244 1d52 CB18     		adds	r3, r1, r3
 6245 1d54 DBB2     		uxtb	r3, r3
 6246 1d56 2B70     		strb	r3, [r5, #0]
 6247 1d58 9B18     		adds	r3, r3, r2
 6248 1d5a 2370     		strb	r3, [r4, #0]
 6249 1d5c 0C48     		ldr	r0, .L350+4
 6250 1d5e FFF7FEFF 		bl	uart_transmit
 6251              	.LVL589:
 6252              	.LBE1102:
 6253              	.LBB1103:
 6254 1d62 F178     		ldrb	r1, [r6, #3]	@ zero_extendqisi2
 6255              	.LVL590:
 6256              	.L308:
 6257 1d64 2B78     		ldrb	r3, [r5, #0]	@ zero_extendqisi2
 6258 1d66 2278     		ldrb	r2, [r4, #0]	@ zero_extendqisi2
 6259 1d68 CB18     		adds	r3, r1, r3
 6260 1d6a DBB2     		uxtb	r3, r3
 6261 1d6c 2B70     		strb	r3, [r5, #0]
 6262 1d6e 9B18     		adds	r3, r3, r2
 6263 1d70 2370     		strb	r3, [r4, #0]
 6264 1d72 0748     		ldr	r0, .L350+4
 6265 1d74 FFF7FEFF 		bl	uart_transmit
 6266              	.LVL591:
 6267              	.LBE1103:
 6268 1d78 2978     		ldrb	r1, [r5, #0]	@ zero_extendqisi2
 6269 1d7a 0548     		ldr	r0, .L350+4
 6270 1d7c FFF7FEFF 		bl	uart_transmit
 6271 1d80 0348     		ldr	r0, .L350+4
 6272 1d82 2178     		ldrb	r1, [r4, #0]	@ zero_extendqisi2
 6273 1d84 FFF7FEFF 		bl	uart_transmit
 6274 1d88 18E0     		b	.L170
 6275              	.L351:
 6276 1d8a 00BF     		.align	2
 6277              	.L350:
 6278 1d8c 00000000 		.word	nav_survey_active
 6279 1d90 00000000 		.word	uart2
 6280 1d94 00000000 		.word	downlink_nb_bytes
 6281 1d98 00000000 		.word	downlink_nb_msgs
 6282 1d9c 00000000 		.word	ck_a
 6283 1da0 00000000 		.word	ck_b
 6284 1da4 00000000 		.word	nav_survey_east
 6285 1da8 00000000 		.word	nav_survey_north
 6286 1dac 00000000 		.word	nav_survey_west
 6287 1db0 00000000 		.word	nav_survey_south
 6288              	.L171:
 6289 1db4 7D4B     		ldr	r3, .L352
 6290 1db6 1A78     		ldrb	r2, [r3, #0]	@ zero_extendqisi2
 6291 1db8 0132     		adds	r2, r2, #1
 6292 1dba 1A70     		strb	r2, [r3, #0]
 6293              	.L170:
 6294 1dbc 7C4B     		ldr	r3, .L352+4
 6295 1dbe 1B78     		ldrb	r3, [r3, #0]	@ zero_extendqisi2
 6296 1dc0 2A2B     		cmp	r3, #42
 6297 1dc2 40F00F81 		bne	.L172
 6298              	.LBB1104:
 6299 1dc6 7B4B     		ldr	r3, .L352+8
 6300 1dc8 1868     		ldr	r0, [r3, #0]	@ float
 6301 1dca FFF7FEFF 		bl	__aeabi_f2iz
 6302 1dce 7A4B     		ldr	r3, .L352+12
 6303 1dd0 ADF80C00 		strh	r0, [sp, #12]	@ movhi
 6304              	.LVL592:
 6305 1dd4 1878     		ldrb	r0, [r3, #0]	@ zero_extendqisi2
 6306 1dd6 FFF7FEFF 		bl	__aeabi_ui2f
 6307 1dda 7849     		ldr	r1, .L352+16
 6308 1ddc FFF7FEFF 		bl	__aeabi_fdiv
 6309 1de0 774B     		ldr	r3, .L352+20
 6310 1de2 0446     		mov	r4, r0
 6311 1de4 0290     		str	r0, [sp, #8]	@ float
 6312              	.LVL593:
 6313 1de6 1868     		ldr	r0, [r3, #0]
 6314 1de8 FFF7FEFF 		bl	__aeabi_i2f
 6315 1dec 7549     		ldr	r1, .L352+24
 6316 1dee FFF7FEFF 		bl	__aeabi_fdiv
 6317 1df2 0146     		mov	r1, r0
 6318 1df4 0090     		str	r0, [sp, #0]	@ float
 6319              	.LVL594:
 6320 1df6 2046     		mov	r0, r4
 6321 1df8 FFF7FEFF 		bl	__aeabi_fmul
 6322 1dfc 1421     		movs	r1, #20
 6323 1dfe 0190     		str	r0, [sp, #4]	@ float
 6324              	.LVL595:
 6325 1e00 7148     		ldr	r0, .L352+28
 6326 1e02 FFF7FEFF 		bl	uart_check_free_space
 6327 1e06 0028     		cmp	r0, #0
 6328 1e08 00F0E880 		beq	.L173
 6329 1e0c 6F4B     		ldr	r3, .L352+32
 6330              	.LBB1105:
 6331 1e0e 9921     		movs	r1, #153
 6332              	.LBE1105:
 6333 1e10 1A88     		ldrh	r2, [r3, #0]
 6334              	.LBB1106:
 6335 1e12 6D48     		ldr	r0, .L352+28
 6336              	.LBE1106:
 6337 1e14 1432     		adds	r2, r2, #20
 6338 1e16 1A80     		strh	r2, [r3, #0]	@ movhi
 6339 1e18 6D4B     		ldr	r3, .L352+36
 6340              	.LBB1107:
 6341 1e1a 6E4D     		ldr	r5, .L352+40
 6342              	.LBE1107:
 6343 1e1c 1A88     		ldrh	r2, [r3, #0]
 6344              	.LBB1108:
 6345 1e1e 6E4C     		ldr	r4, .L352+44
 6346              	.LBE1108:
 6347 1e20 0132     		adds	r2, r2, #1
 6348 1e22 1A80     		strh	r2, [r3, #0]	@ movhi
 6349              	.LBB1109:
 6350 1e24 FFF7FEFF 		bl	uart_transmit
 6351 1e28 1421     		movs	r1, #20
 6352 1e2a 6748     		ldr	r0, .L352+28
 6353 1e2c FFF7FEFF 		bl	uart_transmit
 6354              	.LBE1109:
 6355 1e30 1523     		movs	r3, #21
 6356 1e32 2B70     		strb	r3, [r5, #0]
 6357 1e34 1433     		adds	r3, r3, #20
 6358 1e36 2370     		strb	r3, [r4, #0]
 6359 1e38 0121     		movs	r1, #1
 6360 1e3a 6348     		ldr	r0, .L352+28
 6361 1e3c FFF7FEFF 		bl	uart_transmit
 6362 1e40 2B78     		ldrb	r3, [r5, #0]	@ zero_extendqisi2
 6363 1e42 2278     		ldrb	r2, [r4, #0]	@ zero_extendqisi2
 6364 1e44 2533     		adds	r3, r3, #37
 6365 1e46 DBB2     		uxtb	r3, r3
 6366 1e48 2B70     		strb	r3, [r5, #0]
 6367 1e4a 9B18     		adds	r3, r3, r2
 6368 1e4c 2370     		strb	r3, [r4, #0]
 6369 1e4e 2521     		movs	r1, #37
 6370 1e50 5D48     		ldr	r0, .L352+28
 6371 1e52 FFF7FEFF 		bl	uart_transmit
 6372              	.LBB1110:
 6373 1e56 9DF80810 		ldrb	r1, [sp, #8]	@ zero_extendqisi2
 6374              	.LVL596:
 6375 1e5a 2B78     		ldrb	r3, [r5, #0]	@ zero_extendqisi2
 6376 1e5c 2278     		ldrb	r2, [r4, #0]	@ zero_extendqisi2
 6377 1e5e CB18     		adds	r3, r1, r3
 6378 1e60 DBB2     		uxtb	r3, r3
 6379 1e62 2B70     		strb	r3, [r5, #0]
 6380 1e64 9B18     		adds	r3, r3, r2
 6381 1e66 02AE     		add	r6, sp, #8
 6382 1e68 2370     		strb	r3, [r4, #0]
 6383 1e6a 5748     		ldr	r0, .L352+28
 6384 1e6c FFF7FEFF 		bl	uart_transmit
 6385              	.LVL597:
 6386              	.LBE1110:
 6387              	.LBB1111:
 6388 1e70 7178     		ldrb	r1, [r6, #1]	@ zero_extendqisi2
 6389              	.LVL598:
 6390 1e72 2B78     		ldrb	r3, [r5, #0]	@ zero_extendqisi2
 6391 1e74 2278     		ldrb	r2, [r4, #0]	@ zero_extendqisi2
 6392 1e76 CB18     		adds	r3, r1, r3
 6393 1e78 DBB2     		uxtb	r3, r3
 6394 1e7a 2B70     		strb	r3, [r5, #0]
 6395 1e7c 9B18     		adds	r3, r3, r2
 6396 1e7e 2370     		strb	r3, [r4, #0]
 6397 1e80 5148     		ldr	r0, .L352+28
 6398 1e82 FFF7FEFF 		bl	uart_transmit
 6399              	.LVL599:
 6400              	.LBE1111:
 6401              	.LBB1112:
 6402 1e86 B178     		ldrb	r1, [r6, #2]	@ zero_extendqisi2
 6403              	.LVL600:
 6404 1e88 2B78     		ldrb	r3, [r5, #0]	@ zero_extendqisi2
 6405 1e8a 2278     		ldrb	r2, [r4, #0]	@ zero_extendqisi2
 6406 1e8c CB18     		adds	r3, r1, r3
 6407 1e8e DBB2     		uxtb	r3, r3
 6408 1e90 2B70     		strb	r3, [r5, #0]
 6409 1e92 9B18     		adds	r3, r3, r2
 6410 1e94 2370     		strb	r3, [r4, #0]
 6411 1e96 4C48     		ldr	r0, .L352+28
 6412 1e98 FFF7FEFF 		bl	uart_transmit
 6413              	.LVL601:
 6414              	.LBE1112:
 6415              	.LBB1113:
 6416 1e9c F178     		ldrb	r1, [r6, #3]	@ zero_extendqisi2
 6417              	.LVL602:
 6418 1e9e 2B78     		ldrb	r3, [r5, #0]	@ zero_extendqisi2
 6419 1ea0 2278     		ldrb	r2, [r4, #0]	@ zero_extendqisi2
 6420 1ea2 CB18     		adds	r3, r1, r3
 6421 1ea4 DBB2     		uxtb	r3, r3
 6422 1ea6 2B70     		strb	r3, [r5, #0]
 6423 1ea8 9B18     		adds	r3, r3, r2
 6424 1eaa 2370     		strb	r3, [r4, #0]
 6425 1eac 4648     		ldr	r0, .L352+28
 6426 1eae FFF7FEFF 		bl	uart_transmit
 6427              	.LVL603:
 6428              	.LBE1113:
 6429              	.LBB1114:
 6430 1eb2 9DF80010 		ldrb	r1, [sp, #0]	@ zero_extendqisi2
 6431              	.LVL604:
 6432 1eb6 2B78     		ldrb	r3, [r5, #0]	@ zero_extendqisi2
 6433 1eb8 2278     		ldrb	r2, [r4, #0]	@ zero_extendqisi2
 6434 1eba CB18     		adds	r3, r1, r3
 6435 1ebc DBB2     		uxtb	r3, r3
 6436 1ebe 2B70     		strb	r3, [r5, #0]
 6437 1ec0 9B18     		adds	r3, r3, r2
 6438 1ec2 6E46     		mov	r6, sp
 6439 1ec4 2370     		strb	r3, [r4, #0]
 6440 1ec6 4048     		ldr	r0, .L352+28
 6441 1ec8 FFF7FEFF 		bl	uart_transmit
 6442              	.LVL605:
 6443              	.LBE1114:
 6444              	.LBB1115:
 6445 1ecc 7178     		ldrb	r1, [r6, #1]	@ zero_extendqisi2
 6446              	.LVL606:
 6447 1ece 2B78     		ldrb	r3, [r5, #0]	@ zero_extendqisi2
 6448 1ed0 2278     		ldrb	r2, [r4, #0]	@ zero_extendqisi2
 6449 1ed2 CB18     		adds	r3, r1, r3
 6450 1ed4 DBB2     		uxtb	r3, r3
 6451 1ed6 2B70     		strb	r3, [r5, #0]
 6452 1ed8 9B18     		adds	r3, r3, r2
 6453 1eda 2370     		strb	r3, [r4, #0]
 6454 1edc 3A48     		ldr	r0, .L352+28
 6455 1ede FFF7FEFF 		bl	uart_transmit
 6456              	.LVL607:
 6457              	.LBE1115:
 6458              	.LBB1116:
 6459 1ee2 B178     		ldrb	r1, [r6, #2]	@ zero_extendqisi2
 6460              	.LVL608:
 6461 1ee4 2B78     		ldrb	r3, [r5, #0]	@ zero_extendqisi2
 6462 1ee6 2278     		ldrb	r2, [r4, #0]	@ zero_extendqisi2
 6463 1ee8 CB18     		adds	r3, r1, r3
 6464 1eea DBB2     		uxtb	r3, r3
 6465 1eec 2B70     		strb	r3, [r5, #0]
 6466 1eee 9B18     		adds	r3, r3, r2
 6467 1ef0 2370     		strb	r3, [r4, #0]
 6468 1ef2 3548     		ldr	r0, .L352+28
 6469 1ef4 FFF7FEFF 		bl	uart_transmit
 6470              	.LVL609:
 6471              	.LBE1116:
 6472              	.LBB1117:
 6473 1ef8 F178     		ldrb	r1, [r6, #3]	@ zero_extendqisi2
 6474              	.LVL610:
 6475 1efa 2B78     		ldrb	r3, [r5, #0]	@ zero_extendqisi2
 6476 1efc 2278     		ldrb	r2, [r4, #0]	@ zero_extendqisi2
 6477 1efe CB18     		adds	r3, r1, r3
 6478 1f00 DBB2     		uxtb	r3, r3
 6479 1f02 2B70     		strb	r3, [r5, #0]
 6480 1f04 9B18     		adds	r3, r3, r2
 6481 1f06 2370     		strb	r3, [r4, #0]
 6482 1f08 2F48     		ldr	r0, .L352+28
 6483 1f0a FFF7FEFF 		bl	uart_transmit
 6484              	.LVL611:
 6485              	.LBE1117:
 6486              	.LBB1118:
 6487 1f0e 9DF80C10 		ldrb	r1, [sp, #12]	@ zero_extendqisi2
 6488              	.LVL612:
 6489 1f12 2B78     		ldrb	r3, [r5, #0]	@ zero_extendqisi2
 6490 1f14 2278     		ldrb	r2, [r4, #0]	@ zero_extendqisi2
 6491 1f16 CB18     		adds	r3, r1, r3
 6492 1f18 DBB2     		uxtb	r3, r3
 6493 1f1a 2B70     		strb	r3, [r5, #0]
 6494 1f1c 9B18     		adds	r3, r3, r2
 6495 1f1e 2370     		strb	r3, [r4, #0]
 6496 1f20 2948     		ldr	r0, .L352+28
 6497 1f22 FFF7FEFF 		bl	uart_transmit
 6498              	.LVL613:
 6499              	.LBE1118:
 6500              	.LBB1119:
 6501 1f26 03AB     		add	r3, sp, #12
 6502 1f28 5978     		ldrb	r1, [r3, #1]	@ zero_extendqisi2
 6503              	.LVL614:
 6504 1f2a 2B78     		ldrb	r3, [r5, #0]	@ zero_extendqisi2
 6505 1f2c 2278     		ldrb	r2, [r4, #0]	@ zero_extendqisi2
 6506 1f2e CB18     		adds	r3, r1, r3
 6507 1f30 DBB2     		uxtb	r3, r3
 6508 1f32 2B70     		strb	r3, [r5, #0]
 6509 1f34 9B18     		adds	r3, r3, r2
 6510 1f36 2370     		strb	r3, [r4, #0]
 6511 1f38 2348     		ldr	r0, .L352+28
 6512 1f3a FFF7FEFF 		bl	uart_transmit
 6513              	.LVL615:
 6514              	.LBE1119:
 6515              	.LBB1120:
 6516 1f3e 9DF80410 		ldrb	r1, [sp, #4]	@ zero_extendqisi2
 6517              	.LVL616:
 6518 1f42 2B78     		ldrb	r3, [r5, #0]	@ zero_extendqisi2
 6519 1f44 2278     		ldrb	r2, [r4, #0]	@ zero_extendqisi2
 6520 1f46 CB18     		adds	r3, r1, r3
 6521 1f48 DBB2     		uxtb	r3, r3
 6522 1f4a 2B70     		strb	r3, [r5, #0]
 6523 1f4c 9B18     		adds	r3, r3, r2
 6524 1f4e 01AE     		add	r6, sp, #4
 6525 1f50 2370     		strb	r3, [r4, #0]
 6526 1f52 1D48     		ldr	r0, .L352+28
 6527 1f54 FFF7FEFF 		bl	uart_transmit
 6528              	.LVL617:
 6529              	.LBE1120:
 6530              	.LBB1121:
 6531 1f58 7178     		ldrb	r1, [r6, #1]	@ zero_extendqisi2
 6532              	.LVL618:
 6533 1f5a 2B78     		ldrb	r3, [r5, #0]	@ zero_extendqisi2
 6534 1f5c 2278     		ldrb	r2, [r4, #0]	@ zero_extendqisi2
 6535 1f5e CB18     		adds	r3, r1, r3
 6536 1f60 DBB2     		uxtb	r3, r3
 6537 1f62 2B70     		strb	r3, [r5, #0]
 6538 1f64 9B18     		adds	r3, r3, r2
 6539 1f66 2370     		strb	r3, [r4, #0]
 6540 1f68 1748     		ldr	r0, .L352+28
 6541 1f6a FFF7FEFF 		bl	uart_transmit
 6542              	.LVL619:
 6543              	.LBE1121:
 6544              	.LBB1122:
 6545 1f6e B178     		ldrb	r1, [r6, #2]	@ zero_extendqisi2
 6546              	.LVL620:
 6547 1f70 2B78     		ldrb	r3, [r5, #0]	@ zero_extendqisi2
 6548 1f72 2278     		ldrb	r2, [r4, #0]	@ zero_extendqisi2
 6549 1f74 CB18     		adds	r3, r1, r3
 6550 1f76 DBB2     		uxtb	r3, r3
 6551 1f78 2B70     		strb	r3, [r5, #0]
 6552 1f7a 9B18     		adds	r3, r3, r2
 6553 1f7c 2370     		strb	r3, [r4, #0]
 6554 1f7e 1248     		ldr	r0, .L352+28
 6555 1f80 FFF7FEFF 		bl	uart_transmit
 6556              	.LVL621:
 6557              	.LBE1122:
 6558              	.LBB1123:
 6559 1f84 F178     		ldrb	r1, [r6, #3]	@ zero_extendqisi2
 6560              	.LVL622:
 6561 1f86 2B78     		ldrb	r3, [r5, #0]	@ zero_extendqisi2
 6562 1f88 2278     		ldrb	r2, [r4, #0]	@ zero_extendqisi2
 6563 1f8a CB18     		adds	r3, r1, r3
 6564 1f8c DBB2     		uxtb	r3, r3
 6565 1f8e 2B70     		strb	r3, [r5, #0]
 6566 1f90 9B18     		adds	r3, r3, r2
 6567 1f92 2370     		strb	r3, [r4, #0]
 6568 1f94 0C48     		ldr	r0, .L352+28
 6569 1f96 FFF7FEFF 		bl	uart_transmit
 6570              	.LVL623:
 6571              	.LBE1123:
 6572 1f9a 2978     		ldrb	r1, [r5, #0]	@ zero_extendqisi2
 6573 1f9c 0A48     		ldr	r0, .L352+28
 6574 1f9e FFF7FEFF 		bl	uart_transmit
 6575 1fa2 0948     		ldr	r0, .L352+28
 6576 1fa4 2178     		ldrb	r1, [r4, #0]	@ zero_extendqisi2
 6577 1fa6 FFF7FEFF 		bl	uart_transmit
 6578 1faa 1BE0     		b	.L172
 6579              	.L353:
 6580              		.align	2
 6581              	.L352:
 6582 1fac 00000000 		.word	downlink_nb_ovrn
 6583 1fb0 00000000 		.word	.LANCHOR32
 6584 1fb4 00000000 		.word	.LANCHOR15
 6585 1fb8 00000000 		.word	.LANCHOR10
 6586 1fbc 00002041 		.word	1092616192
 6587 1fc0 00000000 		.word	.LANCHOR11
 6588 1fc4 00007A44 		.word	1148846080
 6589 1fc8 00000000 		.word	uart2
 6590 1fcc 00000000 		.word	downlink_nb_bytes
 6591 1fd0 00000000 		.word	downlink_nb_msgs
 6592 1fd4 00000000 		.word	ck_a
 6593 1fd8 00000000 		.word	ck_b
 6594              	.L173:
 6595 1fdc 6C4B     		ldr	r3, .L354
 6596 1fde 1A78     		ldrb	r2, [r3, #0]	@ zero_extendqisi2
 6597 1fe0 0132     		adds	r2, r2, #1
 6598 1fe2 1A70     		strb	r2, [r3, #0]
 6599              	.L172:
 6600              	.LBE1104:
 6601 1fe4 6B4B     		ldr	r3, .L354+4
 6602 1fe6 1B88     		ldrh	r3, [r3, #0]
 6603 1fe8 302B     		cmp	r3, #48
 6604 1fea 50D1     		bne	.L174
 6605 1fec 6A48     		ldr	r0, .L354+8
 6606 1fee 1721     		movs	r1, #23
 6607 1ff0 FFF7FEFF 		bl	uart_check_free_space
 6608 1ff4 0028     		cmp	r0, #0
 6609 1ff6 00F0E780 		beq	.L178
 6610 1ffa 684B     		ldr	r3, .L354+12
 6611              	.LBB1124:
 6612 1ffc 6648     		ldr	r0, .L354+8
 6613              	.LBE1124:
 6614 1ffe 1A88     		ldrh	r2, [r3, #0]
 6615              	.LBB1125:
 6616 2000 9921     		movs	r1, #153
 6617              	.LBE1125:
 6618 2002 1732     		adds	r2, r2, #23
 6619 2004 1A80     		strh	r2, [r3, #0]	@ movhi
 6620 2006 664B     		ldr	r3, .L354+16
 6621              	.LBB1126:
 6622 2008 664D     		ldr	r5, .L354+20
 6623              	.LBE1126:
 6624 200a 1A88     		ldrh	r2, [r3, #0]
 6625              	.LBB1127:
 6626 200c 664C     		ldr	r4, .L354+24
 6627              	.LBE1127:
 6628 200e 0132     		adds	r2, r2, #1
 6629 2010 1A80     		strh	r2, [r3, #0]	@ movhi
 6630              	.LBB1128:
 6631 2012 FFF7FEFF 		bl	uart_transmit
 6632 2016 6048     		ldr	r0, .L354+8
 6633 2018 1721     		movs	r1, #23
 6634 201a FFF7FEFF 		bl	uart_transmit
 6635              	.LBE1128:
 6636 201e 1823     		movs	r3, #24
 6637 2020 2B70     		strb	r3, [r5, #0]
 6638 2022 1733     		adds	r3, r3, #23
 6639 2024 2370     		strb	r3, [r4, #0]
 6640 2026 5C48     		ldr	r0, .L354+8
 6641 2028 0121     		movs	r1, #1
 6642 202a FFF7FEFF 		bl	uart_transmit
 6643 202e 2B78     		ldrb	r3, [r5, #0]	@ zero_extendqisi2
 6644 2030 2278     		ldrb	r2, [r4, #0]	@ zero_extendqisi2
 6645 2032 0233     		adds	r3, r3, #2
 6646 2034 DBB2     		uxtb	r3, r3
 6647 2036 2B70     		strb	r3, [r5, #0]
 6648 2038 9B18     		adds	r3, r3, r2
 6649 203a 2370     		strb	r3, [r4, #0]
 6650 203c 5648     		ldr	r0, .L354+8
 6651 203e 0221     		movs	r1, #2
 6652 2040 FFF7FEFF 		bl	uart_transmit
 6653              	.LBB1129:
 6654 2044 2B78     		ldrb	r3, [r5, #0]	@ zero_extendqisi2
 6655 2046 2278     		ldrb	r2, [r4, #0]	@ zero_extendqisi2
 6656 2048 1033     		adds	r3, r3, #16
 6657 204a DBB2     		uxtb	r3, r3
 6658 204c 2B70     		strb	r3, [r5, #0]
 6659 204e 9B18     		adds	r3, r3, r2
 6660 2050 2370     		strb	r3, [r4, #0]
 6661 2052 5148     		ldr	r0, .L354+8
 6662 2054 1021     		movs	r1, #16
 6663 2056 FFF7FEFF 		bl	uart_transmit
 6664 205a 544C     		ldr	r4, .L354+28
 425:firmwares/fixedwing/main_ap.c **** void periodic_task_ap( void ) {
 6665              		.loc 1 425 0
 6666 205c 04F11007 		add	r7, r4, #16
 6667              	.L176:
 6668              	.LBB1130:
 205:firmwares/fixedwing/main_ap.c ****     PeriodicSendAp(DefaultChannel);
 6669              		.loc 1 205 0
 6670 2060 504E     		ldr	r6, .L354+20
 6671 2062 14F8011B 		ldrb	r1, [r4], #1	@ zero_extendqisi2
 6672              	.LVL624:
 6673 2066 3378     		ldrb	r3, [r6, #0]	@ zero_extendqisi2
 6674 2068 4F4D     		ldr	r5, .L354+24
 6675 206a CB18     		adds	r3, r1, r3
 6676 206c 2A78     		ldrb	r2, [r5, #0]	@ zero_extendqisi2
 6677 206e DBB2     		uxtb	r3, r3
 6678 2070 3370     		strb	r3, [r6, #0]
 6679 2072 9B18     		adds	r3, r3, r2
 6680 2074 2B70     		strb	r3, [r5, #0]
 6681 2076 4848     		ldr	r0, .L354+8
 6682 2078 FFF7FEFF 		bl	uart_transmit
 6683              	.LVL625:
 6684              	.LBE1130:
 6685 207c BC42     		cmp	r4, r7
 6686 207e EFD1     		bne	.L176
 6687              	.LBE1129:
 6688 2080 4548     		ldr	r0, .L354+8
 6689 2082 3178     		ldrb	r1, [r6, #0]	@ zero_extendqisi2
 6690 2084 FFF7FEFF 		bl	uart_transmit
 6691 2088 4348     		ldr	r0, .L354+8
 6692 208a 2978     		ldrb	r1, [r5, #0]	@ zero_extendqisi2
 6693 208c 7CE0     		b	.L309
 6694              	.L174:
 6695 208e 362B     		cmp	r3, #54
 6696 2090 40F09E80 		bne	.L177
 6697 2094 4048     		ldr	r0, .L354+8
 6698 2096 0C21     		movs	r1, #12
 6699 2098 FFF7FEFF 		bl	uart_check_free_space
 6700 209c 0028     		cmp	r0, #0
 6701 209e 00F09380 		beq	.L178
 6702 20a2 3E4B     		ldr	r3, .L354+12
 6703              	.LBB1131:
 6704 20a4 3C48     		ldr	r0, .L354+8
 6705              	.LBE1131:
 6706 20a6 1A88     		ldrh	r2, [r3, #0]
 6707              	.LBB1132:
 6708 20a8 9921     		movs	r1, #153
 6709              	.LBE1132:
 6710 20aa 0C32     		adds	r2, r2, #12
 6711 20ac 1A80     		strh	r2, [r3, #0]	@ movhi
 6712 20ae 3C4B     		ldr	r3, .L354+16
 6713              	.LBB1133:
 6714 20b0 3C4D     		ldr	r5, .L354+20
 6715              	.LBE1133:
 6716 20b2 1A88     		ldrh	r2, [r3, #0]
 6717              	.LBB1134:
 6718 20b4 3C4C     		ldr	r4, .L354+24
 6719              	.LBE1134:
 6720 20b6 0132     		adds	r2, r2, #1
 6721 20b8 1A80     		strh	r2, [r3, #0]	@ movhi
 6722              	.LBB1135:
 6723 20ba FFF7FEFF 		bl	uart_transmit
 6724 20be 3648     		ldr	r0, .L354+8
 6725 20c0 0C21     		movs	r1, #12
 6726 20c2 FFF7FEFF 		bl	uart_transmit
 6727              	.LBE1135:
 6728 20c6 0D23     		movs	r3, #13
 6729 20c8 2B70     		strb	r3, [r5, #0]
 6730 20ca 0C33     		adds	r3, r3, #12
 6731 20cc 2370     		strb	r3, [r4, #0]
 6732 20ce 3248     		ldr	r0, .L354+8
 6733 20d0 0121     		movs	r1, #1
 6734 20d2 FFF7FEFF 		bl	uart_transmit
 6735 20d6 2B78     		ldrb	r3, [r5, #0]	@ zero_extendqisi2
 6736 20d8 2278     		ldrb	r2, [r4, #0]	@ zero_extendqisi2
 6737 20da 0B33     		adds	r3, r3, #11
 6738 20dc DBB2     		uxtb	r3, r3
 6739 20de 2B70     		strb	r3, [r5, #0]
 6740 20e0 9B18     		adds	r3, r3, r2
 6741 20e2 2370     		strb	r3, [r4, #0]
 6742 20e4 2C48     		ldr	r0, .L354+8
 6743 20e6 0B21     		movs	r1, #11
 6744 20e8 FFF7FEFF 		bl	uart_transmit
 6745              	.LBB1136:
 6746 20ec 304B     		ldr	r3, .L354+32
 6747 20ee 2278     		ldrb	r2, [r4, #0]	@ zero_extendqisi2
 6748 20f0 1978     		ldrb	r1, [r3, #0]	@ zero_extendqisi2
 6749              	.LVL626:
 6750 20f2 2B78     		ldrb	r3, [r5, #0]	@ zero_extendqisi2
 6751 20f4 2848     		ldr	r0, .L354+8
 6752 20f6 CB18     		adds	r3, r1, r3
 6753 20f8 DBB2     		uxtb	r3, r3
 6754 20fa 2B70     		strb	r3, [r5, #0]
 6755 20fc 9B18     		adds	r3, r3, r2
 6756 20fe 2370     		strb	r3, [r4, #0]
 6757 2100 FFF7FEFF 		bl	uart_transmit
 6758              	.LVL627:
 6759              	.LBE1136:
 6760              	.LBB1137:
 6761 2104 2B4B     		ldr	r3, .L354+36
 6762 2106 2278     		ldrb	r2, [r4, #0]	@ zero_extendqisi2
 6763 2108 1978     		ldrb	r1, [r3, #0]	@ zero_extendqisi2
 6764              	.LVL628:
 6765 210a 2B78     		ldrb	r3, [r5, #0]	@ zero_extendqisi2
 6766 210c 2248     		ldr	r0, .L354+8
 6767 210e CB18     		adds	r3, r1, r3
 6768 2110 DBB2     		uxtb	r3, r3
 6769 2112 2B70     		strb	r3, [r5, #0]
 6770 2114 9B18     		adds	r3, r3, r2
 6771 2116 2370     		strb	r3, [r4, #0]
 6772 2118 FFF7FEFF 		bl	uart_transmit
 6773              	.LVL629:
 6774              	.LBE1137:
 6775              	.LBB1138:
 6776 211c 264B     		ldr	r3, .L354+40
 6777 211e 2278     		ldrb	r2, [r4, #0]	@ zero_extendqisi2
 6778 2120 1978     		ldrb	r1, [r3, #0]	@ zero_extendqisi2
 6779              	.LVL630:
 6780 2122 2B78     		ldrb	r3, [r5, #0]	@ zero_extendqisi2
 6781 2124 1C48     		ldr	r0, .L354+8
 6782 2126 CB18     		adds	r3, r1, r3
 6783 2128 DBB2     		uxtb	r3, r3
 6784 212a 2B70     		strb	r3, [r5, #0]
 6785 212c 9B18     		adds	r3, r3, r2
 6786 212e 2370     		strb	r3, [r4, #0]
 6787 2130 FFF7FEFF 		bl	uart_transmit
 6788              	.LVL631:
 6789              	.LBE1138:
 6790              	.LBB1139:
 6791 2134 214B     		ldr	r3, .L354+44
 6792 2136 2278     		ldrb	r2, [r4, #0]	@ zero_extendqisi2
 6793 2138 1978     		ldrb	r1, [r3, #0]	@ zero_extendqisi2
 6794              	.LVL632:
 6795 213a 2B78     		ldrb	r3, [r5, #0]	@ zero_extendqisi2
 6796 213c 1648     		ldr	r0, .L354+8
 6797 213e CB18     		adds	r3, r1, r3
 6798 2140 DBB2     		uxtb	r3, r3
 6799 2142 2B70     		strb	r3, [r5, #0]
 6800 2144 9B18     		adds	r3, r3, r2
 6801 2146 2370     		strb	r3, [r4, #0]
 6802 2148 FFF7FEFF 		bl	uart_transmit
 6803              	.LVL633:
 6804              	.LBE1139:
 6805              	.LBB1140:
 6806 214c 1C4B     		ldr	r3, .L354+48
 6807 214e 2278     		ldrb	r2, [r4, #0]	@ zero_extendqisi2
 6808 2150 1978     		ldrb	r1, [r3, #0]	@ zero_extendqisi2
 6809              	.LVL634:
 6810 2152 2B78     		ldrb	r3, [r5, #0]	@ zero_extendqisi2
 6811 2154 1048     		ldr	r0, .L354+8
 6812 2156 CB18     		adds	r3, r1, r3
 6813 2158 DBB2     		uxtb	r3, r3
 6814 215a 2B70     		strb	r3, [r5, #0]
 6815 215c 9B18     		adds	r3, r3, r2
 6816 215e 2370     		strb	r3, [r4, #0]
 6817 2160 FFF7FEFF 		bl	uart_transmit
 6818              	.LVL635:
 6819              	.LBE1140:
 6820              	.LBB1141:
 6821 2164 174B     		ldr	r3, .L354+52
 6822 2166 2278     		ldrb	r2, [r4, #0]	@ zero_extendqisi2
 6823 2168 1978     		ldrb	r1, [r3, #0]	@ zero_extendqisi2
 6824              	.LVL636:
 6825 216a 2B78     		ldrb	r3, [r5, #0]	@ zero_extendqisi2
 6826 216c 0A48     		ldr	r0, .L354+8
 6827 216e CB18     		adds	r3, r1, r3
 6828 2170 DBB2     		uxtb	r3, r3
 6829 2172 2B70     		strb	r3, [r5, #0]
 6830 2174 9B18     		adds	r3, r3, r2
 6831 2176 2370     		strb	r3, [r4, #0]
 6832 2178 FFF7FEFF 		bl	uart_transmit
 6833              	.LVL637:
 6834              	.LBE1141:
 6835 217c 0648     		ldr	r0, .L354+8
 6836 217e 2978     		ldrb	r1, [r5, #0]	@ zero_extendqisi2
 6837 2180 FFF7FEFF 		bl	uart_transmit
 6838 2184 0448     		ldr	r0, .L354+8
 6839 2186 2178     		ldrb	r1, [r4, #0]	@ zero_extendqisi2
 6840              	.L309:
 6841 2188 FFF7FEFF 		bl	uart_transmit
 6842 218c 20E0     		b	.L177
 6843              	.L355:
 6844 218e 00BF     		.align	2
 6845              	.L354:
 6846 2190 00000000 		.word	downlink_nb_ovrn
 6847 2194 00000000 		.word	.LANCHOR33
 6848 2198 00000000 		.word	uart2
 6849 219c 00000000 		.word	downlink_nb_bytes
 6850 21a0 00000000 		.word	downlink_nb_msgs
 6851 21a4 00000000 		.word	ck_a
 6852 21a8 00000000 		.word	ck_b
 6853 21ac 00000000 		.word	.LC0
 6854 21b0 00000000 		.word	.LANCHOR4
 6855 21b4 00000000 		.word	v_ctl_mode
 6856 21b8 00000000 		.word	.LANCHOR7
 6857 21bc 00000000 		.word	horizontal_mode
 6858 21c0 00000000 		.word	.LANCHOR8
 6859 21c4 00000000 		.word	.LANCHOR6
 6860              	.L178:
 6861 21c8 974B     		ldr	r3, .L356+8
 6862 21ca 1A78     		ldrb	r2, [r3, #0]	@ zero_extendqisi2
 6863 21cc 0132     		adds	r2, r2, #1
 6864 21ce 1A70     		strb	r2, [r3, #0]
 6865              	.L177:
 6866 21d0 964B     		ldr	r3, .L356+12
 6867 21d2 1B88     		ldrh	r3, [r3, #0]
 6868 21d4 482B     		cmp	r3, #72
 6869 21d6 40F08180 		bne	.L179
 6870              	.LBB1142:
 6871 21da 954D     		ldr	r5, .L356+16
 6872 21dc 954C     		ldr	r4, .L356+20
 6873 21de 2888     		ldrh	r0, [r5, #0]
 6874 21e0 2688     		ldrh	r6, [r4, #0]
 6875 21e2 914F     		ldr	r7, .L356+8
 6876 21e4 301A     		subs	r0, r6, r0
 6877 21e6 FFF7FEFF 		bl	__aeabi_i2d
 6878 21ea 8DA3     		adr	r3, .L356
 6879 21ec D3E90023 		ldrd	r2, [r3]
 6880 21f0 FFF7FEFF 		bl	__aeabi_ddiv
 6881 21f4 FFF7FEFF 		bl	__aeabi_d2uiz
 6882 21f8 2E80     		strh	r6, [r5, #0]	@ movhi
 6883 21fa ADF80C00 		strh	r0, [sp, #12]	@ movhi
 6884              	.LVL638:
 6885 21fe 0B21     		movs	r1, #11
 6886 2200 8D48     		ldr	r0, .L356+24
 6887 2202 FFF7FEFF 		bl	uart_check_free_space
 6888 2206 0028     		cmp	r0, #0
 6889 2208 65D0     		beq	.L180
 6890 220a 2388     		ldrh	r3, [r4, #0]
 6891 220c 8B4E     		ldr	r6, .L356+28
 6892 220e 0B33     		adds	r3, r3, #11
 6893 2210 2380     		strh	r3, [r4, #0]	@ movhi
 6894 2212 3388     		ldrh	r3, [r6, #0]
 6895              	.LBB1143:
 6896 2214 9921     		movs	r1, #153
 6897              	.LBE1143:
 6898 2216 0133     		adds	r3, r3, #1
 6899 2218 3380     		strh	r3, [r6, #0]	@ movhi
 6900              	.LBB1144:
 6901 221a 8748     		ldr	r0, .L356+24
 6902 221c 884D     		ldr	r5, .L356+32
 6903 221e FFF7FEFF 		bl	uart_transmit
 6904 2222 0B21     		movs	r1, #11
 6905 2224 8448     		ldr	r0, .L356+24
 6906 2226 874C     		ldr	r4, .L356+36
 6907 2228 FFF7FEFF 		bl	uart_transmit
 6908              	.LBE1144:
 6909 222c 0C23     		movs	r3, #12
 6910 222e 2B70     		strb	r3, [r5, #0]
 6911 2230 0B33     		adds	r3, r3, #11
 6912 2232 2370     		strb	r3, [r4, #0]
 6913 2234 0121     		movs	r1, #1
 6914 2236 8048     		ldr	r0, .L356+24
 6915 2238 FFF7FEFF 		bl	uart_transmit
 6916 223c 2B78     		ldrb	r3, [r5, #0]	@ zero_extendqisi2
 6917 223e 2278     		ldrb	r2, [r4, #0]	@ zero_extendqisi2
 6918 2240 1E33     		adds	r3, r3, #30
 6919 2242 DBB2     		uxtb	r3, r3
 6920 2244 2B70     		strb	r3, [r5, #0]
 6921 2246 9B18     		adds	r3, r3, r2
 6922 2248 2370     		strb	r3, [r4, #0]
 6923 224a 1E21     		movs	r1, #30
 6924 224c 7A48     		ldr	r0, .L356+24
 6925 224e FFF7FEFF 		bl	uart_transmit
 6926              	.LBB1145:
 6927 2252 3978     		ldrb	r1, [r7, #0]	@ zero_extendqisi2
 6928              	.LVL639:
 6929 2254 2B78     		ldrb	r3, [r5, #0]	@ zero_extendqisi2
 6930 2256 2278     		ldrb	r2, [r4, #0]	@ zero_extendqisi2
 6931 2258 CB18     		adds	r3, r1, r3
 6932 225a DBB2     		uxtb	r3, r3
 6933 225c 2B70     		strb	r3, [r5, #0]
 6934 225e 9B18     		adds	r3, r3, r2
 6935 2260 2370     		strb	r3, [r4, #0]
 6936 2262 7548     		ldr	r0, .L356+24
 6937 2264 FFF7FEFF 		bl	uart_transmit
 6938              	.LVL640:
 6939              	.LBE1145:
 6940              	.LBB1146:
 6941 2268 9DF80C10 		ldrb	r1, [sp, #12]	@ zero_extendqisi2
 6942              	.LVL641:
 6943 226c 2B78     		ldrb	r3, [r5, #0]	@ zero_extendqisi2
 6944 226e 2278     		ldrb	r2, [r4, #0]	@ zero_extendqisi2
 6945 2270 CB18     		adds	r3, r1, r3
 6946 2272 DBB2     		uxtb	r3, r3
 6947 2274 2B70     		strb	r3, [r5, #0]
 6948 2276 9B18     		adds	r3, r3, r2
 6949 2278 2370     		strb	r3, [r4, #0]
 6950 227a 6F48     		ldr	r0, .L356+24
 6951 227c FFF7FEFF 		bl	uart_transmit
 6952              	.LVL642:
 6953              	.LBE1146:
 6954              	.LBB1147:
 6955 2280 03AB     		add	r3, sp, #12
 6956 2282 5978     		ldrb	r1, [r3, #1]	@ zero_extendqisi2
 6957              	.LVL643:
 6958 2284 2B78     		ldrb	r3, [r5, #0]	@ zero_extendqisi2
 6959 2286 2278     		ldrb	r2, [r4, #0]	@ zero_extendqisi2
 6960 2288 CB18     		adds	r3, r1, r3
 6961 228a DBB2     		uxtb	r3, r3
 6962 228c 2B70     		strb	r3, [r5, #0]
 6963 228e 9B18     		adds	r3, r3, r2
 6964 2290 2370     		strb	r3, [r4, #0]
 6965 2292 6948     		ldr	r0, .L356+24
 6966 2294 FFF7FEFF 		bl	uart_transmit
 6967              	.LVL644:
 6968              	.LBE1147:
 6969              	.LBB1148:
 6970 2298 3178     		ldrb	r1, [r6, #0]	@ zero_extendqisi2
 6971              	.LVL645:
 6972 229a 2B78     		ldrb	r3, [r5, #0]	@ zero_extendqisi2
 6973 229c 2278     		ldrb	r2, [r4, #0]	@ zero_extendqisi2
 6974 229e CB18     		adds	r3, r1, r3
 6975 22a0 DBB2     		uxtb	r3, r3
 6976 22a2 2B70     		strb	r3, [r5, #0]
 6977 22a4 9B18     		adds	r3, r3, r2
 6978 22a6 2370     		strb	r3, [r4, #0]
 6979 22a8 6348     		ldr	r0, .L356+24
 6980 22aa FFF7FEFF 		bl	uart_transmit
 6981              	.LVL646:
 6982              	.LBE1148:
 6983              	.LBB1149:
 6984 22ae 7178     		ldrb	r1, [r6, #1]	@ zero_extendqisi2
 6985              	.LVL647:
 6986 22b0 2B78     		ldrb	r3, [r5, #0]	@ zero_extendqisi2
 6987 22b2 2278     		ldrb	r2, [r4, #0]	@ zero_extendqisi2
 6988 22b4 CB18     		adds	r3, r1, r3
 6989 22b6 DBB2     		uxtb	r3, r3
 6990 22b8 2B70     		strb	r3, [r5, #0]
 6991 22ba 9B18     		adds	r3, r3, r2
 6992 22bc 2370     		strb	r3, [r4, #0]
 6993 22be 5E48     		ldr	r0, .L356+24
 6994 22c0 FFF7FEFF 		bl	uart_transmit
 6995              	.LVL648:
 6996              	.LBE1149:
 6997 22c4 2978     		ldrb	r1, [r5, #0]	@ zero_extendqisi2
 6998 22c6 5C48     		ldr	r0, .L356+24
 6999 22c8 FFF7FEFF 		bl	uart_transmit
 7000 22cc 5A48     		ldr	r0, .L356+24
 7001 22ce 2178     		ldrb	r1, [r4, #0]	@ zero_extendqisi2
 7002 22d0 FFF7FEFF 		bl	uart_transmit
 7003 22d4 02E0     		b	.L179
 7004              	.L180:
 7005 22d6 3B78     		ldrb	r3, [r7, #0]	@ zero_extendqisi2
 7006 22d8 0133     		adds	r3, r3, #1
 7007 22da 3B70     		strb	r3, [r7, #0]
 7008              	.L179:
 7009              	.LBE1142:
 7010 22dc 5A4B     		ldr	r3, .L356+40
 7011 22de 1B88     		ldrh	r3, [r3, #0]
 7012 22e0 4E2B     		cmp	r3, #78
 7013 22e2 40F0BD80 		bne	.L110
 7014 22e6 5448     		ldr	r0, .L356+24
 7015 22e8 0F21     		movs	r1, #15
 7016 22ea FFF7FEFF 		bl	uart_check_free_space
 7017 22ee 0028     		cmp	r0, #0
 7018 22f0 00F0B280 		beq	.L181
 7019 22f4 4F4B     		ldr	r3, .L356+20
 7020              	.LBB1150:
 7021 22f6 9921     		movs	r1, #153
 7022              	.LBE1150:
 7023 22f8 1A88     		ldrh	r2, [r3, #0]
 7024              	.LBB1151:
 7025 22fa 4F48     		ldr	r0, .L356+24
 7026              	.LBE1151:
 7027 22fc 0F32     		adds	r2, r2, #15
 7028 22fe 1A80     		strh	r2, [r3, #0]	@ movhi
 7029 2300 4E4B     		ldr	r3, .L356+28
 7030              	.LBB1152:
 7031 2302 4F4D     		ldr	r5, .L356+32
 7032              	.LBE1152:
 7033 2304 1A88     		ldrh	r2, [r3, #0]
 7034              	.LBB1153:
 7035 2306 4F4C     		ldr	r4, .L356+36
 7036              	.LBE1153:
 7037 2308 0132     		adds	r2, r2, #1
 7038 230a 1A80     		strh	r2, [r3, #0]	@ movhi
 7039              	.LBB1154:
 7040 230c FFF7FEFF 		bl	uart_transmit
 7041 2310 0F21     		movs	r1, #15
 7042 2312 4948     		ldr	r0, .L356+24
 7043 2314 FFF7FEFF 		bl	uart_transmit
 7044              	.LBE1154:
 7045 2318 1023     		movs	r3, #16
 7046 231a 2B70     		strb	r3, [r5, #0]
 7047 231c 0F33     		adds	r3, r3, #15
 7048 231e 2370     		strb	r3, [r4, #0]
 7049 2320 0121     		movs	r1, #1
 7050 2322 4548     		ldr	r0, .L356+24
 7051 2324 FFF7FEFF 		bl	uart_transmit
 7052 2328 2B78     		ldrb	r3, [r5, #0]	@ zero_extendqisi2
 7053 232a 2278     		ldrb	r2, [r4, #0]	@ zero_extendqisi2
 7054 232c 0933     		adds	r3, r3, #9
 7055 232e DBB2     		uxtb	r3, r3
 7056              	.LBB1155:
 7057 2330 464E     		ldr	r6, .L356+44
 7058              	.LBE1155:
 7059 2332 2B70     		strb	r3, [r5, #0]
 7060 2334 9B18     		adds	r3, r3, r2
 7061 2336 2370     		strb	r3, [r4, #0]
 7062 2338 0921     		movs	r1, #9
 7063 233a 3F48     		ldr	r0, .L356+24
 7064 233c FFF7FEFF 		bl	uart_transmit
 7065              	.LBB1156:
 7066 2340 3178     		ldrb	r1, [r6, #0]	@ zero_extendqisi2
 7067              	.LVL649:
 7068 2342 2B78     		ldrb	r3, [r5, #0]	@ zero_extendqisi2
 7069 2344 2278     		ldrb	r2, [r4, #0]	@ zero_extendqisi2
 7070 2346 CB18     		adds	r3, r1, r3
 7071 2348 DBB2     		uxtb	r3, r3
 7072 234a 2B70     		strb	r3, [r5, #0]
 7073 234c 9B18     		adds	r3, r3, r2
 7074 234e 2370     		strb	r3, [r4, #0]
 7075 2350 3948     		ldr	r0, .L356+24
 7076 2352 FFF7FEFF 		bl	uart_transmit
 7077              	.LVL650:
 7078              	.LBE1156:
 7079              	.LBB1157:
 7080 2356 7178     		ldrb	r1, [r6, #1]	@ zero_extendqisi2
 7081              	.LVL651:
 7082 2358 2B78     		ldrb	r3, [r5, #0]	@ zero_extendqisi2
 7083 235a 2278     		ldrb	r2, [r4, #0]	@ zero_extendqisi2
 7084 235c CB18     		adds	r3, r1, r3
 7085 235e DBB2     		uxtb	r3, r3
 7086 2360 2B70     		strb	r3, [r5, #0]
 7087 2362 9B18     		adds	r3, r3, r2
 7088 2364 2370     		strb	r3, [r4, #0]
 7089 2366 3448     		ldr	r0, .L356+24
 7090 2368 FFF7FEFF 		bl	uart_transmit
 7091              	.LVL652:
 7092              	.LBE1157:
 7093              	.LBB1158:
 7094 236c B178     		ldrb	r1, [r6, #2]	@ zero_extendqisi2
 7095              	.LVL653:
 7096 236e 2B78     		ldrb	r3, [r5, #0]	@ zero_extendqisi2
 7097 2370 2278     		ldrb	r2, [r4, #0]	@ zero_extendqisi2
 7098 2372 CB18     		adds	r3, r1, r3
 7099 2374 DBB2     		uxtb	r3, r3
 7100 2376 2B70     		strb	r3, [r5, #0]
 7101 2378 9B18     		adds	r3, r3, r2
 7102 237a 2370     		strb	r3, [r4, #0]
 7103 237c 2E48     		ldr	r0, .L356+24
 7104 237e FFF7FEFF 		bl	uart_transmit
 7105              	.LVL654:
 7106              	.LBE1158:
 7107              	.LBB1159:
 7108 2382 F178     		ldrb	r1, [r6, #3]	@ zero_extendqisi2
 7109              	.LVL655:
 7110 2384 2B78     		ldrb	r3, [r5, #0]	@ zero_extendqisi2
 7111 2386 2278     		ldrb	r2, [r4, #0]	@ zero_extendqisi2
 7112 2388 CB18     		adds	r3, r1, r3
 7113 238a DBB2     		uxtb	r3, r3
 7114              	.LBE1159:
 7115              	.LBB1160:
 7116 238c 304E     		ldr	r6, .L356+48
 7117              	.LBE1160:
 7118              	.LBB1161:
 7119 238e 2B70     		strb	r3, [r5, #0]
 7120 2390 9B18     		adds	r3, r3, r2
 7121 2392 2370     		strb	r3, [r4, #0]
 7122 2394 2848     		ldr	r0, .L356+24
 7123 2396 FFF7FEFF 		bl	uart_transmit
 7124              	.LVL656:
 7125              	.LBE1161:
 7126              	.LBB1162:
 7127 239a 3178     		ldrb	r1, [r6, #0]	@ zero_extendqisi2
 7128              	.LVL657:
 7129 239c 2B78     		ldrb	r3, [r5, #0]	@ zero_extendqisi2
 7130 239e 2278     		ldrb	r2, [r4, #0]	@ zero_extendqisi2
 7131 23a0 CB18     		adds	r3, r1, r3
 7132 23a2 DBB2     		uxtb	r3, r3
 7133 23a4 2B70     		strb	r3, [r5, #0]
 7134 23a6 9B18     		adds	r3, r3, r2
 7135 23a8 2370     		strb	r3, [r4, #0]
 7136 23aa 2348     		ldr	r0, .L356+24
 7137 23ac FFF7FEFF 		bl	uart_transmit
 7138              	.LVL658:
 7139              	.LBE1162:
 7140              	.LBB1163:
 7141 23b0 7178     		ldrb	r1, [r6, #1]	@ zero_extendqisi2
 7142              	.LVL659:
 7143 23b2 2B78     		ldrb	r3, [r5, #0]	@ zero_extendqisi2
 7144 23b4 2278     		ldrb	r2, [r4, #0]	@ zero_extendqisi2
 7145 23b6 CB18     		adds	r3, r1, r3
 7146 23b8 DBB2     		uxtb	r3, r3
 7147 23ba 2B70     		strb	r3, [r5, #0]
 7148 23bc 9B18     		adds	r3, r3, r2
 7149 23be 2370     		strb	r3, [r4, #0]
 7150 23c0 1D48     		ldr	r0, .L356+24
 7151 23c2 FFF7FEFF 		bl	uart_transmit
 7152              	.LVL660:
 7153              	.LBE1163:
 7154              	.LBB1164:
 7155 23c6 B178     		ldrb	r1, [r6, #2]	@ zero_extendqisi2
 7156              	.LVL661:
 7157 23c8 2B78     		ldrb	r3, [r5, #0]	@ zero_extendqisi2
 7158 23ca 2278     		ldrb	r2, [r4, #0]	@ zero_extendqisi2
 7159 23cc CB18     		adds	r3, r1, r3
 7160 23ce DBB2     		uxtb	r3, r3
 7161 23d0 2B70     		strb	r3, [r5, #0]
 7162 23d2 9B18     		adds	r3, r3, r2
 7163 23d4 2370     		strb	r3, [r4, #0]
 7164 23d6 1848     		ldr	r0, .L356+24
 7165 23d8 FFF7FEFF 		bl	uart_transmit
 7166              	.LVL662:
 7167              	.LBE1164:
 7168              	.LBB1165:
 7169 23dc F178     		ldrb	r1, [r6, #3]	@ zero_extendqisi2
 7170              	.LVL663:
 7171 23de 2B78     		ldrb	r3, [r5, #0]	@ zero_extendqisi2
 7172 23e0 2278     		ldrb	r2, [r4, #0]	@ zero_extendqisi2
 7173 23e2 CB18     		adds	r3, r1, r3
 7174 23e4 DBB2     		uxtb	r3, r3
 7175 23e6 2B70     		strb	r3, [r5, #0]
 7176 23e8 9B18     		adds	r3, r3, r2
 7177 23ea 2370     		strb	r3, [r4, #0]
 7178 23ec 1248     		ldr	r0, .L356+24
 7179 23ee FFF7FEFF 		bl	uart_transmit
 7180              	.LVL664:
 7181              	.LBE1165:
 7182              	.LBB1166:
 7183 23f2 184B     		ldr	r3, .L356+52
 7184 23f4 2278     		ldrb	r2, [r4, #0]	@ zero_extendqisi2
 7185 23f6 1978     		ldrb	r1, [r3, #0]	@ zero_extendqisi2
 7186              	.LVL665:
 7187 23f8 2B78     		ldrb	r3, [r5, #0]	@ zero_extendqisi2
 7188 23fa 0F48     		ldr	r0, .L356+24
 7189 23fc CB18     		adds	r3, r1, r3
 7190 23fe DBB2     		uxtb	r3, r3
 7191 2400 2B70     		strb	r3, [r5, #0]
 7192 2402 9B18     		adds	r3, r3, r2
 7193 2404 2370     		strb	r3, [r4, #0]
 7194 2406 FFF7FEFF 		bl	uart_transmit
 7195              	.LVL666:
 7196              	.LBE1166:
 7197 240a 2978     		ldrb	r1, [r5, #0]	@ zero_extendqisi2
 7198 240c 0A48     		ldr	r0, .L356+24
 7199 240e FFF7FEFF 		bl	uart_transmit
 7200 2412 0948     		ldr	r0, .L356+24
 7201 2414 2178     		ldrb	r1, [r4, #0]	@ zero_extendqisi2
 7202 2416 FFF7FEFF 		bl	uart_transmit
 7203 241a 21E0     		b	.L110
 7204              	.L357:
 7205 241c AFF30080 		.align	3
 7206              	.L356:
 7207 2420 66666666 		.word	1717986918
 7208 2424 66661440 		.word	1075078758
 7209 2428 00000000 		.word	downlink_nb_ovrn
 7210 242c 00000000 		.word	.LANCHOR34
 7211 2430 00000000 		.word	.LANCHOR39
 7212 2434 00000000 		.word	downlink_nb_bytes
 7213 2438 00000000 		.word	uart2
 7214 243c 00000000 		.word	downlink_nb_msgs
 7215 2440 00000000 		.word	ck_a
 7216 2444 00000000 		.word	ck_b
 7217 2448 00000000 		.word	.LANCHOR35
 7218 244c 00000000 		.word	nav_utm_east0
 7219 2450 00000000 		.word	nav_utm_north0
 7220 2454 00000000 		.word	nav_utm_zone0
 7221              	.L181:
 7222 2458 9B4B     		ldr	r3, .L358+16
 7223 245a 1A78     		ldrb	r2, [r3, #0]	@ zero_extendqisi2
 7224 245c 0132     		adds	r2, r2, #1
 7225 245e 1A70     		strb	r2, [r3, #0]
 7226              	.L110:
 7227              	.LBE788:
 7228 2460 9A4B     		ldr	r3, .L358+20
 7229 2462 1B78     		ldrb	r3, [r3, #0]	@ zero_extendqisi2
 7230 2464 012B     		cmp	r3, #1
 7231 2466 42F02981 		bne	.L182
 7232              	.LBB1167:
 7233 246a 994B     		ldr	r3, .L358+24
 7234 246c 1A78     		ldrb	r2, [r3, #0]	@ zero_extendqisi2
 7235 246e 0132     		adds	r2, r2, #1
 7236 2470 D2B2     		uxtb	r2, r2
 7237 2472 3E2A     		cmp	r2, #62
 7238 2474 1A70     		strb	r2, [r3, #0]
 7239 2476 01D9     		bls	.L183
 7240 2478 0022     		movs	r2, #0
 7241 247a 1A70     		strb	r2, [r3, #0]
 7242              	.L183:
 7243 247c 954B     		ldr	r3, .L358+28
 7244 247e 1A78     		ldrb	r2, [r3, #0]	@ zero_extendqisi2
 7245 2480 0132     		adds	r2, r2, #1
 7246 2482 D2B2     		uxtb	r2, r2
 7247 2484 412A     		cmp	r2, #65
 7248 2486 1A70     		strb	r2, [r3, #0]
 7249 2488 01D9     		bls	.L184
 7250 248a 0022     		movs	r2, #0
 7251 248c 1A70     		strb	r2, [r3, #0]
 7252              	.L184:
 7253 248e 924B     		ldr	r3, .L358+32
 7254 2490 1A78     		ldrb	r2, [r3, #0]	@ zero_extendqisi2
 7255 2492 0132     		adds	r2, r2, #1
 7256 2494 D2B2     		uxtb	r2, r2
 7257 2496 4D2A     		cmp	r2, #77
 7258 2498 1A70     		strb	r2, [r3, #0]
 7259 249a 01D9     		bls	.L185
 7260 249c 0022     		movs	r2, #0
 7261 249e 1A70     		strb	r2, [r3, #0]
 7262              	.L185:
 7263 24a0 8E4B     		ldr	r3, .L358+36
 7264 24a2 1A78     		ldrb	r2, [r3, #0]	@ zero_extendqisi2
 7265 24a4 0132     		adds	r2, r2, #1
 7266 24a6 D2B2     		uxtb	r2, r2
 7267 24a8 532A     		cmp	r2, #83
 7268 24aa 1A70     		strb	r2, [r3, #0]
 7269 24ac 01D9     		bls	.L186
 7270 24ae 0022     		movs	r2, #0
 7271 24b0 1A70     		strb	r2, [r3, #0]
 7272              	.L186:
 7273 24b2 8B4B     		ldr	r3, .L358+40
 7274 24b4 1A78     		ldrb	r2, [r3, #0]	@ zero_extendqisi2
 7275 24b6 0132     		adds	r2, r2, #1
 7276 24b8 D2B2     		uxtb	r2, r2
 7277 24ba 592A     		cmp	r2, #89
 7278 24bc 1A70     		strb	r2, [r3, #0]
 7279 24be 01D9     		bls	.L187
 7280 24c0 0022     		movs	r2, #0
 7281 24c2 1A70     		strb	r2, [r3, #0]
 7282              	.L187:
 7283 24c4 874B     		ldr	r3, .L358+44
 7284 24c6 1A78     		ldrb	r2, [r3, #0]	@ zero_extendqisi2
 7285 24c8 0132     		adds	r2, r2, #1
 7286 24ca D2B2     		uxtb	r2, r2
 7287 24cc 7D2A     		cmp	r2, #125
 7288 24ce 1A70     		strb	r2, [r3, #0]
 7289 24d0 01D9     		bls	.L188
 7290 24d2 0022     		movs	r2, #0
 7291 24d4 1A70     		strb	r2, [r3, #0]
 7292              	.L188:
 7293 24d6 844B     		ldr	r3, .L358+48
 7294 24d8 1A78     		ldrb	r2, [r3, #0]	@ zero_extendqisi2
 7295 24da 0132     		adds	r2, r2, #1
 7296 24dc D2B2     		uxtb	r2, r2
 7297 24de B32A     		cmp	r2, #179
 7298 24e0 1A70     		strb	r2, [r3, #0]
 7299 24e2 01D9     		bls	.L189
 7300 24e4 0022     		movs	r2, #0
 7301 24e6 1A70     		strb	r2, [r3, #0]
 7302              	.L189:
 7303 24e8 804B     		ldr	r3, .L358+52
 7304 24ea 1A78     		ldrb	r2, [r3, #0]	@ zero_extendqisi2
 7305 24ec 0132     		adds	r2, r2, #1
 7306 24ee D2B2     		uxtb	r2, r2
 7307 24f0 B62A     		cmp	r2, #182
 7308 24f2 1A70     		strb	r2, [r3, #0]
 7309 24f4 01D9     		bls	.L190
 7310 24f6 0022     		movs	r2, #0
 7311 24f8 1A70     		strb	r2, [r3, #0]
 7312              	.L190:
 7313 24fa 7D4B     		ldr	r3, .L358+56
 7314 24fc 1A78     		ldrb	r2, [r3, #0]	@ zero_extendqisi2
 7315 24fe 0132     		adds	r2, r2, #1
 7316 2500 D2B2     		uxtb	r2, r2
 7317 2502 BF2A     		cmp	r2, #191
 7318 2504 1A70     		strb	r2, [r3, #0]
 7319 2506 01D9     		bls	.L191
 7320 2508 0022     		movs	r2, #0
 7321 250a 1A70     		strb	r2, [r3, #0]
 7322              	.L191:
 7323 250c 794B     		ldr	r3, .L358+60
 7324 250e 1A78     		ldrb	r2, [r3, #0]	@ zero_extendqisi2
 7325 2510 0132     		adds	r2, r2, #1
 7326 2512 D2B2     		uxtb	r2, r2
 7327 2514 EF2A     		cmp	r2, #239
 7328 2516 1A70     		strb	r2, [r3, #0]
 7329 2518 01D9     		bls	.L192
 7330 251a 0022     		movs	r2, #0
 7331 251c 1A70     		strb	r2, [r3, #0]
 7332              	.L192:
 7333 251e 764B     		ldr	r3, .L358+64
 7334 2520 1A78     		ldrb	r2, [r3, #0]	@ zero_extendqisi2
 7335 2522 0132     		adds	r2, r2, #1
 7336 2524 D2B2     		uxtb	r2, r2
 7337 2526 F22A     		cmp	r2, #242
 7338 2528 1A70     		strb	r2, [r3, #0]
 7339 252a 01D9     		bls	.L193
 7340 252c 0022     		movs	r2, #0
 7341 252e 1A70     		strb	r2, [r3, #0]
 7342              	.L193:
 7343 2530 724B     		ldr	r3, .L358+68
 7344 2532 40F25D21 		movw	r1, #605
 7345 2536 1A88     		ldrh	r2, [r3, #0]
 7346 2538 0132     		adds	r2, r2, #1
 7347 253a 92B2     		uxth	r2, r2
 7348 253c B2F5967F 		cmp	r2, #300
 7349 2540 1A80     		strh	r2, [r3, #0]	@ movhi
 7350 2542 24BF     		itt	cs
 7351 2544 0022     		movcs	r2, #0	@ movhi
 7352 2546 1A80     		strhcs	r2, [r3, #0]	@ movhi
 7353 2548 6D4B     		ldr	r3, .L358+72
 7354 254a 1A88     		ldrh	r2, [r3, #0]
 7355 254c 0132     		adds	r2, r2, #1
 7356 254e 92B2     		uxth	r2, r2
 7357 2550 B2F5997F 		cmp	r2, #306
 7358 2554 1A80     		strh	r2, [r3, #0]	@ movhi
 7359 2556 24BF     		itt	cs
 7360 2558 0022     		movcs	r2, #0	@ movhi
 7361 255a 1A80     		strhcs	r2, [r3, #0]	@ movhi
 7362 255c 694B     		ldr	r3, .L358+76
 7363 255e 1A88     		ldrh	r2, [r3, #0]
 7364 2560 0132     		adds	r2, r2, #1
 7365 2562 92B2     		uxth	r2, r2
 7366 2564 B2F59C7F 		cmp	r2, #312
 7367 2568 1A80     		strh	r2, [r3, #0]	@ movhi
 7368 256a 24BF     		itt	cs
 7369 256c 0022     		movcs	r2, #0	@ movhi
 7370 256e 1A80     		strhcs	r2, [r3, #0]	@ movhi
 7371 2570 654B     		ldr	r3, .L358+80
 7372 2572 1A88     		ldrh	r2, [r3, #0]
 7373 2574 0132     		adds	r2, r2, #1
 7374 2576 92B2     		uxth	r2, r2
 7375 2578 B2F5077F 		cmp	r2, #540
 7376 257c 1A80     		strh	r2, [r3, #0]	@ movhi
 7377 257e 24BF     		itt	cs
 7378 2580 0022     		movcs	r2, #0	@ movhi
 7379 2582 1A80     		strhcs	r2, [r3, #0]	@ movhi
 7380 2584 614B     		ldr	r3, .L358+84
 7381 2586 1A88     		ldrh	r2, [r3, #0]
 7382 2588 0132     		adds	r2, r2, #1
 7383 258a 92B2     		uxth	r2, r2
 7384 258c 8A42     		cmp	r2, r1
 7385 258e 1A80     		strh	r2, [r3, #0]	@ movhi
 7386 2590 84BF     		itt	hi
 7387 2592 0022     		movhi	r2, #0	@ movhi
 7388 2594 1A80     		strhhi	r2, [r3, #0]	@ movhi
 7389 2596 4E4B     		ldr	r3, .L358+24
 7390 2598 1B78     		ldrb	r3, [r3, #0]	@ zero_extendqisi2
 7391 259a 002B     		cmp	r3, #0
 7392 259c 40F0B482 		bne	.L199
 7393              	.LBB1168:
 7394 25a0 5B4C     		ldr	r4, .L358+88
 7395 25a2 236C     		ldr	r3, [r4, #64]
 7396 25a4 A06C     		ldr	r0, [r4, #72]
 7397 25a6 5B42     		negs	r3, r3
 7398 25a8 ADF80C30 		strh	r3, [sp, #12]	@ movhi
 7399              	.LVL667:
 7400 25ac FFF7FEFF 		bl	__aeabi_i2d
 7401 25b0 41A3     		adr	r3, .L358
 7402 25b2 D3E90023 		ldrd	r2, [r3]
 7403 25b6 FFF7FEFF 		bl	__aeabi_dmul
 7404 25ba 41A3     		adr	r3, .L358+8
 7405 25bc D3E90023 		ldrd	r2, [r3]
 7406 25c0 FFF7FEFF 		bl	__aeabi_ddiv
 7407 25c4 FFF7FEFF 		bl	__aeabi_d2iz
 7408 25c8 2121     		movs	r1, #33
 7409 25ca ADF80E00 		strh	r0, [sp, #14]	@ movhi
 7410              	.LVL668:
 7411 25ce 5148     		ldr	r0, .L358+92
 7412 25d0 FFF7FEFF 		bl	uart_check_free_space
 7413 25d4 0028     		cmp	r0, #0
 7414 25d6 00F0AD81 		beq	.L200
 7415 25da 4F4B     		ldr	r3, .L358+96
 7416              	.LBB1169:
 7417 25dc 9921     		movs	r1, #153
 7418              	.LBE1169:
 7419 25de 1A88     		ldrh	r2, [r3, #0]
 7420              	.LBB1170:
 7421 25e0 4C48     		ldr	r0, .L358+92
 7422              	.LBE1170:
 7423 25e2 2132     		adds	r2, r2, #33
 7424 25e4 1A80     		strh	r2, [r3, #0]	@ movhi
 7425 25e6 4D4B     		ldr	r3, .L358+100
 7426              	.LBB1171:
 7427 25e8 4D4E     		ldr	r6, .L358+104
 7428              	.LBE1171:
 7429 25ea 1A88     		ldrh	r2, [r3, #0]
 7430              	.LBB1172:
 7431 25ec 4D4D     		ldr	r5, .L358+108
 7432              	.LBE1172:
 7433 25ee 0132     		adds	r2, r2, #1
 7434 25f0 1A80     		strh	r2, [r3, #0]	@ movhi
 7435              	.LBB1173:
 7436 25f2 FFF7FEFF 		bl	uart_transmit
 7437 25f6 2121     		movs	r1, #33
 7438 25f8 4648     		ldr	r0, .L358+92
 7439 25fa FFF7FEFF 		bl	uart_transmit
 7440              	.LBE1173:
 7441 25fe 2223     		movs	r3, #34
 7442 2600 3370     		strb	r3, [r6, #0]
 7443 2602 2133     		adds	r3, r3, #33
 7444 2604 2B70     		strb	r3, [r5, #0]
 7445 2606 0121     		movs	r1, #1
 7446 2608 4248     		ldr	r0, .L358+92
 7447 260a FFF7FEFF 		bl	uart_transmit
 7448 260e 3378     		ldrb	r3, [r6, #0]	@ zero_extendqisi2
 7449 2610 2A78     		ldrb	r2, [r5, #0]	@ zero_extendqisi2
 7450 2612 0833     		adds	r3, r3, #8
 7451 2614 DBB2     		uxtb	r3, r3
 7452 2616 3370     		strb	r3, [r6, #0]
 7453 2618 9B18     		adds	r3, r3, r2
 7454 261a 2B70     		strb	r3, [r5, #0]
 7455 261c 0821     		movs	r1, #8
 7456 261e 3D48     		ldr	r0, .L358+92
 7457 2620 FFF7FEFF 		bl	uart_transmit
 7458              	.LBB1174:
 7459 2624 94F85710 		ldrb	r1, [r4, #87]	@ zero_extendqisi2
 7460              	.LVL669:
 7461 2628 3378     		ldrb	r3, [r6, #0]	@ zero_extendqisi2
 7462 262a 2A78     		ldrb	r2, [r5, #0]	@ zero_extendqisi2
 7463 262c CB18     		adds	r3, r1, r3
 7464 262e DBB2     		uxtb	r3, r3
 7465 2630 3370     		strb	r3, [r6, #0]
 7466 2632 9B18     		adds	r3, r3, r2
 7467 2634 2B70     		strb	r3, [r5, #0]
 7468 2636 3748     		ldr	r0, .L358+92
 7469 2638 FFF7FEFF 		bl	uart_transmit
 7470              	.LVL670:
 7471              	.LBE1174:
 7472              	.LBB1175:
 7473 263c 217F     		ldrb	r1, [r4, #28]	@ zero_extendqisi2
 7474              	.LVL671:
 7475 263e 3378     		ldrb	r3, [r6, #0]	@ zero_extendqisi2
 7476 2640 2A78     		ldrb	r2, [r5, #0]	@ zero_extendqisi2
 7477 2642 CB18     		adds	r3, r1, r3
 7478 2644 DBB2     		uxtb	r3, r3
 7479 2646 3370     		strb	r3, [r6, #0]
 7480 2648 9B18     		adds	r3, r3, r2
 7481 264a 04F11C07 		add	r7, r4, #28
 7482 264e 2B70     		strb	r3, [r5, #0]
 7483 2650 3048     		ldr	r0, .L358+92
 7484 2652 FFF7FEFF 		bl	uart_transmit
 7485              	.LVL672:
 7486              	.LBE1175:
 7487              	.LBB1176:
 7488 2656 7978     		ldrb	r1, [r7, #1]	@ zero_extendqisi2
 7489              	.LVL673:
 7490 2658 3378     		ldrb	r3, [r6, #0]	@ zero_extendqisi2
 7491 265a 2A78     		ldrb	r2, [r5, #0]	@ zero_extendqisi2
 7492 265c CB18     		adds	r3, r1, r3
 7493 265e DBB2     		uxtb	r3, r3
 7494 2660 3370     		strb	r3, [r6, #0]
 7495 2662 9B18     		adds	r3, r3, r2
 7496 2664 2B70     		strb	r3, [r5, #0]
 7497 2666 2B48     		ldr	r0, .L358+92
 7498 2668 FFF7FEFF 		bl	uart_transmit
 7499              	.LVL674:
 7500              	.LBE1176:
 7501              	.LBB1177:
 7502 266c B978     		ldrb	r1, [r7, #2]	@ zero_extendqisi2
 7503              	.LVL675:
 7504 266e 3378     		ldrb	r3, [r6, #0]	@ zero_extendqisi2
 7505 2670 2A78     		ldrb	r2, [r5, #0]	@ zero_extendqisi2
 7506 2672 CB18     		adds	r3, r1, r3
 7507 2674 DBB2     		uxtb	r3, r3
 7508 2676 3370     		strb	r3, [r6, #0]
 7509 2678 9B18     		adds	r3, r3, r2
 7510 267a 2B70     		strb	r3, [r5, #0]
 7511 267c 2548     		ldr	r0, .L358+92
 7512 267e FFF7FEFF 		bl	uart_transmit
 7513              	.LVL676:
 7514              	.LBE1177:
 7515              	.LBB1178:
 7516 2682 F978     		ldrb	r1, [r7, #3]	@ zero_extendqisi2
 7517              	.LVL677:
 7518 2684 3378     		ldrb	r3, [r6, #0]	@ zero_extendqisi2
 7519 2686 2A78     		ldrb	r2, [r5, #0]	@ zero_extendqisi2
 7520 2688 CB18     		adds	r3, r1, r3
 7521 268a DBB2     		uxtb	r3, r3
 7522 268c 3370     		strb	r3, [r6, #0]
 7523 268e 9B18     		adds	r3, r3, r2
 7524 2690 2B70     		strb	r3, [r5, #0]
 7525 2692 2048     		ldr	r0, .L358+92
 7526 2694 FFF7FEFF 		bl	uart_transmit
 7527              	.LVL678:
 7528              	.LBE1178:
 7529              	.LBB1179:
 7530 2698 217E     		ldrb	r1, [r4, #24]	@ zero_extendqisi2
 7531              	.LVL679:
 7532 269a 3378     		ldrb	r3, [r6, #0]	@ zero_extendqisi2
 7533 269c 2A78     		ldrb	r2, [r5, #0]	@ zero_extendqisi2
 7534 269e CB18     		adds	r3, r1, r3
 7535 26a0 DBB2     		uxtb	r3, r3
 7536 26a2 3370     		strb	r3, [r6, #0]
 7537 26a4 9B18     		adds	r3, r3, r2
 7538 26a6 04F11807 		add	r7, r4, #24
 7539 26aa 2B70     		strb	r3, [r5, #0]
 7540 26ac 1948     		ldr	r0, .L358+92
 7541 26ae FFF7FEFF 		bl	uart_transmit
 7542              	.LVL680:
 7543              	.LBE1179:
 7544              	.LBB1180:
 7545 26b2 7978     		ldrb	r1, [r7, #1]	@ zero_extendqisi2
 7546 26b4 38E0     		b	.L359
 7547              	.L360:
 7548 26b6 00BF     		.align	3
 7549              	.L358:
 7550 26b8 F8C1631A 		.word	442745336
 7551 26bc DCA54C40 		.word	1078765020
 7552 26c0 00000000 		.word	0
 7553 26c4 80842E41 		.word	1093567616
 7554 26c8 00000000 		.word	downlink_nb_ovrn
 7555 26cc 00000000 		.word	telemetry_mode_Ap_DefaultChannel
 7556 26d0 00000000 		.word	.LANCHOR40
 7557 26d4 00000000 		.word	.LANCHOR41
 7558 26d8 00000000 		.word	.LANCHOR42
 7559 26dc 00000000 		.word	.LANCHOR43
 7560 26e0 00000000 		.word	.LANCHOR44
 7561 26e4 00000000 		.word	.LANCHOR45
 7562 26e8 00000000 		.word	.LANCHOR46
 7563 26ec 00000000 		.word	.LANCHOR47
 7564 26f0 00000000 		.word	.LANCHOR48
 7565 26f4 00000000 		.word	.LANCHOR49
 7566 26f8 00000000 		.word	.LANCHOR50
 7567 26fc 00000000 		.word	.LANCHOR51
 7568 2700 00000000 		.word	.LANCHOR52
 7569 2704 00000000 		.word	.LANCHOR53
 7570 2708 00000000 		.word	.LANCHOR54
 7571 270c 00000000 		.word	.LANCHOR55
 7572 2710 00000000 		.word	gps
 7573 2714 00000000 		.word	uart2
 7574 2718 00000000 		.word	downlink_nb_bytes
 7575 271c 00000000 		.word	downlink_nb_msgs
 7576 2720 00000000 		.word	ck_a
 7577 2724 00000000 		.word	ck_b
 7578              	.L359:
 7579              	.LVL681:
 7580 2728 3378     		ldrb	r3, [r6, #0]	@ zero_extendqisi2
 7581 272a 2A78     		ldrb	r2, [r5, #0]	@ zero_extendqisi2
 7582 272c CB18     		adds	r3, r1, r3
 7583 272e DBB2     		uxtb	r3, r3
 7584 2730 3370     		strb	r3, [r6, #0]
 7585 2732 9B18     		adds	r3, r3, r2
 7586 2734 2B70     		strb	r3, [r5, #0]
 7587 2736 7D48     		ldr	r0, .L361
 7588 2738 FFF7FEFF 		bl	uart_transmit
 7589              	.LVL682:
 7590              	.LBE1180:
 7591              	.LBB1181:
 7592 273c B978     		ldrb	r1, [r7, #2]	@ zero_extendqisi2
 7593              	.LVL683:
 7594 273e 3378     		ldrb	r3, [r6, #0]	@ zero_extendqisi2
 7595 2740 2A78     		ldrb	r2, [r5, #0]	@ zero_extendqisi2
 7596 2742 CB18     		adds	r3, r1, r3
 7597 2744 DBB2     		uxtb	r3, r3
 7598 2746 3370     		strb	r3, [r6, #0]
 7599 2748 9B18     		adds	r3, r3, r2
 7600 274a 2B70     		strb	r3, [r5, #0]
 7601 274c 7748     		ldr	r0, .L361
 7602 274e FFF7FEFF 		bl	uart_transmit
 7603              	.LVL684:
 7604              	.LBE1181:
 7605              	.LBB1182:
 7606 2752 F978     		ldrb	r1, [r7, #3]	@ zero_extendqisi2
 7607              	.LVL685:
 7608 2754 3378     		ldrb	r3, [r6, #0]	@ zero_extendqisi2
 7609 2756 2A78     		ldrb	r2, [r5, #0]	@ zero_extendqisi2
 7610 2758 CB18     		adds	r3, r1, r3
 7611 275a DBB2     		uxtb	r3, r3
 7612 275c 3370     		strb	r3, [r6, #0]
 7613 275e 9B18     		adds	r3, r3, r2
 7614 2760 2B70     		strb	r3, [r5, #0]
 7615 2762 7248     		ldr	r0, .L361
 7616 2764 FFF7FEFF 		bl	uart_transmit
 7617              	.LVL686:
 7618              	.LBE1182:
 7619              	.LBB1183:
 7620 2768 9DF80E10 		ldrb	r1, [sp, #14]	@ zero_extendqisi2
 7621              	.LVL687:
 7622 276c 3378     		ldrb	r3, [r6, #0]	@ zero_extendqisi2
 7623 276e 2A78     		ldrb	r2, [r5, #0]	@ zero_extendqisi2
 7624 2770 CB18     		adds	r3, r1, r3
 7625 2772 DBB2     		uxtb	r3, r3
 7626 2774 3370     		strb	r3, [r6, #0]
 7627 2776 9B18     		adds	r3, r3, r2
 7628 2778 2B70     		strb	r3, [r5, #0]
 7629 277a 6C48     		ldr	r0, .L361
 7630 277c FFF7FEFF 		bl	uart_transmit
 7631              	.LVL688:
 7632              	.LBE1183:
 7633              	.LBB1184:
 7634 2780 0DF10E03 		add	r3, sp, #14
 7635 2784 5978     		ldrb	r1, [r3, #1]	@ zero_extendqisi2
 7636              	.LVL689:
 7637 2786 3378     		ldrb	r3, [r6, #0]	@ zero_extendqisi2
 7638 2788 2A78     		ldrb	r2, [r5, #0]	@ zero_extendqisi2
 7639 278a CB18     		adds	r3, r1, r3
 7640 278c DBB2     		uxtb	r3, r3
 7641 278e 3370     		strb	r3, [r6, #0]
 7642 2790 9B18     		adds	r3, r3, r2
 7643 2792 2B70     		strb	r3, [r5, #0]
 7644 2794 6548     		ldr	r0, .L361
 7645 2796 FFF7FEFF 		bl	uart_transmit
 7646              	.LVL690:
 7647              	.LBE1184:
 7648              	.LBB1185:
 7649 279a 94F82810 		ldrb	r1, [r4, #40]	@ zero_extendqisi2
 7650              	.LVL691:
 7651 279e 3378     		ldrb	r3, [r6, #0]	@ zero_extendqisi2
 7652 27a0 2A78     		ldrb	r2, [r5, #0]	@ zero_extendqisi2
 7653 27a2 CB18     		adds	r3, r1, r3
 7654 27a4 DBB2     		uxtb	r3, r3
 7655 27a6 3370     		strb	r3, [r6, #0]
 7656 27a8 9B18     		adds	r3, r3, r2
 7657 27aa 04F12807 		add	r7, r4, #40
 7658 27ae 2B70     		strb	r3, [r5, #0]
 7659 27b0 5E48     		ldr	r0, .L361
 7660 27b2 FFF7FEFF 		bl	uart_transmit
 7661              	.LVL692:
 7662              	.LBE1185:
 7663              	.LBB1186:
 7664 27b6 7978     		ldrb	r1, [r7, #1]	@ zero_extendqisi2
 7665              	.LVL693:
 7666 27b8 3378     		ldrb	r3, [r6, #0]	@ zero_extendqisi2
 7667 27ba 2A78     		ldrb	r2, [r5, #0]	@ zero_extendqisi2
 7668 27bc CB18     		adds	r3, r1, r3
 7669 27be DBB2     		uxtb	r3, r3
 7670 27c0 3370     		strb	r3, [r6, #0]
 7671 27c2 9B18     		adds	r3, r3, r2
 7672 27c4 2B70     		strb	r3, [r5, #0]
 7673 27c6 5948     		ldr	r0, .L361
 7674 27c8 FFF7FEFF 		bl	uart_transmit
 7675              	.LVL694:
 7676              	.LBE1186:
 7677              	.LBB1187:
 7678 27cc B978     		ldrb	r1, [r7, #2]	@ zero_extendqisi2
 7679              	.LVL695:
 7680 27ce 3378     		ldrb	r3, [r6, #0]	@ zero_extendqisi2
 7681 27d0 2A78     		ldrb	r2, [r5, #0]	@ zero_extendqisi2
 7682 27d2 CB18     		adds	r3, r1, r3
 7683 27d4 DBB2     		uxtb	r3, r3
 7684 27d6 3370     		strb	r3, [r6, #0]
 7685 27d8 9B18     		adds	r3, r3, r2
 7686 27da 2B70     		strb	r3, [r5, #0]
 7687 27dc 5348     		ldr	r0, .L361
 7688 27de FFF7FEFF 		bl	uart_transmit
 7689              	.LVL696:
 7690              	.LBE1187:
 7691              	.LBB1188:
 7692 27e2 F978     		ldrb	r1, [r7, #3]	@ zero_extendqisi2
 7693              	.LVL697:
 7694 27e4 3378     		ldrb	r3, [r6, #0]	@ zero_extendqisi2
 7695 27e6 2A78     		ldrb	r2, [r5, #0]	@ zero_extendqisi2
 7696 27e8 CB18     		adds	r3, r1, r3
 7697 27ea DBB2     		uxtb	r3, r3
 7698 27ec 3370     		strb	r3, [r6, #0]
 7699 27ee 9B18     		adds	r3, r3, r2
 7700 27f0 2B70     		strb	r3, [r5, #0]
 7701 27f2 4E48     		ldr	r0, .L361
 7702 27f4 FFF7FEFF 		bl	uart_transmit
 7703              	.LVL698:
 7704              	.LBE1188:
 7705              	.LBB1189:
 7706 27f8 94F84410 		ldrb	r1, [r4, #68]	@ zero_extendqisi2
 7707              	.LVL699:
 7708 27fc 3378     		ldrb	r3, [r6, #0]	@ zero_extendqisi2
 7709 27fe 2A78     		ldrb	r2, [r5, #0]	@ zero_extendqisi2
 7710 2800 CB18     		adds	r3, r1, r3
 7711 2802 DBB2     		uxtb	r3, r3
 7712 2804 3370     		strb	r3, [r6, #0]
 7713 2806 9B18     		adds	r3, r3, r2
 7714 2808 04F14407 		add	r7, r4, #68
 7715 280c 2B70     		strb	r3, [r5, #0]
 7716 280e 4748     		ldr	r0, .L361
 7717 2810 FFF7FEFF 		bl	uart_transmit
 7718              	.LVL700:
 7719              	.LBE1189:
 7720              	.LBB1190:
 7721 2814 7978     		ldrb	r1, [r7, #1]	@ zero_extendqisi2
 7722              	.LVL701:
 7723 2816 3378     		ldrb	r3, [r6, #0]	@ zero_extendqisi2
 7724 2818 2A78     		ldrb	r2, [r5, #0]	@ zero_extendqisi2
 7725 281a CB18     		adds	r3, r1, r3
 7726 281c DBB2     		uxtb	r3, r3
 7727 281e 3370     		strb	r3, [r6, #0]
 7728 2820 9B18     		adds	r3, r3, r2
 7729 2822 2B70     		strb	r3, [r5, #0]
 7730 2824 4148     		ldr	r0, .L361
 7731 2826 FFF7FEFF 		bl	uart_transmit
 7732              	.LVL702:
 7733              	.LBE1190:
 7734              	.LBB1191:
 7735 282a 9DF80C10 		ldrb	r1, [sp, #12]	@ zero_extendqisi2
 7736              	.LVL703:
 7737 282e 3378     		ldrb	r3, [r6, #0]	@ zero_extendqisi2
 7738 2830 2A78     		ldrb	r2, [r5, #0]	@ zero_extendqisi2
 7739 2832 CB18     		adds	r3, r1, r3
 7740 2834 DBB2     		uxtb	r3, r3
 7741 2836 3370     		strb	r3, [r6, #0]
 7742 2838 9B18     		adds	r3, r3, r2
 7743 283a 2B70     		strb	r3, [r5, #0]
 7744 283c 3B48     		ldr	r0, .L361
 7745 283e FFF7FEFF 		bl	uart_transmit
 7746              	.LVL704:
 7747              	.LBE1191:
 7748              	.LBB1192:
 7749 2842 03AB     		add	r3, sp, #12
 7750 2844 5978     		ldrb	r1, [r3, #1]	@ zero_extendqisi2
 7751              	.LVL705:
 7752 2846 3378     		ldrb	r3, [r6, #0]	@ zero_extendqisi2
 7753 2848 2A78     		ldrb	r2, [r5, #0]	@ zero_extendqisi2
 7754 284a CB18     		adds	r3, r1, r3
 7755 284c DBB2     		uxtb	r3, r3
 7756 284e 3370     		strb	r3, [r6, #0]
 7757 2850 9B18     		adds	r3, r3, r2
 7758 2852 2B70     		strb	r3, [r5, #0]
 7759 2854 3548     		ldr	r0, .L361
 7760 2856 FFF7FEFF 		bl	uart_transmit
 7761              	.LVL706:
 7762              	.LBE1192:
 7763              	.LBB1193:
 7764 285a 94F85810 		ldrb	r1, [r4, #88]	@ zero_extendqisi2
 7765              	.LVL707:
 7766 285e 3378     		ldrb	r3, [r6, #0]	@ zero_extendqisi2
 7767 2860 2A78     		ldrb	r2, [r5, #0]	@ zero_extendqisi2
 7768 2862 CB18     		adds	r3, r1, r3
 7769 2864 DBB2     		uxtb	r3, r3
 7770 2866 3370     		strb	r3, [r6, #0]
 7771 2868 9B18     		adds	r3, r3, r2
 7772 286a 04F15807 		add	r7, r4, #88
 7773 286e 2B70     		strb	r3, [r5, #0]
 7774 2870 2E48     		ldr	r0, .L361
 7775 2872 FFF7FEFF 		bl	uart_transmit
 7776              	.LVL708:
 7777              	.LBE1193:
 7778              	.LBB1194:
 7779 2876 7978     		ldrb	r1, [r7, #1]	@ zero_extendqisi2
 7780              	.LVL709:
 7781 2878 3378     		ldrb	r3, [r6, #0]	@ zero_extendqisi2
 7782 287a 2A78     		ldrb	r2, [r5, #0]	@ zero_extendqisi2
 7783 287c CB18     		adds	r3, r1, r3
 7784 287e DBB2     		uxtb	r3, r3
 7785 2880 3370     		strb	r3, [r6, #0]
 7786 2882 9B18     		adds	r3, r3, r2
 7787 2884 2B70     		strb	r3, [r5, #0]
 7788 2886 2948     		ldr	r0, .L361
 7789 2888 FFF7FEFF 		bl	uart_transmit
 7790              	.LVL710:
 7791              	.LBE1194:
 7792              	.LBB1195:
 7793 288c 94F85C10 		ldrb	r1, [r4, #92]	@ zero_extendqisi2
 7794              	.LVL711:
 7795 2890 3378     		ldrb	r3, [r6, #0]	@ zero_extendqisi2
 7796 2892 2A78     		ldrb	r2, [r5, #0]	@ zero_extendqisi2
 7797 2894 CB18     		adds	r3, r1, r3
 7798 2896 DBB2     		uxtb	r3, r3
 7799 2898 3370     		strb	r3, [r6, #0]
 7800 289a 9B18     		adds	r3, r3, r2
 7801 289c 04F15C07 		add	r7, r4, #92
 7802 28a0 2B70     		strb	r3, [r5, #0]
 7803 28a2 2248     		ldr	r0, .L361
 7804 28a4 FFF7FEFF 		bl	uart_transmit
 7805              	.LVL712:
 7806              	.LBE1195:
 7807              	.LBB1196:
 7808 28a8 7978     		ldrb	r1, [r7, #1]	@ zero_extendqisi2
 7809              	.LVL713:
 7810 28aa 3378     		ldrb	r3, [r6, #0]	@ zero_extendqisi2
 7811 28ac 2A78     		ldrb	r2, [r5, #0]	@ zero_extendqisi2
 7812 28ae CB18     		adds	r3, r1, r3
 7813 28b0 DBB2     		uxtb	r3, r3
 7814 28b2 3370     		strb	r3, [r6, #0]
 7815 28b4 9B18     		adds	r3, r3, r2
 7816 28b6 2B70     		strb	r3, [r5, #0]
 7817 28b8 1C48     		ldr	r0, .L361
 7818 28ba FFF7FEFF 		bl	uart_transmit
 7819              	.LVL714:
 7820              	.LBE1196:
 7821              	.LBB1197:
 7822 28be B978     		ldrb	r1, [r7, #2]	@ zero_extendqisi2
 7823              	.LVL715:
 7824 28c0 3378     		ldrb	r3, [r6, #0]	@ zero_extendqisi2
 7825 28c2 2A78     		ldrb	r2, [r5, #0]	@ zero_extendqisi2
 7826 28c4 CB18     		adds	r3, r1, r3
 7827 28c6 DBB2     		uxtb	r3, r3
 7828 28c8 3370     		strb	r3, [r6, #0]
 7829 28ca 9B18     		adds	r3, r3, r2
 7830 28cc 2B70     		strb	r3, [r5, #0]
 7831 28ce 1748     		ldr	r0, .L361
 7832 28d0 FFF7FEFF 		bl	uart_transmit
 7833              	.LVL716:
 7834              	.LBE1197:
 7835              	.LBB1198:
 7836 28d4 F978     		ldrb	r1, [r7, #3]	@ zero_extendqisi2
 7837              	.LVL717:
 7838 28d6 3378     		ldrb	r3, [r6, #0]	@ zero_extendqisi2
 7839 28d8 2A78     		ldrb	r2, [r5, #0]	@ zero_extendqisi2
 7840 28da CB18     		adds	r3, r1, r3
 7841 28dc DBB2     		uxtb	r3, r3
 7842 28de 3370     		strb	r3, [r6, #0]
 7843 28e0 9B18     		adds	r3, r3, r2
 7844 28e2 2B70     		strb	r3, [r5, #0]
 7845 28e4 1148     		ldr	r0, .L361
 7846 28e6 FFF7FEFF 		bl	uart_transmit
 7847              	.LVL718:
 7848              	.LBE1198:
 7849              	.LBB1199:
 7850 28ea 94F82410 		ldrb	r1, [r4, #36]	@ zero_extendqisi2
 7851              	.LVL719:
 7852 28ee 3378     		ldrb	r3, [r6, #0]	@ zero_extendqisi2
 7853 28f0 2A78     		ldrb	r2, [r5, #0]	@ zero_extendqisi2
 7854 28f2 CB18     		adds	r3, r1, r3
 7855 28f4 DBB2     		uxtb	r3, r3
 7856 28f6 3370     		strb	r3, [r6, #0]
 7857 28f8 9B18     		adds	r3, r3, r2
 7858 28fa 2B70     		strb	r3, [r5, #0]
 7859 28fc 0B48     		ldr	r0, .L361
 7860 28fe FFF7FEFF 		bl	uart_transmit
 7861              	.LVL720:
 7862              	.LBE1199:
 7863              	.LBB1200:
 7864 2902 0B4B     		ldr	r3, .L361+4
 7865 2904 2A78     		ldrb	r2, [r5, #0]	@ zero_extendqisi2
 7866 2906 1978     		ldrb	r1, [r3, #0]	@ zero_extendqisi2
 7867              	.LVL721:
 7868 2908 3378     		ldrb	r3, [r6, #0]	@ zero_extendqisi2
 7869 290a 0848     		ldr	r0, .L361
 7870 290c CB18     		adds	r3, r1, r3
 7871 290e DBB2     		uxtb	r3, r3
 7872 2910 3370     		strb	r3, [r6, #0]
 7873 2912 9B18     		adds	r3, r3, r2
 7874 2914 2B70     		strb	r3, [r5, #0]
 7875 2916 FFF7FEFF 		bl	uart_transmit
 7876              	.LVL722:
 7877              	.LBE1200:
 7878 291a 3178     		ldrb	r1, [r6, #0]	@ zero_extendqisi2
 7879 291c 0348     		ldr	r0, .L361
 7880 291e FFF7FEFF 		bl	uart_transmit
 7881 2922 0248     		ldr	r0, .L361
 7882 2924 2978     		ldrb	r1, [r5, #0]	@ zero_extendqisi2
 7883 2926 FFF7FEFF 		bl	uart_transmit
 7884 292a 07E0     		b	.L201
 7885              	.L362:
 7886              		.align	2
 7887              	.L361:
 7888 292c 00000000 		.word	uart2
 7889 2930 00000000 		.word	.LANCHOR56
 7890              	.L200:
 7891 2934 684B     		ldr	r3, .L363
 7892 2936 1A78     		ldrb	r2, [r3, #0]	@ zero_extendqisi2
 7893 2938 0132     		adds	r2, r2, #1
 7894 293a 1A70     		strb	r2, [r3, #0]
 7895              	.L201:
 7896 293c 674A     		ldr	r2, .L363+4
 7897 293e 92F85730 		ldrb	r3, [r2, #87]	@ zero_extendqisi2
 7898 2942 032B     		cmp	r3, #3
 7899 2944 07D0     		beq	.L202
 7900 2946 664B     		ldr	r3, .L363+8
 7901 2948 92F86020 		ldrb	r2, [r2, #96]	@ zero_extendqisi2
 7902 294c 1978     		ldrb	r1, [r3, #0]	@ zero_extendqisi2
 7903 294e 9142     		cmp	r1, r2
 7904 2950 01D3     		bcc	.L202
 7905 2952 0022     		movs	r2, #0
 7906 2954 1A70     		strb	r2, [r3, #0]
 7907              	.L202:
 7908 2956 614B     		ldr	r3, .L363+4
 7909 2958 93F86020 		ldrb	r2, [r3, #96]	@ zero_extendqisi2
 7910 295c 604B     		ldr	r3, .L363+8
 7911 295e 1978     		ldrb	r1, [r3, #0]	@ zero_extendqisi2
 7912 2960 B1EB420F 		cmp	r1, r2, lsl #1
 7913 2964 01DB     		blt	.L203
 7914 2966 0021     		movs	r1, #0
 7915 2968 1970     		strb	r1, [r3, #0]
 7916              	.L203:
 7917 296a 5D4E     		ldr	r6, .L363+8
 7918 296c 3378     		ldrb	r3, [r6, #0]	@ zero_extendqisi2
 7919 296e 9342     		cmp	r3, r2
 7920 2970 80F0C680 		bcs	.L204
 7921 2974 594F     		ldr	r7, .L363+4
 7922 2976 07EBC303 		add	r3, r7, r3, lsl #3
 7923 297a 93F86530 		ldrb	r3, [r3, #101]	@ zero_extendqisi2
 7924 297e 002B     		cmp	r3, #0
 7925 2980 00F0BE80 		beq	.L204
 7926 2984 5748     		ldr	r0, .L363+12
 7927 2986 0E21     		movs	r1, #14
 7928 2988 FFF7FEFF 		bl	uart_check_free_space
 7929 298c 0028     		cmp	r0, #0
 7930 298e 00F0B380 		beq	.L205
 7931 2992 554B     		ldr	r3, .L363+16
 7932              	.LBB1201:
 7933 2994 9921     		movs	r1, #153
 7934              	.LBE1201:
 7935 2996 1A88     		ldrh	r2, [r3, #0]
 7936              	.LBB1202:
 7937 2998 5248     		ldr	r0, .L363+12
 7938              	.LBE1202:
 7939 299a 0E32     		adds	r2, r2, #14
 7940 299c 1A80     		strh	r2, [r3, #0]	@ movhi
 7941 299e 534B     		ldr	r3, .L363+20
 7942              	.LBB1203:
 7943 29a0 534D     		ldr	r5, .L363+24
 7944              	.LBE1203:
 7945 29a2 1A88     		ldrh	r2, [r3, #0]
 7946              	.LBB1204:
 7947 29a4 534C     		ldr	r4, .L363+28
 7948              	.LBE1204:
 7949 29a6 0132     		adds	r2, r2, #1
 7950 29a8 1A80     		strh	r2, [r3, #0]	@ movhi
 7951              	.LBB1205:
 7952 29aa FFF7FEFF 		bl	uart_transmit
 7953 29ae 0E21     		movs	r1, #14
 7954 29b0 4C48     		ldr	r0, .L363+12
 7955 29b2 FFF7FEFF 		bl	uart_transmit
 7956              	.LBE1205:
 7957 29b6 0F23     		movs	r3, #15
 7958 29b8 2B70     		strb	r3, [r5, #0]
 7959 29ba 0E33     		adds	r3, r3, #14
 7960 29bc 2370     		strb	r3, [r4, #0]
 7961 29be 0121     		movs	r1, #1
 7962 29c0 4848     		ldr	r0, .L363+12
 7963 29c2 FFF7FEFF 		bl	uart_transmit
 7964 29c6 2B78     		ldrb	r3, [r5, #0]	@ zero_extendqisi2
 7965 29c8 2278     		ldrb	r2, [r4, #0]	@ zero_extendqisi2
 7966 29ca 1933     		adds	r3, r3, #25
 7967 29cc DBB2     		uxtb	r3, r3
 7968 29ce 2B70     		strb	r3, [r5, #0]
 7969 29d0 9B18     		adds	r3, r3, r2
 7970 29d2 2370     		strb	r3, [r4, #0]
 7971 29d4 1921     		movs	r1, #25
 7972 29d6 4348     		ldr	r0, .L363+12
 7973 29d8 FFF7FEFF 		bl	uart_transmit
 7974              	.LBB1206:
 7975 29dc 3178     		ldrb	r1, [r6, #0]	@ zero_extendqisi2
 7976              	.LVL723:
 7977 29de 2B78     		ldrb	r3, [r5, #0]	@ zero_extendqisi2
 7978 29e0 2278     		ldrb	r2, [r4, #0]	@ zero_extendqisi2
 7979 29e2 CB18     		adds	r3, r1, r3
 7980 29e4 DBB2     		uxtb	r3, r3
 7981 29e6 2B70     		strb	r3, [r5, #0]
 7982 29e8 9B18     		adds	r3, r3, r2
 7983 29ea 2370     		strb	r3, [r4, #0]
 7984 29ec 3D48     		ldr	r0, .L363+12
 7985 29ee FFF7FEFF 		bl	uart_transmit
 7986              	.LVL724:
 7987              	.LBE1206:
 7988              	.LBB1207:
 7989 29f2 3378     		ldrb	r3, [r6, #0]	@ zero_extendqisi2
 7990 29f4 2278     		ldrb	r2, [r4, #0]	@ zero_extendqisi2
 7991 29f6 07EBC303 		add	r3, r7, r3, lsl #3
 7992 29fa 93F86210 		ldrb	r1, [r3, #98]	@ zero_extendqisi2
 7993              	.LVL725:
 7994 29fe 2B78     		ldrb	r3, [r5, #0]	@ zero_extendqisi2
 7995 2a00 3848     		ldr	r0, .L363+12
 7996 2a02 CB18     		adds	r3, r1, r3
 7997 2a04 DBB2     		uxtb	r3, r3
 7998 2a06 2B70     		strb	r3, [r5, #0]
 7999 2a08 9B18     		adds	r3, r3, r2
 8000 2a0a 2370     		strb	r3, [r4, #0]
 8001 2a0c FFF7FEFF 		bl	uart_transmit
 8002              	.LVL726:
 8003              	.LBE1207:
 8004              	.LBB1208:
 8005 2a10 3378     		ldrb	r3, [r6, #0]	@ zero_extendqisi2
 8006 2a12 2278     		ldrb	r2, [r4, #0]	@ zero_extendqisi2
 8007 2a14 07EBC303 		add	r3, r7, r3, lsl #3
 8008 2a18 93F86310 		ldrb	r1, [r3, #99]	@ zero_extendqisi2
 8009              	.LVL727:
 8010 2a1c 2B78     		ldrb	r3, [r5, #0]	@ zero_extendqisi2
 8011 2a1e 3148     		ldr	r0, .L363+12
 8012 2a20 CB18     		adds	r3, r1, r3
 8013 2a22 DBB2     		uxtb	r3, r3
 8014 2a24 2B70     		strb	r3, [r5, #0]
 8015 2a26 9B18     		adds	r3, r3, r2
 8016 2a28 2370     		strb	r3, [r4, #0]
 8017 2a2a FFF7FEFF 		bl	uart_transmit
 8018              	.LVL728:
 8019              	.LBE1208:
 8020              	.LBB1209:
 8021 2a2e 3378     		ldrb	r3, [r6, #0]	@ zero_extendqisi2
 8022 2a30 2278     		ldrb	r2, [r4, #0]	@ zero_extendqisi2
 8023 2a32 07EBC303 		add	r3, r7, r3, lsl #3
 8024 2a36 93F86410 		ldrb	r1, [r3, #100]	@ zero_extendqisi2
 8025              	.LVL729:
 8026 2a3a 2B78     		ldrb	r3, [r5, #0]	@ zero_extendqisi2
 8027 2a3c 2948     		ldr	r0, .L363+12
 8028 2a3e CB18     		adds	r3, r1, r3
 8029 2a40 DBB2     		uxtb	r3, r3
 8030 2a42 2B70     		strb	r3, [r5, #0]
 8031 2a44 9B18     		adds	r3, r3, r2
 8032 2a46 2370     		strb	r3, [r4, #0]
 8033 2a48 FFF7FEFF 		bl	uart_transmit
 8034              	.LVL730:
 8035              	.LBE1209:
 8036              	.LBB1210:
 8037 2a4c 3378     		ldrb	r3, [r6, #0]	@ zero_extendqisi2
 8038 2a4e 2278     		ldrb	r2, [r4, #0]	@ zero_extendqisi2
 8039 2a50 07EBC303 		add	r3, r7, r3, lsl #3
 8040 2a54 93F86510 		ldrb	r1, [r3, #101]	@ zero_extendqisi2
 8041              	.LVL731:
 8042 2a58 2B78     		ldrb	r3, [r5, #0]	@ zero_extendqisi2
 8043 2a5a 2248     		ldr	r0, .L363+12
 8044 2a5c CB18     		adds	r3, r1, r3
 8045 2a5e DBB2     		uxtb	r3, r3
 8046 2a60 2B70     		strb	r3, [r5, #0]
 8047 2a62 9B18     		adds	r3, r3, r2
 8048 2a64 2370     		strb	r3, [r4, #0]
 8049 2a66 FFF7FEFF 		bl	uart_transmit
 8050              	.LVL732:
 8051              	.LBE1210:
 8052              	.LBB1211:
 8053 2a6a 3378     		ldrb	r3, [r6, #0]	@ zero_extendqisi2
 8054 2a6c 2278     		ldrb	r2, [r4, #0]	@ zero_extendqisi2
 8055 2a6e 07EBC303 		add	r3, r7, r3, lsl #3
 8056 2a72 93F86610 		ldrb	r1, [r3, #102]	@ zero_extendqisi2
 8057              	.LVL733:
 8058 2a76 2B78     		ldrb	r3, [r5, #0]	@ zero_extendqisi2
 8059 2a78 1A48     		ldr	r0, .L363+12
 8060 2a7a CB18     		adds	r3, r1, r3
 8061 2a7c DBB2     		uxtb	r3, r3
 8062 2a7e 2B70     		strb	r3, [r5, #0]
 8063 2a80 9B18     		adds	r3, r3, r2
 8064 2a82 2370     		strb	r3, [r4, #0]
 8065 2a84 FFF7FEFF 		bl	uart_transmit
 8066              	.LVL734:
 8067              	.LBE1211:
 8068              	.LBB1212:
 8069 2a88 3378     		ldrb	r3, [r6, #0]	@ zero_extendqisi2
 8070 2a8a 2278     		ldrb	r2, [r4, #0]	@ zero_extendqisi2
 8071 2a8c 07EBC303 		add	r3, r7, r3, lsl #3
 8072 2a90 93F86810 		ldrb	r1, [r3, #104]	@ zero_extendqisi2
 8073              	.LVL735:
 8074 2a94 2B78     		ldrb	r3, [r5, #0]	@ zero_extendqisi2
 8075 2a96 1348     		ldr	r0, .L363+12
 8076 2a98 CB18     		adds	r3, r1, r3
 8077 2a9a DBB2     		uxtb	r3, r3
 8078 2a9c 2B70     		strb	r3, [r5, #0]
 8079 2a9e 9B18     		adds	r3, r3, r2
 8080 2aa0 2370     		strb	r3, [r4, #0]
 8081 2aa2 FFF7FEFF 		bl	uart_transmit
 8082              	.LVL736:
 8083              	.LBE1212:
 8084              	.LBB1213:
 8085 2aa6 3378     		ldrb	r3, [r6, #0]	@ zero_extendqisi2
 8086 2aa8 2278     		ldrb	r2, [r4, #0]	@ zero_extendqisi2
 8087 2aaa 07EBC307 		add	r7, r7, r3, lsl #3
 8088 2aae 97F86910 		ldrb	r1, [r7, #105]	@ zero_extendqisi2
 8089              	.LVL737:
 8090 2ab2 2B78     		ldrb	r3, [r5, #0]	@ zero_extendqisi2
 8091 2ab4 0B48     		ldr	r0, .L363+12
 8092 2ab6 CB18     		adds	r3, r1, r3
 8093 2ab8 DBB2     		uxtb	r3, r3
 8094 2aba 2B70     		strb	r3, [r5, #0]
 8095 2abc 9B18     		adds	r3, r3, r2
 8096 2abe 2370     		strb	r3, [r4, #0]
 8097 2ac0 FFF7FEFF 		bl	uart_transmit
 8098              	.LVL738:
 8099              	.LBE1213:
 8100 2ac4 2978     		ldrb	r1, [r5, #0]	@ zero_extendqisi2
 8101 2ac6 0748     		ldr	r0, .L363+12
 8102 2ac8 FFF7FEFF 		bl	uart_transmit
 8103 2acc 0548     		ldr	r0, .L363+12
 8104 2ace 2178     		ldrb	r1, [r4, #0]	@ zero_extendqisi2
 8105 2ad0 FFF7FEFF 		bl	uart_transmit
 8106 2ad4 14E0     		b	.L204
 8107              	.L364:
 8108 2ad6 00BF     		.align	2
 8109              	.L363:
 8110 2ad8 00000000 		.word	downlink_nb_ovrn
 8111 2adc 00000000 		.word	gps
 8112 2ae0 00000000 		.word	.LANCHOR56
 8113 2ae4 00000000 		.word	uart2
 8114 2ae8 00000000 		.word	downlink_nb_bytes
 8115 2aec 00000000 		.word	downlink_nb_msgs
 8116 2af0 00000000 		.word	ck_a
 8117 2af4 00000000 		.word	ck_b
 8118              	.L205:
 8119 2af8 794B     		ldr	r3, .L365
 8120 2afa 1A78     		ldrb	r2, [r3, #0]	@ zero_extendqisi2
 8121 2afc 0132     		adds	r2, r2, #1
 8122 2afe 1A70     		strb	r2, [r3, #0]
 8123              	.L204:
 8124 2b00 784B     		ldr	r3, .L365+4
 8125 2b02 1A78     		ldrb	r2, [r3, #0]	@ zero_extendqisi2
 8126 2b04 0132     		adds	r2, r2, #1
 8127 2b06 1A70     		strb	r2, [r3, #0]
 8128              	.L199:
 8129              	.LBE1168:
 8130 2b08 774B     		ldr	r3, .L365+8
 8131 2b0a 1B78     		ldrb	r3, [r3, #0]	@ zero_extendqisi2
 8132 2b0c 062B     		cmp	r3, #6
 8133 2b0e 40F00B81 		bne	.L206
 8134              	.LBB1214:
 8135 2b12 764B     		ldr	r3, .L365+12
 8136 2b14 1A68     		ldr	r2, [r3, #0]
 8137 2b16 0A23     		movs	r3, #10
 8138 2b18 92FBF3F3 		sdiv	r3, r2, r3
 8139 2b1c ADF80E30 		strh	r3, [sp, #14]	@ movhi
 8140              	.LVL739:
 8141              	.LBB1215:
 8142 2b20 734B     		ldr	r3, .L365+16
 8143 2b22 1868     		ldr	r0, [r3, #0]	@ float
 8144 2b24 FFF7FEFF 		bl	__aeabi_f2iz
 8145 2b28 1421     		movs	r1, #20
 8146 2b2a ADF80C00 		strh	r0, [sp, #12]	@ movhi
 8147              	.LVL740:
 8148 2b2e 7148     		ldr	r0, .L365+20
 8149 2b30 FFF7FEFF 		bl	uart_check_free_space
 8150 2b34 0028     		cmp	r0, #0
 8151 2b36 00F0F380 		beq	.L207
 8152 2b3a 6F4B     		ldr	r3, .L365+24
 8153              	.LBB1216:
 8154 2b3c 9921     		movs	r1, #153
 8155              	.LBE1216:
 8156 2b3e 1A88     		ldrh	r2, [r3, #0]
 8157              	.LBB1217:
 8158 2b40 6C48     		ldr	r0, .L365+20
 8159              	.LBE1217:
 8160 2b42 1432     		adds	r2, r2, #20
 8161 2b44 1A80     		strh	r2, [r3, #0]	@ movhi
 8162 2b46 6D4B     		ldr	r3, .L365+28
 8163              	.LBB1218:
 8164 2b48 6D4D     		ldr	r5, .L365+32
 8165              	.LBE1218:
 8166 2b4a 1A88     		ldrh	r2, [r3, #0]
 8167              	.LBB1219:
 8168 2b4c 6D4C     		ldr	r4, .L365+36
 8169              	.LBE1219:
 8170 2b4e 0132     		adds	r2, r2, #1
 8171 2b50 1A80     		strh	r2, [r3, #0]	@ movhi
 8172              	.LBB1220:
 8173 2b52 FFF7FEFF 		bl	uart_transmit
 8174 2b56 1421     		movs	r1, #20
 8175 2b58 6648     		ldr	r0, .L365+20
 8176 2b5a FFF7FEFF 		bl	uart_transmit
 8177              	.LBE1220:
 8178 2b5e 1523     		movs	r3, #21
 8179 2b60 2B70     		strb	r3, [r5, #0]
 8180 2b62 1433     		adds	r3, r3, #20
 8181 2b64 2370     		strb	r3, [r4, #0]
 8182 2b66 0121     		movs	r1, #1
 8183 2b68 6248     		ldr	r0, .L365+20
 8184 2b6a FFF7FEFF 		bl	uart_transmit
 8185 2b6e 2B78     		ldrb	r3, [r5, #0]	@ zero_extendqisi2
 8186 2b70 2278     		ldrb	r2, [r4, #0]	@ zero_extendqisi2
 8187 2b72 0C33     		adds	r3, r3, #12
 8188 2b74 DBB2     		uxtb	r3, r3
 8189 2b76 2B70     		strb	r3, [r5, #0]
 8190              	.LBB1221:
 8191 2b78 634E     		ldr	r6, .L365+40
 8192              	.LBE1221:
 8193 2b7a 9B18     		adds	r3, r3, r2
 8194 2b7c 2370     		strb	r3, [r4, #0]
 8195 2b7e 0C21     		movs	r1, #12
 8196 2b80 5C48     		ldr	r0, .L365+20
 8197 2b82 FFF7FEFF 		bl	uart_transmit
 8198              	.LBB1222:
 8199 2b86 3178     		ldrb	r1, [r6, #0]	@ zero_extendqisi2
 8200              	.LVL741:
 8201 2b88 2B78     		ldrb	r3, [r5, #0]	@ zero_extendqisi2
 8202 2b8a 2278     		ldrb	r2, [r4, #0]	@ zero_extendqisi2
 8203 2b8c CB18     		adds	r3, r1, r3
 8204 2b8e DBB2     		uxtb	r3, r3
 8205 2b90 2B70     		strb	r3, [r5, #0]
 8206 2b92 9B18     		adds	r3, r3, r2
 8207 2b94 2370     		strb	r3, [r4, #0]
 8208 2b96 5748     		ldr	r0, .L365+20
 8209 2b98 FFF7FEFF 		bl	uart_transmit
 8210              	.LVL742:
 8211              	.LBE1222:
 8212              	.LBB1223:
 8213 2b9c 7178     		ldrb	r1, [r6, #1]	@ zero_extendqisi2
 8214              	.LVL743:
 8215 2b9e 2B78     		ldrb	r3, [r5, #0]	@ zero_extendqisi2
 8216 2ba0 2278     		ldrb	r2, [r4, #0]	@ zero_extendqisi2
 8217 2ba2 CB18     		adds	r3, r1, r3
 8218 2ba4 DBB2     		uxtb	r3, r3
 8219 2ba6 2B70     		strb	r3, [r5, #0]
 8220 2ba8 9B18     		adds	r3, r3, r2
 8221 2baa 2370     		strb	r3, [r4, #0]
 8222 2bac 5148     		ldr	r0, .L365+20
 8223 2bae FFF7FEFF 		bl	uart_transmit
 8224              	.LVL744:
 8225              	.LBE1223:
 8226              	.LBB1224:
 8227 2bb2 564B     		ldr	r3, .L365+44
 8228 2bb4 2278     		ldrb	r2, [r4, #0]	@ zero_extendqisi2
 8229 2bb6 1978     		ldrb	r1, [r3, #0]	@ zero_extendqisi2
 8230              	.LVL745:
 8231 2bb8 2B78     		ldrb	r3, [r5, #0]	@ zero_extendqisi2
 8232 2bba 4E48     		ldr	r0, .L365+20
 8233 2bbc CB18     		adds	r3, r1, r3
 8234 2bbe DBB2     		uxtb	r3, r3
 8235 2bc0 2B70     		strb	r3, [r5, #0]
 8236 2bc2 9B18     		adds	r3, r3, r2
 8237 2bc4 2370     		strb	r3, [r4, #0]
 8238 2bc6 FFF7FEFF 		bl	uart_transmit
 8239              	.LVL746:
 8240              	.LBE1224:
 8241              	.LBB1225:
 8242 2bca 9DF80E10 		ldrb	r1, [sp, #14]	@ zero_extendqisi2
 8243              	.LVL747:
 8244 2bce 2B78     		ldrb	r3, [r5, #0]	@ zero_extendqisi2
 8245 2bd0 2278     		ldrb	r2, [r4, #0]	@ zero_extendqisi2
 8246 2bd2 CB18     		adds	r3, r1, r3
 8247 2bd4 DBB2     		uxtb	r3, r3
 8248 2bd6 2B70     		strb	r3, [r5, #0]
 8249 2bd8 9B18     		adds	r3, r3, r2
 8250 2bda 2370     		strb	r3, [r4, #0]
 8251 2bdc 4548     		ldr	r0, .L365+20
 8252 2bde FFF7FEFF 		bl	uart_transmit
 8253              	.LVL748:
 8254              	.LBE1225:
 8255              	.LBB1226:
 8256 2be2 0DF10E03 		add	r3, sp, #14
 8257 2be6 5978     		ldrb	r1, [r3, #1]	@ zero_extendqisi2
 8258              	.LVL749:
 8259 2be8 2B78     		ldrb	r3, [r5, #0]	@ zero_extendqisi2
 8260 2bea 2278     		ldrb	r2, [r4, #0]	@ zero_extendqisi2
 8261 2bec CB18     		adds	r3, r1, r3
 8262 2bee DBB2     		uxtb	r3, r3
 8263 2bf0 2B70     		strb	r3, [r5, #0]
 8264              	.LBE1226:
 8265              	.LBB1227:
 8266 2bf2 474E     		ldr	r6, .L365+48
 8267              	.LBE1227:
 8268              	.LBB1228:
 8269 2bf4 9B18     		adds	r3, r3, r2
 8270 2bf6 2370     		strb	r3, [r4, #0]
 8271 2bf8 3E48     		ldr	r0, .L365+20
 8272 2bfa FFF7FEFF 		bl	uart_transmit
 8273              	.LVL750:
 8274              	.LBE1228:
 8275              	.LBB1229:
 8276 2bfe 3178     		ldrb	r1, [r6, #0]	@ zero_extendqisi2
 8277              	.LVL751:
 8278 2c00 2B78     		ldrb	r3, [r5, #0]	@ zero_extendqisi2
 8279 2c02 2278     		ldrb	r2, [r4, #0]	@ zero_extendqisi2
 8280 2c04 CB18     		adds	r3, r1, r3
 8281 2c06 DBB2     		uxtb	r3, r3
 8282 2c08 2B70     		strb	r3, [r5, #0]
 8283 2c0a 9B18     		adds	r3, r3, r2
 8284 2c0c 2370     		strb	r3, [r4, #0]
 8285 2c0e 3948     		ldr	r0, .L365+20
 8286 2c10 FFF7FEFF 		bl	uart_transmit
 8287              	.LVL752:
 8288              	.LBE1229:
 8289              	.LBB1230:
 8290 2c14 7178     		ldrb	r1, [r6, #1]	@ zero_extendqisi2
 8291              	.LVL753:
 8292 2c16 2B78     		ldrb	r3, [r5, #0]	@ zero_extendqisi2
 8293 2c18 2278     		ldrb	r2, [r4, #0]	@ zero_extendqisi2
 8294 2c1a CB18     		adds	r3, r1, r3
 8295 2c1c DBB2     		uxtb	r3, r3
 8296 2c1e 2B70     		strb	r3, [r5, #0]
 8297 2c20 9B18     		adds	r3, r3, r2
 8298 2c22 2370     		strb	r3, [r4, #0]
 8299 2c24 3348     		ldr	r0, .L365+20
 8300 2c26 FFF7FEFF 		bl	uart_transmit
 8301              	.LVL754:
 8302              	.LBE1230:
 8303              	.LBB1231:
 8304 2c2a 3A4B     		ldr	r3, .L365+52
 8305 2c2c 2278     		ldrb	r2, [r4, #0]	@ zero_extendqisi2
 8306 2c2e 1978     		ldrb	r1, [r3, #0]	@ zero_extendqisi2
 8307              	.LVL755:
 8308 2c30 2B78     		ldrb	r3, [r5, #0]	@ zero_extendqisi2
 8309              	.LBE1231:
 8310              	.LBB1232:
 8311 2c32 394E     		ldr	r6, .L365+56
 8312              	.LBE1232:
 8313              	.LBB1233:
 8314 2c34 CB18     		adds	r3, r1, r3
 8315 2c36 DBB2     		uxtb	r3, r3
 8316 2c38 2B70     		strb	r3, [r5, #0]
 8317 2c3a 9B18     		adds	r3, r3, r2
 8318 2c3c 2370     		strb	r3, [r4, #0]
 8319 2c3e 2D48     		ldr	r0, .L365+20
 8320 2c40 FFF7FEFF 		bl	uart_transmit
 8321              	.LVL756:
 8322              	.LBE1233:
 8323              	.LBB1234:
 8324 2c44 3178     		ldrb	r1, [r6, #0]	@ zero_extendqisi2
 8325              	.LVL757:
 8326 2c46 2B78     		ldrb	r3, [r5, #0]	@ zero_extendqisi2
 8327 2c48 2278     		ldrb	r2, [r4, #0]	@ zero_extendqisi2
 8328 2c4a CB18     		adds	r3, r1, r3
 8329 2c4c DBB2     		uxtb	r3, r3
 8330 2c4e 2B70     		strb	r3, [r5, #0]
 8331 2c50 9B18     		adds	r3, r3, r2
 8332 2c52 2370     		strb	r3, [r4, #0]
 8333 2c54 2748     		ldr	r0, .L365+20
 8334 2c56 FFF7FEFF 		bl	uart_transmit
 8335              	.LVL758:
 8336              	.LBE1234:
 8337              	.LBB1235:
 8338 2c5a 7178     		ldrb	r1, [r6, #1]	@ zero_extendqisi2
 8339              	.LVL759:
 8340 2c5c 2B78     		ldrb	r3, [r5, #0]	@ zero_extendqisi2
 8341 2c5e 2278     		ldrb	r2, [r4, #0]	@ zero_extendqisi2
 8342 2c60 CB18     		adds	r3, r1, r3
 8343 2c62 DBB2     		uxtb	r3, r3
 8344 2c64 2B70     		strb	r3, [r5, #0]
 8345              	.LBE1235:
 8346              	.LBB1236:
 8347 2c66 2D4E     		ldr	r6, .L365+60
 8348              	.LBE1236:
 8349              	.LBB1237:
 8350 2c68 9B18     		adds	r3, r3, r2
 8351 2c6a 2370     		strb	r3, [r4, #0]
 8352 2c6c 2148     		ldr	r0, .L365+20
 8353 2c6e FFF7FEFF 		bl	uart_transmit
 8354              	.LVL760:
 8355              	.LBE1237:
 8356              	.LBB1238:
 8357 2c72 3178     		ldrb	r1, [r6, #0]	@ zero_extendqisi2
 8358              	.LVL761:
 8359 2c74 2B78     		ldrb	r3, [r5, #0]	@ zero_extendqisi2
 8360 2c76 2278     		ldrb	r2, [r4, #0]	@ zero_extendqisi2
 8361 2c78 CB18     		adds	r3, r1, r3
 8362 2c7a DBB2     		uxtb	r3, r3
 8363 2c7c 2B70     		strb	r3, [r5, #0]
 8364 2c7e 9B18     		adds	r3, r3, r2
 8365 2c80 2370     		strb	r3, [r4, #0]
 8366 2c82 1C48     		ldr	r0, .L365+20
 8367 2c84 FFF7FEFF 		bl	uart_transmit
 8368              	.LVL762:
 8369              	.LBE1238:
 8370              	.LBB1239:
 8371 2c88 7178     		ldrb	r1, [r6, #1]	@ zero_extendqisi2
 8372              	.LVL763:
 8373 2c8a 2B78     		ldrb	r3, [r5, #0]	@ zero_extendqisi2
 8374 2c8c 2278     		ldrb	r2, [r4, #0]	@ zero_extendqisi2
 8375 2c8e CB18     		adds	r3, r1, r3
 8376 2c90 DBB2     		uxtb	r3, r3
 8377 2c92 2B70     		strb	r3, [r5, #0]
 8378 2c94 9B18     		adds	r3, r3, r2
 8379 2c96 2370     		strb	r3, [r4, #0]
 8380 2c98 1648     		ldr	r0, .L365+20
 8381 2c9a FFF7FEFF 		bl	uart_transmit
 8382              	.LVL764:
 8383              	.LBE1239:
 8384              	.LBB1240:
 8385 2c9e 9DF80C10 		ldrb	r1, [sp, #12]	@ zero_extendqisi2
 8386              	.LVL765:
 8387 2ca2 2B78     		ldrb	r3, [r5, #0]	@ zero_extendqisi2
 8388 2ca4 2278     		ldrb	r2, [r4, #0]	@ zero_extendqisi2
 8389 2ca6 CB18     		adds	r3, r1, r3
 8390 2ca8 DBB2     		uxtb	r3, r3
 8391 2caa 2B70     		strb	r3, [r5, #0]
 8392 2cac 9B18     		adds	r3, r3, r2
 8393 2cae 2370     		strb	r3, [r4, #0]
 8394 2cb0 1048     		ldr	r0, .L365+20
 8395 2cb2 FFF7FEFF 		bl	uart_transmit
 8396              	.LVL766:
 8397              	.LBE1240:
 8398              	.LBB1241:
 8399 2cb6 03AB     		add	r3, sp, #12
 8400 2cb8 5978     		ldrb	r1, [r3, #1]	@ zero_extendqisi2
 8401              	.LVL767:
 8402 2cba 2B78     		ldrb	r3, [r5, #0]	@ zero_extendqisi2
 8403 2cbc 2278     		ldrb	r2, [r4, #0]	@ zero_extendqisi2
 8404 2cbe CB18     		adds	r3, r1, r3
 8405 2cc0 DBB2     		uxtb	r3, r3
 8406 2cc2 2B70     		strb	r3, [r5, #0]
 8407 2cc4 9B18     		adds	r3, r3, r2
 8408 2cc6 2370     		strb	r3, [r4, #0]
 8409 2cc8 0A48     		ldr	r0, .L365+20
 8410 2cca FFF7FEFF 		bl	uart_transmit
 8411              	.LVL768:
 8412              	.LBE1241:
 8413 2cce 2978     		ldrb	r1, [r5, #0]	@ zero_extendqisi2
 8414 2cd0 0848     		ldr	r0, .L365+20
 8415 2cd2 FFF7FEFF 		bl	uart_transmit
 8416 2cd6 0748     		ldr	r0, .L365+20
 8417 2cd8 2178     		ldrb	r1, [r4, #0]	@ zero_extendqisi2
 8418 2cda FFF7FEFF 		bl	uart_transmit
 8419 2cde 23E0     		b	.L206
 8420              	.L366:
 8421              		.align	2
 8422              	.L365:
 8423 2ce0 00000000 		.word	downlink_nb_ovrn
 8424 2ce4 00000000 		.word	.LANCHOR56
 8425 2ce8 00000000 		.word	.LANCHOR41
 8426 2cec 00000000 		.word	.LANCHOR11
 8427 2cf0 00000000 		.word	.LANCHOR15
 8428 2cf4 00000000 		.word	uart2
 8429 2cf8 00000000 		.word	downlink_nb_bytes
 8430 2cfc 00000000 		.word	downlink_nb_msgs
 8431 2d00 00000000 		.word	ck_a
 8432 2d04 00000000 		.word	ck_b
 8433 2d08 00000000 		.word	v_ctl_throttle_slewed
 8434 2d0c 00000000 		.word	.LANCHOR10
 8435 2d10 00000000 		.word	estimator_flight_time
 8436 2d14 00000000 		.word	.LANCHOR14
 8437 2d18 00000000 		.word	block_time
 8438 2d1c 00000000 		.word	stage_time
 8439              	.L207:
 8440 2d20 4B4B     		ldr	r3, .L367
 8441 2d22 1A78     		ldrb	r2, [r3, #0]	@ zero_extendqisi2
 8442 2d24 0132     		adds	r2, r2, #1
 8443 2d26 1A70     		strb	r2, [r3, #0]
 8444              	.L206:
 8445              	.LBE1215:
 8446              	.LBE1214:
 8447 2d28 4A4B     		ldr	r3, .L367+4
 8448 2d2a 1B78     		ldrb	r3, [r3, #0]	@ zero_extendqisi2
 8449 2d2c 0C2B     		cmp	r3, #12
 8450 2d2e 40F0A580 		bne	.L208
 8451 2d32 4948     		ldr	r0, .L367+8
 8452 2d34 0E21     		movs	r1, #14
 8453 2d36 FFF7FEFF 		bl	uart_check_free_space
 8454 2d3a 0028     		cmp	r0, #0
 8455 2d3c 00F09A80 		beq	.L209
 8456 2d40 464B     		ldr	r3, .L367+12
 8457              	.LBB1242:
 8458 2d42 9921     		movs	r1, #153
 8459              	.LBE1242:
 8460 2d44 1A88     		ldrh	r2, [r3, #0]
 8461              	.LBB1243:
 8462 2d46 4448     		ldr	r0, .L367+8
 8463              	.LBE1243:
 8464 2d48 0E32     		adds	r2, r2, #14
 8465 2d4a 1A80     		strh	r2, [r3, #0]	@ movhi
 8466 2d4c 444B     		ldr	r3, .L367+16
 8467              	.LBB1244:
 8468 2d4e 454D     		ldr	r5, .L367+20
 8469              	.LBE1244:
 8470 2d50 1A88     		ldrh	r2, [r3, #0]
 8471              	.LBB1245:
 8472 2d52 454C     		ldr	r4, .L367+24
 8473              	.LBE1245:
 8474 2d54 0132     		adds	r2, r2, #1
 8475 2d56 1A80     		strh	r2, [r3, #0]	@ movhi
 8476              	.LBB1246:
 8477 2d58 FFF7FEFF 		bl	uart_transmit
 8478 2d5c 0E21     		movs	r1, #14
 8479 2d5e 3E48     		ldr	r0, .L367+8
 8480 2d60 FFF7FEFF 		bl	uart_transmit
 8481              	.LBE1246:
 8482 2d64 0F23     		movs	r3, #15
 8483 2d66 2B70     		strb	r3, [r5, #0]
 8484 2d68 0E33     		adds	r3, r3, #14
 8485 2d6a 2370     		strb	r3, [r4, #0]
 8486 2d6c 0121     		movs	r1, #1
 8487 2d6e 3A48     		ldr	r0, .L367+8
 8488 2d70 FFF7FEFF 		bl	uart_transmit
 8489 2d74 2B78     		ldrb	r3, [r5, #0]	@ zero_extendqisi2
 8490 2d76 2278     		ldrb	r2, [r4, #0]	@ zero_extendqisi2
 8491 2d78 2A33     		adds	r3, r3, #42
 8492 2d7a DBB2     		uxtb	r3, r3
 8493              	.LBB1247:
 8494 2d7c 3B4E     		ldr	r6, .L367+28
 8495              	.LBE1247:
 8496 2d7e 2B70     		strb	r3, [r5, #0]
 8497 2d80 9B18     		adds	r3, r3, r2
 8498 2d82 2370     		strb	r3, [r4, #0]
 8499 2d84 2A21     		movs	r1, #42
 8500 2d86 3448     		ldr	r0, .L367+8
 8501 2d88 FFF7FEFF 		bl	uart_transmit
 8502              	.LBB1248:
 8503 2d8c 3178     		ldrb	r1, [r6, #0]	@ zero_extendqisi2
 8504              	.LVL769:
 8505 2d8e 2B78     		ldrb	r3, [r5, #0]	@ zero_extendqisi2
 8506 2d90 2278     		ldrb	r2, [r4, #0]	@ zero_extendqisi2
 8507 2d92 CB18     		adds	r3, r1, r3
 8508 2d94 DBB2     		uxtb	r3, r3
 8509 2d96 2B70     		strb	r3, [r5, #0]
 8510 2d98 9B18     		adds	r3, r3, r2
 8511 2d9a 2370     		strb	r3, [r4, #0]
 8512 2d9c 2E48     		ldr	r0, .L367+8
 8513 2d9e FFF7FEFF 		bl	uart_transmit
 8514              	.LVL770:
 8515              	.LBE1248:
 8516              	.LBB1249:
 8517 2da2 7178     		ldrb	r1, [r6, #1]	@ zero_extendqisi2
 8518              	.LVL771:
 8519 2da4 2B78     		ldrb	r3, [r5, #0]	@ zero_extendqisi2
 8520 2da6 2278     		ldrb	r2, [r4, #0]	@ zero_extendqisi2
 8521 2da8 CB18     		adds	r3, r1, r3
 8522 2daa DBB2     		uxtb	r3, r3
 8523 2dac 2B70     		strb	r3, [r5, #0]
 8524 2dae 9B18     		adds	r3, r3, r2
 8525 2db0 2370     		strb	r3, [r4, #0]
 8526 2db2 2948     		ldr	r0, .L367+8
 8527 2db4 FFF7FEFF 		bl	uart_transmit
 8528              	.LVL772:
 8529              	.LBE1249:
 8530              	.LBB1250:
 8531 2db8 B178     		ldrb	r1, [r6, #2]	@ zero_extendqisi2
 8532              	.LVL773:
 8533 2dba 2B78     		ldrb	r3, [r5, #0]	@ zero_extendqisi2
 8534 2dbc 2278     		ldrb	r2, [r4, #0]	@ zero_extendqisi2
 8535 2dbe CB18     		adds	r3, r1, r3
 8536 2dc0 DBB2     		uxtb	r3, r3
 8537 2dc2 2B70     		strb	r3, [r5, #0]
 8538 2dc4 9B18     		adds	r3, r3, r2
 8539 2dc6 2370     		strb	r3, [r4, #0]
 8540 2dc8 2348     		ldr	r0, .L367+8
 8541 2dca FFF7FEFF 		bl	uart_transmit
 8542              	.LVL774:
 8543              	.LBE1250:
 8544              	.LBB1251:
 8545 2dce F178     		ldrb	r1, [r6, #3]	@ zero_extendqisi2
 8546              	.LVL775:
 8547 2dd0 2B78     		ldrb	r3, [r5, #0]	@ zero_extendqisi2
 8548 2dd2 2278     		ldrb	r2, [r4, #0]	@ zero_extendqisi2
 8549 2dd4 CB18     		adds	r3, r1, r3
 8550 2dd6 DBB2     		uxtb	r3, r3
 8551              	.LBE1251:
 8552              	.LBB1252:
 8553 2dd8 254E     		ldr	r6, .L367+32
 8554              	.LBE1252:
 8555              	.LBB1253:
 8556 2dda 2B70     		strb	r3, [r5, #0]
 8557 2ddc 9B18     		adds	r3, r3, r2
 8558 2dde 2370     		strb	r3, [r4, #0]
 8559 2de0 1D48     		ldr	r0, .L367+8
 8560 2de2 FFF7FEFF 		bl	uart_transmit
 8561              	.LVL776:
 8562              	.LBE1253:
 8563              	.LBB1254:
 8564 2de6 3178     		ldrb	r1, [r6, #0]	@ zero_extendqisi2
 8565              	.LVL777:
 8566 2de8 2B78     		ldrb	r3, [r5, #0]	@ zero_extendqisi2
 8567 2dea 2278     		ldrb	r2, [r4, #0]	@ zero_extendqisi2
 8568 2dec CB18     		adds	r3, r1, r3
 8569 2dee DBB2     		uxtb	r3, r3
 8570 2df0 2B70     		strb	r3, [r5, #0]
 8571 2df2 9B18     		adds	r3, r3, r2
 8572 2df4 2370     		strb	r3, [r4, #0]
 8573 2df6 1848     		ldr	r0, .L367+8
 8574 2df8 FFF7FEFF 		bl	uart_transmit
 8575              	.LVL778:
 8576              	.LBE1254:
 8577              	.LBB1255:
 8578 2dfc 7178     		ldrb	r1, [r6, #1]	@ zero_extendqisi2
 8579              	.LVL779:
 8580 2dfe 2B78     		ldrb	r3, [r5, #0]	@ zero_extendqisi2
 8581 2e00 2278     		ldrb	r2, [r4, #0]	@ zero_extendqisi2
 8582 2e02 CB18     		adds	r3, r1, r3
 8583 2e04 DBB2     		uxtb	r3, r3
 8584 2e06 2B70     		strb	r3, [r5, #0]
 8585 2e08 9B18     		adds	r3, r3, r2
 8586 2e0a 2370     		strb	r3, [r4, #0]
 8587 2e0c 1248     		ldr	r0, .L367+8
 8588 2e0e FFF7FEFF 		bl	uart_transmit
 8589              	.LVL780:
 8590              	.LBE1255:
 8591              	.LBB1256:
 8592 2e12 B178     		ldrb	r1, [r6, #2]	@ zero_extendqisi2
 8593              	.LVL781:
 8594 2e14 2B78     		ldrb	r3, [r5, #0]	@ zero_extendqisi2
 8595 2e16 2278     		ldrb	r2, [r4, #0]	@ zero_extendqisi2
 8596 2e18 CB18     		adds	r3, r1, r3
 8597 2e1a DBB2     		uxtb	r3, r3
 8598 2e1c 2B70     		strb	r3, [r5, #0]
 8599 2e1e 9B18     		adds	r3, r3, r2
 8600 2e20 2370     		strb	r3, [r4, #0]
 8601 2e22 0D48     		ldr	r0, .L367+8
 8602 2e24 FFF7FEFF 		bl	uart_transmit
 8603              	.LVL782:
 8604              	.LBE1256:
 8605              	.LBB1257:
 8606 2e28 F178     		ldrb	r1, [r6, #3]	@ zero_extendqisi2
 8607              	.LVL783:
 8608 2e2a 2B78     		ldrb	r3, [r5, #0]	@ zero_extendqisi2
 8609 2e2c 2278     		ldrb	r2, [r4, #0]	@ zero_extendqisi2
 8610 2e2e CB18     		adds	r3, r1, r3
 8611 2e30 DBB2     		uxtb	r3, r3
 8612 2e32 2B70     		strb	r3, [r5, #0]
 8613 2e34 9B18     		adds	r3, r3, r2
 8614 2e36 2370     		strb	r3, [r4, #0]
 8615 2e38 0748     		ldr	r0, .L367+8
 8616 2e3a FFF7FEFF 		bl	uart_transmit
 8617              	.LVL784:
 8618              	.LBE1257:
 8619 2e3e 2978     		ldrb	r1, [r5, #0]	@ zero_extendqisi2
 8620 2e40 0548     		ldr	r0, .L367+8
 8621 2e42 FFF7FEFF 		bl	uart_transmit
 8622 2e46 0448     		ldr	r0, .L367+8
 8623 2e48 2178     		ldrb	r1, [r4, #0]	@ zero_extendqisi2
 8624 2e4a FFF7FEFF 		bl	uart_transmit
 8625 2e4e 15E0     		b	.L208
 8626              	.L368:
 8627              		.align	2
 8628              	.L367:
 8629 2e50 00000000 		.word	downlink_nb_ovrn
 8630 2e54 00000000 		.word	.LANCHOR42
 8631 2e58 00000000 		.word	uart2
 8632 2e5c 00000000 		.word	downlink_nb_bytes
 8633 2e60 00000000 		.word	downlink_nb_msgs
 8634 2e64 00000000 		.word	ck_a
 8635 2e68 00000000 		.word	ck_b
 8636 2e6c 00000000 		.word	estimator_z
 8637 2e70 00000000 		.word	estimator_z_dot
 8638              	.L209:
 8639 2e74 9A4B     		ldr	r3, .L369
 8640 2e76 1A78     		ldrb	r2, [r3, #0]	@ zero_extendqisi2
 8641 2e78 0132     		adds	r2, r2, #1
 8642 2e7a 1A70     		strb	r2, [r3, #0]
 8643              	.L208:
 8644 2e7c 994B     		ldr	r3, .L369+4
 8645 2e7e 1B78     		ldrb	r3, [r3, #0]	@ zero_extendqisi2
 8646 2e80 122B     		cmp	r3, #18
 8647 2e82 40F00E81 		bne	.L210
 8648              	.LBB1258:
 8649 2e86 984B     		ldr	r3, .L369+8
 8650 2e88 9849     		ldr	r1, .L369+12
 8651 2e8a 1A78     		ldrb	r2, [r3, #0]	@ zero_extendqisi2
 8652 2e8c 0978     		ldrb	r1, [r1, #0]	@ zero_extendqisi2
 8653 2e8e 0132     		adds	r2, r2, #1
 8654 2e90 D2B2     		uxtb	r2, r2
 8655 2e92 9142     		cmp	r1, r2
 8656 2e94 1A70     		strb	r2, [r3, #0]
 8657 2e96 01D8     		bhi	.L211
 8658 2e98 0022     		movs	r2, #0
 8659 2e9a 1A70     		strb	r2, [r3, #0]
 8660              	.L211:
 8661              	.LBB1259:
 8662 2e9c 944B     		ldr	r3, .L369+16
 8663 2e9e 924F     		ldr	r7, .L369+8
 8664 2ea0 1868     		ldr	r0, [r3, #0]
 8665 2ea2 FFF7FEFF 		bl	__aeabi_i2f
 8666 2ea6 3B78     		ldrb	r3, [r7, #0]	@ zero_extendqisi2
 8667 2ea8 4FF00C08 		mov	r8, #12
 8668 2eac 08FB03F3 		mul	r3, r8, r3
 8669 2eb0 904E     		ldr	r6, .L369+20
 8670 2eb2 9959     		ldr	r1, [r3, r6]	@ float
 8671 2eb4 9C19     		adds	r4, r3, r6
 8672 2eb6 FFF7FEFF 		bl	__aeabi_fadd
 8673 2eba 8F4B     		ldr	r3, .L369+24
 8674 2ebc 0190     		str	r0, [sp, #4]	@ float
 8675              	.LVL785:
 8676 2ebe 1868     		ldr	r0, [r3, #0]
 8677 2ec0 FFF7FEFF 		bl	__aeabi_i2f
 8678 2ec4 6168     		ldr	r1, [r4, #4]	@ float
 8679 2ec6 FFF7FEFF 		bl	__aeabi_fadd
 8680 2eca 1421     		movs	r1, #20
 8681 2ecc 0090     		str	r0, [sp, #0]	@ float
 8682              	.LVL786:
 8683 2ece 8B48     		ldr	r0, .L369+28
 8684 2ed0 FFF7FEFF 		bl	uart_check_free_space
 8685 2ed4 0028     		cmp	r0, #0
 8686 2ed6 00F0E080 		beq	.L212
 8687 2eda 894B     		ldr	r3, .L369+32
 8688              	.LBB1260:
 8689 2edc 9921     		movs	r1, #153
 8690              	.LBE1260:
 8691 2ede 1A88     		ldrh	r2, [r3, #0]
 8692              	.LBB1261:
 8693 2ee0 8648     		ldr	r0, .L369+28
 8694              	.LBE1261:
 8695 2ee2 1432     		adds	r2, r2, #20
 8696 2ee4 1A80     		strh	r2, [r3, #0]	@ movhi
 8697 2ee6 874B     		ldr	r3, .L369+36
 8698              	.LBB1262:
 8699 2ee8 874D     		ldr	r5, .L369+40
 8700              	.LBE1262:
 8701 2eea 1A88     		ldrh	r2, [r3, #0]
 8702              	.LBB1263:
 8703 2eec 874C     		ldr	r4, .L369+44
 8704              	.LBE1263:
 8705 2eee 0132     		adds	r2, r2, #1
 8706 2ef0 1A80     		strh	r2, [r3, #0]	@ movhi
 8707              	.LBB1264:
 8708 2ef2 FFF7FEFF 		bl	uart_transmit
 8709 2ef6 1421     		movs	r1, #20
 8710 2ef8 8048     		ldr	r0, .L369+28
 8711 2efa FFF7FEFF 		bl	uart_transmit
 8712              	.LBE1264:
 8713 2efe 1523     		movs	r3, #21
 8714 2f00 2B70     		strb	r3, [r5, #0]
 8715 2f02 1433     		adds	r3, r3, #20
 8716 2f04 2370     		strb	r3, [r4, #0]
 8717 2f06 0121     		movs	r1, #1
 8718 2f08 7C48     		ldr	r0, .L369+28
 8719 2f0a FFF7FEFF 		bl	uart_transmit
 8720 2f0e 2B78     		ldrb	r3, [r5, #0]	@ zero_extendqisi2
 8721 2f10 2278     		ldrb	r2, [r4, #0]	@ zero_extendqisi2
 8722 2f12 2333     		adds	r3, r3, #35
 8723 2f14 DBB2     		uxtb	r3, r3
 8724 2f16 2B70     		strb	r3, [r5, #0]
 8725 2f18 9B18     		adds	r3, r3, r2
 8726 2f1a 2370     		strb	r3, [r4, #0]
 8727 2f1c 2321     		movs	r1, #35
 8728 2f1e 7748     		ldr	r0, .L369+28
 8729 2f20 FFF7FEFF 		bl	uart_transmit
 8730              	.LBB1265:
 8731 2f24 3978     		ldrb	r1, [r7, #0]	@ zero_extendqisi2
 8732              	.LVL787:
 8733 2f26 2B78     		ldrb	r3, [r5, #0]	@ zero_extendqisi2
 8734 2f28 2278     		ldrb	r2, [r4, #0]	@ zero_extendqisi2
 8735 2f2a CB18     		adds	r3, r1, r3
 8736 2f2c DBB2     		uxtb	r3, r3
 8737 2f2e 2B70     		strb	r3, [r5, #0]
 8738 2f30 9B18     		adds	r3, r3, r2
 8739 2f32 2370     		strb	r3, [r4, #0]
 8740 2f34 7148     		ldr	r0, .L369+28
 8741 2f36 FFF7FEFF 		bl	uart_transmit
 8742              	.LVL788:
 8743              	.LBE1265:
 8744              	.LBB1266:
 8745 2f3a 9DF80410 		ldrb	r1, [sp, #4]	@ zero_extendqisi2
 8746              	.LVL789:
 8747 2f3e 2B78     		ldrb	r3, [r5, #0]	@ zero_extendqisi2
 8748 2f40 2278     		ldrb	r2, [r4, #0]	@ zero_extendqisi2
 8749 2f42 CB18     		adds	r3, r1, r3
 8750 2f44 DBB2     		uxtb	r3, r3
 8751 2f46 2B70     		strb	r3, [r5, #0]
 8752 2f48 9B18     		adds	r3, r3, r2
 8753 2f4a 0DF1040A 		add	sl, sp, #4
 8754 2f4e 2370     		strb	r3, [r4, #0]
 8755 2f50 6A48     		ldr	r0, .L369+28
 8756 2f52 FFF7FEFF 		bl	uart_transmit
 8757              	.LVL790:
 8758              	.LBE1266:
 8759              	.LBB1267:
 8760 2f56 9AF80110 		ldrb	r1, [sl, #1]	@ zero_extendqisi2
 8761              	.LVL791:
 8762 2f5a 2B78     		ldrb	r3, [r5, #0]	@ zero_extendqisi2
 8763 2f5c 2278     		ldrb	r2, [r4, #0]	@ zero_extendqisi2
 8764 2f5e CB18     		adds	r3, r1, r3
 8765 2f60 DBB2     		uxtb	r3, r3
 8766 2f62 2B70     		strb	r3, [r5, #0]
 8767 2f64 9B18     		adds	r3, r3, r2
 8768 2f66 2370     		strb	r3, [r4, #0]
 8769 2f68 6448     		ldr	r0, .L369+28
 8770 2f6a FFF7FEFF 		bl	uart_transmit
 8771              	.LVL792:
 8772              	.LBE1267:
 8773              	.LBB1268:
 8774 2f6e 9AF80210 		ldrb	r1, [sl, #2]	@ zero_extendqisi2
 8775              	.LVL793:
 8776 2f72 2B78     		ldrb	r3, [r5, #0]	@ zero_extendqisi2
 8777 2f74 2278     		ldrb	r2, [r4, #0]	@ zero_extendqisi2
 8778 2f76 CB18     		adds	r3, r1, r3
 8779 2f78 DBB2     		uxtb	r3, r3
 8780 2f7a 2B70     		strb	r3, [r5, #0]
 8781 2f7c 9B18     		adds	r3, r3, r2
 8782 2f7e 2370     		strb	r3, [r4, #0]
 8783 2f80 5E48     		ldr	r0, .L369+28
 8784 2f82 FFF7FEFF 		bl	uart_transmit
 8785              	.LVL794:
 8786              	.LBE1268:
 8787              	.LBB1269:
 8788 2f86 9AF80310 		ldrb	r1, [sl, #3]	@ zero_extendqisi2
 8789              	.LVL795:
 8790 2f8a 2B78     		ldrb	r3, [r5, #0]	@ zero_extendqisi2
 8791 2f8c 2278     		ldrb	r2, [r4, #0]	@ zero_extendqisi2
 8792 2f8e CB18     		adds	r3, r1, r3
 8793 2f90 DBB2     		uxtb	r3, r3
 8794 2f92 2B70     		strb	r3, [r5, #0]
 8795 2f94 9B18     		adds	r3, r3, r2
 8796 2f96 2370     		strb	r3, [r4, #0]
 8797 2f98 5848     		ldr	r0, .L369+28
 8798 2f9a FFF7FEFF 		bl	uart_transmit
 8799              	.LVL796:
 8800              	.LBE1269:
 8801              	.LBB1270:
 8802 2f9e 9DF80010 		ldrb	r1, [sp, #0]	@ zero_extendqisi2
 8803              	.LVL797:
 8804 2fa2 2B78     		ldrb	r3, [r5, #0]	@ zero_extendqisi2
 8805 2fa4 2278     		ldrb	r2, [r4, #0]	@ zero_extendqisi2
 8806 2fa6 CB18     		adds	r3, r1, r3
 8807 2fa8 DBB2     		uxtb	r3, r3
 8808 2faa 2B70     		strb	r3, [r5, #0]
 8809 2fac 9B18     		adds	r3, r3, r2
 8810 2fae EA46     		mov	sl, sp
 8811 2fb0 2370     		strb	r3, [r4, #0]
 8812 2fb2 5248     		ldr	r0, .L369+28
 8813 2fb4 FFF7FEFF 		bl	uart_transmit
 8814              	.LVL798:
 8815              	.LBE1270:
 8816              	.LBB1271:
 8817 2fb8 9AF80110 		ldrb	r1, [sl, #1]	@ zero_extendqisi2
 8818              	.LVL799:
 8819 2fbc 2B78     		ldrb	r3, [r5, #0]	@ zero_extendqisi2
 8820 2fbe 2278     		ldrb	r2, [r4, #0]	@ zero_extendqisi2
 8821 2fc0 CB18     		adds	r3, r1, r3
 8822 2fc2 DBB2     		uxtb	r3, r3
 8823 2fc4 2B70     		strb	r3, [r5, #0]
 8824 2fc6 9B18     		adds	r3, r3, r2
 8825 2fc8 2370     		strb	r3, [r4, #0]
 8826 2fca 4C48     		ldr	r0, .L369+28
 8827 2fcc FFF7FEFF 		bl	uart_transmit
 8828              	.LVL800:
 8829              	.LBE1271:
 8830              	.LBB1272:
 8831 2fd0 9AF80210 		ldrb	r1, [sl, #2]	@ zero_extendqisi2
 8832              	.LVL801:
 8833 2fd4 2B78     		ldrb	r3, [r5, #0]	@ zero_extendqisi2
 8834 2fd6 2278     		ldrb	r2, [r4, #0]	@ zero_extendqisi2
 8835 2fd8 CB18     		adds	r3, r1, r3
 8836 2fda DBB2     		uxtb	r3, r3
 8837 2fdc 2B70     		strb	r3, [r5, #0]
 8838 2fde 9B18     		adds	r3, r3, r2
 8839 2fe0 2370     		strb	r3, [r4, #0]
 8840 2fe2 4648     		ldr	r0, .L369+28
 8841 2fe4 FFF7FEFF 		bl	uart_transmit
 8842              	.LVL802:
 8843              	.LBE1272:
 8844              	.LBB1273:
 8845 2fe8 9AF80310 		ldrb	r1, [sl, #3]	@ zero_extendqisi2
 8846              	.LVL803:
 8847 2fec 2B78     		ldrb	r3, [r5, #0]	@ zero_extendqisi2
 8848 2fee 2278     		ldrb	r2, [r4, #0]	@ zero_extendqisi2
 8849 2ff0 CB18     		adds	r3, r1, r3
 8850 2ff2 DBB2     		uxtb	r3, r3
 8851 2ff4 2B70     		strb	r3, [r5, #0]
 8852 2ff6 9B18     		adds	r3, r3, r2
 8853 2ff8 2370     		strb	r3, [r4, #0]
 8854 2ffa 4048     		ldr	r0, .L369+28
 8855 2ffc FFF7FEFF 		bl	uart_transmit
 8856              	.LVL804:
 8857              	.LBE1273:
 8858              	.LBB1274:
 8859 3000 3B78     		ldrb	r3, [r7, #0]	@ zero_extendqisi2
 8860 3002 2278     		ldrb	r2, [r4, #0]	@ zero_extendqisi2
 8861 3004 08FB0363 		mla	r3, r8, r3, r6
 8862 3008 197A     		ldrb	r1, [r3, #8]	@ zero_extendqisi2
 8863              	.LVL805:
 8864 300a 2B78     		ldrb	r3, [r5, #0]	@ zero_extendqisi2
 8865 300c 3B48     		ldr	r0, .L369+28
 8866 300e CB18     		adds	r3, r1, r3
 8867 3010 DBB2     		uxtb	r3, r3
 8868 3012 2B70     		strb	r3, [r5, #0]
 8869 3014 9B18     		adds	r3, r3, r2
 8870 3016 2370     		strb	r3, [r4, #0]
 8871 3018 FFF7FEFF 		bl	uart_transmit
 8872              	.LVL806:
 8873              	.LBE1274:
 8874              	.LBB1275:
 8875 301c 3B78     		ldrb	r3, [r7, #0]	@ zero_extendqisi2
 8876 301e 2278     		ldrb	r2, [r4, #0]	@ zero_extendqisi2
 8877 3020 08FB0363 		mla	r3, r8, r3, r6
 8878 3024 597A     		ldrb	r1, [r3, #9]	@ zero_extendqisi2
 8879              	.LVL807:
 8880 3026 2B78     		ldrb	r3, [r5, #0]	@ zero_extendqisi2
 8881 3028 3448     		ldr	r0, .L369+28
 8882 302a CB18     		adds	r3, r1, r3
 8883 302c DBB2     		uxtb	r3, r3
 8884 302e 2B70     		strb	r3, [r5, #0]
 8885 3030 9B18     		adds	r3, r3, r2
 8886 3032 2370     		strb	r3, [r4, #0]
 8887 3034 FFF7FEFF 		bl	uart_transmit
 8888              	.LVL808:
 8889              	.LBE1275:
 8890              	.LBB1276:
 8891 3038 3B78     		ldrb	r3, [r7, #0]	@ zero_extendqisi2
 8892 303a 2278     		ldrb	r2, [r4, #0]	@ zero_extendqisi2
 8893 303c 08FB0363 		mla	r3, r8, r3, r6
 8894 3040 997A     		ldrb	r1, [r3, #10]	@ zero_extendqisi2
 8895              	.LVL809:
 8896 3042 2B78     		ldrb	r3, [r5, #0]	@ zero_extendqisi2
 8897 3044 2D48     		ldr	r0, .L369+28
 8898 3046 CB18     		adds	r3, r1, r3
 8899 3048 DBB2     		uxtb	r3, r3
 8900 304a 2B70     		strb	r3, [r5, #0]
 8901 304c 9B18     		adds	r3, r3, r2
 8902 304e 2370     		strb	r3, [r4, #0]
 8903 3050 FFF7FEFF 		bl	uart_transmit
 8904              	.LVL810:
 8905              	.LBE1276:
 8906              	.LBB1277:
 8907 3054 3B78     		ldrb	r3, [r7, #0]	@ zero_extendqisi2
 8908 3056 2278     		ldrb	r2, [r4, #0]	@ zero_extendqisi2
 8909 3058 08FB0366 		mla	r6, r8, r3, r6
 8910 305c 2B78     		ldrb	r3, [r5, #0]	@ zero_extendqisi2
 8911 305e F17A     		ldrb	r1, [r6, #11]	@ zero_extendqisi2
 8912              	.LVL811:
 8913 3060 2648     		ldr	r0, .L369+28
 8914 3062 CB18     		adds	r3, r1, r3
 8915 3064 DBB2     		uxtb	r3, r3
 8916 3066 2B70     		strb	r3, [r5, #0]
 8917 3068 9B18     		adds	r3, r3, r2
 8918 306a 2370     		strb	r3, [r4, #0]
 8919 306c FFF7FEFF 		bl	uart_transmit
 8920              	.LVL812:
 8921              	.LBE1277:
 8922              	.LBB1278:
 8923 3070 274B     		ldr	r3, .L369+48
 8924 3072 2278     		ldrb	r2, [r4, #0]	@ zero_extendqisi2
 8925 3074 1978     		ldrb	r1, [r3, #0]	@ zero_extendqisi2
 8926              	.LVL813:
 8927 3076 2B78     		ldrb	r3, [r5, #0]	@ zero_extendqisi2
 8928 3078 2048     		ldr	r0, .L369+28
 8929 307a CB18     		adds	r3, r1, r3
 8930 307c DBB2     		uxtb	r3, r3
 8931 307e 2B70     		strb	r3, [r5, #0]
 8932 3080 9B18     		adds	r3, r3, r2
 8933 3082 2370     		strb	r3, [r4, #0]
 8934 3084 FFF7FEFF 		bl	uart_transmit
 8935              	.LVL814:
 8936              	.LBE1278:
 8937 3088 2978     		ldrb	r1, [r5, #0]	@ zero_extendqisi2
 8938 308a 1C48     		ldr	r0, .L369+28
 8939 308c FFF7FEFF 		bl	uart_transmit
 8940 3090 1A48     		ldr	r0, .L369+28
 8941 3092 2178     		ldrb	r1, [r4, #0]	@ zero_extendqisi2
 8942 3094 FFF7FEFF 		bl	uart_transmit
 8943 3098 03E0     		b	.L210
 8944              	.L212:
 8945 309a 114B     		ldr	r3, .L369
 8946 309c 1A78     		ldrb	r2, [r3, #0]	@ zero_extendqisi2
 8947 309e 0132     		adds	r2, r2, #1
 8948 30a0 1A70     		strb	r2, [r3, #0]
 8949              	.L210:
 8950              	.LBE1259:
 8951              	.LBE1258:
 8952 30a2 1C4B     		ldr	r3, .L369+52
 8953 30a4 1B78     		ldrb	r3, [r3, #0]	@ zero_extendqisi2
 8954 30a6 182B     		cmp	r3, #24
 8955 30a8 40F0EA80 		bne	.L213
 8956              	.LBB1279:
 8957 30ac 1A4B     		ldr	r3, .L369+56
 8958 30ae 1A78     		ldrb	r2, [r3, #0]	@ zero_extendqisi2
 8959 30b0 0A2A     		cmp	r2, #10
 8960 30b2 01D9     		bls	.L214
 8961 30b4 0022     		movs	r2, #0
 8962 30b6 1A70     		strb	r2, [r3, #0]
 8963              	.L214:
 8964 30b8 174B     		ldr	r3, .L369+56
 8965 30ba 1B78     		ldrb	r3, [r3, #0]	@ zero_extendqisi2
 8966 30bc 0A2B     		cmp	r3, #10
 8967 30be 4AD8     		bhi	.L215
 8968 30c0 DFE803F0 		tbb	[pc, r3]
 8969              	.L227:
 8970 30c4 06       		.byte	(.L216-.L227)/2
 8971 30c5 08       		.byte	(.L217-.L227)/2
 8972 30c6 0B       		.byte	(.L218-.L227)/2
 8973 30c7 32       		.byte	(.L219-.L227)/2
 8974 30c8 35       		.byte	(.L220-.L227)/2
 8975 30c9 37       		.byte	(.L221-.L227)/2
 8976 30ca 39       		.byte	(.L222-.L227)/2
 8977 30cb 3B       		.byte	(.L223-.L227)/2
 8978 30cc 3D       		.byte	(.L224-.L227)/2
 8979 30cd 3F       		.byte	(.L225-.L227)/2
 8980 30ce 42       		.byte	(.L226-.L227)/2
 8981 30cf 00       		.align	1
 8982              	.L216:
 8983 30d0 124B     		ldr	r3, .L369+60
 8984 30d2 00E0     		b	.L318
 8985              	.L217:
 8986 30d4 124B     		ldr	r3, .L369+64
 8987              	.L318:
 8988 30d6 1B68     		ldr	r3, [r3, #0]	@ float
 8989 30d8 3EE0     		b	.L310
 8990              	.L218:
 8991 30da 124B     		ldr	r3, .L369+68
 8992 30dc FBE7     		b	.L318
 8993              	.L370:
 8994 30de 00BF     		.align	2
 8995              	.L369:
 8996 30e0 00000000 		.word	downlink_nb_ovrn
 8997 30e4 00000000 		.word	.LANCHOR43
 8998 30e8 00000000 		.word	.LANCHOR57
 8999 30ec 00000000 		.word	nb_waypoint
 9000 30f0 00000000 		.word	nav_utm_east0
 9001 30f4 00000000 		.word	waypoints
 9002 30f8 00000000 		.word	nav_utm_north0
 9003 30fc 00000000 		.word	uart2
 9004 3100 00000000 		.word	downlink_nb_bytes
 9005 3104 00000000 		.word	downlink_nb_msgs
 9006 3108 00000000 		.word	ck_a
 9007 310c 00000000 		.word	ck_b
 9008 3110 00000000 		.word	nav_utm_zone0
 9009 3114 00000000 		.word	.LANCHOR44
 9010 3118 00000000 		.word	.LANCHOR58
 9011 311c 00000000 		.word	flight_altitude
 9012 3120 00000000 		.word	nav_course
 9013 3124 00000000 		.word	nav_shift
 9014              	.L219:
 9015 3128 434B     		ldr	r3, .L371
 9016 312a 1888     		ldrh	r0, [r3, #0]
 9017 312c 0FE0     		b	.L311
 9018              	.L220:
 9019 312e 434B     		ldr	r3, .L371+4
 9020 3130 D1E7     		b	.L318
 9021              	.L221:
 9022 3132 434B     		ldr	r3, .L371+8
 9023 3134 06E0     		b	.L317
 9024              	.L222:
 9025 3136 434B     		ldr	r3, .L371+12
 9026 3138 04E0     		b	.L317
 9027              	.L223:
 9028 313a 434B     		ldr	r3, .L371+16
 9029 313c 02E0     		b	.L317
 9030              	.L224:
 9031 313e 434B     		ldr	r3, .L371+20
 9032 3140 00E0     		b	.L317
 9033              	.L225:
 9034 3142 434B     		ldr	r3, .L371+24
 9035              	.L317:
 9036 3144 1878     		ldrb	r0, [r3, #0]	@ zero_extendqisi2
 9037 3146 02E0     		b	.L311
 9038              	.L226:
 9039 3148 424B     		ldr	r3, .L371+28
 9040 314a B3F8EA00 		ldrh	r0, [r3, #234]
 9041              	.L311:
 9042 314e FFF7FEFF 		bl	__aeabi_ui2f
 9043 3152 0090     		str	r0, [sp, #0]	@ float
 9044              	.LVL815:
 9045 3154 01E0     		b	.L228
 9046              	.LVL816:
 9047              	.L215:
 9048 3156 0023     		movs	r3, #0
 9049              	.L310:
 9050 3158 0093     		str	r3, [sp, #0]	@ float
 9051              	.LVL817:
 9052              	.L228:
 9053 315a 3F48     		ldr	r0, .L371+32
 9054 315c 0B21     		movs	r1, #11
 9055 315e FFF7FEFF 		bl	uart_check_free_space
 9056 3162 0028     		cmp	r0, #0
 9057 3164 00F08480 		beq	.L229
 9058 3168 3C4B     		ldr	r3, .L371+36
 9059              	.LBB1280:
 9060 316a 9921     		movs	r1, #153
 9061              	.LBE1280:
 9062 316c 1A88     		ldrh	r2, [r3, #0]
 9063              	.LBB1281:
 9064 316e 3A48     		ldr	r0, .L371+32
 9065              	.LBE1281:
 9066 3170 0B32     		adds	r2, r2, #11
 9067 3172 1A80     		strh	r2, [r3, #0]	@ movhi
 9068 3174 3A4B     		ldr	r3, .L371+40
 9069              	.LBB1282:
 9070 3176 3B4D     		ldr	r5, .L371+44
 9071              	.LBE1282:
 9072 3178 1A88     		ldrh	r2, [r3, #0]
 9073              	.LBB1283:
 9074 317a 3B4C     		ldr	r4, .L371+48
 9075              	.LBE1283:
 9076 317c 0132     		adds	r2, r2, #1
 9077 317e 1A80     		strh	r2, [r3, #0]	@ movhi
 9078              	.LBB1284:
 9079 3180 FFF7FEFF 		bl	uart_transmit
 9080 3184 0B21     		movs	r1, #11
 9081 3186 3448     		ldr	r0, .L371+32
 9082 3188 FFF7FEFF 		bl	uart_transmit
 9083              	.LBE1284:
 9084 318c 0C23     		movs	r3, #12
 9085 318e 2B70     		strb	r3, [r5, #0]
 9086 3190 0B33     		adds	r3, r3, #11
 9087 3192 2370     		strb	r3, [r4, #0]
 9088 3194 0121     		movs	r1, #1
 9089 3196 3048     		ldr	r0, .L371+32
 9090 3198 FFF7FEFF 		bl	uart_transmit
 9091 319c 2B78     		ldrb	r3, [r5, #0]	@ zero_extendqisi2
 9092 319e 2278     		ldrb	r2, [r4, #0]	@ zero_extendqisi2
 9093 31a0 1F33     		adds	r3, r3, #31
 9094 31a2 DBB2     		uxtb	r3, r3
 9095 31a4 2B70     		strb	r3, [r5, #0]
 9096 31a6 9B18     		adds	r3, r3, r2
 9097 31a8 2370     		strb	r3, [r4, #0]
 9098 31aa 1F21     		movs	r1, #31
 9099 31ac 2A48     		ldr	r0, .L371+32
 9100 31ae FFF7FEFF 		bl	uart_transmit
 9101              	.LBB1285:
 9102 31b2 2E4B     		ldr	r3, .L371+52
 9103 31b4 2278     		ldrb	r2, [r4, #0]	@ zero_extendqisi2
 9104 31b6 1978     		ldrb	r1, [r3, #0]	@ zero_extendqisi2
 9105              	.LVL818:
 9106 31b8 2B78     		ldrb	r3, [r5, #0]	@ zero_extendqisi2
 9107 31ba 2748     		ldr	r0, .L371+32
 9108 31bc CB18     		adds	r3, r1, r3
 9109 31be DBB2     		uxtb	r3, r3
 9110 31c0 2B70     		strb	r3, [r5, #0]
 9111 31c2 9B18     		adds	r3, r3, r2
 9112 31c4 2370     		strb	r3, [r4, #0]
 9113 31c6 FFF7FEFF 		bl	uart_transmit
 9114              	.LVL819:
 9115              	.LBE1285:
 9116              	.LBB1286:
 9117 31ca 9DF80010 		ldrb	r1, [sp, #0]	@ zero_extendqisi2
 9118              	.LVL820:
 9119 31ce 2B78     		ldrb	r3, [r5, #0]	@ zero_extendqisi2
 9120 31d0 2278     		ldrb	r2, [r4, #0]	@ zero_extendqisi2
 9121 31d2 CB18     		adds	r3, r1, r3
 9122 31d4 DBB2     		uxtb	r3, r3
 9123 31d6 2B70     		strb	r3, [r5, #0]
 9124 31d8 9B18     		adds	r3, r3, r2
 9125 31da 6E46     		mov	r6, sp
 9126 31dc 2370     		strb	r3, [r4, #0]
 9127 31de 1E48     		ldr	r0, .L371+32
 9128 31e0 FFF7FEFF 		bl	uart_transmit
 9129              	.LVL821:
 9130              	.LBE1286:
 9131              	.LBB1287:
 9132 31e4 7178     		ldrb	r1, [r6, #1]	@ zero_extendqisi2
 9133              	.LVL822:
 9134 31e6 2B78     		ldrb	r3, [r5, #0]	@ zero_extendqisi2
 9135 31e8 2278     		ldrb	r2, [r4, #0]	@ zero_extendqisi2
 9136 31ea CB18     		adds	r3, r1, r3
 9137 31ec DBB2     		uxtb	r3, r3
 9138 31ee 2B70     		strb	r3, [r5, #0]
 9139 31f0 9B18     		adds	r3, r3, r2
 9140 31f2 2370     		strb	r3, [r4, #0]
 9141 31f4 1848     		ldr	r0, .L371+32
 9142 31f6 FFF7FEFF 		bl	uart_transmit
 9143              	.LVL823:
 9144              	.LBE1287:
 9145              	.LBB1288:
 9146 31fa B178     		ldrb	r1, [r6, #2]	@ zero_extendqisi2
 9147              	.LVL824:
 9148 31fc 2B78     		ldrb	r3, [r5, #0]	@ zero_extendqisi2
 9149 31fe 2278     		ldrb	r2, [r4, #0]	@ zero_extendqisi2
 9150 3200 CB18     		adds	r3, r1, r3
 9151 3202 DBB2     		uxtb	r3, r3
 9152 3204 2B70     		strb	r3, [r5, #0]
 9153 3206 9B18     		adds	r3, r3, r2
 9154 3208 2370     		strb	r3, [r4, #0]
 9155 320a 1348     		ldr	r0, .L371+32
 9156 320c FFF7FEFF 		bl	uart_transmit
 9157              	.LVL825:
 9158              	.LBE1288:
 9159              	.LBB1289:
 9160 3210 F178     		ldrb	r1, [r6, #3]	@ zero_extendqisi2
 9161              	.LVL826:
 9162 3212 2B78     		ldrb	r3, [r5, #0]	@ zero_extendqisi2
 9163 3214 2278     		ldrb	r2, [r4, #0]	@ zero_extendqisi2
 9164 3216 CB18     		adds	r3, r1, r3
 9165 3218 DBB2     		uxtb	r3, r3
 9166 321a 2B70     		strb	r3, [r5, #0]
 9167 321c 9B18     		adds	r3, r3, r2
 9168 321e 2370     		strb	r3, [r4, #0]
 9169 3220 0D48     		ldr	r0, .L371+32
 9170 3222 FFF7FEFF 		bl	uart_transmit
 9171              	.LVL827:
 9172              	.LBE1289:
 9173 3226 2978     		ldrb	r1, [r5, #0]	@ zero_extendqisi2
 9174 3228 0B48     		ldr	r0, .L371+32
 9175 322a FFF7FEFF 		bl	uart_transmit
 9176 322e 0A48     		ldr	r0, .L371+32
 9177 3230 2178     		ldrb	r1, [r4, #0]	@ zero_extendqisi2
 9178 3232 FFF7FEFF 		bl	uart_transmit
 9179 3236 1FE0     		b	.L230
 9180              	.L372:
 9181              		.align	2
 9182              	.L371:
 9183 3238 00000000 		.word	estimator_flight_time
 9184 323c 00000000 		.word	nav_radius
 9185 3240 00000000 		.word	.LANCHOR4
 9186 3244 00000000 		.word	.LANCHOR5
 9187 3248 00000000 		.word	.LANCHOR14
 9188 324c 00000000 		.word	telemetry_mode_Ap_DefaultChannel
 9189 3250 00000000 		.word	telemetry_mode_Fbw_DefaultChannel
 9190 3254 00000000 		.word	gps
 9191 3258 00000000 		.word	uart2
 9192 325c 00000000 		.word	downlink_nb_bytes
 9193 3260 00000000 		.word	downlink_nb_msgs
 9194 3264 00000000 		.word	ck_a
 9195 3268 00000000 		.word	ck_b
 9196 326c 00000000 		.word	.LANCHOR58
 9197              	.L229:
 9198 3270 7D4B     		ldr	r3, .L373
 9199 3272 1A78     		ldrb	r2, [r3, #0]	@ zero_extendqisi2
 9200 3274 0132     		adds	r2, r2, #1
 9201 3276 1A70     		strb	r2, [r3, #0]
 9202              	.L230:
 9203 3278 7C4B     		ldr	r3, .L373+4
 9204 327a 1A78     		ldrb	r2, [r3, #0]	@ zero_extendqisi2
 9205 327c 0132     		adds	r2, r2, #1
 9206 327e 1A70     		strb	r2, [r3, #0]
 9207              	.L213:
 9208              	.LBE1279:
 9209 3280 7B4B     		ldr	r3, .L373+8
 9210 3282 1B78     		ldrb	r3, [r3, #0]	@ zero_extendqisi2
 9211 3284 1E2B     		cmp	r3, #30
 9212 3286 40F00D81 		bne	.L231
 9213 328a 7A4B     		ldr	r3, .L373+12
 9214 328c 1B78     		ldrb	r3, [r3, #0]	@ zero_extendqisi2
 9215 328e 002B     		cmp	r3, #0
 9216 3290 00F00881 		beq	.L231
 9217 3294 7848     		ldr	r0, .L373+16
 9218 3296 1621     		movs	r1, #22
 9219 3298 FFF7FEFF 		bl	uart_check_free_space
 9220 329c 0028     		cmp	r0, #0
 9221 329e 00F0FD80 		beq	.L232
 9222 32a2 764B     		ldr	r3, .L373+20
 9223              	.LBB1290:
 9224 32a4 9921     		movs	r1, #153
 9225              	.LBE1290:
 9226 32a6 1A88     		ldrh	r2, [r3, #0]
 9227              	.LBB1291:
 9228 32a8 7348     		ldr	r0, .L373+16
 9229              	.LBE1291:
 9230 32aa 1632     		adds	r2, r2, #22
 9231 32ac 1A80     		strh	r2, [r3, #0]	@ movhi
 9232 32ae 744B     		ldr	r3, .L373+24
 9233              	.LBB1292:
 9234 32b0 744D     		ldr	r5, .L373+28
 9235              	.LBE1292:
 9236 32b2 1A88     		ldrh	r2, [r3, #0]
 9237              	.LBB1293:
 9238 32b4 744C     		ldr	r4, .L373+32
 9239              	.LBE1293:
 9240 32b6 0132     		adds	r2, r2, #1
 9241 32b8 1A80     		strh	r2, [r3, #0]	@ movhi
 9242              	.LBB1294:
 9243 32ba FFF7FEFF 		bl	uart_transmit
 9244 32be 1621     		movs	r1, #22
 9245 32c0 6D48     		ldr	r0, .L373+16
 9246 32c2 FFF7FEFF 		bl	uart_transmit
 9247              	.LBE1294:
 9248 32c6 1723     		movs	r3, #23
 9249 32c8 2B70     		strb	r3, [r5, #0]
 9250 32ca 1633     		adds	r3, r3, #22
 9251 32cc 2370     		strb	r3, [r4, #0]
 9252 32ce 0121     		movs	r1, #1
 9253 32d0 6948     		ldr	r0, .L373+16
 9254 32d2 FFF7FEFF 		bl	uart_transmit
 9255 32d6 2B78     		ldrb	r3, [r5, #0]	@ zero_extendqisi2
 9256 32d8 2278     		ldrb	r2, [r4, #0]	@ zero_extendqisi2
 9257 32da 1B33     		adds	r3, r3, #27
 9258 32dc DBB2     		uxtb	r3, r3
 9259              	.LBB1295:
 9260 32de 6B4E     		ldr	r6, .L373+36
 9261              	.LBE1295:
 9262 32e0 2B70     		strb	r3, [r5, #0]
 9263 32e2 9B18     		adds	r3, r3, r2
 9264 32e4 2370     		strb	r3, [r4, #0]
 9265 32e6 1B21     		movs	r1, #27
 9266 32e8 6348     		ldr	r0, .L373+16
 9267 32ea FFF7FEFF 		bl	uart_transmit
 9268              	.LBB1296:
 9269 32ee 3178     		ldrb	r1, [r6, #0]	@ zero_extendqisi2
 9270              	.LVL828:
 9271 32f0 2B78     		ldrb	r3, [r5, #0]	@ zero_extendqisi2
 9272 32f2 2278     		ldrb	r2, [r4, #0]	@ zero_extendqisi2
 9273 32f4 CB18     		adds	r3, r1, r3
 9274 32f6 DBB2     		uxtb	r3, r3
 9275 32f8 2B70     		strb	r3, [r5, #0]
 9276 32fa 9B18     		adds	r3, r3, r2
 9277 32fc 2370     		strb	r3, [r4, #0]
 9278 32fe 5E48     		ldr	r0, .L373+16
 9279 3300 FFF7FEFF 		bl	uart_transmit
 9280              	.LVL829:
 9281              	.LBE1296:
 9282              	.LBB1297:
 9283 3304 7178     		ldrb	r1, [r6, #1]	@ zero_extendqisi2
 9284              	.LVL830:
 9285 3306 2B78     		ldrb	r3, [r5, #0]	@ zero_extendqisi2
 9286 3308 2278     		ldrb	r2, [r4, #0]	@ zero_extendqisi2
 9287 330a CB18     		adds	r3, r1, r3
 9288 330c DBB2     		uxtb	r3, r3
 9289 330e 2B70     		strb	r3, [r5, #0]
 9290 3310 9B18     		adds	r3, r3, r2
 9291 3312 2370     		strb	r3, [r4, #0]
 9292 3314 5848     		ldr	r0, .L373+16
 9293 3316 FFF7FEFF 		bl	uart_transmit
 9294              	.LVL831:
 9295              	.LBE1297:
 9296              	.LBB1298:
 9297 331a B178     		ldrb	r1, [r6, #2]	@ zero_extendqisi2
 9298              	.LVL832:
 9299 331c 2B78     		ldrb	r3, [r5, #0]	@ zero_extendqisi2
 9300 331e 2278     		ldrb	r2, [r4, #0]	@ zero_extendqisi2
 9301 3320 CB18     		adds	r3, r1, r3
 9302 3322 DBB2     		uxtb	r3, r3
 9303 3324 2B70     		strb	r3, [r5, #0]
 9304 3326 9B18     		adds	r3, r3, r2
 9305 3328 2370     		strb	r3, [r4, #0]
 9306 332a 5348     		ldr	r0, .L373+16
 9307 332c FFF7FEFF 		bl	uart_transmit
 9308              	.LVL833:
 9309              	.LBE1298:
 9310              	.LBB1299:
 9311 3330 F178     		ldrb	r1, [r6, #3]	@ zero_extendqisi2
 9312              	.LVL834:
 9313 3332 2B78     		ldrb	r3, [r5, #0]	@ zero_extendqisi2
 9314 3334 2278     		ldrb	r2, [r4, #0]	@ zero_extendqisi2
 9315 3336 CB18     		adds	r3, r1, r3
 9316 3338 DBB2     		uxtb	r3, r3
 9317              	.LBE1299:
 9318              	.LBB1300:
 9319 333a 554E     		ldr	r6, .L373+40
 9320              	.LBE1300:
 9321              	.LBB1301:
 9322 333c 2B70     		strb	r3, [r5, #0]
 9323 333e 9B18     		adds	r3, r3, r2
 9324 3340 2370     		strb	r3, [r4, #0]
 9325 3342 4D48     		ldr	r0, .L373+16
 9326 3344 FFF7FEFF 		bl	uart_transmit
 9327              	.LVL835:
 9328              	.LBE1301:
 9329              	.LBB1302:
 9330 3348 3178     		ldrb	r1, [r6, #0]	@ zero_extendqisi2
 9331              	.LVL836:
 9332 334a 2B78     		ldrb	r3, [r5, #0]	@ zero_extendqisi2
 9333 334c 2278     		ldrb	r2, [r4, #0]	@ zero_extendqisi2
 9334 334e CB18     		adds	r3, r1, r3
 9335 3350 DBB2     		uxtb	r3, r3
 9336 3352 2B70     		strb	r3, [r5, #0]
 9337 3354 9B18     		adds	r3, r3, r2
 9338 3356 2370     		strb	r3, [r4, #0]
 9339 3358 4748     		ldr	r0, .L373+16
 9340 335a FFF7FEFF 		bl	uart_transmit
 9341              	.LVL837:
 9342              	.LBE1302:
 9343              	.LBB1303:
 9344 335e 7178     		ldrb	r1, [r6, #1]	@ zero_extendqisi2
 9345              	.LVL838:
 9346 3360 2B78     		ldrb	r3, [r5, #0]	@ zero_extendqisi2
 9347 3362 2278     		ldrb	r2, [r4, #0]	@ zero_extendqisi2
 9348 3364 CB18     		adds	r3, r1, r3
 9349 3366 DBB2     		uxtb	r3, r3
 9350 3368 2B70     		strb	r3, [r5, #0]
 9351 336a 9B18     		adds	r3, r3, r2
 9352 336c 2370     		strb	r3, [r4, #0]
 9353 336e 4248     		ldr	r0, .L373+16
 9354 3370 FFF7FEFF 		bl	uart_transmit
 9355              	.LVL839:
 9356              	.LBE1303:
 9357              	.LBB1304:
 9358 3374 B178     		ldrb	r1, [r6, #2]	@ zero_extendqisi2
 9359              	.LVL840:
 9360 3376 2B78     		ldrb	r3, [r5, #0]	@ zero_extendqisi2
 9361 3378 2278     		ldrb	r2, [r4, #0]	@ zero_extendqisi2
 9362 337a CB18     		adds	r3, r1, r3
 9363 337c DBB2     		uxtb	r3, r3
 9364 337e 2B70     		strb	r3, [r5, #0]
 9365 3380 9B18     		adds	r3, r3, r2
 9366 3382 2370     		strb	r3, [r4, #0]
 9367 3384 3C48     		ldr	r0, .L373+16
 9368 3386 FFF7FEFF 		bl	uart_transmit
 9369              	.LVL841:
 9370              	.LBE1304:
 9371              	.LBB1305:
 9372 338a F178     		ldrb	r1, [r6, #3]	@ zero_extendqisi2
 9373              	.LVL842:
 9374 338c 2B78     		ldrb	r3, [r5, #0]	@ zero_extendqisi2
 9375 338e 2278     		ldrb	r2, [r4, #0]	@ zero_extendqisi2
 9376 3390 CB18     		adds	r3, r1, r3
 9377 3392 DBB2     		uxtb	r3, r3
 9378              	.LBE1305:
 9379              	.LBB1306:
 9380 3394 3F4E     		ldr	r6, .L373+44
 9381              	.LBE1306:
 9382              	.LBB1307:
 9383 3396 2B70     		strb	r3, [r5, #0]
 9384 3398 9B18     		adds	r3, r3, r2
 9385 339a 2370     		strb	r3, [r4, #0]
 9386 339c 3648     		ldr	r0, .L373+16
 9387 339e FFF7FEFF 		bl	uart_transmit
 9388              	.LVL843:
 9389              	.LBE1307:
 9390              	.LBB1308:
 9391 33a2 3178     		ldrb	r1, [r6, #0]	@ zero_extendqisi2
 9392              	.LVL844:
 9393 33a4 2B78     		ldrb	r3, [r5, #0]	@ zero_extendqisi2
 9394 33a6 2278     		ldrb	r2, [r4, #0]	@ zero_extendqisi2
 9395 33a8 CB18     		adds	r3, r1, r3
 9396 33aa DBB2     		uxtb	r3, r3
 9397 33ac 2B70     		strb	r3, [r5, #0]
 9398 33ae 9B18     		adds	r3, r3, r2
 9399 33b0 2370     		strb	r3, [r4, #0]
 9400 33b2 3148     		ldr	r0, .L373+16
 9401 33b4 FFF7FEFF 		bl	uart_transmit
 9402              	.LVL845:
 9403              	.LBE1308:
 9404              	.LBB1309:
 9405 33b8 7178     		ldrb	r1, [r6, #1]	@ zero_extendqisi2
 9406              	.LVL846:
 9407 33ba 2B78     		ldrb	r3, [r5, #0]	@ zero_extendqisi2
 9408 33bc 2278     		ldrb	r2, [r4, #0]	@ zero_extendqisi2
 9409 33be CB18     		adds	r3, r1, r3
 9410 33c0 DBB2     		uxtb	r3, r3
 9411 33c2 2B70     		strb	r3, [r5, #0]
 9412 33c4 9B18     		adds	r3, r3, r2
 9413 33c6 2370     		strb	r3, [r4, #0]
 9414 33c8 2B48     		ldr	r0, .L373+16
 9415 33ca FFF7FEFF 		bl	uart_transmit
 9416              	.LVL847:
 9417              	.LBE1309:
 9418              	.LBB1310:
 9419 33ce B178     		ldrb	r1, [r6, #2]	@ zero_extendqisi2
 9420              	.LVL848:
 9421 33d0 2B78     		ldrb	r3, [r5, #0]	@ zero_extendqisi2
 9422 33d2 2278     		ldrb	r2, [r4, #0]	@ zero_extendqisi2
 9423 33d4 CB18     		adds	r3, r1, r3
 9424 33d6 DBB2     		uxtb	r3, r3
 9425 33d8 2B70     		strb	r3, [r5, #0]
 9426 33da 9B18     		adds	r3, r3, r2
 9427 33dc 2370     		strb	r3, [r4, #0]
 9428 33de 2648     		ldr	r0, .L373+16
 9429 33e0 FFF7FEFF 		bl	uart_transmit
 9430              	.LVL849:
 9431              	.LBE1310:
 9432              	.LBB1311:
 9433 33e4 F178     		ldrb	r1, [r6, #3]	@ zero_extendqisi2
 9434              	.LVL850:
 9435 33e6 2B78     		ldrb	r3, [r5, #0]	@ zero_extendqisi2
 9436 33e8 2278     		ldrb	r2, [r4, #0]	@ zero_extendqisi2
 9437 33ea CB18     		adds	r3, r1, r3
 9438 33ec DBB2     		uxtb	r3, r3
 9439              	.LBE1311:
 9440              	.LBB1312:
 9441 33ee 2A4E     		ldr	r6, .L373+48
 9442              	.LBE1312:
 9443              	.LBB1313:
 9444 33f0 2B70     		strb	r3, [r5, #0]
 9445 33f2 9B18     		adds	r3, r3, r2
 9446 33f4 2370     		strb	r3, [r4, #0]
 9447 33f6 2048     		ldr	r0, .L373+16
 9448 33f8 FFF7FEFF 		bl	uart_transmit
 9449              	.LVL851:
 9450              	.LBE1313:
 9451              	.LBB1314:
 9452 33fc 3178     		ldrb	r1, [r6, #0]	@ zero_extendqisi2
 9453              	.LVL852:
 9454 33fe 2B78     		ldrb	r3, [r5, #0]	@ zero_extendqisi2
 9455 3400 2278     		ldrb	r2, [r4, #0]	@ zero_extendqisi2
 9456 3402 CB18     		adds	r3, r1, r3
 9457 3404 DBB2     		uxtb	r3, r3
 9458 3406 2B70     		strb	r3, [r5, #0]
 9459 3408 9B18     		adds	r3, r3, r2
 9460 340a 2370     		strb	r3, [r4, #0]
 9461 340c 1A48     		ldr	r0, .L373+16
 9462 340e FFF7FEFF 		bl	uart_transmit
 9463              	.LVL853:
 9464              	.LBE1314:
 9465              	.LBB1315:
 9466 3412 7178     		ldrb	r1, [r6, #1]	@ zero_extendqisi2
 9467              	.LVL854:
 9468 3414 2B78     		ldrb	r3, [r5, #0]	@ zero_extendqisi2
 9469 3416 2278     		ldrb	r2, [r4, #0]	@ zero_extendqisi2
 9470 3418 CB18     		adds	r3, r1, r3
 9471 341a DBB2     		uxtb	r3, r3
 9472 341c 2B70     		strb	r3, [r5, #0]
 9473 341e 9B18     		adds	r3, r3, r2
 9474 3420 2370     		strb	r3, [r4, #0]
 9475 3422 1548     		ldr	r0, .L373+16
 9476 3424 FFF7FEFF 		bl	uart_transmit
 9477              	.LVL855:
 9478              	.LBE1315:
 9479              	.LBB1316:
 9480 3428 B178     		ldrb	r1, [r6, #2]	@ zero_extendqisi2
 9481              	.LVL856:
 9482 342a 2B78     		ldrb	r3, [r5, #0]	@ zero_extendqisi2
 9483 342c 2278     		ldrb	r2, [r4, #0]	@ zero_extendqisi2
 9484 342e CB18     		adds	r3, r1, r3
 9485 3430 DBB2     		uxtb	r3, r3
 9486 3432 2B70     		strb	r3, [r5, #0]
 9487 3434 9B18     		adds	r3, r3, r2
 9488 3436 2370     		strb	r3, [r4, #0]
 9489 3438 0F48     		ldr	r0, .L373+16
 9490 343a FFF7FEFF 		bl	uart_transmit
 9491              	.LVL857:
 9492              	.LBE1316:
 9493              	.LBB1317:
 9494 343e F178     		ldrb	r1, [r6, #3]	@ zero_extendqisi2
 9495              	.LVL858:
 9496 3440 2B78     		ldrb	r3, [r5, #0]	@ zero_extendqisi2
 9497 3442 2278     		ldrb	r2, [r4, #0]	@ zero_extendqisi2
 9498 3444 CB18     		adds	r3, r1, r3
 9499 3446 DBB2     		uxtb	r3, r3
 9500 3448 2B70     		strb	r3, [r5, #0]
 9501 344a 9B18     		adds	r3, r3, r2
 9502 344c 2370     		strb	r3, [r4, #0]
 9503 344e 0A48     		ldr	r0, .L373+16
 9504 3450 FFF7FEFF 		bl	uart_transmit
 9505              	.LVL859:
 9506              	.LBE1317:
 9507 3454 2978     		ldrb	r1, [r5, #0]	@ zero_extendqisi2
 9508 3456 0848     		ldr	r0, .L373+16
 9509 3458 FFF7FEFF 		bl	uart_transmit
 9510 345c 0648     		ldr	r0, .L373+16
 9511 345e 2178     		ldrb	r1, [r4, #0]	@ zero_extendqisi2
 9512 3460 FFF7FEFF 		bl	uart_transmit
 9513 3464 1EE0     		b	.L231
 9514              	.L374:
 9515 3466 00BF     		.align	2
 9516              	.L373:
 9517 3468 00000000 		.word	downlink_nb_ovrn
 9518 346c 00000000 		.word	.LANCHOR58
 9519 3470 00000000 		.word	.LANCHOR45
 9520 3474 00000000 		.word	nav_survey_active
 9521 3478 00000000 		.word	uart2
 9522 347c 00000000 		.word	downlink_nb_bytes
 9523 3480 00000000 		.word	downlink_nb_msgs
 9524 3484 00000000 		.word	ck_a
 9525 3488 00000000 		.word	ck_b
 9526 348c 00000000 		.word	nav_survey_east
 9527 3490 00000000 		.word	nav_survey_north
 9528 3494 00000000 		.word	nav_survey_west
 9529 3498 00000000 		.word	nav_survey_south
 9530              	.L232:
 9531 349c 9A4B     		ldr	r3, .L375+8
 9532 349e 1A78     		ldrb	r2, [r3, #0]	@ zero_extendqisi2
 9533 34a0 0132     		adds	r2, r2, #1
 9534 34a2 1A70     		strb	r2, [r3, #0]
 9535              	.L231:
 9536 34a4 994B     		ldr	r3, .L375+12
 9537 34a6 1B78     		ldrb	r3, [r3, #0]	@ zero_extendqisi2
 9538 34a8 242B     		cmp	r3, #36
 9539 34aa 40F04F81 		bne	.L233
 9540              	.LBB1318:
 9541 34ae 984B     		ldr	r3, .L375+16
 9542 34b0 9848     		ldr	r0, .L375+20
 9543 34b2 1A21     		movs	r1, #26
 9544 34b4 1C68     		ldr	r4, [r3, #0]	@ float
 9545 34b6 FFF7FEFF 		bl	uart_check_free_space
 9546 34ba 0028     		cmp	r0, #0
 9547 34bc 00F04281 		beq	.L234
 9548 34c0 24F00040 		bic	r0, r4, #-2147483648
 9549 34c4 FFF7FEFF 		bl	__aeabi_f2d
 9550 34c8 8DA3     		adr	r3, .L375
 9551 34ca D3E90023 		ldrd	r2, [r3]
 9552 34ce FFF7FEFF 		bl	__aeabi_ddiv
 9553 34d2 FFF7FEFF 		bl	__aeabi_d2uiz
 9554 34d6 904B     		ldr	r3, .L375+24
 9555 34d8 C7B2     		uxtb	r7, r0
 9556 34da 1A88     		ldrh	r2, [r3, #0]
 9557              	.LBB1319:
 9558 34dc 9921     		movs	r1, #153
 9559              	.LBE1319:
 9560 34de 1A32     		adds	r2, r2, #26
 9561 34e0 1A80     		strh	r2, [r3, #0]	@ movhi
 9562 34e2 8E4B     		ldr	r3, .L375+28
 9563              	.LBB1320:
 9564 34e4 8B48     		ldr	r0, .L375+20
 9565              	.LBE1320:
 9566 34e6 1A88     		ldrh	r2, [r3, #0]
 9567              	.LBB1321:
 9568 34e8 8D4D     		ldr	r5, .L375+32
 9569              	.LBE1321:
 9570 34ea 0132     		adds	r2, r2, #1
 9571 34ec 1A80     		strh	r2, [r3, #0]	@ movhi
 9572              	.LBB1322:
 9573 34ee FFF7FEFF 		bl	uart_transmit
 9574 34f2 1A21     		movs	r1, #26
 9575 34f4 8748     		ldr	r0, .L375+20
 9576 34f6 8B4C     		ldr	r4, .L375+36
 9577 34f8 FFF7FEFF 		bl	uart_transmit
 9578              	.LBE1322:
 9579 34fc 1B23     		movs	r3, #27
 9580 34fe 2B70     		strb	r3, [r5, #0]
 9581 3500 1A33     		adds	r3, r3, #26
 9582 3502 2370     		strb	r3, [r4, #0]
 9583 3504 0121     		movs	r1, #1
 9584 3506 8348     		ldr	r0, .L375+20
 9585 3508 FFF7FEFF 		bl	uart_transmit
 9586 350c 2B78     		ldrb	r3, [r5, #0]	@ zero_extendqisi2
 9587 350e 2278     		ldrb	r2, [r4, #0]	@ zero_extendqisi2
 9588 3510 0A33     		adds	r3, r3, #10
 9589 3512 DBB2     		uxtb	r3, r3
 9590 3514 2B70     		strb	r3, [r5, #0]
 9591 3516 9B18     		adds	r3, r3, r2
 9592 3518 2370     		strb	r3, [r4, #0]
 9593 351a 0A21     		movs	r1, #10
 9594 351c 7D48     		ldr	r0, .L375+20
 9595 351e FFF7FEFF 		bl	uart_transmit
 9596              	.LBB1323:
 9597 3522 814B     		ldr	r3, .L375+40
 9598 3524 2278     		ldrb	r2, [r4, #0]	@ zero_extendqisi2
 9599 3526 1978     		ldrb	r1, [r3, #0]	@ zero_extendqisi2
 9600              	.LVL860:
 9601 3528 2B78     		ldrb	r3, [r5, #0]	@ zero_extendqisi2
 9602 352a 7A48     		ldr	r0, .L375+20
 9603 352c CB18     		adds	r3, r1, r3
 9604 352e DBB2     		uxtb	r3, r3
 9605 3530 2B70     		strb	r3, [r5, #0]
 9606 3532 9B18     		adds	r3, r3, r2
 9607 3534 2370     		strb	r3, [r4, #0]
 9608 3536 FFF7FEFF 		bl	uart_transmit
 9609              	.LVL861:
 9610              	.LBE1323:
 9611              	.LBB1324:
 9612 353a 7C4B     		ldr	r3, .L375+44
 9613 353c 2278     		ldrb	r2, [r4, #0]	@ zero_extendqisi2
 9614 353e 1978     		ldrb	r1, [r3, #0]	@ zero_extendqisi2
 9615              	.LVL862:
 9616 3540 2B78     		ldrb	r3, [r5, #0]	@ zero_extendqisi2
 9617              	.LBE1324:
 9618              	.LBB1325:
 9619 3542 7B4E     		ldr	r6, .L375+48
 9620              	.LBE1325:
 9621              	.LBB1326:
 9622 3544 CB18     		adds	r3, r1, r3
 9623 3546 DBB2     		uxtb	r3, r3
 9624 3548 2B70     		strb	r3, [r5, #0]
 9625 354a 9B18     		adds	r3, r3, r2
 9626 354c 2370     		strb	r3, [r4, #0]
 9627 354e 7148     		ldr	r0, .L375+20
 9628 3550 FFF7FEFF 		bl	uart_transmit
 9629              	.LVL863:
 9630              	.LBE1326:
 9631              	.LBB1327:
 9632 3554 3178     		ldrb	r1, [r6, #0]	@ zero_extendqisi2
 9633              	.LVL864:
 9634 3556 2B78     		ldrb	r3, [r5, #0]	@ zero_extendqisi2
 9635 3558 2278     		ldrb	r2, [r4, #0]	@ zero_extendqisi2
 9636 355a CB18     		adds	r3, r1, r3
 9637 355c DBB2     		uxtb	r3, r3
 9638 355e 2B70     		strb	r3, [r5, #0]
 9639 3560 9B18     		adds	r3, r3, r2
 9640 3562 2370     		strb	r3, [r4, #0]
 9641 3564 6B48     		ldr	r0, .L375+20
 9642 3566 FFF7FEFF 		bl	uart_transmit
 9643              	.LVL865:
 9644              	.LBE1327:
 9645              	.LBB1328:
 9646 356a 7178     		ldrb	r1, [r6, #1]	@ zero_extendqisi2
 9647              	.LVL866:
 9648 356c 2B78     		ldrb	r3, [r5, #0]	@ zero_extendqisi2
 9649 356e 2278     		ldrb	r2, [r4, #0]	@ zero_extendqisi2
 9650 3570 CB18     		adds	r3, r1, r3
 9651 3572 DBB2     		uxtb	r3, r3
 9652 3574 2B70     		strb	r3, [r5, #0]
 9653 3576 9B18     		adds	r3, r3, r2
 9654 3578 2370     		strb	r3, [r4, #0]
 9655 357a 6648     		ldr	r0, .L375+20
 9656 357c FFF7FEFF 		bl	uart_transmit
 9657              	.LVL867:
 9658              	.LBE1328:
 9659              	.LBB1329:
 9660 3580 B178     		ldrb	r1, [r6, #2]	@ zero_extendqisi2
 9661              	.LVL868:
 9662 3582 2B78     		ldrb	r3, [r5, #0]	@ zero_extendqisi2
 9663 3584 2278     		ldrb	r2, [r4, #0]	@ zero_extendqisi2
 9664 3586 CB18     		adds	r3, r1, r3
 9665 3588 DBB2     		uxtb	r3, r3
 9666 358a 2B70     		strb	r3, [r5, #0]
 9667 358c 9B18     		adds	r3, r3, r2
 9668 358e 2370     		strb	r3, [r4, #0]
 9669 3590 6048     		ldr	r0, .L375+20
 9670 3592 FFF7FEFF 		bl	uart_transmit
 9671              	.LVL869:
 9672              	.LBE1329:
 9673              	.LBB1330:
 9674 3596 F178     		ldrb	r1, [r6, #3]	@ zero_extendqisi2
 9675              	.LVL870:
 9676 3598 2B78     		ldrb	r3, [r5, #0]	@ zero_extendqisi2
 9677 359a 2278     		ldrb	r2, [r4, #0]	@ zero_extendqisi2
 9678 359c CB18     		adds	r3, r1, r3
 9679 359e DBB2     		uxtb	r3, r3
 9680              	.LBE1330:
 9681              	.LBB1331:
 9682 35a0 644E     		ldr	r6, .L375+52
 9683              	.LBE1331:
 9684              	.LBB1332:
 9685 35a2 2B70     		strb	r3, [r5, #0]
 9686 35a4 9B18     		adds	r3, r3, r2
 9687 35a6 2370     		strb	r3, [r4, #0]
 9688 35a8 5A48     		ldr	r0, .L375+20
 9689 35aa FFF7FEFF 		bl	uart_transmit
 9690              	.LVL871:
 9691              	.LBE1332:
 9692              	.LBB1333:
 9693 35ae 3178     		ldrb	r1, [r6, #0]	@ zero_extendqisi2
 9694              	.LVL872:
 9695 35b0 2B78     		ldrb	r3, [r5, #0]	@ zero_extendqisi2
 9696 35b2 2278     		ldrb	r2, [r4, #0]	@ zero_extendqisi2
 9697 35b4 CB18     		adds	r3, r1, r3
 9698 35b6 DBB2     		uxtb	r3, r3
 9699 35b8 2B70     		strb	r3, [r5, #0]
 9700 35ba 9B18     		adds	r3, r3, r2
 9701 35bc 2370     		strb	r3, [r4, #0]
 9702 35be 5548     		ldr	r0, .L375+20
 9703 35c0 FFF7FEFF 		bl	uart_transmit
 9704              	.LVL873:
 9705              	.LBE1333:
 9706              	.LBB1334:
 9707 35c4 7178     		ldrb	r1, [r6, #1]	@ zero_extendqisi2
 9708              	.LVL874:
 9709 35c6 2B78     		ldrb	r3, [r5, #0]	@ zero_extendqisi2
 9710 35c8 2278     		ldrb	r2, [r4, #0]	@ zero_extendqisi2
 9711 35ca CB18     		adds	r3, r1, r3
 9712 35cc DBB2     		uxtb	r3, r3
 9713 35ce 2B70     		strb	r3, [r5, #0]
 9714 35d0 9B18     		adds	r3, r3, r2
 9715 35d2 2370     		strb	r3, [r4, #0]
 9716 35d4 4F48     		ldr	r0, .L375+20
 9717 35d6 FFF7FEFF 		bl	uart_transmit
 9718              	.LVL875:
 9719              	.LBE1334:
 9720              	.LBB1335:
 9721 35da B178     		ldrb	r1, [r6, #2]	@ zero_extendqisi2
 9722              	.LVL876:
 9723 35dc 2B78     		ldrb	r3, [r5, #0]	@ zero_extendqisi2
 9724 35de 2278     		ldrb	r2, [r4, #0]	@ zero_extendqisi2
 9725 35e0 CB18     		adds	r3, r1, r3
 9726 35e2 DBB2     		uxtb	r3, r3
 9727 35e4 2B70     		strb	r3, [r5, #0]
 9728 35e6 9B18     		adds	r3, r3, r2
 9729 35e8 2370     		strb	r3, [r4, #0]
 9730 35ea 4A48     		ldr	r0, .L375+20
 9731 35ec FFF7FEFF 		bl	uart_transmit
 9732              	.LVL877:
 9733              	.LBE1335:
 9734              	.LBB1336:
 9735 35f0 F178     		ldrb	r1, [r6, #3]	@ zero_extendqisi2
 9736              	.LVL878:
 9737 35f2 2B78     		ldrb	r3, [r5, #0]	@ zero_extendqisi2
 9738 35f4 2278     		ldrb	r2, [r4, #0]	@ zero_extendqisi2
 9739 35f6 CB18     		adds	r3, r1, r3
 9740 35f8 DBB2     		uxtb	r3, r3
 9741              	.LBE1336:
 9742              	.LBB1337:
 9743 35fa 4F4E     		ldr	r6, .L375+56
 9744              	.LBE1337:
 9745              	.LBB1338:
 9746 35fc 2B70     		strb	r3, [r5, #0]
 9747 35fe 9B18     		adds	r3, r3, r2
 9748 3600 2370     		strb	r3, [r4, #0]
 9749 3602 4448     		ldr	r0, .L375+20
 9750 3604 FFF7FEFF 		bl	uart_transmit
 9751              	.LVL879:
 9752              	.LBE1338:
 9753              	.LBB1339:
 9754 3608 3178     		ldrb	r1, [r6, #0]	@ zero_extendqisi2
 9755              	.LVL880:
 9756 360a 2B78     		ldrb	r3, [r5, #0]	@ zero_extendqisi2
 9757 360c 2278     		ldrb	r2, [r4, #0]	@ zero_extendqisi2
 9758 360e CB18     		adds	r3, r1, r3
 9759 3610 DBB2     		uxtb	r3, r3
 9760 3612 2B70     		strb	r3, [r5, #0]
 9761 3614 9B18     		adds	r3, r3, r2
 9762 3616 2370     		strb	r3, [r4, #0]
 9763 3618 3E48     		ldr	r0, .L375+20
 9764 361a FFF7FEFF 		bl	uart_transmit
 9765              	.LVL881:
 9766              	.LBE1339:
 9767              	.LBB1340:
 9768 361e 7178     		ldrb	r1, [r6, #1]	@ zero_extendqisi2
 9769              	.LVL882:
 9770 3620 2B78     		ldrb	r3, [r5, #0]	@ zero_extendqisi2
 9771 3622 2278     		ldrb	r2, [r4, #0]	@ zero_extendqisi2
 9772 3624 CB18     		adds	r3, r1, r3
 9773 3626 DBB2     		uxtb	r3, r3
 9774 3628 2B70     		strb	r3, [r5, #0]
 9775 362a 9B18     		adds	r3, r3, r2
 9776 362c 2370     		strb	r3, [r4, #0]
 9777 362e 3948     		ldr	r0, .L375+20
 9778 3630 FFF7FEFF 		bl	uart_transmit
 9779              	.LVL883:
 9780              	.LBE1340:
 9781              	.LBB1341:
 9782 3634 B178     		ldrb	r1, [r6, #2]	@ zero_extendqisi2
 9783              	.LVL884:
 9784 3636 2B78     		ldrb	r3, [r5, #0]	@ zero_extendqisi2
 9785 3638 2278     		ldrb	r2, [r4, #0]	@ zero_extendqisi2
 9786 363a CB18     		adds	r3, r1, r3
 9787 363c DBB2     		uxtb	r3, r3
 9788 363e 2B70     		strb	r3, [r5, #0]
 9789 3640 9B18     		adds	r3, r3, r2
 9790 3642 2370     		strb	r3, [r4, #0]
 9791 3644 3348     		ldr	r0, .L375+20
 9792 3646 FFF7FEFF 		bl	uart_transmit
 9793              	.LVL885:
 9794              	.LBE1341:
 9795              	.LBB1342:
 9796 364a F178     		ldrb	r1, [r6, #3]	@ zero_extendqisi2
 9797              	.LVL886:
 9798 364c 2B78     		ldrb	r3, [r5, #0]	@ zero_extendqisi2
 9799 364e 2278     		ldrb	r2, [r4, #0]	@ zero_extendqisi2
 9800 3650 CB18     		adds	r3, r1, r3
 9801 3652 DBB2     		uxtb	r3, r3
 9802              	.LBE1342:
 9803              	.LBB1343:
 9804 3654 394E     		ldr	r6, .L375+60
 9805              	.LBE1343:
 9806              	.LBB1344:
 9807 3656 2B70     		strb	r3, [r5, #0]
 9808 3658 9B18     		adds	r3, r3, r2
 9809 365a 2370     		strb	r3, [r4, #0]
 9810 365c 2D48     		ldr	r0, .L375+20
 9811 365e FFF7FEFF 		bl	uart_transmit
 9812              	.LVL887:
 9813              	.LBE1344:
 9814              	.LBB1345:
 9815 3662 3178     		ldrb	r1, [r6, #0]	@ zero_extendqisi2
 9816              	.LVL888:
 9817 3664 2B78     		ldrb	r3, [r5, #0]	@ zero_extendqisi2
 9818 3666 2278     		ldrb	r2, [r4, #0]	@ zero_extendqisi2
 9819 3668 CB18     		adds	r3, r1, r3
 9820 366a DBB2     		uxtb	r3, r3
 9821 366c 2B70     		strb	r3, [r5, #0]
 9822 366e 9B18     		adds	r3, r3, r2
 9823 3670 2370     		strb	r3, [r4, #0]
 9824 3672 2848     		ldr	r0, .L375+20
 9825 3674 FFF7FEFF 		bl	uart_transmit
 9826              	.LVL889:
 9827              	.LBE1345:
 9828              	.LBB1346:
 9829 3678 7178     		ldrb	r1, [r6, #1]	@ zero_extendqisi2
 9830              	.LVL890:
 9831 367a 2B78     		ldrb	r3, [r5, #0]	@ zero_extendqisi2
 9832 367c 2278     		ldrb	r2, [r4, #0]	@ zero_extendqisi2
 9833 367e CB18     		adds	r3, r1, r3
 9834 3680 DBB2     		uxtb	r3, r3
 9835 3682 2B70     		strb	r3, [r5, #0]
 9836 3684 9B18     		adds	r3, r3, r2
 9837 3686 2370     		strb	r3, [r4, #0]
 9838 3688 2248     		ldr	r0, .L375+20
 9839 368a FFF7FEFF 		bl	uart_transmit
 9840              	.LVL891:
 9841              	.LBE1346:
 9842              	.LBB1347:
 9843 368e B178     		ldrb	r1, [r6, #2]	@ zero_extendqisi2
 9844              	.LVL892:
 9845 3690 2B78     		ldrb	r3, [r5, #0]	@ zero_extendqisi2
 9846 3692 2278     		ldrb	r2, [r4, #0]	@ zero_extendqisi2
 9847 3694 CB18     		adds	r3, r1, r3
 9848 3696 DBB2     		uxtb	r3, r3
 9849 3698 2B70     		strb	r3, [r5, #0]
 9850 369a 9B18     		adds	r3, r3, r2
 9851 369c 2370     		strb	r3, [r4, #0]
 9852 369e 1D48     		ldr	r0, .L375+20
 9853 36a0 FFF7FEFF 		bl	uart_transmit
 9854              	.LVL893:
 9855              	.LBE1347:
 9856              	.LBB1348:
 9857 36a4 F178     		ldrb	r1, [r6, #3]	@ zero_extendqisi2
 9858              	.LVL894:
 9859 36a6 2B78     		ldrb	r3, [r5, #0]	@ zero_extendqisi2
 9860 36a8 2278     		ldrb	r2, [r4, #0]	@ zero_extendqisi2
 9861 36aa CB18     		adds	r3, r1, r3
 9862 36ac DBB2     		uxtb	r3, r3
 9863 36ae 2B70     		strb	r3, [r5, #0]
 9864 36b0 9B18     		adds	r3, r3, r2
 9865 36b2 2370     		strb	r3, [r4, #0]
 9866 36b4 1748     		ldr	r0, .L375+20
 9867 36b6 FFF7FEFF 		bl	uart_transmit
 9868              	.LVL895:
 9869              	.LBE1348:
 9870              	.LBB1349:
 9871 36ba 2B78     		ldrb	r3, [r5, #0]	@ zero_extendqisi2
 9872 36bc 2278     		ldrb	r2, [r4, #0]	@ zero_extendqisi2
 9873 36be FB18     		adds	r3, r7, r3
 9874 36c0 DBB2     		uxtb	r3, r3
 9875 36c2 2B70     		strb	r3, [r5, #0]
 9876 36c4 9B18     		adds	r3, r3, r2
 9877 36c6 2370     		strb	r3, [r4, #0]
 9878 36c8 3946     		mov	r1, r7
 9879 36ca 1248     		ldr	r0, .L375+20
 9880 36cc FFF7FEFF 		bl	uart_transmit
 9881              	.LBE1349:
 9882              	.LBB1350:
 9883 36d0 1B4B     		ldr	r3, .L375+64
 9884 36d2 2278     		ldrb	r2, [r4, #0]	@ zero_extendqisi2
 9885 36d4 1978     		ldrb	r1, [r3, #0]	@ zero_extendqisi2
 9886              	.LVL896:
 9887 36d6 2B78     		ldrb	r3, [r5, #0]	@ zero_extendqisi2
 9888 36d8 0E48     		ldr	r0, .L375+20
 9889 36da CB18     		adds	r3, r1, r3
 9890 36dc DBB2     		uxtb	r3, r3
 9891 36de 2B70     		strb	r3, [r5, #0]
 9892 36e0 9B18     		adds	r3, r3, r2
 9893 36e2 2370     		strb	r3, [r4, #0]
 9894 36e4 FFF7FEFF 		bl	uart_transmit
 9895              	.LVL897:
 9896              	.LBE1350:
 9897 36e8 2978     		ldrb	r1, [r5, #0]	@ zero_extendqisi2
 9898 36ea 0A48     		ldr	r0, .L375+20
 9899 36ec FFF7FEFF 		bl	uart_transmit
 9900 36f0 0848     		ldr	r0, .L375+20
 9901 36f2 2178     		ldrb	r1, [r4, #0]	@ zero_extendqisi2
 9902 36f4 FFF7FEFF 		bl	uart_transmit
 9903 36f8 28E0     		b	.L233
 9904              	.L376:
 9905 36fa 00BFAFF3 		.align	3
 9905      0080
 9906              	.L375:
 9907 3700 182D4454 		.word	1413754136
 9908 3704 FB211940 		.word	1075388923
 9909 3708 00000000 		.word	downlink_nb_ovrn
 9910 370c 00000000 		.word	.LANCHOR46
 9911 3710 00000000 		.word	nav_circle_radians
 9912 3714 00000000 		.word	uart2
 9913 3718 00000000 		.word	downlink_nb_bytes
 9914 371c 00000000 		.word	downlink_nb_msgs
 9915 3720 00000000 		.word	ck_a
 9916 3724 00000000 		.word	ck_b
 9917 3728 00000000 		.word	nav_block
 9918 372c 00000000 		.word	nav_stage
 9919 3730 00000000 		.word	estimator_x
 9920 3734 00000000 		.word	estimator_y
 9921 3738 00000000 		.word	dist2_to_wp
 9922 373c 00000000 		.word	dist2_to_home
 9923 3740 00000000 		.word	nav_oval_count
 9924              	.L234:
 9925 3744 644B     		ldr	r3, .L377
 9926 3746 1A78     		ldrb	r2, [r3, #0]	@ zero_extendqisi2
 9927 3748 0132     		adds	r2, r2, #1
 9928 374a 1A70     		strb	r2, [r3, #0]
 9929              	.L233:
 9930              	.LBE1318:
 9931 374c 634B     		ldr	r3, .L377+4
 9932 374e 1B78     		ldrb	r3, [r3, #0]	@ zero_extendqisi2
 9933 3750 2A2B     		cmp	r3, #42
 9934 3752 40F0DB80 		bne	.L235
 9935 3756 624B     		ldr	r3, .L377+8
 9936 3758 1B78     		ldrb	r3, [r3, #0]	@ zero_extendqisi2
 9937 375a 002B     		cmp	r3, #0
 9938 375c 00F0D680 		beq	.L235
 9939 3760 6048     		ldr	r0, .L377+12
 9940 3762 1221     		movs	r1, #18
 9941 3764 FFF7FEFF 		bl	uart_check_free_space
 9942 3768 0028     		cmp	r0, #0
 9943 376a 00F0CB80 		beq	.L236
 9944 376e 5E4B     		ldr	r3, .L377+16
 9945              	.LBB1351:
 9946 3770 9921     		movs	r1, #153
 9947              	.LBE1351:
 9948 3772 1A88     		ldrh	r2, [r3, #0]
 9949              	.LBB1352:
 9950 3774 5B48     		ldr	r0, .L377+12
 9951              	.LBE1352:
 9952 3776 1232     		adds	r2, r2, #18
 9953 3778 1A80     		strh	r2, [r3, #0]	@ movhi
 9954 377a 5C4B     		ldr	r3, .L377+20
 9955              	.LBB1353:
 9956 377c 5C4D     		ldr	r5, .L377+24
 9957              	.LBE1353:
 9958 377e 1A88     		ldrh	r2, [r3, #0]
 9959              	.LBB1354:
 9960 3780 5C4C     		ldr	r4, .L377+28
 9961              	.LBE1354:
 9962 3782 0132     		adds	r2, r2, #1
 9963 3784 1A80     		strh	r2, [r3, #0]	@ movhi
 9964              	.LBB1355:
 9965 3786 FFF7FEFF 		bl	uart_transmit
 9966 378a 1221     		movs	r1, #18
 9967 378c 5548     		ldr	r0, .L377+12
 9968 378e FFF7FEFF 		bl	uart_transmit
 9969              	.LBE1355:
 9970 3792 1323     		movs	r3, #19
 9971 3794 2B70     		strb	r3, [r5, #0]
 9972 3796 1233     		adds	r3, r3, #18
 9973 3798 2370     		strb	r3, [r4, #0]
 9974 379a 0121     		movs	r1, #1
 9975 379c 5148     		ldr	r0, .L377+12
 9976 379e FFF7FEFF 		bl	uart_transmit
 9977 37a2 2B78     		ldrb	r3, [r5, #0]	@ zero_extendqisi2
 9978 37a4 2278     		ldrb	r2, [r4, #0]	@ zero_extendqisi2
 9979 37a6 1533     		adds	r3, r3, #21
 9980 37a8 DBB2     		uxtb	r3, r3
 9981              	.LBB1356:
 9982 37aa 534E     		ldr	r6, .L377+32
 9983              	.LBE1356:
 9984 37ac 2B70     		strb	r3, [r5, #0]
 9985 37ae 9B18     		adds	r3, r3, r2
 9986 37b0 2370     		strb	r3, [r4, #0]
 9987 37b2 1521     		movs	r1, #21
 9988 37b4 4B48     		ldr	r0, .L377+12
 9989 37b6 FFF7FEFF 		bl	uart_transmit
 9990              	.LBB1357:
 9991 37ba 3178     		ldrb	r1, [r6, #0]	@ zero_extendqisi2
 9992              	.LVL898:
 9993 37bc 2B78     		ldrb	r3, [r5, #0]	@ zero_extendqisi2
 9994 37be 2278     		ldrb	r2, [r4, #0]	@ zero_extendqisi2
 9995 37c0 CB18     		adds	r3, r1, r3
 9996 37c2 DBB2     		uxtb	r3, r3
 9997 37c4 2B70     		strb	r3, [r5, #0]
 9998 37c6 9B18     		adds	r3, r3, r2
 9999 37c8 2370     		strb	r3, [r4, #0]
 10000 37ca 4648     		ldr	r0, .L377+12
 10001 37cc FFF7FEFF 		bl	uart_transmit
 10002              	.LVL899:
 10003              	.LBE1357:
 10004              	.LBB1358:
 10005 37d0 7178     		ldrb	r1, [r6, #1]	@ zero_extendqisi2
 10006              	.LVL900:
 10007 37d2 2B78     		ldrb	r3, [r5, #0]	@ zero_extendqisi2
 10008 37d4 2278     		ldrb	r2, [r4, #0]	@ zero_extendqisi2
 10009 37d6 CB18     		adds	r3, r1, r3
 10010 37d8 DBB2     		uxtb	r3, r3
 10011 37da 2B70     		strb	r3, [r5, #0]
 10012 37dc 9B18     		adds	r3, r3, r2
 10013 37de 2370     		strb	r3, [r4, #0]
 10014 37e0 4048     		ldr	r0, .L377+12
 10015 37e2 FFF7FEFF 		bl	uart_transmit
 10016              	.LVL901:
 10017              	.LBE1358:
 10018              	.LBB1359:
 10019 37e6 B178     		ldrb	r1, [r6, #2]	@ zero_extendqisi2
 10020              	.LVL902:
 10021 37e8 2B78     		ldrb	r3, [r5, #0]	@ zero_extendqisi2
 10022 37ea 2278     		ldrb	r2, [r4, #0]	@ zero_extendqisi2
 10023 37ec CB18     		adds	r3, r1, r3
 10024 37ee DBB2     		uxtb	r3, r3
 10025 37f0 2B70     		strb	r3, [r5, #0]
 10026 37f2 9B18     		adds	r3, r3, r2
 10027 37f4 2370     		strb	r3, [r4, #0]
 10028 37f6 3B48     		ldr	r0, .L377+12
 10029 37f8 FFF7FEFF 		bl	uart_transmit
 10030              	.LVL903:
 10031              	.LBE1359:
 10032              	.LBB1360:
 10033 37fc F178     		ldrb	r1, [r6, #3]	@ zero_extendqisi2
 10034              	.LVL904:
 10035 37fe 2B78     		ldrb	r3, [r5, #0]	@ zero_extendqisi2
 10036 3800 2278     		ldrb	r2, [r4, #0]	@ zero_extendqisi2
 10037 3802 CB18     		adds	r3, r1, r3
 10038 3804 DBB2     		uxtb	r3, r3
 10039              	.LBE1360:
 10040              	.LBB1361:
 10041 3806 3D4E     		ldr	r6, .L377+36
 10042              	.LBE1361:
 10043              	.LBB1362:
 10044 3808 2B70     		strb	r3, [r5, #0]
 10045 380a 9B18     		adds	r3, r3, r2
 10046 380c 2370     		strb	r3, [r4, #0]
 10047 380e 3548     		ldr	r0, .L377+12
 10048 3810 FFF7FEFF 		bl	uart_transmit
 10049              	.LVL905:
 10050              	.LBE1362:
 10051              	.LBB1363:
 10052 3814 3178     		ldrb	r1, [r6, #0]	@ zero_extendqisi2
 10053              	.LVL906:
 10054 3816 2B78     		ldrb	r3, [r5, #0]	@ zero_extendqisi2
 10055 3818 2278     		ldrb	r2, [r4, #0]	@ zero_extendqisi2
 10056 381a CB18     		adds	r3, r1, r3
 10057 381c DBB2     		uxtb	r3, r3
 10058 381e 2B70     		strb	r3, [r5, #0]
 10059 3820 9B18     		adds	r3, r3, r2
 10060 3822 2370     		strb	r3, [r4, #0]
 10061 3824 2F48     		ldr	r0, .L377+12
 10062 3826 FFF7FEFF 		bl	uart_transmit
 10063              	.LVL907:
 10064              	.LBE1363:
 10065              	.LBB1364:
 10066 382a 7178     		ldrb	r1, [r6, #1]	@ zero_extendqisi2
 10067              	.LVL908:
 10068 382c 2B78     		ldrb	r3, [r5, #0]	@ zero_extendqisi2
 10069 382e 2278     		ldrb	r2, [r4, #0]	@ zero_extendqisi2
 10070 3830 CB18     		adds	r3, r1, r3
 10071 3832 DBB2     		uxtb	r3, r3
 10072 3834 2B70     		strb	r3, [r5, #0]
 10073 3836 9B18     		adds	r3, r3, r2
 10074 3838 2370     		strb	r3, [r4, #0]
 10075 383a 2A48     		ldr	r0, .L377+12
 10076 383c FFF7FEFF 		bl	uart_transmit
 10077              	.LVL909:
 10078              	.LBE1364:
 10079              	.LBB1365:
 10080 3840 B178     		ldrb	r1, [r6, #2]	@ zero_extendqisi2
 10081              	.LVL910:
 10082 3842 2B78     		ldrb	r3, [r5, #0]	@ zero_extendqisi2
 10083 3844 2278     		ldrb	r2, [r4, #0]	@ zero_extendqisi2
 10084 3846 CB18     		adds	r3, r1, r3
 10085 3848 DBB2     		uxtb	r3, r3
 10086 384a 2B70     		strb	r3, [r5, #0]
 10087 384c 9B18     		adds	r3, r3, r2
 10088 384e 2370     		strb	r3, [r4, #0]
 10089 3850 2448     		ldr	r0, .L377+12
 10090 3852 FFF7FEFF 		bl	uart_transmit
 10091              	.LVL911:
 10092              	.LBE1365:
 10093              	.LBB1366:
 10094 3856 F178     		ldrb	r1, [r6, #3]	@ zero_extendqisi2
 10095              	.LVL912:
 10096 3858 2B78     		ldrb	r3, [r5, #0]	@ zero_extendqisi2
 10097 385a 2278     		ldrb	r2, [r4, #0]	@ zero_extendqisi2
 10098 385c CB18     		adds	r3, r1, r3
 10099 385e DBB2     		uxtb	r3, r3
 10100              	.LBE1366:
 10101              	.LBB1367:
 10102 3860 274E     		ldr	r6, .L377+40
 10103              	.LBE1367:
 10104              	.LBB1368:
 10105 3862 2B70     		strb	r3, [r5, #0]
 10106 3864 9B18     		adds	r3, r3, r2
 10107 3866 2370     		strb	r3, [r4, #0]
 10108 3868 1E48     		ldr	r0, .L377+12
 10109 386a FFF7FEFF 		bl	uart_transmit
 10110              	.LVL913:
 10111              	.LBE1368:
 10112              	.LBB1369:
 10113 386e 3178     		ldrb	r1, [r6, #0]	@ zero_extendqisi2
 10114              	.LVL914:
 10115 3870 2B78     		ldrb	r3, [r5, #0]	@ zero_extendqisi2
 10116 3872 2278     		ldrb	r2, [r4, #0]	@ zero_extendqisi2
 10117 3874 CB18     		adds	r3, r1, r3
 10118 3876 DBB2     		uxtb	r3, r3
 10119 3878 2B70     		strb	r3, [r5, #0]
 10120 387a 9B18     		adds	r3, r3, r2
 10121 387c 2370     		strb	r3, [r4, #0]
 10122 387e 1948     		ldr	r0, .L377+12
 10123 3880 FFF7FEFF 		bl	uart_transmit
 10124              	.LVL915:
 10125              	.LBE1369:
 10126              	.LBB1370:
 10127 3884 7178     		ldrb	r1, [r6, #1]	@ zero_extendqisi2
 10128              	.LVL916:
 10129 3886 2B78     		ldrb	r3, [r5, #0]	@ zero_extendqisi2
 10130 3888 2278     		ldrb	r2, [r4, #0]	@ zero_extendqisi2
 10131 388a CB18     		adds	r3, r1, r3
 10132 388c DBB2     		uxtb	r3, r3
 10133 388e 2B70     		strb	r3, [r5, #0]
 10134 3890 9B18     		adds	r3, r3, r2
 10135 3892 2370     		strb	r3, [r4, #0]
 10136 3894 1348     		ldr	r0, .L377+12
 10137 3896 FFF7FEFF 		bl	uart_transmit
 10138              	.LVL917:
 10139              	.LBE1370:
 10140              	.LBB1371:
 10141 389a B178     		ldrb	r1, [r6, #2]	@ zero_extendqisi2
 10142              	.LVL918:
 10143 389c 2B78     		ldrb	r3, [r5, #0]	@ zero_extendqisi2
 10144 389e 2278     		ldrb	r2, [r4, #0]	@ zero_extendqisi2
 10145 38a0 CB18     		adds	r3, r1, r3
 10146 38a2 DBB2     		uxtb	r3, r3
 10147 38a4 2B70     		strb	r3, [r5, #0]
 10148 38a6 9B18     		adds	r3, r3, r2
 10149 38a8 2370     		strb	r3, [r4, #0]
 10150 38aa 0E48     		ldr	r0, .L377+12
 10151 38ac FFF7FEFF 		bl	uart_transmit
 10152              	.LVL919:
 10153              	.LBE1371:
 10154              	.LBB1372:
 10155 38b0 F178     		ldrb	r1, [r6, #3]	@ zero_extendqisi2
 10156              	.LVL920:
 10157 38b2 2B78     		ldrb	r3, [r5, #0]	@ zero_extendqisi2
 10158 38b4 2278     		ldrb	r2, [r4, #0]	@ zero_extendqisi2
 10159 38b6 CB18     		adds	r3, r1, r3
 10160 38b8 DBB2     		uxtb	r3, r3
 10161 38ba 2B70     		strb	r3, [r5, #0]
 10162 38bc 9B18     		adds	r3, r3, r2
 10163 38be 2370     		strb	r3, [r4, #0]
 10164 38c0 0848     		ldr	r0, .L377+12
 10165 38c2 FFF7FEFF 		bl	uart_transmit
 10166              	.LVL921:
 10167              	.LBE1372:
 10168 38c6 2978     		ldrb	r1, [r5, #0]	@ zero_extendqisi2
 10169 38c8 0648     		ldr	r0, .L377+12
 10170 38ca FFF7FEFF 		bl	uart_transmit
 10171 38ce 0548     		ldr	r0, .L377+12
 10172 38d0 2178     		ldrb	r1, [r4, #0]	@ zero_extendqisi2
 10173 38d2 FFF7FEFF 		bl	uart_transmit
 10174 38d6 19E0     		b	.L235
 10175              	.L378:
 10176              		.align	2
 10177              	.L377:
 10178 38d8 00000000 		.word	downlink_nb_ovrn
 10179 38dc 00000000 		.word	.LANCHOR47
 10180 38e0 00000000 		.word	nav_in_circle
 10181 38e4 00000000 		.word	uart2
 10182 38e8 00000000 		.word	downlink_nb_bytes
 10183 38ec 00000000 		.word	downlink_nb_msgs
 10184 38f0 00000000 		.word	ck_a
 10185 38f4 00000000 		.word	ck_b
 10186 38f8 00000000 		.word	nav_circle_x
 10187 38fc 00000000 		.word	nav_circle_y
 10188 3900 00000000 		.word	nav_circle_radius
 10189              	.L236:
 10190 3904 7B4B     		ldr	r3, .L379
 10191 3906 1A78     		ldrb	r2, [r3, #0]	@ zero_extendqisi2
 10192 3908 0132     		adds	r2, r2, #1
 10193 390a 1A70     		strb	r2, [r3, #0]
 10194              	.L235:
 10195 390c 7A4B     		ldr	r3, .L379+4
 10196 390e 1B78     		ldrb	r3, [r3, #0]	@ zero_extendqisi2
 10197 3910 302B     		cmp	r3, #48
 10198 3912 40F00B81 		bne	.L237
 10199 3916 794B     		ldr	r3, .L379+8
 10200 3918 1B78     		ldrb	r3, [r3, #0]	@ zero_extendqisi2
 10201 391a 002B     		cmp	r3, #0
 10202 391c 00F00681 		beq	.L237
 10203 3920 7748     		ldr	r0, .L379+12
 10204 3922 1621     		movs	r1, #22
 10205 3924 FFF7FEFF 		bl	uart_check_free_space
 10206 3928 0028     		cmp	r0, #0
 10207 392a 00F0FB80 		beq	.L238
 10208 392e 754B     		ldr	r3, .L379+16
 10209              	.LBB1373:
 10210 3930 9921     		movs	r1, #153
 10211              	.LBE1373:
 10212 3932 1A88     		ldrh	r2, [r3, #0]
 10213              	.LBB1374:
 10214 3934 7248     		ldr	r0, .L379+12
 10215              	.LBE1374:
 10216 3936 1632     		adds	r2, r2, #22
 10217 3938 1A80     		strh	r2, [r3, #0]	@ movhi
 10218 393a 734B     		ldr	r3, .L379+20
 10219              	.LBB1375:
 10220 393c 734D     		ldr	r5, .L379+24
 10221              	.LBE1375:
 10222 393e 1A88     		ldrh	r2, [r3, #0]
 10223              	.LBB1376:
 10224 3940 734C     		ldr	r4, .L379+28
 10225              	.LBE1376:
 10226 3942 0132     		adds	r2, r2, #1
 10227 3944 1A80     		strh	r2, [r3, #0]	@ movhi
 10228              	.LBB1377:
 10229 3946 FFF7FEFF 		bl	uart_transmit
 10230 394a 1621     		movs	r1, #22
 10231 394c 6C48     		ldr	r0, .L379+12
 10232 394e FFF7FEFF 		bl	uart_transmit
 10233              	.LBE1377:
 10234 3952 1723     		movs	r3, #23
 10235 3954 2B70     		strb	r3, [r5, #0]
 10236 3956 1633     		adds	r3, r3, #22
 10237 3958 2370     		strb	r3, [r4, #0]
 10238 395a 0121     		movs	r1, #1
 10239 395c 6848     		ldr	r0, .L379+12
 10240 395e FFF7FEFF 		bl	uart_transmit
 10241 3962 2B78     		ldrb	r3, [r5, #0]	@ zero_extendqisi2
 10242 3964 2278     		ldrb	r2, [r4, #0]	@ zero_extendqisi2
 10243 3966 1633     		adds	r3, r3, #22
 10244 3968 DBB2     		uxtb	r3, r3
 10245              	.LBB1378:
 10246 396a 6A4E     		ldr	r6, .L379+32
 10247              	.LBE1378:
 10248 396c 2B70     		strb	r3, [r5, #0]
 10249 396e 9B18     		adds	r3, r3, r2
 10250 3970 2370     		strb	r3, [r4, #0]
 10251 3972 1621     		movs	r1, #22
 10252 3974 6248     		ldr	r0, .L379+12
 10253 3976 FFF7FEFF 		bl	uart_transmit
 10254              	.LBB1379:
 10255 397a 3178     		ldrb	r1, [r6, #0]	@ zero_extendqisi2
 10256              	.LVL922:
 10257 397c 2B78     		ldrb	r3, [r5, #0]	@ zero_extendqisi2
 10258 397e 2278     		ldrb	r2, [r4, #0]	@ zero_extendqisi2
 10259 3980 CB18     		adds	r3, r1, r3
 10260 3982 DBB2     		uxtb	r3, r3
 10261 3984 2B70     		strb	r3, [r5, #0]
 10262 3986 9B18     		adds	r3, r3, r2
 10263 3988 2370     		strb	r3, [r4, #0]
 10264 398a 5D48     		ldr	r0, .L379+12
 10265 398c FFF7FEFF 		bl	uart_transmit
 10266              	.LVL923:
 10267              	.LBE1379:
 10268              	.LBB1380:
 10269 3990 7178     		ldrb	r1, [r6, #1]	@ zero_extendqisi2
 10270              	.LVL924:
 10271 3992 2B78     		ldrb	r3, [r5, #0]	@ zero_extendqisi2
 10272 3994 2278     		ldrb	r2, [r4, #0]	@ zero_extendqisi2
 10273 3996 CB18     		adds	r3, r1, r3
 10274 3998 DBB2     		uxtb	r3, r3
 10275 399a 2B70     		strb	r3, [r5, #0]
 10276 399c 9B18     		adds	r3, r3, r2
 10277 399e 2370     		strb	r3, [r4, #0]
 10278 39a0 5748     		ldr	r0, .L379+12
 10279 39a2 FFF7FEFF 		bl	uart_transmit
 10280              	.LVL925:
 10281              	.LBE1380:
 10282              	.LBB1381:
 10283 39a6 B178     		ldrb	r1, [r6, #2]	@ zero_extendqisi2
 10284              	.LVL926:
 10285 39a8 2B78     		ldrb	r3, [r5, #0]	@ zero_extendqisi2
 10286 39aa 2278     		ldrb	r2, [r4, #0]	@ zero_extendqisi2
 10287 39ac CB18     		adds	r3, r1, r3
 10288 39ae DBB2     		uxtb	r3, r3
 10289 39b0 2B70     		strb	r3, [r5, #0]
 10290 39b2 9B18     		adds	r3, r3, r2
 10291 39b4 2370     		strb	r3, [r4, #0]
 10292 39b6 5248     		ldr	r0, .L379+12
 10293 39b8 FFF7FEFF 		bl	uart_transmit
 10294              	.LVL927:
 10295              	.LBE1381:
 10296              	.LBB1382:
 10297 39bc F178     		ldrb	r1, [r6, #3]	@ zero_extendqisi2
 10298              	.LVL928:
 10299 39be 2B78     		ldrb	r3, [r5, #0]	@ zero_extendqisi2
 10300 39c0 2278     		ldrb	r2, [r4, #0]	@ zero_extendqisi2
 10301 39c2 CB18     		adds	r3, r1, r3
 10302 39c4 DBB2     		uxtb	r3, r3
 10303              	.LBE1382:
 10304              	.LBB1383:
 10305 39c6 544E     		ldr	r6, .L379+36
 10306              	.LBE1383:
 10307              	.LBB1384:
 10308 39c8 2B70     		strb	r3, [r5, #0]
 10309 39ca 9B18     		adds	r3, r3, r2
 10310 39cc 2370     		strb	r3, [r4, #0]
 10311 39ce 4C48     		ldr	r0, .L379+12
 10312 39d0 FFF7FEFF 		bl	uart_transmit
 10313              	.LVL929:
 10314              	.LBE1384:
 10315              	.LBB1385:
 10316 39d4 3178     		ldrb	r1, [r6, #0]	@ zero_extendqisi2
 10317              	.LVL930:
 10318 39d6 2B78     		ldrb	r3, [r5, #0]	@ zero_extendqisi2
 10319 39d8 2278     		ldrb	r2, [r4, #0]	@ zero_extendqisi2
 10320 39da CB18     		adds	r3, r1, r3
 10321 39dc DBB2     		uxtb	r3, r3
 10322 39de 2B70     		strb	r3, [r5, #0]
 10323 39e0 9B18     		adds	r3, r3, r2
 10324 39e2 2370     		strb	r3, [r4, #0]
 10325 39e4 4648     		ldr	r0, .L379+12
 10326 39e6 FFF7FEFF 		bl	uart_transmit
 10327              	.LVL931:
 10328              	.LBE1385:
 10329              	.LBB1386:
 10330 39ea 7178     		ldrb	r1, [r6, #1]	@ zero_extendqisi2
 10331              	.LVL932:
 10332 39ec 2B78     		ldrb	r3, [r5, #0]	@ zero_extendqisi2
 10333 39ee 2278     		ldrb	r2, [r4, #0]	@ zero_extendqisi2
 10334 39f0 CB18     		adds	r3, r1, r3
 10335 39f2 DBB2     		uxtb	r3, r3
 10336 39f4 2B70     		strb	r3, [r5, #0]
 10337 39f6 9B18     		adds	r3, r3, r2
 10338 39f8 2370     		strb	r3, [r4, #0]
 10339 39fa 4148     		ldr	r0, .L379+12
 10340 39fc FFF7FEFF 		bl	uart_transmit
 10341              	.LVL933:
 10342              	.LBE1386:
 10343              	.LBB1387:
 10344 3a00 B178     		ldrb	r1, [r6, #2]	@ zero_extendqisi2
 10345              	.LVL934:
 10346 3a02 2B78     		ldrb	r3, [r5, #0]	@ zero_extendqisi2
 10347 3a04 2278     		ldrb	r2, [r4, #0]	@ zero_extendqisi2
 10348 3a06 CB18     		adds	r3, r1, r3
 10349 3a08 DBB2     		uxtb	r3, r3
 10350 3a0a 2B70     		strb	r3, [r5, #0]
 10351 3a0c 9B18     		adds	r3, r3, r2
 10352 3a0e 2370     		strb	r3, [r4, #0]
 10353 3a10 3B48     		ldr	r0, .L379+12
 10354 3a12 FFF7FEFF 		bl	uart_transmit
 10355              	.LVL935:
 10356              	.LBE1387:
 10357              	.LBB1388:
 10358 3a16 F178     		ldrb	r1, [r6, #3]	@ zero_extendqisi2
 10359              	.LVL936:
 10360 3a18 2B78     		ldrb	r3, [r5, #0]	@ zero_extendqisi2
 10361 3a1a 2278     		ldrb	r2, [r4, #0]	@ zero_extendqisi2
 10362 3a1c CB18     		adds	r3, r1, r3
 10363 3a1e DBB2     		uxtb	r3, r3
 10364              	.LBE1388:
 10365              	.LBB1389:
 10366 3a20 3E4E     		ldr	r6, .L379+40
 10367              	.LBE1389:
 10368              	.LBB1390:
 10369 3a22 2B70     		strb	r3, [r5, #0]
 10370 3a24 9B18     		adds	r3, r3, r2
 10371 3a26 2370     		strb	r3, [r4, #0]
 10372 3a28 3548     		ldr	r0, .L379+12
 10373 3a2a FFF7FEFF 		bl	uart_transmit
 10374              	.LVL937:
 10375              	.LBE1390:
 10376              	.LBB1391:
 10377 3a2e 3178     		ldrb	r1, [r6, #0]	@ zero_extendqisi2
 10378              	.LVL938:
 10379 3a30 2B78     		ldrb	r3, [r5, #0]	@ zero_extendqisi2
 10380 3a32 2278     		ldrb	r2, [r4, #0]	@ zero_extendqisi2
 10381 3a34 CB18     		adds	r3, r1, r3
 10382 3a36 DBB2     		uxtb	r3, r3
 10383 3a38 2B70     		strb	r3, [r5, #0]
 10384 3a3a 9B18     		adds	r3, r3, r2
 10385 3a3c 2370     		strb	r3, [r4, #0]
 10386 3a3e 3048     		ldr	r0, .L379+12
 10387 3a40 FFF7FEFF 		bl	uart_transmit
 10388              	.LVL939:
 10389              	.LBE1391:
 10390              	.LBB1392:
 10391 3a44 7178     		ldrb	r1, [r6, #1]	@ zero_extendqisi2
 10392              	.LVL940:
 10393 3a46 2B78     		ldrb	r3, [r5, #0]	@ zero_extendqisi2
 10394 3a48 2278     		ldrb	r2, [r4, #0]	@ zero_extendqisi2
 10395 3a4a CB18     		adds	r3, r1, r3
 10396 3a4c DBB2     		uxtb	r3, r3
 10397 3a4e 2B70     		strb	r3, [r5, #0]
 10398 3a50 9B18     		adds	r3, r3, r2
 10399 3a52 2370     		strb	r3, [r4, #0]
 10400 3a54 2A48     		ldr	r0, .L379+12
 10401 3a56 FFF7FEFF 		bl	uart_transmit
 10402              	.LVL941:
 10403              	.LBE1392:
 10404              	.LBB1393:
 10405 3a5a B178     		ldrb	r1, [r6, #2]	@ zero_extendqisi2
 10406              	.LVL942:
 10407 3a5c 2B78     		ldrb	r3, [r5, #0]	@ zero_extendqisi2
 10408 3a5e 2278     		ldrb	r2, [r4, #0]	@ zero_extendqisi2
 10409 3a60 CB18     		adds	r3, r1, r3
 10410 3a62 DBB2     		uxtb	r3, r3
 10411 3a64 2B70     		strb	r3, [r5, #0]
 10412 3a66 9B18     		adds	r3, r3, r2
 10413 3a68 2370     		strb	r3, [r4, #0]
 10414 3a6a 2548     		ldr	r0, .L379+12
 10415 3a6c FFF7FEFF 		bl	uart_transmit
 10416              	.LVL943:
 10417              	.LBE1393:
 10418              	.LBB1394:
 10419 3a70 F178     		ldrb	r1, [r6, #3]	@ zero_extendqisi2
 10420              	.LVL944:
 10421 3a72 2B78     		ldrb	r3, [r5, #0]	@ zero_extendqisi2
 10422 3a74 2278     		ldrb	r2, [r4, #0]	@ zero_extendqisi2
 10423 3a76 CB18     		adds	r3, r1, r3
 10424 3a78 DBB2     		uxtb	r3, r3
 10425              	.LBE1394:
 10426              	.LBB1395:
 10427 3a7a 294E     		ldr	r6, .L379+44
 10428              	.LBE1395:
 10429              	.LBB1396:
 10430 3a7c 2B70     		strb	r3, [r5, #0]
 10431 3a7e 9B18     		adds	r3, r3, r2
 10432 3a80 2370     		strb	r3, [r4, #0]
 10433 3a82 1F48     		ldr	r0, .L379+12
 10434 3a84 FFF7FEFF 		bl	uart_transmit
 10435              	.LVL945:
 10436              	.LBE1396:
 10437              	.LBB1397:
 10438 3a88 3178     		ldrb	r1, [r6, #0]	@ zero_extendqisi2
 10439              	.LVL946:
 10440 3a8a 2B78     		ldrb	r3, [r5, #0]	@ zero_extendqisi2
 10441 3a8c 2278     		ldrb	r2, [r4, #0]	@ zero_extendqisi2
 10442 3a8e CB18     		adds	r3, r1, r3
 10443 3a90 DBB2     		uxtb	r3, r3
 10444 3a92 2B70     		strb	r3, [r5, #0]
 10445 3a94 9B18     		adds	r3, r3, r2
 10446 3a96 2370     		strb	r3, [r4, #0]
 10447 3a98 1948     		ldr	r0, .L379+12
 10448 3a9a FFF7FEFF 		bl	uart_transmit
 10449              	.LVL947:
 10450              	.LBE1397:
 10451              	.LBB1398:
 10452 3a9e 7178     		ldrb	r1, [r6, #1]	@ zero_extendqisi2
 10453              	.LVL948:
 10454 3aa0 2B78     		ldrb	r3, [r5, #0]	@ zero_extendqisi2
 10455 3aa2 2278     		ldrb	r2, [r4, #0]	@ zero_extendqisi2
 10456 3aa4 CB18     		adds	r3, r1, r3
 10457 3aa6 DBB2     		uxtb	r3, r3
 10458 3aa8 2B70     		strb	r3, [r5, #0]
 10459 3aaa 9B18     		adds	r3, r3, r2
 10460 3aac 2370     		strb	r3, [r4, #0]
 10461 3aae 1448     		ldr	r0, .L379+12
 10462 3ab0 FFF7FEFF 		bl	uart_transmit
 10463              	.LVL949:
 10464              	.LBE1398:
 10465              	.LBB1399:
 10466 3ab4 B178     		ldrb	r1, [r6, #2]	@ zero_extendqisi2
 10467              	.LVL950:
 10468 3ab6 2B78     		ldrb	r3, [r5, #0]	@ zero_extendqisi2
 10469 3ab8 2278     		ldrb	r2, [r4, #0]	@ zero_extendqisi2
 10470 3aba CB18     		adds	r3, r1, r3
 10471 3abc DBB2     		uxtb	r3, r3
 10472 3abe 2B70     		strb	r3, [r5, #0]
 10473 3ac0 9B18     		adds	r3, r3, r2
 10474 3ac2 2370     		strb	r3, [r4, #0]
 10475 3ac4 0E48     		ldr	r0, .L379+12
 10476 3ac6 FFF7FEFF 		bl	uart_transmit
 10477              	.LVL951:
 10478              	.LBE1399:
 10479              	.LBB1400:
 10480 3aca F178     		ldrb	r1, [r6, #3]	@ zero_extendqisi2
 10481              	.LVL952:
 10482 3acc 2B78     		ldrb	r3, [r5, #0]	@ zero_extendqisi2
 10483 3ace 2278     		ldrb	r2, [r4, #0]	@ zero_extendqisi2
 10484 3ad0 CB18     		adds	r3, r1, r3
 10485 3ad2 DBB2     		uxtb	r3, r3
 10486 3ad4 2B70     		strb	r3, [r5, #0]
 10487 3ad6 9B18     		adds	r3, r3, r2
 10488 3ad8 2370     		strb	r3, [r4, #0]
 10489 3ada 0948     		ldr	r0, .L379+12
 10490 3adc FFF7FEFF 		bl	uart_transmit
 10491              	.LVL953:
 10492              	.LBE1400:
 10493 3ae0 2978     		ldrb	r1, [r5, #0]	@ zero_extendqisi2
 10494 3ae2 0748     		ldr	r0, .L379+12
 10495 3ae4 FFF7FEFF 		bl	uart_transmit
 10496 3ae8 0548     		ldr	r0, .L379+12
 10497 3aea 2178     		ldrb	r1, [r4, #0]	@ zero_extendqisi2
 10498 3aec FFF7FEFF 		bl	uart_transmit
 10499 3af0 1CE0     		b	.L237
 10500              	.L380:
 10501 3af2 00BF     		.align	2
 10502              	.L379:
 10503 3af4 00000000 		.word	downlink_nb_ovrn
 10504 3af8 00000000 		.word	.LANCHOR48
 10505 3afc 00000000 		.word	nav_in_segment
 10506 3b00 00000000 		.word	uart2
 10507 3b04 00000000 		.word	downlink_nb_bytes
 10508 3b08 00000000 		.word	downlink_nb_msgs
 10509 3b0c 00000000 		.word	ck_a
 10510 3b10 00000000 		.word	ck_b
 10511 3b14 00000000 		.word	nav_segment_x_1
 10512 3b18 00000000 		.word	nav_segment_y_1
 10513 3b1c 00000000 		.word	nav_segment_x_2
 10514 3b20 00000000 		.word	nav_segment_y_2
 10515              	.L238:
 10516 3b24 624B     		ldr	r3, .L381
 10517 3b26 1A78     		ldrb	r2, [r3, #0]	@ zero_extendqisi2
 10518 3b28 0132     		adds	r2, r2, #1
 10519 3b2a 1A70     		strb	r2, [r3, #0]
 10520              	.L237:
 10521 3b2c 614B     		ldr	r3, .L381+4
 10522 3b2e 1B78     		ldrb	r3, [r3, #0]	@ zero_extendqisi2
 10523 3b30 362B     		cmp	r3, #54
 10524 3b32 40F0D580 		bne	.L239
 10525 3b36 6048     		ldr	r0, .L381+8
 10526 3b38 1221     		movs	r1, #18
 10527 3b3a FFF7FEFF 		bl	uart_check_free_space
 10528 3b3e 0028     		cmp	r0, #0
 10529 3b40 00F0CA80 		beq	.L240
 10530 3b44 5D4B     		ldr	r3, .L381+12
 10531              	.LBB1401:
 10532 3b46 9921     		movs	r1, #153
 10533              	.LBE1401:
 10534 3b48 1A88     		ldrh	r2, [r3, #0]
 10535              	.LBB1402:
 10536 3b4a 5B48     		ldr	r0, .L381+8
 10537              	.LBE1402:
 10538 3b4c 1232     		adds	r2, r2, #18
 10539 3b4e 1A80     		strh	r2, [r3, #0]	@ movhi
 10540 3b50 5B4B     		ldr	r3, .L381+16
 10541              	.LBB1403:
 10542 3b52 5C4D     		ldr	r5, .L381+20
 10543              	.LBE1403:
 10544 3b54 1A88     		ldrh	r2, [r3, #0]
 10545              	.LBB1404:
 10546 3b56 5C4C     		ldr	r4, .L381+24
 10547              	.LBE1404:
 10548 3b58 0132     		adds	r2, r2, #1
 10549 3b5a 1A80     		strh	r2, [r3, #0]	@ movhi
 10550              	.LBB1405:
 10551 3b5c FFF7FEFF 		bl	uart_transmit
 10552 3b60 1221     		movs	r1, #18
 10553 3b62 5548     		ldr	r0, .L381+8
 10554 3b64 FFF7FEFF 		bl	uart_transmit
 10555              	.LBE1405:
 10556 3b68 1323     		movs	r3, #19
 10557 3b6a 2B70     		strb	r3, [r5, #0]
 10558 3b6c 1233     		adds	r3, r3, #18
 10559 3b6e 2370     		strb	r3, [r4, #0]
 10560 3b70 0121     		movs	r1, #1
 10561 3b72 5148     		ldr	r0, .L381+8
 10562 3b74 FFF7FEFF 		bl	uart_transmit
 10563 3b78 2B78     		ldrb	r3, [r5, #0]	@ zero_extendqisi2
 10564 3b7a 2278     		ldrb	r2, [r4, #0]	@ zero_extendqisi2
 10565 3b7c 0633     		adds	r3, r3, #6
 10566 3b7e DBB2     		uxtb	r3, r3
 10567              	.LBB1406:
 10568 3b80 524E     		ldr	r6, .L381+28
 10569              	.LBE1406:
 10570 3b82 2B70     		strb	r3, [r5, #0]
 10571 3b84 9B18     		adds	r3, r3, r2
 10572 3b86 2370     		strb	r3, [r4, #0]
 10573 3b88 0621     		movs	r1, #6
 10574 3b8a 4B48     		ldr	r0, .L381+8
 10575 3b8c FFF7FEFF 		bl	uart_transmit
 10576              	.LBB1407:
 10577 3b90 3178     		ldrb	r1, [r6, #0]	@ zero_extendqisi2
 10578              	.LVL954:
 10579 3b92 2B78     		ldrb	r3, [r5, #0]	@ zero_extendqisi2
 10580 3b94 2278     		ldrb	r2, [r4, #0]	@ zero_extendqisi2
 10581 3b96 CB18     		adds	r3, r1, r3
 10582 3b98 DBB2     		uxtb	r3, r3
 10583 3b9a 2B70     		strb	r3, [r5, #0]
 10584 3b9c 9B18     		adds	r3, r3, r2
 10585 3b9e 2370     		strb	r3, [r4, #0]
 10586 3ba0 4548     		ldr	r0, .L381+8
 10587 3ba2 FFF7FEFF 		bl	uart_transmit
 10588              	.LVL955:
 10589              	.LBE1407:
 10590              	.LBB1408:
 10591 3ba6 7178     		ldrb	r1, [r6, #1]	@ zero_extendqisi2
 10592              	.LVL956:
 10593 3ba8 2B78     		ldrb	r3, [r5, #0]	@ zero_extendqisi2
 10594 3baa 2278     		ldrb	r2, [r4, #0]	@ zero_extendqisi2
 10595 3bac CB18     		adds	r3, r1, r3
 10596 3bae DBB2     		uxtb	r3, r3
 10597 3bb0 2B70     		strb	r3, [r5, #0]
 10598 3bb2 9B18     		adds	r3, r3, r2
 10599 3bb4 2370     		strb	r3, [r4, #0]
 10600 3bb6 4048     		ldr	r0, .L381+8
 10601 3bb8 FFF7FEFF 		bl	uart_transmit
 10602              	.LVL957:
 10603              	.LBE1408:
 10604              	.LBB1409:
 10605 3bbc B178     		ldrb	r1, [r6, #2]	@ zero_extendqisi2
 10606              	.LVL958:
 10607 3bbe 2B78     		ldrb	r3, [r5, #0]	@ zero_extendqisi2
 10608 3bc0 2278     		ldrb	r2, [r4, #0]	@ zero_extendqisi2
 10609 3bc2 CB18     		adds	r3, r1, r3
 10610 3bc4 DBB2     		uxtb	r3, r3
 10611 3bc6 2B70     		strb	r3, [r5, #0]
 10612 3bc8 9B18     		adds	r3, r3, r2
 10613 3bca 2370     		strb	r3, [r4, #0]
 10614 3bcc 3A48     		ldr	r0, .L381+8
 10615 3bce FFF7FEFF 		bl	uart_transmit
 10616              	.LVL959:
 10617              	.LBE1409:
 10618              	.LBB1410:
 10619 3bd2 F178     		ldrb	r1, [r6, #3]	@ zero_extendqisi2
 10620              	.LVL960:
 10621 3bd4 2B78     		ldrb	r3, [r5, #0]	@ zero_extendqisi2
 10622 3bd6 2278     		ldrb	r2, [r4, #0]	@ zero_extendqisi2
 10623 3bd8 CB18     		adds	r3, r1, r3
 10624 3bda DBB2     		uxtb	r3, r3
 10625              	.LBE1410:
 10626              	.LBB1411:
 10627 3bdc 3C4E     		ldr	r6, .L381+32
 10628              	.LBE1411:
 10629              	.LBB1412:
 10630 3bde 2B70     		strb	r3, [r5, #0]
 10631 3be0 9B18     		adds	r3, r3, r2
 10632 3be2 2370     		strb	r3, [r4, #0]
 10633 3be4 3448     		ldr	r0, .L381+8
 10634 3be6 FFF7FEFF 		bl	uart_transmit
 10635              	.LVL961:
 10636              	.LBE1412:
 10637              	.LBB1413:
 10638 3bea 3178     		ldrb	r1, [r6, #0]	@ zero_extendqisi2
 10639              	.LVL962:
 10640 3bec 2B78     		ldrb	r3, [r5, #0]	@ zero_extendqisi2
 10641 3bee 2278     		ldrb	r2, [r4, #0]	@ zero_extendqisi2
 10642 3bf0 CB18     		adds	r3, r1, r3
 10643 3bf2 DBB2     		uxtb	r3, r3
 10644 3bf4 2B70     		strb	r3, [r5, #0]
 10645 3bf6 9B18     		adds	r3, r3, r2
 10646 3bf8 2370     		strb	r3, [r4, #0]
 10647 3bfa 2F48     		ldr	r0, .L381+8
 10648 3bfc FFF7FEFF 		bl	uart_transmit
 10649              	.LVL963:
 10650              	.LBE1413:
 10651              	.LBB1414:
 10652 3c00 7178     		ldrb	r1, [r6, #1]	@ zero_extendqisi2
 10653              	.LVL964:
 10654 3c02 2B78     		ldrb	r3, [r5, #0]	@ zero_extendqisi2
 10655 3c04 2278     		ldrb	r2, [r4, #0]	@ zero_extendqisi2
 10656 3c06 CB18     		adds	r3, r1, r3
 10657 3c08 DBB2     		uxtb	r3, r3
 10658 3c0a 2B70     		strb	r3, [r5, #0]
 10659 3c0c 9B18     		adds	r3, r3, r2
 10660 3c0e 2370     		strb	r3, [r4, #0]
 10661 3c10 2948     		ldr	r0, .L381+8
 10662 3c12 FFF7FEFF 		bl	uart_transmit
 10663              	.LVL965:
 10664              	.LBE1414:
 10665              	.LBB1415:
 10666 3c16 B178     		ldrb	r1, [r6, #2]	@ zero_extendqisi2
 10667              	.LVL966:
 10668 3c18 2B78     		ldrb	r3, [r5, #0]	@ zero_extendqisi2
 10669 3c1a 2278     		ldrb	r2, [r4, #0]	@ zero_extendqisi2
 10670 3c1c CB18     		adds	r3, r1, r3
 10671 3c1e DBB2     		uxtb	r3, r3
 10672 3c20 2B70     		strb	r3, [r5, #0]
 10673 3c22 9B18     		adds	r3, r3, r2
 10674 3c24 2370     		strb	r3, [r4, #0]
 10675 3c26 2448     		ldr	r0, .L381+8
 10676 3c28 FFF7FEFF 		bl	uart_transmit
 10677              	.LVL967:
 10678              	.LBE1415:
 10679              	.LBB1416:
 10680 3c2c F178     		ldrb	r1, [r6, #3]	@ zero_extendqisi2
 10681              	.LVL968:
 10682 3c2e 2B78     		ldrb	r3, [r5, #0]	@ zero_extendqisi2
 10683 3c30 2278     		ldrb	r2, [r4, #0]	@ zero_extendqisi2
 10684 3c32 CB18     		adds	r3, r1, r3
 10685 3c34 DBB2     		uxtb	r3, r3
 10686              	.LBE1416:
 10687              	.LBB1417:
 10688 3c36 274E     		ldr	r6, .L381+36
 10689              	.LBE1417:
 10690              	.LBB1418:
 10691 3c38 2B70     		strb	r3, [r5, #0]
 10692 3c3a 9B18     		adds	r3, r3, r2
 10693 3c3c 2370     		strb	r3, [r4, #0]
 10694 3c3e 1E48     		ldr	r0, .L381+8
 10695 3c40 FFF7FEFF 		bl	uart_transmit
 10696              	.LVL969:
 10697              	.LBE1418:
 10698              	.LBB1419:
 10699 3c44 3178     		ldrb	r1, [r6, #0]	@ zero_extendqisi2
 10700              	.LVL970:
 10701 3c46 2B78     		ldrb	r3, [r5, #0]	@ zero_extendqisi2
 10702 3c48 2278     		ldrb	r2, [r4, #0]	@ zero_extendqisi2
 10703 3c4a CB18     		adds	r3, r1, r3
 10704 3c4c DBB2     		uxtb	r3, r3
 10705 3c4e 2B70     		strb	r3, [r5, #0]
 10706 3c50 9B18     		adds	r3, r3, r2
 10707 3c52 2370     		strb	r3, [r4, #0]
 10708 3c54 1848     		ldr	r0, .L381+8
 10709 3c56 FFF7FEFF 		bl	uart_transmit
 10710              	.LVL971:
 10711              	.LBE1419:
 10712              	.LBB1420:
 10713 3c5a 7178     		ldrb	r1, [r6, #1]	@ zero_extendqisi2
 10714              	.LVL972:
 10715 3c5c 2B78     		ldrb	r3, [r5, #0]	@ zero_extendqisi2
 10716 3c5e 2278     		ldrb	r2, [r4, #0]	@ zero_extendqisi2
 10717 3c60 CB18     		adds	r3, r1, r3
 10718 3c62 DBB2     		uxtb	r3, r3
 10719 3c64 2B70     		strb	r3, [r5, #0]
 10720 3c66 9B18     		adds	r3, r3, r2
 10721 3c68 2370     		strb	r3, [r4, #0]
 10722 3c6a 1348     		ldr	r0, .L381+8
 10723 3c6c FFF7FEFF 		bl	uart_transmit
 10724              	.LVL973:
 10725              	.LBE1420:
 10726              	.LBB1421:
 10727 3c70 B178     		ldrb	r1, [r6, #2]	@ zero_extendqisi2
 10728              	.LVL974:
 10729 3c72 2B78     		ldrb	r3, [r5, #0]	@ zero_extendqisi2
 10730 3c74 2278     		ldrb	r2, [r4, #0]	@ zero_extendqisi2
 10731 3c76 CB18     		adds	r3, r1, r3
 10732 3c78 DBB2     		uxtb	r3, r3
 10733 3c7a 2B70     		strb	r3, [r5, #0]
 10734 3c7c 9B18     		adds	r3, r3, r2
 10735 3c7e 2370     		strb	r3, [r4, #0]
 10736 3c80 0D48     		ldr	r0, .L381+8
 10737 3c82 FFF7FEFF 		bl	uart_transmit
 10738              	.LVL975:
 10739              	.LBE1421:
 10740              	.LBB1422:
 10741 3c86 F178     		ldrb	r1, [r6, #3]	@ zero_extendqisi2
 10742              	.LVL976:
 10743 3c88 2B78     		ldrb	r3, [r5, #0]	@ zero_extendqisi2
 10744 3c8a 2278     		ldrb	r2, [r4, #0]	@ zero_extendqisi2
 10745 3c8c CB18     		adds	r3, r1, r3
 10746 3c8e DBB2     		uxtb	r3, r3
 10747 3c90 2B70     		strb	r3, [r5, #0]
 10748 3c92 9B18     		adds	r3, r3, r2
 10749 3c94 2370     		strb	r3, [r4, #0]
 10750 3c96 0848     		ldr	r0, .L381+8
 10751 3c98 FFF7FEFF 		bl	uart_transmit
 10752              	.LVL977:
 10753              	.LBE1422:
 10754 3c9c 2978     		ldrb	r1, [r5, #0]	@ zero_extendqisi2
 10755 3c9e 0648     		ldr	r0, .L381+8
 10756 3ca0 FFF7FEFF 		bl	uart_transmit
 10757 3ca4 0448     		ldr	r0, .L381+8
 10758 3ca6 2178     		ldrb	r1, [r4, #0]	@ zero_extendqisi2
 10759 3ca8 FFF7FEFF 		bl	uart_transmit
 10760 3cac 18E0     		b	.L239
 10761              	.L382:
 10762 3cae 00BF     		.align	2
 10763              	.L381:
 10764 3cb0 00000000 		.word	downlink_nb_ovrn
 10765 3cb4 00000000 		.word	.LANCHOR49
 10766 3cb8 00000000 		.word	uart2
 10767 3cbc 00000000 		.word	downlink_nb_bytes
 10768 3cc0 00000000 		.word	downlink_nb_msgs
 10769 3cc4 00000000 		.word	ck_a
 10770 3cc8 00000000 		.word	ck_b
 10771 3ccc 00000000 		.word	estimator_phi
 10772 3cd0 00000000 		.word	estimator_psi
 10773 3cd4 00000000 		.word	estimator_theta
 10774              	.L240:
 10775 3cd8 9C4B     		ldr	r3, .L383
 10776 3cda 1A78     		ldrb	r2, [r3, #0]	@ zero_extendqisi2
 10777 3cdc 0132     		adds	r2, r2, #1
 10778 3cde 1A70     		strb	r2, [r3, #0]
 10779              	.L239:
 10780 3ce0 9B4B     		ldr	r3, .L383+4
 10781 3ce2 1B78     		ldrb	r3, [r3, #0]	@ zero_extendqisi2
 10782 3ce4 3C2B     		cmp	r3, #60
 10783 3ce6 40F09081 		bne	.L241
 10784 3cea 9A48     		ldr	r0, .L383+8
 10785 3cec 2221     		movs	r1, #34
 10786 3cee FFF7FEFF 		bl	uart_check_free_space
 10787 3cf2 0028     		cmp	r0, #0
 10788 3cf4 00F08581 		beq	.L242
 10789 3cf8 974B     		ldr	r3, .L383+12
 10790              	.LBB1423:
 10791 3cfa 9921     		movs	r1, #153
 10792              	.LBE1423:
 10793 3cfc 1A88     		ldrh	r2, [r3, #0]
 10794              	.LBB1424:
 10795 3cfe 9548     		ldr	r0, .L383+8
 10796              	.LBE1424:
 10797 3d00 2232     		adds	r2, r2, #34
 10798 3d02 1A80     		strh	r2, [r3, #0]	@ movhi
 10799 3d04 954B     		ldr	r3, .L383+16
 10800              	.LBB1425:
 10801 3d06 964D     		ldr	r5, .L383+20
 10802              	.LBE1425:
 10803 3d08 1A88     		ldrh	r2, [r3, #0]
 10804              	.LBB1426:
 10805 3d0a 964C     		ldr	r4, .L383+24
 10806              	.LBE1426:
 10807 3d0c 0132     		adds	r2, r2, #1
 10808 3d0e 1A80     		strh	r2, [r3, #0]	@ movhi
 10809              	.LBB1427:
 10810 3d10 FFF7FEFF 		bl	uart_transmit
 10811 3d14 2221     		movs	r1, #34
 10812 3d16 8F48     		ldr	r0, .L383+8
 10813 3d18 FFF7FEFF 		bl	uart_transmit
 10814              	.LBE1427:
 10815 3d1c 2323     		movs	r3, #35
 10816 3d1e 2B70     		strb	r3, [r5, #0]
 10817 3d20 2233     		adds	r3, r3, #34
 10818 3d22 2370     		strb	r3, [r4, #0]
 10819 3d24 0121     		movs	r1, #1
 10820 3d26 8B48     		ldr	r0, .L383+8
 10821 3d28 FFF7FEFF 		bl	uart_transmit
 10822 3d2c 2B78     		ldrb	r3, [r5, #0]	@ zero_extendqisi2
 10823 3d2e 2278     		ldrb	r2, [r4, #0]	@ zero_extendqisi2
 10824 3d30 1033     		adds	r3, r3, #16
 10825 3d32 DBB2     		uxtb	r3, r3
 10826              	.LBB1428:
 10827 3d34 8C4E     		ldr	r6, .L383+28
 10828              	.LBE1428:
 10829 3d36 2B70     		strb	r3, [r5, #0]
 10830 3d38 9B18     		adds	r3, r3, r2
 10831 3d3a 2370     		strb	r3, [r4, #0]
 10832 3d3c 1021     		movs	r1, #16
 10833 3d3e 8548     		ldr	r0, .L383+8
 10834 3d40 FFF7FEFF 		bl	uart_transmit
 10835              	.LBB1429:
 10836 3d44 3178     		ldrb	r1, [r6, #0]	@ zero_extendqisi2
 10837              	.LVL978:
 10838 3d46 2B78     		ldrb	r3, [r5, #0]	@ zero_extendqisi2
 10839 3d48 2278     		ldrb	r2, [r4, #0]	@ zero_extendqisi2
 10840 3d4a CB18     		adds	r3, r1, r3
 10841 3d4c DBB2     		uxtb	r3, r3
 10842 3d4e 2B70     		strb	r3, [r5, #0]
 10843 3d50 9B18     		adds	r3, r3, r2
 10844 3d52 2370     		strb	r3, [r4, #0]
 10845 3d54 7F48     		ldr	r0, .L383+8
 10846 3d56 FFF7FEFF 		bl	uart_transmit
 10847              	.LVL979:
 10848              	.LBE1429:
 10849              	.LBB1430:
 10850 3d5a 7178     		ldrb	r1, [r6, #1]	@ zero_extendqisi2
 10851              	.LVL980:
 10852 3d5c 2B78     		ldrb	r3, [r5, #0]	@ zero_extendqisi2
 10853 3d5e 2278     		ldrb	r2, [r4, #0]	@ zero_extendqisi2
 10854 3d60 CB18     		adds	r3, r1, r3
 10855 3d62 DBB2     		uxtb	r3, r3
 10856 3d64 2B70     		strb	r3, [r5, #0]
 10857 3d66 9B18     		adds	r3, r3, r2
 10858 3d68 2370     		strb	r3, [r4, #0]
 10859 3d6a 7A48     		ldr	r0, .L383+8
 10860 3d6c FFF7FEFF 		bl	uart_transmit
 10861              	.LVL981:
 10862              	.LBE1430:
 10863              	.LBB1431:
 10864 3d70 B178     		ldrb	r1, [r6, #2]	@ zero_extendqisi2
 10865              	.LVL982:
 10866 3d72 2B78     		ldrb	r3, [r5, #0]	@ zero_extendqisi2
 10867 3d74 2278     		ldrb	r2, [r4, #0]	@ zero_extendqisi2
 10868 3d76 CB18     		adds	r3, r1, r3
 10869 3d78 DBB2     		uxtb	r3, r3
 10870 3d7a 2B70     		strb	r3, [r5, #0]
 10871 3d7c 9B18     		adds	r3, r3, r2
 10872 3d7e 2370     		strb	r3, [r4, #0]
 10873 3d80 7448     		ldr	r0, .L383+8
 10874 3d82 FFF7FEFF 		bl	uart_transmit
 10875              	.LVL983:
 10876              	.LBE1431:
 10877              	.LBB1432:
 10878 3d86 F178     		ldrb	r1, [r6, #3]	@ zero_extendqisi2
 10879              	.LVL984:
 10880 3d88 2B78     		ldrb	r3, [r5, #0]	@ zero_extendqisi2
 10881 3d8a 2278     		ldrb	r2, [r4, #0]	@ zero_extendqisi2
 10882 3d8c CB18     		adds	r3, r1, r3
 10883 3d8e DBB2     		uxtb	r3, r3
 10884              	.LBE1432:
 10885              	.LBB1433:
 10886 3d90 764E     		ldr	r6, .L383+32
 10887              	.LBE1433:
 10888              	.LBB1434:
 10889 3d92 2B70     		strb	r3, [r5, #0]
 10890 3d94 9B18     		adds	r3, r3, r2
 10891 3d96 2370     		strb	r3, [r4, #0]
 10892 3d98 6E48     		ldr	r0, .L383+8
 10893 3d9a FFF7FEFF 		bl	uart_transmit
 10894              	.LVL985:
 10895              	.LBE1434:
 10896              	.LBB1435:
 10897 3d9e 3178     		ldrb	r1, [r6, #0]	@ zero_extendqisi2
 10898              	.LVL986:
 10899 3da0 2B78     		ldrb	r3, [r5, #0]	@ zero_extendqisi2
 10900 3da2 2278     		ldrb	r2, [r4, #0]	@ zero_extendqisi2
 10901 3da4 CB18     		adds	r3, r1, r3
 10902 3da6 DBB2     		uxtb	r3, r3
 10903 3da8 2B70     		strb	r3, [r5, #0]
 10904 3daa 9B18     		adds	r3, r3, r2
 10905 3dac 2370     		strb	r3, [r4, #0]
 10906 3dae 6948     		ldr	r0, .L383+8
 10907 3db0 FFF7FEFF 		bl	uart_transmit
 10908              	.LVL987:
 10909              	.LBE1435:
 10910              	.LBB1436:
 10911 3db4 7178     		ldrb	r1, [r6, #1]	@ zero_extendqisi2
 10912              	.LVL988:
 10913 3db6 2B78     		ldrb	r3, [r5, #0]	@ zero_extendqisi2
 10914 3db8 2278     		ldrb	r2, [r4, #0]	@ zero_extendqisi2
 10915 3dba CB18     		adds	r3, r1, r3
 10916 3dbc DBB2     		uxtb	r3, r3
 10917 3dbe 2B70     		strb	r3, [r5, #0]
 10918 3dc0 9B18     		adds	r3, r3, r2
 10919 3dc2 2370     		strb	r3, [r4, #0]
 10920 3dc4 6348     		ldr	r0, .L383+8
 10921 3dc6 FFF7FEFF 		bl	uart_transmit
 10922              	.LVL989:
 10923              	.LBE1436:
 10924              	.LBB1437:
 10925 3dca B178     		ldrb	r1, [r6, #2]	@ zero_extendqisi2
 10926              	.LVL990:
 10927 3dcc 2B78     		ldrb	r3, [r5, #0]	@ zero_extendqisi2
 10928 3dce 2278     		ldrb	r2, [r4, #0]	@ zero_extendqisi2
 10929 3dd0 CB18     		adds	r3, r1, r3
 10930 3dd2 DBB2     		uxtb	r3, r3
 10931 3dd4 2B70     		strb	r3, [r5, #0]
 10932 3dd6 9B18     		adds	r3, r3, r2
 10933 3dd8 2370     		strb	r3, [r4, #0]
 10934 3dda 5E48     		ldr	r0, .L383+8
 10935 3ddc FFF7FEFF 		bl	uart_transmit
 10936              	.LVL991:
 10937              	.LBE1437:
 10938              	.LBB1438:
 10939 3de0 F178     		ldrb	r1, [r6, #3]	@ zero_extendqisi2
 10940              	.LVL992:
 10941 3de2 2B78     		ldrb	r3, [r5, #0]	@ zero_extendqisi2
 10942 3de4 2278     		ldrb	r2, [r4, #0]	@ zero_extendqisi2
 10943 3de6 CB18     		adds	r3, r1, r3
 10944 3de8 DBB2     		uxtb	r3, r3
 10945              	.LBE1438:
 10946              	.LBB1439:
 10947 3dea 614E     		ldr	r6, .L383+36
 10948              	.LBE1439:
 10949              	.LBB1440:
 10950 3dec 2B70     		strb	r3, [r5, #0]
 10951 3dee 9B18     		adds	r3, r3, r2
 10952 3df0 2370     		strb	r3, [r4, #0]
 10953 3df2 5848     		ldr	r0, .L383+8
 10954 3df4 FFF7FEFF 		bl	uart_transmit
 10955              	.LVL993:
 10956              	.LBE1440:
 10957              	.LBB1441:
 10958 3df8 3178     		ldrb	r1, [r6, #0]	@ zero_extendqisi2
 10959              	.LVL994:
 10960 3dfa 2B78     		ldrb	r3, [r5, #0]	@ zero_extendqisi2
 10961 3dfc 2278     		ldrb	r2, [r4, #0]	@ zero_extendqisi2
 10962 3dfe CB18     		adds	r3, r1, r3
 10963 3e00 DBB2     		uxtb	r3, r3
 10964 3e02 2B70     		strb	r3, [r5, #0]
 10965 3e04 9B18     		adds	r3, r3, r2
 10966 3e06 2370     		strb	r3, [r4, #0]
 10967 3e08 5248     		ldr	r0, .L383+8
 10968 3e0a FFF7FEFF 		bl	uart_transmit
 10969              	.LVL995:
 10970              	.LBE1441:
 10971              	.LBB1442:
 10972 3e0e 7178     		ldrb	r1, [r6, #1]	@ zero_extendqisi2
 10973              	.LVL996:
 10974 3e10 2B78     		ldrb	r3, [r5, #0]	@ zero_extendqisi2
 10975 3e12 2278     		ldrb	r2, [r4, #0]	@ zero_extendqisi2
 10976 3e14 CB18     		adds	r3, r1, r3
 10977 3e16 DBB2     		uxtb	r3, r3
 10978 3e18 2B70     		strb	r3, [r5, #0]
 10979 3e1a 9B18     		adds	r3, r3, r2
 10980 3e1c 2370     		strb	r3, [r4, #0]
 10981 3e1e 4D48     		ldr	r0, .L383+8
 10982 3e20 FFF7FEFF 		bl	uart_transmit
 10983              	.LVL997:
 10984              	.LBE1442:
 10985              	.LBB1443:
 10986 3e24 B178     		ldrb	r1, [r6, #2]	@ zero_extendqisi2
 10987              	.LVL998:
 10988 3e26 2B78     		ldrb	r3, [r5, #0]	@ zero_extendqisi2
 10989 3e28 2278     		ldrb	r2, [r4, #0]	@ zero_extendqisi2
 10990 3e2a CB18     		adds	r3, r1, r3
 10991 3e2c DBB2     		uxtb	r3, r3
 10992 3e2e 2B70     		strb	r3, [r5, #0]
 10993 3e30 9B18     		adds	r3, r3, r2
 10994 3e32 2370     		strb	r3, [r4, #0]
 10995 3e34 4748     		ldr	r0, .L383+8
 10996 3e36 FFF7FEFF 		bl	uart_transmit
 10997              	.LVL999:
 10998              	.LBE1443:
 10999              	.LBB1444:
 11000 3e3a F178     		ldrb	r1, [r6, #3]	@ zero_extendqisi2
 11001              	.LVL1000:
 11002 3e3c 2B78     		ldrb	r3, [r5, #0]	@ zero_extendqisi2
 11003 3e3e 2278     		ldrb	r2, [r4, #0]	@ zero_extendqisi2
 11004 3e40 CB18     		adds	r3, r1, r3
 11005 3e42 DBB2     		uxtb	r3, r3
 11006              	.LBE1444:
 11007              	.LBB1445:
 11008 3e44 4B4E     		ldr	r6, .L383+40
 11009              	.LBE1445:
 11010              	.LBB1446:
 11011 3e46 2B70     		strb	r3, [r5, #0]
 11012 3e48 9B18     		adds	r3, r3, r2
 11013 3e4a 2370     		strb	r3, [r4, #0]
 11014 3e4c 4148     		ldr	r0, .L383+8
 11015 3e4e FFF7FEFF 		bl	uart_transmit
 11016              	.LVL1001:
 11017              	.LBE1446:
 11018              	.LBB1447:
 11019 3e52 3178     		ldrb	r1, [r6, #0]	@ zero_extendqisi2
 11020              	.LVL1002:
 11021 3e54 2B78     		ldrb	r3, [r5, #0]	@ zero_extendqisi2
 11022 3e56 2278     		ldrb	r2, [r4, #0]	@ zero_extendqisi2
 11023 3e58 CB18     		adds	r3, r1, r3
 11024 3e5a DBB2     		uxtb	r3, r3
 11025 3e5c 2B70     		strb	r3, [r5, #0]
 11026 3e5e 9B18     		adds	r3, r3, r2
 11027 3e60 2370     		strb	r3, [r4, #0]
 11028 3e62 3C48     		ldr	r0, .L383+8
 11029 3e64 FFF7FEFF 		bl	uart_transmit
 11030              	.LVL1003:
 11031              	.LBE1447:
 11032              	.LBB1448:
 11033 3e68 7178     		ldrb	r1, [r6, #1]	@ zero_extendqisi2
 11034              	.LVL1004:
 11035 3e6a 2B78     		ldrb	r3, [r5, #0]	@ zero_extendqisi2
 11036 3e6c 2278     		ldrb	r2, [r4, #0]	@ zero_extendqisi2
 11037 3e6e CB18     		adds	r3, r1, r3
 11038 3e70 DBB2     		uxtb	r3, r3
 11039 3e72 2B70     		strb	r3, [r5, #0]
 11040 3e74 9B18     		adds	r3, r3, r2
 11041 3e76 2370     		strb	r3, [r4, #0]
 11042 3e78 3648     		ldr	r0, .L383+8
 11043 3e7a FFF7FEFF 		bl	uart_transmit
 11044              	.LVL1005:
 11045              	.LBE1448:
 11046              	.LBB1449:
 11047 3e7e B178     		ldrb	r1, [r6, #2]	@ zero_extendqisi2
 11048              	.LVL1006:
 11049 3e80 2B78     		ldrb	r3, [r5, #0]	@ zero_extendqisi2
 11050 3e82 2278     		ldrb	r2, [r4, #0]	@ zero_extendqisi2
 11051 3e84 CB18     		adds	r3, r1, r3
 11052 3e86 DBB2     		uxtb	r3, r3
 11053 3e88 2B70     		strb	r3, [r5, #0]
 11054 3e8a 9B18     		adds	r3, r3, r2
 11055 3e8c 2370     		strb	r3, [r4, #0]
 11056 3e8e 3148     		ldr	r0, .L383+8
 11057 3e90 FFF7FEFF 		bl	uart_transmit
 11058              	.LVL1007:
 11059              	.LBE1449:
 11060              	.LBB1450:
 11061 3e94 F178     		ldrb	r1, [r6, #3]	@ zero_extendqisi2
 11062              	.LVL1008:
 11063 3e96 2B78     		ldrb	r3, [r5, #0]	@ zero_extendqisi2
 11064 3e98 2278     		ldrb	r2, [r4, #0]	@ zero_extendqisi2
 11065 3e9a CB18     		adds	r3, r1, r3
 11066 3e9c DBB2     		uxtb	r3, r3
 11067              	.LBE1450:
 11068              	.LBB1451:
 11069 3e9e 364E     		ldr	r6, .L383+44
 11070              	.LBE1451:
 11071              	.LBB1452:
 11072 3ea0 2B70     		strb	r3, [r5, #0]
 11073 3ea2 9B18     		adds	r3, r3, r2
 11074 3ea4 2370     		strb	r3, [r4, #0]
 11075 3ea6 2B48     		ldr	r0, .L383+8
 11076 3ea8 FFF7FEFF 		bl	uart_transmit
 11077              	.LVL1009:
 11078              	.LBE1452:
 11079              	.LBB1453:
 11080 3eac 3178     		ldrb	r1, [r6, #0]	@ zero_extendqisi2
 11081              	.LVL1010:
 11082 3eae 2B78     		ldrb	r3, [r5, #0]	@ zero_extendqisi2
 11083 3eb0 2278     		ldrb	r2, [r4, #0]	@ zero_extendqisi2
 11084 3eb2 CB18     		adds	r3, r1, r3
 11085 3eb4 DBB2     		uxtb	r3, r3
 11086 3eb6 2B70     		strb	r3, [r5, #0]
 11087 3eb8 9B18     		adds	r3, r3, r2
 11088 3eba 2370     		strb	r3, [r4, #0]
 11089 3ebc 2548     		ldr	r0, .L383+8
 11090 3ebe FFF7FEFF 		bl	uart_transmit
 11091              	.LVL1011:
 11092              	.LBE1453:
 11093              	.LBB1454:
 11094 3ec2 7178     		ldrb	r1, [r6, #1]	@ zero_extendqisi2
 11095              	.LVL1012:
 11096 3ec4 2B78     		ldrb	r3, [r5, #0]	@ zero_extendqisi2
 11097 3ec6 2278     		ldrb	r2, [r4, #0]	@ zero_extendqisi2
 11098 3ec8 CB18     		adds	r3, r1, r3
 11099 3eca DBB2     		uxtb	r3, r3
 11100 3ecc 2B70     		strb	r3, [r5, #0]
 11101 3ece 9B18     		adds	r3, r3, r2
 11102 3ed0 2370     		strb	r3, [r4, #0]
 11103 3ed2 2048     		ldr	r0, .L383+8
 11104 3ed4 FFF7FEFF 		bl	uart_transmit
 11105              	.LVL1013:
 11106              	.LBE1454:
 11107              	.LBB1455:
 11108 3ed8 B178     		ldrb	r1, [r6, #2]	@ zero_extendqisi2
 11109              	.LVL1014:
 11110 3eda 2B78     		ldrb	r3, [r5, #0]	@ zero_extendqisi2
 11111 3edc 2278     		ldrb	r2, [r4, #0]	@ zero_extendqisi2
 11112 3ede CB18     		adds	r3, r1, r3
 11113 3ee0 DBB2     		uxtb	r3, r3
 11114 3ee2 2B70     		strb	r3, [r5, #0]
 11115 3ee4 9B18     		adds	r3, r3, r2
 11116 3ee6 2370     		strb	r3, [r4, #0]
 11117 3ee8 1A48     		ldr	r0, .L383+8
 11118 3eea FFF7FEFF 		bl	uart_transmit
 11119              	.LVL1015:
 11120              	.LBE1455:
 11121              	.LBB1456:
 11122 3eee F178     		ldrb	r1, [r6, #3]	@ zero_extendqisi2
 11123              	.LVL1016:
 11124 3ef0 2B78     		ldrb	r3, [r5, #0]	@ zero_extendqisi2
 11125 3ef2 2278     		ldrb	r2, [r4, #0]	@ zero_extendqisi2
 11126 3ef4 CB18     		adds	r3, r1, r3
 11127 3ef6 DBB2     		uxtb	r3, r3
 11128              	.LBE1456:
 11129              	.LBB1457:
 11130 3ef8 204E     		ldr	r6, .L383+48
 11131              	.LBE1457:
 11132              	.LBB1458:
 11133 3efa 2B70     		strb	r3, [r5, #0]
 11134 3efc 9B18     		adds	r3, r3, r2
 11135 3efe 2370     		strb	r3, [r4, #0]
 11136 3f00 1448     		ldr	r0, .L383+8
 11137 3f02 FFF7FEFF 		bl	uart_transmit
 11138              	.LVL1017:
 11139              	.LBE1458:
 11140              	.LBB1459:
 11141 3f06 3178     		ldrb	r1, [r6, #0]	@ zero_extendqisi2
 11142              	.LVL1018:
 11143 3f08 2B78     		ldrb	r3, [r5, #0]	@ zero_extendqisi2
 11144 3f0a 2278     		ldrb	r2, [r4, #0]	@ zero_extendqisi2
 11145 3f0c CB18     		adds	r3, r1, r3
 11146 3f0e DBB2     		uxtb	r3, r3
 11147 3f10 2B70     		strb	r3, [r5, #0]
 11148 3f12 9B18     		adds	r3, r3, r2
 11149 3f14 2370     		strb	r3, [r4, #0]
 11150 3f16 0F48     		ldr	r0, .L383+8
 11151 3f18 FFF7FEFF 		bl	uart_transmit
 11152              	.LVL1019:
 11153              	.LBE1459:
 11154              	.LBB1460:
 11155 3f1c 7178     		ldrb	r1, [r6, #1]	@ zero_extendqisi2
 11156              	.LVL1020:
 11157 3f1e 2B78     		ldrb	r3, [r5, #0]	@ zero_extendqisi2
 11158 3f20 2278     		ldrb	r2, [r4, #0]	@ zero_extendqisi2
 11159 3f22 CB18     		adds	r3, r1, r3
 11160 3f24 DBB2     		uxtb	r3, r3
 11161 3f26 2B70     		strb	r3, [r5, #0]
 11162 3f28 9B18     		adds	r3, r3, r2
 11163 3f2a 2370     		strb	r3, [r4, #0]
 11164 3f2c 0948     		ldr	r0, .L383+8
 11165 3f2e FFF7FEFF 		bl	uart_transmit
 11166              	.LVL1021:
 11167              	.LBE1460:
 11168              	.LBB1461:
 11169 3f32 B178     		ldrb	r1, [r6, #2]	@ zero_extendqisi2
 11170              	.LVL1022:
 11171 3f34 2B78     		ldrb	r3, [r5, #0]	@ zero_extendqisi2
 11172 3f36 2278     		ldrb	r2, [r4, #0]	@ zero_extendqisi2
 11173 3f38 CB18     		adds	r3, r1, r3
 11174 3f3a DBB2     		uxtb	r3, r3
 11175 3f3c 2B70     		strb	r3, [r5, #0]
 11176 3f3e 9B18     		adds	r3, r3, r2
 11177 3f40 2370     		strb	r3, [r4, #0]
 11178 3f42 0448     		ldr	r0, .L383+8
 11179 3f44 FFF7FEFF 		bl	uart_transmit
 11180 3f48 1AE0     		b	.L384
 11181              	.L385:
 11182 3f4a 00BF     		.align	2
 11183              	.L383:
 11184 3f4c 00000000 		.word	downlink_nb_ovrn
 11185 3f50 00000000 		.word	.LANCHOR50
 11186 3f54 00000000 		.word	uart2
 11187 3f58 00000000 		.word	downlink_nb_bytes
 11188 3f5c 00000000 		.word	downlink_nb_msgs
 11189 3f60 00000000 		.word	ck_a
 11190 3f64 00000000 		.word	ck_b
 11191 3f68 00000000 		.word	h_ctl_roll_setpoint
 11192 3f6c 00000000 		.word	h_ctl_pitch_loop_setpoint
 11193 3f70 00000000 		.word	h_ctl_course_setpoint
 11194 3f74 00000000 		.word	desired_x
 11195 3f78 00000000 		.word	desired_y
 11196 3f7c 00000000 		.word	v_ctl_altitude_setpoint
 11197              	.L384:
 11198              	.LVL1023:
 11199              	.LBE1461:
 11200              	.LBB1462:
 11201 3f80 F178     		ldrb	r1, [r6, #3]	@ zero_extendqisi2
 11202              	.LVL1024:
 11203 3f82 2B78     		ldrb	r3, [r5, #0]	@ zero_extendqisi2
 11204 3f84 2278     		ldrb	r2, [r4, #0]	@ zero_extendqisi2
 11205 3f86 CB18     		adds	r3, r1, r3
 11206 3f88 DBB2     		uxtb	r3, r3
 11207              	.LBE1462:
 11208              	.LBB1463:
 11209 3f8a 8A4E     		ldr	r6, .L386
 11210              	.LBE1463:
 11211              	.LBB1464:
 11212 3f8c 2B70     		strb	r3, [r5, #0]
 11213 3f8e 9B18     		adds	r3, r3, r2
 11214 3f90 2370     		strb	r3, [r4, #0]
 11215 3f92 8948     		ldr	r0, .L386+4
 11216 3f94 FFF7FEFF 		bl	uart_transmit
 11217              	.LVL1025:
 11218              	.LBE1464:
 11219              	.LBB1465:
 11220 3f98 3178     		ldrb	r1, [r6, #0]	@ zero_extendqisi2
 11221              	.LVL1026:
 11222 3f9a 2B78     		ldrb	r3, [r5, #0]	@ zero_extendqisi2
 11223 3f9c 2278     		ldrb	r2, [r4, #0]	@ zero_extendqisi2
 11224 3f9e CB18     		adds	r3, r1, r3
 11225 3fa0 DBB2     		uxtb	r3, r3
 11226 3fa2 2B70     		strb	r3, [r5, #0]
 11227 3fa4 9B18     		adds	r3, r3, r2
 11228 3fa6 2370     		strb	r3, [r4, #0]
 11229 3fa8 8348     		ldr	r0, .L386+4
 11230 3faa FFF7FEFF 		bl	uart_transmit
 11231              	.LVL1027:
 11232              	.LBE1465:
 11233              	.LBB1466:
 11234 3fae 7178     		ldrb	r1, [r6, #1]	@ zero_extendqisi2
 11235              	.LVL1028:
 11236 3fb0 2B78     		ldrb	r3, [r5, #0]	@ zero_extendqisi2
 11237 3fb2 2278     		ldrb	r2, [r4, #0]	@ zero_extendqisi2
 11238 3fb4 CB18     		adds	r3, r1, r3
 11239 3fb6 DBB2     		uxtb	r3, r3
 11240 3fb8 2B70     		strb	r3, [r5, #0]
 11241 3fba 9B18     		adds	r3, r3, r2
 11242 3fbc 2370     		strb	r3, [r4, #0]
 11243 3fbe 7E48     		ldr	r0, .L386+4
 11244 3fc0 FFF7FEFF 		bl	uart_transmit
 11245              	.LVL1029:
 11246              	.LBE1466:
 11247              	.LBB1467:
 11248 3fc4 B178     		ldrb	r1, [r6, #2]	@ zero_extendqisi2
 11249              	.LVL1030:
 11250 3fc6 2B78     		ldrb	r3, [r5, #0]	@ zero_extendqisi2
 11251 3fc8 2278     		ldrb	r2, [r4, #0]	@ zero_extendqisi2
 11252 3fca CB18     		adds	r3, r1, r3
 11253 3fcc DBB2     		uxtb	r3, r3
 11254 3fce 2B70     		strb	r3, [r5, #0]
 11255 3fd0 9B18     		adds	r3, r3, r2
 11256 3fd2 2370     		strb	r3, [r4, #0]
 11257 3fd4 7848     		ldr	r0, .L386+4
 11258 3fd6 FFF7FEFF 		bl	uart_transmit
 11259              	.LVL1031:
 11260              	.LBE1467:
 11261              	.LBB1468:
 11262 3fda F178     		ldrb	r1, [r6, #3]	@ zero_extendqisi2
 11263              	.LVL1032:
 11264 3fdc 2B78     		ldrb	r3, [r5, #0]	@ zero_extendqisi2
 11265 3fde 2278     		ldrb	r2, [r4, #0]	@ zero_extendqisi2
 11266 3fe0 CB18     		adds	r3, r1, r3
 11267 3fe2 DBB2     		uxtb	r3, r3
 11268 3fe4 2B70     		strb	r3, [r5, #0]
 11269 3fe6 9B18     		adds	r3, r3, r2
 11270 3fe8 2370     		strb	r3, [r4, #0]
 11271 3fea 7348     		ldr	r0, .L386+4
 11272 3fec FFF7FEFF 		bl	uart_transmit
 11273              	.LVL1033:
 11274              	.LBE1468:
 11275 3ff0 2978     		ldrb	r1, [r5, #0]	@ zero_extendqisi2
 11276 3ff2 7148     		ldr	r0, .L386+4
 11277 3ff4 FFF7FEFF 		bl	uart_transmit
 11278 3ff8 6F48     		ldr	r0, .L386+4
 11279 3ffa 2178     		ldrb	r1, [r4, #0]	@ zero_extendqisi2
 11280 3ffc FFF7FEFF 		bl	uart_transmit
 11281 4000 03E0     		b	.L241
 11282              	.L242:
 11283 4002 6E4B     		ldr	r3, .L386+8
 11284 4004 1A78     		ldrb	r2, [r3, #0]	@ zero_extendqisi2
 11285 4006 0132     		adds	r2, r2, #1
 11286 4008 1A70     		strb	r2, [r3, #0]
 11287              	.L241:
 11288 400a 6D4B     		ldr	r3, .L386+12
 11289 400c 1B88     		ldrh	r3, [r3, #0]
 11290 400e 422B     		cmp	r3, #66
 11291 4010 50D1     		bne	.L243
 11292 4012 6948     		ldr	r0, .L386+4
 11293 4014 1721     		movs	r1, #23
 11294 4016 FFF7FEFF 		bl	uart_check_free_space
 11295 401a 0028     		cmp	r0, #0
 11296 401c 00F08E81 		beq	.L249
 11297 4020 684B     		ldr	r3, .L386+16
 11298              	.LBB1469:
 11299 4022 6548     		ldr	r0, .L386+4
 11300              	.LBE1469:
 11301 4024 1A88     		ldrh	r2, [r3, #0]
 11302              	.LBB1470:
 11303 4026 9921     		movs	r1, #153
 11304              	.LBE1470:
 11305 4028 1732     		adds	r2, r2, #23
 11306 402a 1A80     		strh	r2, [r3, #0]	@ movhi
 11307 402c 664B     		ldr	r3, .L386+20
 11308              	.LBB1471:
 11309 402e 674D     		ldr	r5, .L386+24
 11310              	.LBE1471:
 11311 4030 1A88     		ldrh	r2, [r3, #0]
 11312              	.LBB1472:
 11313 4032 674C     		ldr	r4, .L386+28
 11314              	.LBE1472:
 11315 4034 0132     		adds	r2, r2, #1
 11316 4036 1A80     		strh	r2, [r3, #0]	@ movhi
 11317              	.LBB1473:
 11318 4038 FFF7FEFF 		bl	uart_transmit
 11319 403c 5E48     		ldr	r0, .L386+4
 11320 403e 1721     		movs	r1, #23
 11321 4040 FFF7FEFF 		bl	uart_transmit
 11322              	.LBE1473:
 11323 4044 1823     		movs	r3, #24
 11324 4046 2B70     		strb	r3, [r5, #0]
 11325 4048 1733     		adds	r3, r3, #23
 11326 404a 2370     		strb	r3, [r4, #0]
 11327 404c 5A48     		ldr	r0, .L386+4
 11328 404e 0121     		movs	r1, #1
 11329 4050 FFF7FEFF 		bl	uart_transmit
 11330 4054 2B78     		ldrb	r3, [r5, #0]	@ zero_extendqisi2
 11331 4056 2278     		ldrb	r2, [r4, #0]	@ zero_extendqisi2
 11332 4058 0233     		adds	r3, r3, #2
 11333 405a DBB2     		uxtb	r3, r3
 11334 405c 2B70     		strb	r3, [r5, #0]
 11335 405e 9B18     		adds	r3, r3, r2
 11336 4060 2370     		strb	r3, [r4, #0]
 11337 4062 5548     		ldr	r0, .L386+4
 11338 4064 0221     		movs	r1, #2
 11339 4066 FFF7FEFF 		bl	uart_transmit
 11340              	.LBB1474:
 11341 406a 2B78     		ldrb	r3, [r5, #0]	@ zero_extendqisi2
 11342 406c 2278     		ldrb	r2, [r4, #0]	@ zero_extendqisi2
 11343 406e 1033     		adds	r3, r3, #16
 11344 4070 DBB2     		uxtb	r3, r3
 11345 4072 2B70     		strb	r3, [r5, #0]
 11346 4074 9B18     		adds	r3, r3, r2
 11347 4076 2370     		strb	r3, [r4, #0]
 11348 4078 4F48     		ldr	r0, .L386+4
 11349 407a 1021     		movs	r1, #16
 11350 407c FFF7FEFF 		bl	uart_transmit
 11351 4080 544C     		ldr	r4, .L386+32
 425:firmwares/fixedwing/main_ap.c **** void periodic_task_ap( void ) {
 11352              		.loc 1 425 0
 11353 4082 04F11007 		add	r7, r4, #16
 11354              	.L245:
 11355              	.LBB1475:
 205:firmwares/fixedwing/main_ap.c ****     PeriodicSendAp(DefaultChannel);
 11356              		.loc 1 205 0
 11357 4086 514E     		ldr	r6, .L386+24
 11358 4088 14F8011B 		ldrb	r1, [r4], #1	@ zero_extendqisi2
 11359              	.LVL1034:
 11360 408c 3378     		ldrb	r3, [r6, #0]	@ zero_extendqisi2
 11361 408e 504D     		ldr	r5, .L386+28
 11362 4090 CB18     		adds	r3, r1, r3
 11363 4092 2A78     		ldrb	r2, [r5, #0]	@ zero_extendqisi2
 11364 4094 DBB2     		uxtb	r3, r3
 11365 4096 3370     		strb	r3, [r6, #0]
 11366 4098 9B18     		adds	r3, r3, r2
 11367 409a 2B70     		strb	r3, [r5, #0]
 11368 409c 4648     		ldr	r0, .L386+4
 11369 409e FFF7FEFF 		bl	uart_transmit
 11370              	.LVL1035:
 11371              	.LBE1475:
 11372 40a2 BC42     		cmp	r4, r7
 11373 40a4 EFD1     		bne	.L245
 11374              	.LBE1474:
 11375 40a6 4448     		ldr	r0, .L386+4
 11376 40a8 3178     		ldrb	r1, [r6, #0]	@ zero_extendqisi2
 11377 40aa FFF7FEFF 		bl	uart_transmit
 11378 40ae 4248     		ldr	r0, .L386+4
 11379 40b0 2978     		ldrb	r1, [r5, #0]	@ zero_extendqisi2
 11380 40b2 7CE0     		b	.L312
 11381              	.L243:
 11382 40b4 482B     		cmp	r3, #72
 11383 40b6 40F09B80 		bne	.L247
 11384 40ba 3F48     		ldr	r0, .L386+4
 11385 40bc 0C21     		movs	r1, #12
 11386 40be FFF7FEFF 		bl	uart_check_free_space
 11387 40c2 0028     		cmp	r0, #0
 11388 40c4 00F03A81 		beq	.L249
 11389 40c8 3E4B     		ldr	r3, .L386+16
 11390              	.LBB1476:
 11391 40ca 3B48     		ldr	r0, .L386+4
 11392              	.LBE1476:
 11393 40cc 1A88     		ldrh	r2, [r3, #0]
 11394              	.LBB1477:
 11395 40ce 9921     		movs	r1, #153
 11396              	.LBE1477:
 11397 40d0 0C32     		adds	r2, r2, #12
 11398 40d2 1A80     		strh	r2, [r3, #0]	@ movhi
 11399 40d4 3C4B     		ldr	r3, .L386+20
 11400              	.LBB1478:
 11401 40d6 3D4D     		ldr	r5, .L386+24
 11402              	.LBE1478:
 11403 40d8 1A88     		ldrh	r2, [r3, #0]
 11404              	.LBB1479:
 11405 40da 3D4C     		ldr	r4, .L386+28
 11406              	.LBE1479:
 11407 40dc 0132     		adds	r2, r2, #1
 11408 40de 1A80     		strh	r2, [r3, #0]	@ movhi
 11409              	.LBB1480:
 11410 40e0 FFF7FEFF 		bl	uart_transmit
 11411 40e4 3448     		ldr	r0, .L386+4
 11412 40e6 0C21     		movs	r1, #12
 11413 40e8 FFF7FEFF 		bl	uart_transmit
 11414              	.LBE1480:
 11415 40ec 0D23     		movs	r3, #13
 11416 40ee 2B70     		strb	r3, [r5, #0]
 11417 40f0 0C33     		adds	r3, r3, #12
 11418 40f2 2370     		strb	r3, [r4, #0]
 11419 40f4 3048     		ldr	r0, .L386+4
 11420 40f6 0121     		movs	r1, #1
 11421 40f8 FFF7FEFF 		bl	uart_transmit
 11422 40fc 2B78     		ldrb	r3, [r5, #0]	@ zero_extendqisi2
 11423 40fe 2278     		ldrb	r2, [r4, #0]	@ zero_extendqisi2
 11424 4100 0B33     		adds	r3, r3, #11
 11425 4102 DBB2     		uxtb	r3, r3
 11426 4104 2B70     		strb	r3, [r5, #0]
 11427 4106 9B18     		adds	r3, r3, r2
 11428 4108 2370     		strb	r3, [r4, #0]
 11429 410a 2B48     		ldr	r0, .L386+4
 11430 410c 0B21     		movs	r1, #11
 11431 410e FFF7FEFF 		bl	uart_transmit
 11432              	.LBB1481:
 11433 4112 314B     		ldr	r3, .L386+36
 11434 4114 2278     		ldrb	r2, [r4, #0]	@ zero_extendqisi2
 11435 4116 1978     		ldrb	r1, [r3, #0]	@ zero_extendqisi2
 11436              	.LVL1036:
 11437 4118 2B78     		ldrb	r3, [r5, #0]	@ zero_extendqisi2
 11438 411a 2748     		ldr	r0, .L386+4
 11439 411c CB18     		adds	r3, r1, r3
 11440 411e DBB2     		uxtb	r3, r3
 11441 4120 2B70     		strb	r3, [r5, #0]
 11442 4122 9B18     		adds	r3, r3, r2
 11443 4124 2370     		strb	r3, [r4, #0]
 11444 4126 FFF7FEFF 		bl	uart_transmit
 11445              	.LVL1037:
 11446              	.LBE1481:
 11447              	.LBB1482:
 11448 412a 2C4B     		ldr	r3, .L386+40
 11449 412c 2278     		ldrb	r2, [r4, #0]	@ zero_extendqisi2
 11450 412e 1978     		ldrb	r1, [r3, #0]	@ zero_extendqisi2
 11451              	.LVL1038:
 11452 4130 2B78     		ldrb	r3, [r5, #0]	@ zero_extendqisi2
 11453 4132 2148     		ldr	r0, .L386+4
 11454 4134 CB18     		adds	r3, r1, r3
 11455 4136 DBB2     		uxtb	r3, r3
 11456 4138 2B70     		strb	r3, [r5, #0]
 11457 413a 9B18     		adds	r3, r3, r2
 11458 413c 2370     		strb	r3, [r4, #0]
 11459 413e FFF7FEFF 		bl	uart_transmit
 11460              	.LVL1039:
 11461              	.LBE1482:
 11462              	.LBB1483:
 11463 4142 274B     		ldr	r3, .L386+44
 11464 4144 2278     		ldrb	r2, [r4, #0]	@ zero_extendqisi2
 11465 4146 1978     		ldrb	r1, [r3, #0]	@ zero_extendqisi2
 11466              	.LVL1040:
 11467 4148 2B78     		ldrb	r3, [r5, #0]	@ zero_extendqisi2
 11468 414a 1B48     		ldr	r0, .L386+4
 11469 414c CB18     		adds	r3, r1, r3
 11470 414e DBB2     		uxtb	r3, r3
 11471 4150 2B70     		strb	r3, [r5, #0]
 11472 4152 9B18     		adds	r3, r3, r2
 11473 4154 2370     		strb	r3, [r4, #0]
 11474 4156 FFF7FEFF 		bl	uart_transmit
 11475              	.LVL1041:
 11476              	.LBE1483:
 11477              	.LBB1484:
 11478 415a 224B     		ldr	r3, .L386+48
 11479 415c 2278     		ldrb	r2, [r4, #0]	@ zero_extendqisi2
 11480 415e 1978     		ldrb	r1, [r3, #0]	@ zero_extendqisi2
 11481              	.LVL1042:
 11482 4160 2B78     		ldrb	r3, [r5, #0]	@ zero_extendqisi2
 11483 4162 1548     		ldr	r0, .L386+4
 11484 4164 CB18     		adds	r3, r1, r3
 11485 4166 DBB2     		uxtb	r3, r3
 11486 4168 2B70     		strb	r3, [r5, #0]
 11487 416a 9B18     		adds	r3, r3, r2
 11488 416c 2370     		strb	r3, [r4, #0]
 11489 416e FFF7FEFF 		bl	uart_transmit
 11490              	.LVL1043:
 11491              	.LBE1484:
 11492              	.LBB1485:
 11493 4172 1D4B     		ldr	r3, .L386+52
 11494 4174 2278     		ldrb	r2, [r4, #0]	@ zero_extendqisi2
 11495 4176 1978     		ldrb	r1, [r3, #0]	@ zero_extendqisi2
 11496              	.LVL1044:
 11497 4178 2B78     		ldrb	r3, [r5, #0]	@ zero_extendqisi2
 11498 417a 0F48     		ldr	r0, .L386+4
 11499 417c CB18     		adds	r3, r1, r3
 11500 417e DBB2     		uxtb	r3, r3
 11501 4180 2B70     		strb	r3, [r5, #0]
 11502 4182 9B18     		adds	r3, r3, r2
 11503 4184 2370     		strb	r3, [r4, #0]
 11504 4186 FFF7FEFF 		bl	uart_transmit
 11505              	.LVL1045:
 11506              	.LBE1485:
 11507              	.LBB1486:
 11508 418a 184B     		ldr	r3, .L386+56
 11509 418c 1978     		ldrb	r1, [r3, #0]	@ zero_extendqisi2
 11510              	.LVL1046:
 11511              	.L319:
 11512 418e 2B78     		ldrb	r3, [r5, #0]	@ zero_extendqisi2
 11513 4190 2278     		ldrb	r2, [r4, #0]	@ zero_extendqisi2
 11514 4192 CB18     		adds	r3, r1, r3
 11515 4194 DBB2     		uxtb	r3, r3
 11516 4196 2B70     		strb	r3, [r5, #0]
 11517 4198 9B18     		adds	r3, r3, r2
 11518 419a 2370     		strb	r3, [r4, #0]
 11519 419c 0648     		ldr	r0, .L386+4
 11520 419e FFF7FEFF 		bl	uart_transmit
 11521              	.LVL1047:
 11522              	.LBE1486:
 11523 41a2 0548     		ldr	r0, .L386+4
 11524 41a4 2978     		ldrb	r1, [r5, #0]	@ zero_extendqisi2
 11525 41a6 FFF7FEFF 		bl	uart_transmit
 11526 41aa 0348     		ldr	r0, .L386+4
 11527 41ac 2178     		ldrb	r1, [r4, #0]	@ zero_extendqisi2
 11528              	.L312:
 11529 41ae FFF7FEFF 		bl	uart_transmit
 11530 41b2 C7E0     		b	.L246
 11531              	.L387:
 11532              		.align	2
 11533              	.L386:
 11534 41b4 00000000 		.word	v_ctl_climb_setpoint
 11535 41b8 00000000 		.word	uart2
 11536 41bc 00000000 		.word	downlink_nb_ovrn
 11537 41c0 00000000 		.word	.LANCHOR51
 11538 41c4 00000000 		.word	downlink_nb_bytes
 11539 41c8 00000000 		.word	downlink_nb_msgs
 11540 41cc 00000000 		.word	ck_a
 11541 41d0 00000000 		.word	ck_b
 11542 41d4 00000000 		.word	.LC0
 11543 41d8 00000000 		.word	.LANCHOR4
 11544 41dc 00000000 		.word	v_ctl_mode
 11545 41e0 00000000 		.word	.LANCHOR7
 11546 41e4 00000000 		.word	horizontal_mode
 11547 41e8 00000000 		.word	.LANCHOR8
 11548 41ec 00000000 		.word	.LANCHOR6
 11549              	.L247:
 11550 41f0 4E2B     		cmp	r3, #78
 11551 41f2 00F0A780 		beq	.L246
 11552 41f6 542B     		cmp	r3, #84
 11553 41f8 40F0A480 		bne	.L246
 11554 41fc 8348     		ldr	r0, .L388
 11555 41fe 1121     		movs	r1, #17
 11556 4200 FFF7FEFF 		bl	uart_check_free_space
 11557 4204 0028     		cmp	r0, #0
 11558 4206 00F09980 		beq	.L249
 11559 420a 814B     		ldr	r3, .L388+4
 11560              	.LBB1487:
 11561 420c 9921     		movs	r1, #153
 11562              	.LBE1487:
 11563 420e 1A88     		ldrh	r2, [r3, #0]
 11564              	.LBB1488:
 11565 4210 7E48     		ldr	r0, .L388
 11566              	.LBE1488:
 11567 4212 1132     		adds	r2, r2, #17
 11568 4214 1A80     		strh	r2, [r3, #0]	@ movhi
 11569 4216 7F4B     		ldr	r3, .L388+8
 11570              	.LBB1489:
 11571 4218 7F4D     		ldr	r5, .L388+12
 11572              	.LBE1489:
 11573 421a 1A88     		ldrh	r2, [r3, #0]
 11574              	.LBB1490:
 11575 421c 7F4C     		ldr	r4, .L388+16
 11576              	.LBE1490:
 11577 421e 0132     		adds	r2, r2, #1
 11578 4220 1A80     		strh	r2, [r3, #0]	@ movhi
 11579              	.LBB1491:
 11580 4222 FFF7FEFF 		bl	uart_transmit
 11581 4226 1121     		movs	r1, #17
 11582 4228 7848     		ldr	r0, .L388
 11583 422a FFF7FEFF 		bl	uart_transmit
 11584              	.LBE1491:
 11585 422e 1223     		movs	r3, #18
 11586 4230 2B70     		strb	r3, [r5, #0]
 11587 4232 1133     		adds	r3, r3, #17
 11588 4234 0121     		movs	r1, #1
 11589 4236 2370     		strb	r3, [r4, #0]
 11590 4238 7448     		ldr	r0, .L388
 11591 423a FFF7FEFF 		bl	uart_transmit
 11592 423e 2B78     		ldrb	r3, [r5, #0]	@ zero_extendqisi2
 11593 4240 2278     		ldrb	r2, [r4, #0]	@ zero_extendqisi2
 11594 4242 1133     		adds	r3, r3, #17
 11595 4244 DBB2     		uxtb	r3, r3
 11596              	.LBB1492:
 11597 4246 764E     		ldr	r6, .L388+20
 11598              	.LBE1492:
 11599 4248 2B70     		strb	r3, [r5, #0]
 11600 424a 9B18     		adds	r3, r3, r2
 11601 424c 1121     		movs	r1, #17
 11602 424e 2370     		strb	r3, [r4, #0]
 11603 4250 6E48     		ldr	r0, .L388
 11604 4252 FFF7FEFF 		bl	uart_transmit
 11605              	.LBB1493:
 11606 4256 3178     		ldrb	r1, [r6, #0]	@ zero_extendqisi2
 11607              	.LVL1048:
 11608 4258 2B78     		ldrb	r3, [r5, #0]	@ zero_extendqisi2
 11609 425a 2278     		ldrb	r2, [r4, #0]	@ zero_extendqisi2
 11610 425c CB18     		adds	r3, r1, r3
 11611 425e DBB2     		uxtb	r3, r3
 11612 4260 2B70     		strb	r3, [r5, #0]
 11613 4262 9B18     		adds	r3, r3, r2
 11614 4264 2370     		strb	r3, [r4, #0]
 11615 4266 6948     		ldr	r0, .L388
 11616 4268 FFF7FEFF 		bl	uart_transmit
 11617              	.LVL1049:
 11618              	.LBE1493:
 11619              	.LBB1494:
 11620 426c 7178     		ldrb	r1, [r6, #1]	@ zero_extendqisi2
 11621              	.LVL1050:
 11622 426e 2B78     		ldrb	r3, [r5, #0]	@ zero_extendqisi2
 11623 4270 2278     		ldrb	r2, [r4, #0]	@ zero_extendqisi2
 11624 4272 CB18     		adds	r3, r1, r3
 11625 4274 DBB2     		uxtb	r3, r3
 11626 4276 2B70     		strb	r3, [r5, #0]
 11627 4278 9B18     		adds	r3, r3, r2
 11628 427a 2370     		strb	r3, [r4, #0]
 11629 427c 6348     		ldr	r0, .L388
 11630 427e FFF7FEFF 		bl	uart_transmit
 11631              	.LVL1051:
 11632              	.LBE1494:
 11633              	.LBB1495:
 11634 4282 B178     		ldrb	r1, [r6, #2]	@ zero_extendqisi2
 11635              	.LVL1052:
 11636 4284 2B78     		ldrb	r3, [r5, #0]	@ zero_extendqisi2
 11637 4286 2278     		ldrb	r2, [r4, #0]	@ zero_extendqisi2
 11638 4288 CB18     		adds	r3, r1, r3
 11639 428a DBB2     		uxtb	r3, r3
 11640 428c 2B70     		strb	r3, [r5, #0]
 11641 428e 9B18     		adds	r3, r3, r2
 11642 4290 2370     		strb	r3, [r4, #0]
 11643 4292 5E48     		ldr	r0, .L388
 11644 4294 FFF7FEFF 		bl	uart_transmit
 11645              	.LVL1053:
 11646              	.LBE1495:
 11647              	.LBB1496:
 11648 4298 F178     		ldrb	r1, [r6, #3]	@ zero_extendqisi2
 11649              	.LVL1054:
 11650 429a 2B78     		ldrb	r3, [r5, #0]	@ zero_extendqisi2
 11651 429c 2278     		ldrb	r2, [r4, #0]	@ zero_extendqisi2
 11652 429e CB18     		adds	r3, r1, r3
 11653 42a0 DBB2     		uxtb	r3, r3
 11654 42a2 2B70     		strb	r3, [r5, #0]
 11655 42a4 9B18     		adds	r3, r3, r2
 11656 42a6 2370     		strb	r3, [r4, #0]
 11657 42a8 5848     		ldr	r0, .L388
 11658 42aa FFF7FEFF 		bl	uart_transmit
 11659              	.LVL1055:
 11660              	.LBE1496:
 11661              	.LBB1497:
 11662 42ae 3179     		ldrb	r1, [r6, #4]	@ zero_extendqisi2
 11663              	.LVL1056:
 11664 42b0 2B78     		ldrb	r3, [r5, #0]	@ zero_extendqisi2
 11665 42b2 2278     		ldrb	r2, [r4, #0]	@ zero_extendqisi2
 11666 42b4 CB18     		adds	r3, r1, r3
 11667 42b6 DBB2     		uxtb	r3, r3
 11668 42b8 2B70     		strb	r3, [r5, #0]
 11669 42ba 9B18     		adds	r3, r3, r2
 11670 42bc 371D     		adds	r7, r6, #4
 11671 42be 2370     		strb	r3, [r4, #0]
 11672 42c0 5248     		ldr	r0, .L388
 11673 42c2 FFF7FEFF 		bl	uart_transmit
 11674              	.LVL1057:
 11675              	.LBE1497:
 11676              	.LBB1498:
 11677 42c6 7978     		ldrb	r1, [r7, #1]	@ zero_extendqisi2
 11678              	.LVL1058:
 11679 42c8 2B78     		ldrb	r3, [r5, #0]	@ zero_extendqisi2
 11680 42ca 2278     		ldrb	r2, [r4, #0]	@ zero_extendqisi2
 11681 42cc CB18     		adds	r3, r1, r3
 11682 42ce DBB2     		uxtb	r3, r3
 11683 42d0 2B70     		strb	r3, [r5, #0]
 11684 42d2 9B18     		adds	r3, r3, r2
 11685 42d4 2370     		strb	r3, [r4, #0]
 11686 42d6 4D48     		ldr	r0, .L388
 11687 42d8 FFF7FEFF 		bl	uart_transmit
 11688              	.LVL1059:
 11689              	.LBE1498:
 11690              	.LBB1499:
 11691 42dc B978     		ldrb	r1, [r7, #2]	@ zero_extendqisi2
 11692              	.LVL1060:
 11693 42de 2B78     		ldrb	r3, [r5, #0]	@ zero_extendqisi2
 11694 42e0 2278     		ldrb	r2, [r4, #0]	@ zero_extendqisi2
 11695 42e2 CB18     		adds	r3, r1, r3
 11696 42e4 DBB2     		uxtb	r3, r3
 11697 42e6 2B70     		strb	r3, [r5, #0]
 11698 42e8 9B18     		adds	r3, r3, r2
 11699 42ea 2370     		strb	r3, [r4, #0]
 11700 42ec 4748     		ldr	r0, .L388
 11701 42ee FFF7FEFF 		bl	uart_transmit
 11702              	.LVL1061:
 11703              	.LBE1499:
 11704              	.LBB1500:
 11705 42f2 F978     		ldrb	r1, [r7, #3]	@ zero_extendqisi2
 11706              	.LVL1062:
 11707 42f4 2B78     		ldrb	r3, [r5, #0]	@ zero_extendqisi2
 11708 42f6 2278     		ldrb	r2, [r4, #0]	@ zero_extendqisi2
 11709 42f8 CB18     		adds	r3, r1, r3
 11710 42fa DBB2     		uxtb	r3, r3
 11711 42fc 2B70     		strb	r3, [r5, #0]
 11712 42fe 9B18     		adds	r3, r3, r2
 11713 4300 2370     		strb	r3, [r4, #0]
 11714 4302 4248     		ldr	r0, .L388
 11715 4304 FFF7FEFF 		bl	uart_transmit
 11716              	.LVL1063:
 11717              	.LBE1500:
 11718              	.LBB1501:
 11719 4308 317A     		ldrb	r1, [r6, #8]	@ zero_extendqisi2
 11720              	.LVL1064:
 11721 430a 2B78     		ldrb	r3, [r5, #0]	@ zero_extendqisi2
 11722 430c 2278     		ldrb	r2, [r4, #0]	@ zero_extendqisi2
 11723 430e CB18     		adds	r3, r1, r3
 11724 4310 DBB2     		uxtb	r3, r3
 11725 4312 2B70     		strb	r3, [r5, #0]
 11726 4314 9B18     		adds	r3, r3, r2
 11727 4316 2370     		strb	r3, [r4, #0]
 11728 4318 3C48     		ldr	r0, .L388
 11729 431a 06F10807 		add	r7, r6, #8
 11730 431e FFF7FEFF 		bl	uart_transmit
 11731              	.LVL1065:
 11732              	.LBE1501:
 11733              	.LBB1502:
 11734 4322 7978     		ldrb	r1, [r7, #1]	@ zero_extendqisi2
 11735              	.LVL1066:
 11736 4324 2B78     		ldrb	r3, [r5, #0]	@ zero_extendqisi2
 11737 4326 2278     		ldrb	r2, [r4, #0]	@ zero_extendqisi2
 11738 4328 CB18     		adds	r3, r1, r3
 11739 432a DBB2     		uxtb	r3, r3
 11740 432c 2B70     		strb	r3, [r5, #0]
 11741 432e 9B18     		adds	r3, r3, r2
 11742 4330 2370     		strb	r3, [r4, #0]
 11743 4332 3648     		ldr	r0, .L388
 11744 4334 FFF7FEFF 		bl	uart_transmit
 11745              	.LVL1067:
 11746              	.LBE1502:
 11747              	.LBB1503:
 11748 4338 B17A     		ldrb	r1, [r6, #10]	@ zero_extendqisi2
 11749              	.LVL1068:
 11750 433a 28E7     		b	.L319
 11751              	.LVL1069:
 11752              	.L249:
 11753              	.LBE1503:
 11754 433c 394B     		ldr	r3, .L388+24
 11755 433e 1A78     		ldrb	r2, [r3, #0]	@ zero_extendqisi2
 11756 4340 0132     		adds	r2, r2, #1
 11757 4342 1A70     		strb	r2, [r3, #0]
 11758              	.L246:
 11759 4344 384B     		ldr	r3, .L388+28
 11760 4346 1B88     		ldrh	r3, [r3, #0]
 11761 4348 5A2B     		cmp	r3, #90
 11762 434a 73D1     		bne	.L250
 11763 434c 2F48     		ldr	r0, .L388
 11764 434e 0B21     		movs	r1, #11
 11765 4350 FFF7FEFF 		bl	uart_check_free_space
 11766 4354 0028     		cmp	r0, #0
 11767 4356 54D0     		beq	.L251
 11768 4358 2D4B     		ldr	r3, .L388+4
 11769              	.LBB1504:
 11770 435a 2C48     		ldr	r0, .L388
 11771              	.LBE1504:
 11772 435c 1A88     		ldrh	r2, [r3, #0]
 11773              	.LBB1505:
 11774 435e 9921     		movs	r1, #153
 11775              	.LBE1505:
 11776 4360 0B32     		adds	r2, r2, #11
 11777 4362 1A80     		strh	r2, [r3, #0]	@ movhi
 11778 4364 2B4B     		ldr	r3, .L388+8
 11779              	.LBB1506:
 11780 4366 2C4D     		ldr	r5, .L388+12
 11781              	.LBE1506:
 11782 4368 1A88     		ldrh	r2, [r3, #0]
 11783              	.LBB1507:
 11784 436a 2C4C     		ldr	r4, .L388+16
 11785              	.LBE1507:
 11786 436c 0132     		adds	r2, r2, #1
 11787 436e 1A80     		strh	r2, [r3, #0]	@ movhi
 11788              	.LBB1508:
 11789 4370 FFF7FEFF 		bl	uart_transmit
 11790 4374 2548     		ldr	r0, .L388
 11791 4376 0B21     		movs	r1, #11
 11792 4378 FFF7FEFF 		bl	uart_transmit
 11793              	.LBE1508:
 11794 437c 0C23     		movs	r3, #12
 11795 437e 2B70     		strb	r3, [r5, #0]
 11796 4380 0B33     		adds	r3, r3, #11
 11797 4382 2370     		strb	r3, [r4, #0]
 11798 4384 2148     		ldr	r0, .L388
 11799 4386 0121     		movs	r1, #1
 11800 4388 FFF7FEFF 		bl	uart_transmit
 11801 438c 2B78     		ldrb	r3, [r5, #0]	@ zero_extendqisi2
 11802 438e 2278     		ldrb	r2, [r4, #0]	@ zero_extendqisi2
 11803 4390 0E33     		adds	r3, r3, #14
 11804 4392 DBB2     		uxtb	r3, r3
 11805              	.LBB1509:
 11806 4394 254E     		ldr	r6, .L388+32
 11807              	.LBE1509:
 11808 4396 2B70     		strb	r3, [r5, #0]
 11809 4398 9B18     		adds	r3, r3, r2
 11810 439a 2370     		strb	r3, [r4, #0]
 11811 439c 1B48     		ldr	r0, .L388
 11812 439e 0E21     		movs	r1, #14
 11813 43a0 FFF7FEFF 		bl	uart_transmit
 11814              	.LBB1510:
 11815 43a4 3178     		ldrb	r1, [r6, #0]	@ zero_extendqisi2
 11816              	.LVL1070:
 11817 43a6 2B78     		ldrb	r3, [r5, #0]	@ zero_extendqisi2
 11818 43a8 2278     		ldrb	r2, [r4, #0]	@ zero_extendqisi2
 11819 43aa CB18     		adds	r3, r1, r3
 11820 43ac DBB2     		uxtb	r3, r3
 11821 43ae 2B70     		strb	r3, [r5, #0]
 11822 43b0 9B18     		adds	r3, r3, r2
 11823 43b2 2370     		strb	r3, [r4, #0]
 11824 43b4 1548     		ldr	r0, .L388
 11825 43b6 FFF7FEFF 		bl	uart_transmit
 11826              	.LVL1071:
 11827              	.LBE1510:
 11828              	.LBB1511:
 11829 43ba 7178     		ldrb	r1, [r6, #1]	@ zero_extendqisi2
 11830              	.LVL1072:
 11831 43bc 2B78     		ldrb	r3, [r5, #0]	@ zero_extendqisi2
 11832 43be 2278     		ldrb	r2, [r4, #0]	@ zero_extendqisi2
 11833 43c0 CB18     		adds	r3, r1, r3
 11834 43c2 DBB2     		uxtb	r3, r3
 11835 43c4 2B70     		strb	r3, [r5, #0]
 11836 43c6 9B18     		adds	r3, r3, r2
 11837 43c8 2370     		strb	r3, [r4, #0]
 11838 43ca 1048     		ldr	r0, .L388
 11839 43cc FFF7FEFF 		bl	uart_transmit
 11840              	.LVL1073:
 11841              	.LBE1511:
 11842              	.LBB1512:
 11843 43d0 B178     		ldrb	r1, [r6, #2]	@ zero_extendqisi2
 11844              	.LVL1074:
 11845 43d2 2B78     		ldrb	r3, [r5, #0]	@ zero_extendqisi2
 11846 43d4 2278     		ldrb	r2, [r4, #0]	@ zero_extendqisi2
 11847 43d6 CB18     		adds	r3, r1, r3
 11848 43d8 DBB2     		uxtb	r3, r3
 11849 43da 2B70     		strb	r3, [r5, #0]
 11850 43dc 9B18     		adds	r3, r3, r2
 11851 43de 2370     		strb	r3, [r4, #0]
 11852 43e0 0A48     		ldr	r0, .L388
 11853 43e2 FFF7FEFF 		bl	uart_transmit
 11854              	.LVL1075:
 11855              	.LBE1512:
 11856              	.LBB1513:
 11857 43e6 F178     		ldrb	r1, [r6, #3]	@ zero_extendqisi2
 11858              	.LVL1076:
 11859 43e8 2B78     		ldrb	r3, [r5, #0]	@ zero_extendqisi2
 11860 43ea 2278     		ldrb	r2, [r4, #0]	@ zero_extendqisi2
 11861 43ec CB18     		adds	r3, r1, r3
 11862 43ee DBB2     		uxtb	r3, r3
 11863 43f0 2B70     		strb	r3, [r5, #0]
 11864 43f2 9B18     		adds	r3, r3, r2
 11865 43f4 2370     		strb	r3, [r4, #0]
 11866 43f6 0548     		ldr	r0, .L388
 11867 43f8 FFF7FEFF 		bl	uart_transmit
 11868              	.LVL1077:
 11869              	.LBE1513:
 11870              	.LBB1514:
 11871 43fc 0C4B     		ldr	r3, .L388+36
 11872 43fe 1978     		ldrb	r1, [r3, #0]	@ zero_extendqisi2
 11873              	.LVL1078:
 11874 4400 86E0     		b	.L313
 11875              	.LVL1079:
 11876              	.L251:
 11877              	.LBE1514:
 11878 4402 084B     		ldr	r3, .L388+24
 11879 4404 1A78     		ldrb	r2, [r3, #0]	@ zero_extendqisi2
 11880 4406 0132     		adds	r2, r2, #1
 11881 4408 1A70     		strb	r2, [r3, #0]
 11882 440a 97E0     		b	.L252
 11883              	.L389:
 11884              		.align	2
 11885              	.L388:
 11886 440c 00000000 		.word	uart2
 11887 4410 00000000 		.word	downlink_nb_bytes
 11888 4414 00000000 		.word	downlink_nb_msgs
 11889 4418 00000000 		.word	ck_a
 11890 441c 00000000 		.word	ck_b
 11891 4420 4C000000 		.word	gps+76
 11892 4424 00000000 		.word	downlink_nb_ovrn
 11893 4428 00000000 		.word	.LANCHOR52
 11894 442c 00000000 		.word	v_ctl_auto_throttle_sum_err
 11895 4430 00000000 		.word	v_ctl_auto_throttle_submode
 11896              	.L250:
 11897 4434 602B     		cmp	r3, #96
 11898 4436 40F08180 		bne	.L252
 11899              	.LBB1515:
 11900 443a 934D     		ldr	r5, .L390+8
 11901 443c 934C     		ldr	r4, .L390+12
 11902 443e 2888     		ldrh	r0, [r5, #0]
 11903 4440 2688     		ldrh	r6, [r4, #0]
 11904 4442 934F     		ldr	r7, .L390+16
 11905 4444 301A     		subs	r0, r6, r0
 11906 4446 FFF7FEFF 		bl	__aeabi_i2d
 11907 444a 8DA3     		adr	r3, .L390
 11908 444c D3E90023 		ldrd	r2, [r3]
 11909 4450 FFF7FEFF 		bl	__aeabi_ddiv
 11910 4454 FFF7FEFF 		bl	__aeabi_d2uiz
 11911 4458 2E80     		strh	r6, [r5, #0]	@ movhi
 11912 445a ADF80C00 		strh	r0, [sp, #12]	@ movhi
 11913              	.LVL1080:
 11914 445e 0B21     		movs	r1, #11
 11915 4460 8C48     		ldr	r0, .L390+20
 11916 4462 FFF7FEFF 		bl	uart_check_free_space
 11917 4466 0028     		cmp	r0, #0
 11918 4468 65D0     		beq	.L253
 11919 446a 2388     		ldrh	r3, [r4, #0]
 11920 446c 8A4E     		ldr	r6, .L390+24
 11921 446e 0B33     		adds	r3, r3, #11
 11922 4470 2380     		strh	r3, [r4, #0]	@ movhi
 11923 4472 3388     		ldrh	r3, [r6, #0]
 11924              	.LBB1516:
 11925 4474 8748     		ldr	r0, .L390+20
 11926              	.LBE1516:
 11927 4476 0133     		adds	r3, r3, #1
 11928 4478 3380     		strh	r3, [r6, #0]	@ movhi
 11929              	.LBB1517:
 11930 447a 9921     		movs	r1, #153
 11931 447c 874D     		ldr	r5, .L390+28
 11932 447e FFF7FEFF 		bl	uart_transmit
 11933 4482 8448     		ldr	r0, .L390+20
 11934 4484 0B21     		movs	r1, #11
 11935 4486 864C     		ldr	r4, .L390+32
 11936 4488 FFF7FEFF 		bl	uart_transmit
 11937              	.LBE1517:
 11938 448c 0C23     		movs	r3, #12
 11939 448e 2B70     		strb	r3, [r5, #0]
 11940 4490 0B33     		adds	r3, r3, #11
 11941 4492 2370     		strb	r3, [r4, #0]
 11942 4494 7F48     		ldr	r0, .L390+20
 11943 4496 0121     		movs	r1, #1
 11944 4498 FFF7FEFF 		bl	uart_transmit
 11945 449c 2B78     		ldrb	r3, [r5, #0]	@ zero_extendqisi2
 11946 449e 2278     		ldrb	r2, [r4, #0]	@ zero_extendqisi2
 11947 44a0 1E33     		adds	r3, r3, #30
 11948 44a2 DBB2     		uxtb	r3, r3
 11949 44a4 2B70     		strb	r3, [r5, #0]
 11950 44a6 9B18     		adds	r3, r3, r2
 11951 44a8 2370     		strb	r3, [r4, #0]
 11952 44aa 7A48     		ldr	r0, .L390+20
 11953 44ac 1E21     		movs	r1, #30
 11954 44ae FFF7FEFF 		bl	uart_transmit
 11955              	.LBB1518:
 11956 44b2 3978     		ldrb	r1, [r7, #0]	@ zero_extendqisi2
 11957              	.LVL1081:
 11958 44b4 2B78     		ldrb	r3, [r5, #0]	@ zero_extendqisi2
 11959 44b6 2278     		ldrb	r2, [r4, #0]	@ zero_extendqisi2
 11960 44b8 CB18     		adds	r3, r1, r3
 11961 44ba DBB2     		uxtb	r3, r3
 11962 44bc 2B70     		strb	r3, [r5, #0]
 11963 44be 9B18     		adds	r3, r3, r2
 11964 44c0 2370     		strb	r3, [r4, #0]
 11965 44c2 7448     		ldr	r0, .L390+20
 11966 44c4 FFF7FEFF 		bl	uart_transmit
 11967              	.LVL1082:
 11968              	.LBE1518:
 11969              	.LBB1519:
 11970 44c8 9DF80C10 		ldrb	r1, [sp, #12]	@ zero_extendqisi2
 11971              	.LVL1083:
 11972 44cc 2B78     		ldrb	r3, [r5, #0]	@ zero_extendqisi2
 11973 44ce 2278     		ldrb	r2, [r4, #0]	@ zero_extendqisi2
 11974 44d0 CB18     		adds	r3, r1, r3
 11975 44d2 DBB2     		uxtb	r3, r3
 11976 44d4 2B70     		strb	r3, [r5, #0]
 11977 44d6 9B18     		adds	r3, r3, r2
 11978 44d8 2370     		strb	r3, [r4, #0]
 11979 44da 6E48     		ldr	r0, .L390+20
 11980 44dc FFF7FEFF 		bl	uart_transmit
 11981              	.LVL1084:
 11982              	.LBE1519:
 11983              	.LBB1520:
 11984 44e0 03AB     		add	r3, sp, #12
 11985 44e2 5978     		ldrb	r1, [r3, #1]	@ zero_extendqisi2
 11986              	.LVL1085:
 11987 44e4 2B78     		ldrb	r3, [r5, #0]	@ zero_extendqisi2
 11988 44e6 2278     		ldrb	r2, [r4, #0]	@ zero_extendqisi2
 11989 44e8 CB18     		adds	r3, r1, r3
 11990 44ea DBB2     		uxtb	r3, r3
 11991 44ec 2B70     		strb	r3, [r5, #0]
 11992 44ee 9B18     		adds	r3, r3, r2
 11993 44f0 2370     		strb	r3, [r4, #0]
 11994 44f2 6848     		ldr	r0, .L390+20
 11995 44f4 FFF7FEFF 		bl	uart_transmit
 11996              	.LVL1086:
 11997              	.LBE1520:
 11998              	.LBB1521:
 11999 44f8 3178     		ldrb	r1, [r6, #0]	@ zero_extendqisi2
 12000              	.LVL1087:
 12001 44fa 2B78     		ldrb	r3, [r5, #0]	@ zero_extendqisi2
 12002 44fc 2278     		ldrb	r2, [r4, #0]	@ zero_extendqisi2
 12003 44fe CB18     		adds	r3, r1, r3
 12004 4500 DBB2     		uxtb	r3, r3
 12005 4502 2B70     		strb	r3, [r5, #0]
 12006 4504 9B18     		adds	r3, r3, r2
 12007 4506 2370     		strb	r3, [r4, #0]
 12008 4508 6248     		ldr	r0, .L390+20
 12009 450a FFF7FEFF 		bl	uart_transmit
 12010              	.LVL1088:
 12011              	.LBE1521:
 12012              	.LBB1522:
 12013 450e 7178     		ldrb	r1, [r6, #1]	@ zero_extendqisi2
 12014              	.LVL1089:
 12015              	.L313:
 12016 4510 2B78     		ldrb	r3, [r5, #0]	@ zero_extendqisi2
 12017 4512 2278     		ldrb	r2, [r4, #0]	@ zero_extendqisi2
 12018 4514 CB18     		adds	r3, r1, r3
 12019 4516 DBB2     		uxtb	r3, r3
 12020 4518 2B70     		strb	r3, [r5, #0]
 12021 451a 9B18     		adds	r3, r3, r2
 12022 451c 2370     		strb	r3, [r4, #0]
 12023 451e 5D48     		ldr	r0, .L390+20
 12024 4520 FFF7FEFF 		bl	uart_transmit
 12025              	.LVL1090:
 12026              	.LBE1522:
 12027 4524 2978     		ldrb	r1, [r5, #0]	@ zero_extendqisi2
 12028 4526 5B48     		ldr	r0, .L390+20
 12029 4528 FFF7FEFF 		bl	uart_transmit
 12030 452c 5948     		ldr	r0, .L390+20
 12031 452e 2178     		ldrb	r1, [r4, #0]	@ zero_extendqisi2
 12032 4530 FFF7FEFF 		bl	uart_transmit
 12033 4534 02E0     		b	.L252
 12034              	.L253:
 12035 4536 3B78     		ldrb	r3, [r7, #0]	@ zero_extendqisi2
 12036 4538 0133     		adds	r3, r3, #1
 12037 453a 3B70     		strb	r3, [r7, #0]
 12038              	.L252:
 12039              	.LBE1515:
 12040 453c 594B     		ldr	r3, .L390+36
 12041 453e 1B88     		ldrh	r3, [r3, #0]
 12042 4540 6C2B     		cmp	r3, #108
 12043 4542 40F0BB80 		bne	.L182
 12044 4546 5348     		ldr	r0, .L390+20
 12045 4548 0F21     		movs	r1, #15
 12046 454a FFF7FEFF 		bl	uart_check_free_space
 12047 454e 0028     		cmp	r0, #0
 12048 4550 00F0B080 		beq	.L254
 12049 4554 4D4B     		ldr	r3, .L390+12
 12050              	.LBB1523:
 12051 4556 9921     		movs	r1, #153
 12052              	.LBE1523:
 12053 4558 1A88     		ldrh	r2, [r3, #0]
 12054              	.LBB1524:
 12055 455a 4E48     		ldr	r0, .L390+20
 12056              	.LBE1524:
 12057 455c 0F32     		adds	r2, r2, #15
 12058 455e 1A80     		strh	r2, [r3, #0]	@ movhi
 12059 4560 4D4B     		ldr	r3, .L390+24
 12060              	.LBB1525:
 12061 4562 4E4D     		ldr	r5, .L390+28
 12062              	.LBE1525:
 12063 4564 1A88     		ldrh	r2, [r3, #0]
 12064              	.LBB1526:
 12065 4566 4E4C     		ldr	r4, .L390+32
 12066              	.LBE1526:
 12067 4568 0132     		adds	r2, r2, #1
 12068 456a 1A80     		strh	r2, [r3, #0]	@ movhi
 12069              	.LBB1527:
 12070 456c FFF7FEFF 		bl	uart_transmit
 12071 4570 0F21     		movs	r1, #15
 12072 4572 4848     		ldr	r0, .L390+20
 12073 4574 FFF7FEFF 		bl	uart_transmit
 12074              	.LBE1527:
 12075 4578 1023     		movs	r3, #16
 12076 457a 2B70     		strb	r3, [r5, #0]
 12077 457c 0F33     		adds	r3, r3, #15
 12078 457e 2370     		strb	r3, [r4, #0]
 12079 4580 0121     		movs	r1, #1
 12080 4582 4448     		ldr	r0, .L390+20
 12081 4584 FFF7FEFF 		bl	uart_transmit
 12082 4588 2B78     		ldrb	r3, [r5, #0]	@ zero_extendqisi2
 12083 458a 2278     		ldrb	r2, [r4, #0]	@ zero_extendqisi2
 12084 458c 0933     		adds	r3, r3, #9
 12085 458e DBB2     		uxtb	r3, r3
 12086              	.LBB1528:
 12087 4590 454E     		ldr	r6, .L390+40
 12088              	.LBE1528:
 12089 4592 2B70     		strb	r3, [r5, #0]
 12090 4594 9B18     		adds	r3, r3, r2
 12091 4596 2370     		strb	r3, [r4, #0]
 12092 4598 0921     		movs	r1, #9
 12093 459a 3E48     		ldr	r0, .L390+20
 12094 459c FFF7FEFF 		bl	uart_transmit
 12095              	.LBB1529:
 12096 45a0 3178     		ldrb	r1, [r6, #0]	@ zero_extendqisi2
 12097              	.LVL1091:
 12098 45a2 2B78     		ldrb	r3, [r5, #0]	@ zero_extendqisi2
 12099 45a4 2278     		ldrb	r2, [r4, #0]	@ zero_extendqisi2
 12100 45a6 CB18     		adds	r3, r1, r3
 12101 45a8 DBB2     		uxtb	r3, r3
 12102 45aa 2B70     		strb	r3, [r5, #0]
 12103 45ac 9B18     		adds	r3, r3, r2
 12104 45ae 2370     		strb	r3, [r4, #0]
 12105 45b0 3848     		ldr	r0, .L390+20
 12106 45b2 FFF7FEFF 		bl	uart_transmit
 12107              	.LVL1092:
 12108              	.LBE1529:
 12109              	.LBB1530:
 12110 45b6 7178     		ldrb	r1, [r6, #1]	@ zero_extendqisi2
 12111              	.LVL1093:
 12112 45b8 2B78     		ldrb	r3, [r5, #0]	@ zero_extendqisi2
 12113 45ba 2278     		ldrb	r2, [r4, #0]	@ zero_extendqisi2
 12114 45bc CB18     		adds	r3, r1, r3
 12115 45be DBB2     		uxtb	r3, r3
 12116 45c0 2B70     		strb	r3, [r5, #0]
 12117 45c2 9B18     		adds	r3, r3, r2
 12118 45c4 2370     		strb	r3, [r4, #0]
 12119 45c6 3348     		ldr	r0, .L390+20
 12120 45c8 FFF7FEFF 		bl	uart_transmit
 12121              	.LVL1094:
 12122              	.LBE1530:
 12123              	.LBB1531:
 12124 45cc B178     		ldrb	r1, [r6, #2]	@ zero_extendqisi2
 12125              	.LVL1095:
 12126 45ce 2B78     		ldrb	r3, [r5, #0]	@ zero_extendqisi2
 12127 45d0 2278     		ldrb	r2, [r4, #0]	@ zero_extendqisi2
 12128 45d2 CB18     		adds	r3, r1, r3
 12129 45d4 DBB2     		uxtb	r3, r3
 12130 45d6 2B70     		strb	r3, [r5, #0]
 12131 45d8 9B18     		adds	r3, r3, r2
 12132 45da 2370     		strb	r3, [r4, #0]
 12133 45dc 2D48     		ldr	r0, .L390+20
 12134 45de FFF7FEFF 		bl	uart_transmit
 12135              	.LVL1096:
 12136              	.LBE1531:
 12137              	.LBB1532:
 12138 45e2 F178     		ldrb	r1, [r6, #3]	@ zero_extendqisi2
 12139              	.LVL1097:
 12140 45e4 2B78     		ldrb	r3, [r5, #0]	@ zero_extendqisi2
 12141 45e6 2278     		ldrb	r2, [r4, #0]	@ zero_extendqisi2
 12142 45e8 CB18     		adds	r3, r1, r3
 12143 45ea DBB2     		uxtb	r3, r3
 12144              	.LBE1532:
 12145              	.LBB1533:
 12146 45ec 2F4E     		ldr	r6, .L390+44
 12147              	.LBE1533:
 12148              	.LBB1534:
 12149 45ee 2B70     		strb	r3, [r5, #0]
 12150 45f0 9B18     		adds	r3, r3, r2
 12151 45f2 2370     		strb	r3, [r4, #0]
 12152 45f4 2748     		ldr	r0, .L390+20
 12153 45f6 FFF7FEFF 		bl	uart_transmit
 12154              	.LVL1098:
 12155              	.LBE1534:
 12156              	.LBB1535:
 12157 45fa 3178     		ldrb	r1, [r6, #0]	@ zero_extendqisi2
 12158              	.LVL1099:
 12159 45fc 2B78     		ldrb	r3, [r5, #0]	@ zero_extendqisi2
 12160 45fe 2278     		ldrb	r2, [r4, #0]	@ zero_extendqisi2
 12161 4600 CB18     		adds	r3, r1, r3
 12162 4602 DBB2     		uxtb	r3, r3
 12163 4604 2B70     		strb	r3, [r5, #0]
 12164 4606 9B18     		adds	r3, r3, r2
 12165 4608 2370     		strb	r3, [r4, #0]
 12166 460a 2248     		ldr	r0, .L390+20
 12167 460c FFF7FEFF 		bl	uart_transmit
 12168              	.LVL1100:
 12169              	.LBE1535:
 12170              	.LBB1536:
 12171 4610 7178     		ldrb	r1, [r6, #1]	@ zero_extendqisi2
 12172              	.LVL1101:
 12173 4612 2B78     		ldrb	r3, [r5, #0]	@ zero_extendqisi2
 12174 4614 2278     		ldrb	r2, [r4, #0]	@ zero_extendqisi2
 12175 4616 CB18     		adds	r3, r1, r3
 12176 4618 DBB2     		uxtb	r3, r3
 12177 461a 2B70     		strb	r3, [r5, #0]
 12178 461c 9B18     		adds	r3, r3, r2
 12179 461e 2370     		strb	r3, [r4, #0]
 12180 4620 1C48     		ldr	r0, .L390+20
 12181 4622 FFF7FEFF 		bl	uart_transmit
 12182              	.LVL1102:
 12183              	.LBE1536:
 12184              	.LBB1537:
 12185 4626 B178     		ldrb	r1, [r6, #2]	@ zero_extendqisi2
 12186              	.LVL1103:
 12187 4628 2B78     		ldrb	r3, [r5, #0]	@ zero_extendqisi2
 12188 462a 2278     		ldrb	r2, [r4, #0]	@ zero_extendqisi2
 12189 462c CB18     		adds	r3, r1, r3
 12190 462e DBB2     		uxtb	r3, r3
 12191 4630 2B70     		strb	r3, [r5, #0]
 12192 4632 9B18     		adds	r3, r3, r2
 12193 4634 2370     		strb	r3, [r4, #0]
 12194 4636 1748     		ldr	r0, .L390+20
 12195 4638 FFF7FEFF 		bl	uart_transmit
 12196              	.LVL1104:
 12197              	.LBE1537:
 12198              	.LBB1538:
 12199 463c F178     		ldrb	r1, [r6, #3]	@ zero_extendqisi2
 12200              	.LVL1105:
 12201 463e 2B78     		ldrb	r3, [r5, #0]	@ zero_extendqisi2
 12202 4640 2278     		ldrb	r2, [r4, #0]	@ zero_extendqisi2
 12203 4642 CB18     		adds	r3, r1, r3
 12204 4644 DBB2     		uxtb	r3, r3
 12205 4646 2B70     		strb	r3, [r5, #0]
 12206 4648 9B18     		adds	r3, r3, r2
 12207 464a 2370     		strb	r3, [r4, #0]
 12208 464c 1148     		ldr	r0, .L390+20
 12209 464e FFF7FEFF 		bl	uart_transmit
 12210              	.LVL1106:
 12211              	.LBE1538:
 12212              	.LBB1539:
 12213 4652 174B     		ldr	r3, .L390+48
 12214 4654 2278     		ldrb	r2, [r4, #0]	@ zero_extendqisi2
 12215 4656 1978     		ldrb	r1, [r3, #0]	@ zero_extendqisi2
 12216              	.LVL1107:
 12217 4658 2B78     		ldrb	r3, [r5, #0]	@ zero_extendqisi2
 12218 465a 0E48     		ldr	r0, .L390+20
 12219 465c CB18     		adds	r3, r1, r3
 12220 465e DBB2     		uxtb	r3, r3
 12221 4660 2B70     		strb	r3, [r5, #0]
 12222 4662 9B18     		adds	r3, r3, r2
 12223 4664 2370     		strb	r3, [r4, #0]
 12224 4666 FFF7FEFF 		bl	uart_transmit
 12225              	.LVL1108:
 12226              	.LBE1539:
 12227 466a 2978     		ldrb	r1, [r5, #0]	@ zero_extendqisi2
 12228 466c 0948     		ldr	r0, .L390+20
 12229 466e FFF7FEFF 		bl	uart_transmit
 12230 4672 0848     		ldr	r0, .L390+20
 12231 4674 2178     		ldrb	r1, [r4, #0]	@ zero_extendqisi2
 12232 4676 FFF7FEFF 		bl	uart_transmit
 12233 467a 1FE0     		b	.L182
 12234              	.L391:
 12235 467c AFF30080 		.align	3
 12236              	.L390:
 12237 4680 66666666 		.word	1717986918
 12238 4684 66661440 		.word	1075078758
 12239 4688 00000000 		.word	.LANCHOR59
 12240 468c 00000000 		.word	downlink_nb_bytes
 12241 4690 00000000 		.word	downlink_nb_ovrn
 12242 4694 00000000 		.word	uart2
 12243 4698 00000000 		.word	downlink_nb_msgs
 12244 469c 00000000 		.word	ck_a
 12245 46a0 00000000 		.word	ck_b
 12246 46a4 00000000 		.word	.LANCHOR54
 12247 46a8 00000000 		.word	nav_utm_east0
 12248 46ac 00000000 		.word	nav_utm_north0
 12249 46b0 00000000 		.word	nav_utm_zone0
 12250              	.L254:
 12251 46b4 5C4B     		ldr	r3, .L392
 12252 46b6 1A78     		ldrb	r2, [r3, #0]	@ zero_extendqisi2
 12253 46b8 0132     		adds	r2, r2, #1
 12254 46ba 1A70     		strb	r2, [r3, #0]
 12255              	.L182:
 12256              	.LBE1167:
 12257 46bc 5B4B     		ldr	r3, .L392+4
 12258 46be 1B78     		ldrb	r3, [r3, #0]	@ zero_extendqisi2
 12259 46c0 022B     		cmp	r3, #2
 12260 46c2 41F04081 		bne	.L109
 12261              	.LBB1540:
 12262 46c6 5A4B     		ldr	r3, .L392+8
 12263 46c8 40F25D21 		movw	r1, #605
 12264 46cc 1A88     		ldrh	r2, [r3, #0]
 12265 46ce 0132     		adds	r2, r2, #1
 12266 46d0 92B2     		uxth	r2, r2
 12267 46d2 B2F5967F 		cmp	r2, #300
 12268 46d6 1A80     		strh	r2, [r3, #0]	@ movhi
 12269 46d8 24BF     		itt	cs
 12270 46da 0022     		movcs	r2, #0	@ movhi
 12271 46dc 1A80     		strhcs	r2, [r3, #0]	@ movhi
 12272 46de 554B     		ldr	r3, .L392+12
 12273 46e0 1A88     		ldrh	r2, [r3, #0]
 12274 46e2 0132     		adds	r2, r2, #1
 12275 46e4 92B2     		uxth	r2, r2
 12276 46e6 B2F5997F 		cmp	r2, #306
 12277 46ea 1A80     		strh	r2, [r3, #0]	@ movhi
 12278 46ec 24BF     		itt	cs
 12279 46ee 0022     		movcs	r2, #0	@ movhi
 12280 46f0 1A80     		strhcs	r2, [r3, #0]	@ movhi
 12281 46f2 514B     		ldr	r3, .L392+16
 12282 46f4 1A88     		ldrh	r2, [r3, #0]
 12283 46f6 0132     		adds	r2, r2, #1
 12284 46f8 92B2     		uxth	r2, r2
 12285 46fa B2F59F7F 		cmp	r2, #318
 12286 46fe 1A80     		strh	r2, [r3, #0]	@ movhi
 12287 4700 24BF     		itt	cs
 12288 4702 0022     		movcs	r2, #0	@ movhi
 12289 4704 1A80     		strhcs	r2, [r3, #0]	@ movhi
 12290 4706 4D4B     		ldr	r3, .L392+20
 12291 4708 1A88     		ldrh	r2, [r3, #0]
 12292 470a 0132     		adds	r2, r2, #1
 12293 470c 92B2     		uxth	r2, r2
 12294 470e B2F5A27F 		cmp	r2, #324
 12295 4712 1A80     		strh	r2, [r3, #0]	@ movhi
 12296 4714 24BF     		itt	cs
 12297 4716 0022     		movcs	r2, #0	@ movhi
 12298 4718 1A80     		strhcs	r2, [r3, #0]	@ movhi
 12299 471a 494B     		ldr	r3, .L392+24
 12300 471c 1A88     		ldrh	r2, [r3, #0]
 12301 471e 0132     		adds	r2, r2, #1
 12302 4720 92B2     		uxth	r2, r2
 12303 4722 B2F5A57F 		cmp	r2, #330
 12304 4726 1A80     		strh	r2, [r3, #0]	@ movhi
 12305 4728 24BF     		itt	cs
 12306 472a 0022     		movcs	r2, #0	@ movhi
 12307 472c 1A80     		strhcs	r2, [r3, #0]	@ movhi
 12308 472e 454B     		ldr	r3, .L392+28
 12309 4730 1A88     		ldrh	r2, [r3, #0]
 12310 4732 0132     		adds	r2, r2, #1
 12311 4734 92B2     		uxth	r2, r2
 12312 4736 B2F5AB7F 		cmp	r2, #342
 12313 473a 1A80     		strh	r2, [r3, #0]	@ movhi
 12314 473c 24BF     		itt	cs
 12315 473e 0022     		movcs	r2, #0	@ movhi
 12316 4740 1A80     		strhcs	r2, [r3, #0]	@ movhi
 12317 4742 414B     		ldr	r3, .L392+32
 12318 4744 1A88     		ldrh	r2, [r3, #0]
 12319 4746 0132     		adds	r2, r2, #1
 12320 4748 92B2     		uxth	r2, r2
 12321 474a B2F5D27F 		cmp	r2, #420
 12322 474e 1A80     		strh	r2, [r3, #0]	@ movhi
 12323 4750 24BF     		itt	cs
 12324 4752 0022     		movcs	r2, #0	@ movhi
 12325 4754 1A80     		strhcs	r2, [r3, #0]	@ movhi
 12326 4756 3D4B     		ldr	r3, .L392+36
 12327 4758 1A88     		ldrh	r2, [r3, #0]
 12328 475a 0132     		adds	r2, r2, #1
 12329 475c 92B2     		uxth	r2, r2
 12330 475e 8A42     		cmp	r2, r1
 12331 4760 1A80     		strh	r2, [r3, #0]	@ movhi
 12332 4762 84BF     		itt	hi
 12333 4764 0022     		movhi	r2, #0	@ movhi
 12334 4766 1A80     		strhhi	r2, [r3, #0]	@ movhi
 12335 4768 394B     		ldr	r3, .L392+40
 12336 476a 1A88     		ldrh	r2, [r3, #0]
 12337 476c 0132     		adds	r2, r2, #1
 12338 476e 92B2     		uxth	r2, r2
 12339 4770 B2F5197F 		cmp	r2, #612
 12340 4774 1A80     		strh	r2, [r3, #0]	@ movhi
 12341 4776 24BF     		itt	cs
 12342 4778 0022     		movcs	r2, #0	@ movhi
 12343 477a 1A80     		strhcs	r2, [r3, #0]	@ movhi
 12344 477c 2C4B     		ldr	r3, .L392+8
 12345 477e 1B88     		ldrh	r3, [r3, #0]
 12346 4780 002B     		cmp	r3, #0
 12347 4782 77D1     		bne	.L264
 12348 4784 3348     		ldr	r0, .L392+44
 12349 4786 1721     		movs	r1, #23
 12350 4788 FFF7FEFF 		bl	uart_check_free_space
 12351 478c 0028     		cmp	r0, #0
 12352 478e 6DD0     		beq	.L265
 12353 4790 314B     		ldr	r3, .L392+48
 12354              	.LBB1541:
 12355 4792 3048     		ldr	r0, .L392+44
 12356              	.LBE1541:
 12357 4794 1A88     		ldrh	r2, [r3, #0]
 12358              	.LBB1542:
 12359 4796 9921     		movs	r1, #153
 12360              	.LBE1542:
 12361 4798 1732     		adds	r2, r2, #23
 12362 479a 1A80     		strh	r2, [r3, #0]	@ movhi
 12363 479c 2F4B     		ldr	r3, .L392+52
 12364              	.LBB1543:
 12365 479e 304D     		ldr	r5, .L392+56
 12366              	.LBE1543:
 12367 47a0 1A88     		ldrh	r2, [r3, #0]
 12368              	.LBB1544:
 12369 47a2 304C     		ldr	r4, .L392+60
 12370              	.LBE1544:
 12371 47a4 0132     		adds	r2, r2, #1
 12372 47a6 1A80     		strh	r2, [r3, #0]	@ movhi
 12373              	.LBB1545:
 12374 47a8 FFF7FEFF 		bl	uart_transmit
 12375 47ac 2948     		ldr	r0, .L392+44
 12376 47ae 1721     		movs	r1, #23
 12377 47b0 FFF7FEFF 		bl	uart_transmit
 12378              	.LBE1545:
 12379 47b4 1823     		movs	r3, #24
 12380 47b6 2B70     		strb	r3, [r5, #0]
 12381 47b8 1733     		adds	r3, r3, #23
 12382 47ba 2370     		strb	r3, [r4, #0]
 12383 47bc 2548     		ldr	r0, .L392+44
 12384 47be 0121     		movs	r1, #1
 12385 47c0 FFF7FEFF 		bl	uart_transmit
 12386 47c4 2B78     		ldrb	r3, [r5, #0]	@ zero_extendqisi2
 12387 47c6 2278     		ldrb	r2, [r4, #0]	@ zero_extendqisi2
 12388 47c8 0233     		adds	r3, r3, #2
 12389 47ca DBB2     		uxtb	r3, r3
 12390 47cc 2B70     		strb	r3, [r5, #0]
 12391 47ce 9B18     		adds	r3, r3, r2
 12392 47d0 2370     		strb	r3, [r4, #0]
 12393 47d2 2048     		ldr	r0, .L392+44
 12394 47d4 0221     		movs	r1, #2
 12395 47d6 FFF7FEFF 		bl	uart_transmit
 12396              	.LBB1546:
 12397 47da 2B78     		ldrb	r3, [r5, #0]	@ zero_extendqisi2
 12398 47dc 2278     		ldrb	r2, [r4, #0]	@ zero_extendqisi2
 12399 47de 1033     		adds	r3, r3, #16
 12400 47e0 DBB2     		uxtb	r3, r3
 12401 47e2 2B70     		strb	r3, [r5, #0]
 12402 47e4 9B18     		adds	r3, r3, r2
 12403 47e6 2370     		strb	r3, [r4, #0]
 12404 47e8 1A48     		ldr	r0, .L392+44
 12405 47ea 1021     		movs	r1, #16
 12406 47ec FFF7FEFF 		bl	uart_transmit
 12407 47f0 1D4C     		ldr	r4, .L392+64
 425:firmwares/fixedwing/main_ap.c **** void periodic_task_ap( void ) {
 12408              		.loc 1 425 0
 12409 47f2 04F11007 		add	r7, r4, #16
 12410              	.L266:
 12411              	.LBB1547:
 205:firmwares/fixedwing/main_ap.c ****     PeriodicSendAp(DefaultChannel);
 12412              		.loc 1 205 0
 12413 47f6 1A4E     		ldr	r6, .L392+56
 12414 47f8 14F8011B 		ldrb	r1, [r4], #1	@ zero_extendqisi2
 12415              	.LVL1109:
 12416 47fc 3378     		ldrb	r3, [r6, #0]	@ zero_extendqisi2
 12417 47fe 194D     		ldr	r5, .L392+60
 12418 4800 CB18     		adds	r3, r1, r3
 12419 4802 2A78     		ldrb	r2, [r5, #0]	@ zero_extendqisi2
 12420 4804 DBB2     		uxtb	r3, r3
 12421 4806 3370     		strb	r3, [r6, #0]
 12422 4808 9B18     		adds	r3, r3, r2
 12423 480a 2B70     		strb	r3, [r5, #0]
 12424 480c 1148     		ldr	r0, .L392+44
 12425 480e FFF7FEFF 		bl	uart_transmit
 12426              	.LVL1110:
 12427              	.LBE1547:
 12428 4812 BC42     		cmp	r4, r7
 12429 4814 EFD1     		bne	.L266
 12430              	.LBE1546:
 12431 4816 3178     		ldrb	r1, [r6, #0]	@ zero_extendqisi2
 12432 4818 0E48     		ldr	r0, .L392+44
 12433 481a FFF7FEFF 		bl	uart_transmit
 12434 481e 0D48     		ldr	r0, .L392+44
 12435 4820 2978     		ldrb	r1, [r5, #0]	@ zero_extendqisi2
 12436 4822 FFF7FEFF 		bl	uart_transmit
 12437 4826 25E0     		b	.L264
 12438              	.L393:
 12439              		.align	2
 12440              	.L392:
 12441 4828 00000000 		.word	downlink_nb_ovrn
 12442 482c 00000000 		.word	telemetry_mode_Ap_DefaultChannel
 12443 4830 00000000 		.word	.LANCHOR60
 12444 4834 00000000 		.word	.LANCHOR61
 12445 4838 00000000 		.word	.LANCHOR62
 12446 483c 00000000 		.word	.LANCHOR63
 12447 4840 00000000 		.word	.LANCHOR64
 12448 4844 00000000 		.word	.LANCHOR65
 12449 4848 00000000 		.word	.LANCHOR66
 12450 484c 00000000 		.word	.LANCHOR67
 12451 4850 00000000 		.word	.LANCHOR68
 12452 4854 00000000 		.word	uart2
 12453 4858 00000000 		.word	downlink_nb_bytes
 12454 485c 00000000 		.word	downlink_nb_msgs
 12455 4860 00000000 		.word	ck_a
 12456 4864 00000000 		.word	ck_b
 12457 4868 00000000 		.word	.LC0
 12458              	.L265:
 12459 486c A64B     		ldr	r3, .L394+16
 12460 486e 1A78     		ldrb	r2, [r3, #0]	@ zero_extendqisi2
 12461 4870 0132     		adds	r2, r2, #1
 12462 4872 1A70     		strb	r2, [r3, #0]
 12463              	.L264:
 12464 4874 A54B     		ldr	r3, .L394+20
 12465 4876 1B88     		ldrh	r3, [r3, #0]
 12466 4878 062B     		cmp	r3, #6
 12467 487a 40F08F82 		bne	.L267
 12468              	.LBB1548:
 12469 487e A44C     		ldr	r4, .L394+24
 12470 4880 236C     		ldr	r3, [r4, #64]
 12471 4882 A06C     		ldr	r0, [r4, #72]
 12472 4884 5B42     		negs	r3, r3
 12473 4886 ADF80C30 		strh	r3, [sp, #12]	@ movhi
 12474              	.LVL1111:
 12475 488a FFF7FEFF 		bl	__aeabi_i2d
 12476 488e 9AA3     		adr	r3, .L394
 12477 4890 D3E90023 		ldrd	r2, [r3]
 12478 4894 FFF7FEFF 		bl	__aeabi_dmul
 12479 4898 99A3     		adr	r3, .L394+8
 12480 489a D3E90023 		ldrd	r2, [r3]
 12481 489e FFF7FEFF 		bl	__aeabi_ddiv
 12482 48a2 FFF7FEFF 		bl	__aeabi_d2iz
 12483 48a6 2121     		movs	r1, #33
 12484 48a8 ADF80E00 		strh	r0, [sp, #14]	@ movhi
 12485              	.LVL1112:
 12486 48ac 9948     		ldr	r0, .L394+28
 12487 48ae FFF7FEFF 		bl	uart_check_free_space
 12488 48b2 0028     		cmp	r0, #0
 12489 48b4 00F08881 		beq	.L268
 12490 48b8 974B     		ldr	r3, .L394+32
 12491              	.LBB1549:
 12492 48ba 9921     		movs	r1, #153
 12493              	.LBE1549:
 12494 48bc 1A88     		ldrh	r2, [r3, #0]
 12495              	.LBB1550:
 12496 48be 9548     		ldr	r0, .L394+28
 12497              	.LBE1550:
 12498 48c0 2132     		adds	r2, r2, #33
 12499 48c2 1A80     		strh	r2, [r3, #0]	@ movhi
 12500 48c4 954B     		ldr	r3, .L394+36
 12501              	.LBB1551:
 12502 48c6 964E     		ldr	r6, .L394+40
 12503              	.LBE1551:
 12504 48c8 1A88     		ldrh	r2, [r3, #0]
 12505              	.LBB1552:
 12506 48ca 964D     		ldr	r5, .L394+44
 12507              	.LBE1552:
 12508 48cc 0132     		adds	r2, r2, #1
 12509 48ce 1A80     		strh	r2, [r3, #0]	@ movhi
 12510              	.LBB1553:
 12511 48d0 FFF7FEFF 		bl	uart_transmit
 12512 48d4 2121     		movs	r1, #33
 12513 48d6 8F48     		ldr	r0, .L394+28
 12514 48d8 FFF7FEFF 		bl	uart_transmit
 12515              	.LBE1553:
 12516 48dc 2223     		movs	r3, #34
 12517 48de 3370     		strb	r3, [r6, #0]
 12518 48e0 2133     		adds	r3, r3, #33
 12519 48e2 2B70     		strb	r3, [r5, #0]
 12520 48e4 0121     		movs	r1, #1
 12521 48e6 8B48     		ldr	r0, .L394+28
 12522 48e8 FFF7FEFF 		bl	uart_transmit
 12523 48ec 3378     		ldrb	r3, [r6, #0]	@ zero_extendqisi2
 12524 48ee 2A78     		ldrb	r2, [r5, #0]	@ zero_extendqisi2
 12525 48f0 0833     		adds	r3, r3, #8
 12526 48f2 DBB2     		uxtb	r3, r3
 12527 48f4 3370     		strb	r3, [r6, #0]
 12528 48f6 9B18     		adds	r3, r3, r2
 12529 48f8 2B70     		strb	r3, [r5, #0]
 12530 48fa 0821     		movs	r1, #8
 12531 48fc 8548     		ldr	r0, .L394+28
 12532 48fe FFF7FEFF 		bl	uart_transmit
 12533              	.LBB1554:
 12534 4902 94F85710 		ldrb	r1, [r4, #87]	@ zero_extendqisi2
 12535              	.LVL1113:
 12536 4906 3378     		ldrb	r3, [r6, #0]	@ zero_extendqisi2
 12537 4908 2A78     		ldrb	r2, [r5, #0]	@ zero_extendqisi2
 12538 490a CB18     		adds	r3, r1, r3
 12539 490c DBB2     		uxtb	r3, r3
 12540 490e 3370     		strb	r3, [r6, #0]
 12541 4910 9B18     		adds	r3, r3, r2
 12542 4912 2B70     		strb	r3, [r5, #0]
 12543 4914 7F48     		ldr	r0, .L394+28
 12544 4916 FFF7FEFF 		bl	uart_transmit
 12545              	.LVL1114:
 12546              	.LBE1554:
 12547              	.LBB1555:
 12548 491a 217F     		ldrb	r1, [r4, #28]	@ zero_extendqisi2
 12549              	.LVL1115:
 12550 491c 3378     		ldrb	r3, [r6, #0]	@ zero_extendqisi2
 12551 491e 2A78     		ldrb	r2, [r5, #0]	@ zero_extendqisi2
 12552 4920 CB18     		adds	r3, r1, r3
 12553 4922 DBB2     		uxtb	r3, r3
 12554 4924 3370     		strb	r3, [r6, #0]
 12555 4926 9B18     		adds	r3, r3, r2
 12556 4928 04F11C07 		add	r7, r4, #28
 12557 492c 2B70     		strb	r3, [r5, #0]
 12558 492e 7948     		ldr	r0, .L394+28
 12559 4930 FFF7FEFF 		bl	uart_transmit
 12560              	.LVL1116:
 12561              	.LBE1555:
 12562              	.LBB1556:
 12563 4934 7978     		ldrb	r1, [r7, #1]	@ zero_extendqisi2
 12564              	.LVL1117:
 12565 4936 3378     		ldrb	r3, [r6, #0]	@ zero_extendqisi2
 12566 4938 2A78     		ldrb	r2, [r5, #0]	@ zero_extendqisi2
 12567 493a CB18     		adds	r3, r1, r3
 12568 493c DBB2     		uxtb	r3, r3
 12569 493e 3370     		strb	r3, [r6, #0]
 12570 4940 9B18     		adds	r3, r3, r2
 12571 4942 2B70     		strb	r3, [r5, #0]
 12572 4944 7348     		ldr	r0, .L394+28
 12573 4946 FFF7FEFF 		bl	uart_transmit
 12574              	.LVL1118:
 12575              	.LBE1556:
 12576              	.LBB1557:
 12577 494a B978     		ldrb	r1, [r7, #2]	@ zero_extendqisi2
 12578              	.LVL1119:
 12579 494c 3378     		ldrb	r3, [r6, #0]	@ zero_extendqisi2
 12580 494e 2A78     		ldrb	r2, [r5, #0]	@ zero_extendqisi2
 12581 4950 CB18     		adds	r3, r1, r3
 12582 4952 DBB2     		uxtb	r3, r3
 12583 4954 3370     		strb	r3, [r6, #0]
 12584 4956 9B18     		adds	r3, r3, r2
 12585 4958 2B70     		strb	r3, [r5, #0]
 12586 495a 6E48     		ldr	r0, .L394+28
 12587 495c FFF7FEFF 		bl	uart_transmit
 12588              	.LVL1120:
 12589              	.LBE1557:
 12590              	.LBB1558:
 12591 4960 F978     		ldrb	r1, [r7, #3]	@ zero_extendqisi2
 12592              	.LVL1121:
 12593 4962 3378     		ldrb	r3, [r6, #0]	@ zero_extendqisi2
 12594 4964 2A78     		ldrb	r2, [r5, #0]	@ zero_extendqisi2
 12595 4966 CB18     		adds	r3, r1, r3
 12596 4968 DBB2     		uxtb	r3, r3
 12597 496a 3370     		strb	r3, [r6, #0]
 12598 496c 9B18     		adds	r3, r3, r2
 12599 496e 2B70     		strb	r3, [r5, #0]
 12600 4970 6848     		ldr	r0, .L394+28
 12601 4972 FFF7FEFF 		bl	uart_transmit
 12602              	.LVL1122:
 12603              	.LBE1558:
 12604              	.LBB1559:
 12605 4976 217E     		ldrb	r1, [r4, #24]	@ zero_extendqisi2
 12606              	.LVL1123:
 12607 4978 3378     		ldrb	r3, [r6, #0]	@ zero_extendqisi2
 12608 497a 2A78     		ldrb	r2, [r5, #0]	@ zero_extendqisi2
 12609 497c CB18     		adds	r3, r1, r3
 12610 497e DBB2     		uxtb	r3, r3
 12611 4980 3370     		strb	r3, [r6, #0]
 12612 4982 9B18     		adds	r3, r3, r2
 12613 4984 04F11807 		add	r7, r4, #24
 12614 4988 2B70     		strb	r3, [r5, #0]
 12615 498a 6248     		ldr	r0, .L394+28
 12616 498c FFF7FEFF 		bl	uart_transmit
 12617              	.LVL1124:
 12618              	.LBE1559:
 12619              	.LBB1560:
 12620 4990 7978     		ldrb	r1, [r7, #1]	@ zero_extendqisi2
 12621              	.LVL1125:
 12622 4992 3378     		ldrb	r3, [r6, #0]	@ zero_extendqisi2
 12623 4994 2A78     		ldrb	r2, [r5, #0]	@ zero_extendqisi2
 12624 4996 CB18     		adds	r3, r1, r3
 12625 4998 DBB2     		uxtb	r3, r3
 12626 499a 3370     		strb	r3, [r6, #0]
 12627 499c 9B18     		adds	r3, r3, r2
 12628 499e 2B70     		strb	r3, [r5, #0]
 12629 49a0 5C48     		ldr	r0, .L394+28
 12630 49a2 FFF7FEFF 		bl	uart_transmit
 12631              	.LVL1126:
 12632              	.LBE1560:
 12633              	.LBB1561:
 12634 49a6 B978     		ldrb	r1, [r7, #2]	@ zero_extendqisi2
 12635              	.LVL1127:
 12636 49a8 3378     		ldrb	r3, [r6, #0]	@ zero_extendqisi2
 12637 49aa 2A78     		ldrb	r2, [r5, #0]	@ zero_extendqisi2
 12638 49ac CB18     		adds	r3, r1, r3
 12639 49ae DBB2     		uxtb	r3, r3
 12640 49b0 3370     		strb	r3, [r6, #0]
 12641 49b2 9B18     		adds	r3, r3, r2
 12642 49b4 2B70     		strb	r3, [r5, #0]
 12643 49b6 5748     		ldr	r0, .L394+28
 12644 49b8 FFF7FEFF 		bl	uart_transmit
 12645              	.LVL1128:
 12646              	.LBE1561:
 12647              	.LBB1562:
 12648 49bc F978     		ldrb	r1, [r7, #3]	@ zero_extendqisi2
 12649              	.LVL1129:
 12650 49be 3378     		ldrb	r3, [r6, #0]	@ zero_extendqisi2
 12651 49c0 2A78     		ldrb	r2, [r5, #0]	@ zero_extendqisi2
 12652 49c2 CB18     		adds	r3, r1, r3
 12653 49c4 DBB2     		uxtb	r3, r3
 12654 49c6 3370     		strb	r3, [r6, #0]
 12655 49c8 9B18     		adds	r3, r3, r2
 12656 49ca 2B70     		strb	r3, [r5, #0]
 12657 49cc 5148     		ldr	r0, .L394+28
 12658 49ce FFF7FEFF 		bl	uart_transmit
 12659              	.LVL1130:
 12660              	.LBE1562:
 12661              	.LBB1563:
 12662 49d2 9DF80E10 		ldrb	r1, [sp, #14]	@ zero_extendqisi2
 12663              	.LVL1131:
 12664 49d6 3378     		ldrb	r3, [r6, #0]	@ zero_extendqisi2
 12665 49d8 2A78     		ldrb	r2, [r5, #0]	@ zero_extendqisi2
 12666 49da CB18     		adds	r3, r1, r3
 12667 49dc DBB2     		uxtb	r3, r3
 12668 49de 3370     		strb	r3, [r6, #0]
 12669 49e0 9B18     		adds	r3, r3, r2
 12670 49e2 2B70     		strb	r3, [r5, #0]
 12671 49e4 4B48     		ldr	r0, .L394+28
 12672 49e6 FFF7FEFF 		bl	uart_transmit
 12673              	.LVL1132:
 12674              	.LBE1563:
 12675              	.LBB1564:
 12676 49ea 0DF10E03 		add	r3, sp, #14
 12677 49ee 5978     		ldrb	r1, [r3, #1]	@ zero_extendqisi2
 12678              	.LVL1133:
 12679 49f0 3378     		ldrb	r3, [r6, #0]	@ zero_extendqisi2
 12680 49f2 2A78     		ldrb	r2, [r5, #0]	@ zero_extendqisi2
 12681 49f4 CB18     		adds	r3, r1, r3
 12682 49f6 DBB2     		uxtb	r3, r3
 12683 49f8 3370     		strb	r3, [r6, #0]
 12684 49fa 9B18     		adds	r3, r3, r2
 12685 49fc 2B70     		strb	r3, [r5, #0]
 12686 49fe 4548     		ldr	r0, .L394+28
 12687 4a00 FFF7FEFF 		bl	uart_transmit
 12688              	.LVL1134:
 12689              	.LBE1564:
 12690              	.LBB1565:
 12691 4a04 94F82810 		ldrb	r1, [r4, #40]	@ zero_extendqisi2
 12692              	.LVL1135:
 12693 4a08 3378     		ldrb	r3, [r6, #0]	@ zero_extendqisi2
 12694 4a0a 2A78     		ldrb	r2, [r5, #0]	@ zero_extendqisi2
 12695 4a0c CB18     		adds	r3, r1, r3
 12696 4a0e DBB2     		uxtb	r3, r3
 12697 4a10 3370     		strb	r3, [r6, #0]
 12698 4a12 9B18     		adds	r3, r3, r2
 12699 4a14 04F12807 		add	r7, r4, #40
 12700 4a18 2B70     		strb	r3, [r5, #0]
 12701 4a1a 3E48     		ldr	r0, .L394+28
 12702 4a1c FFF7FEFF 		bl	uart_transmit
 12703              	.LVL1136:
 12704              	.LBE1565:
 12705              	.LBB1566:
 12706 4a20 7978     		ldrb	r1, [r7, #1]	@ zero_extendqisi2
 12707              	.LVL1137:
 12708 4a22 3378     		ldrb	r3, [r6, #0]	@ zero_extendqisi2
 12709 4a24 2A78     		ldrb	r2, [r5, #0]	@ zero_extendqisi2
 12710 4a26 CB18     		adds	r3, r1, r3
 12711 4a28 DBB2     		uxtb	r3, r3
 12712 4a2a 3370     		strb	r3, [r6, #0]
 12713 4a2c 9B18     		adds	r3, r3, r2
 12714 4a2e 2B70     		strb	r3, [r5, #0]
 12715 4a30 3848     		ldr	r0, .L394+28
 12716 4a32 FFF7FEFF 		bl	uart_transmit
 12717              	.LVL1138:
 12718              	.LBE1566:
 12719              	.LBB1567:
 12720 4a36 B978     		ldrb	r1, [r7, #2]	@ zero_extendqisi2
 12721              	.LVL1139:
 12722 4a38 3378     		ldrb	r3, [r6, #0]	@ zero_extendqisi2
 12723 4a3a 2A78     		ldrb	r2, [r5, #0]	@ zero_extendqisi2
 12724 4a3c CB18     		adds	r3, r1, r3
 12725 4a3e DBB2     		uxtb	r3, r3
 12726 4a40 3370     		strb	r3, [r6, #0]
 12727 4a42 9B18     		adds	r3, r3, r2
 12728 4a44 2B70     		strb	r3, [r5, #0]
 12729 4a46 3348     		ldr	r0, .L394+28
 12730 4a48 FFF7FEFF 		bl	uart_transmit
 12731              	.LVL1140:
 12732              	.LBE1567:
 12733              	.LBB1568:
 12734 4a4c F978     		ldrb	r1, [r7, #3]	@ zero_extendqisi2
 12735              	.LVL1141:
 12736 4a4e 3378     		ldrb	r3, [r6, #0]	@ zero_extendqisi2
 12737 4a50 2A78     		ldrb	r2, [r5, #0]	@ zero_extendqisi2
 12738 4a52 CB18     		adds	r3, r1, r3
 12739 4a54 DBB2     		uxtb	r3, r3
 12740 4a56 3370     		strb	r3, [r6, #0]
 12741 4a58 9B18     		adds	r3, r3, r2
 12742 4a5a 2B70     		strb	r3, [r5, #0]
 12743 4a5c 2D48     		ldr	r0, .L394+28
 12744 4a5e FFF7FEFF 		bl	uart_transmit
 12745              	.LVL1142:
 12746              	.LBE1568:
 12747              	.LBB1569:
 12748 4a62 94F84410 		ldrb	r1, [r4, #68]	@ zero_extendqisi2
 12749              	.LVL1143:
 12750 4a66 3378     		ldrb	r3, [r6, #0]	@ zero_extendqisi2
 12751 4a68 2A78     		ldrb	r2, [r5, #0]	@ zero_extendqisi2
 12752 4a6a CB18     		adds	r3, r1, r3
 12753 4a6c DBB2     		uxtb	r3, r3
 12754 4a6e 3370     		strb	r3, [r6, #0]
 12755 4a70 9B18     		adds	r3, r3, r2
 12756 4a72 04F14407 		add	r7, r4, #68
 12757 4a76 2B70     		strb	r3, [r5, #0]
 12758 4a78 2648     		ldr	r0, .L394+28
 12759 4a7a FFF7FEFF 		bl	uart_transmit
 12760              	.LVL1144:
 12761              	.LBE1569:
 12762              	.LBB1570:
 12763 4a7e 7978     		ldrb	r1, [r7, #1]	@ zero_extendqisi2
 12764              	.LVL1145:
 12765 4a80 3378     		ldrb	r3, [r6, #0]	@ zero_extendqisi2
 12766 4a82 2A78     		ldrb	r2, [r5, #0]	@ zero_extendqisi2
 12767 4a84 CB18     		adds	r3, r1, r3
 12768 4a86 DBB2     		uxtb	r3, r3
 12769 4a88 3370     		strb	r3, [r6, #0]
 12770 4a8a 9B18     		adds	r3, r3, r2
 12771 4a8c 2B70     		strb	r3, [r5, #0]
 12772 4a8e 2148     		ldr	r0, .L394+28
 12773 4a90 FFF7FEFF 		bl	uart_transmit
 12774              	.LVL1146:
 12775              	.LBE1570:
 12776              	.LBB1571:
 12777 4a94 9DF80C10 		ldrb	r1, [sp, #12]	@ zero_extendqisi2
 12778              	.LVL1147:
 12779 4a98 3378     		ldrb	r3, [r6, #0]	@ zero_extendqisi2
 12780 4a9a 2A78     		ldrb	r2, [r5, #0]	@ zero_extendqisi2
 12781 4a9c CB18     		adds	r3, r1, r3
 12782 4a9e DBB2     		uxtb	r3, r3
 12783 4aa0 3370     		strb	r3, [r6, #0]
 12784 4aa2 9B18     		adds	r3, r3, r2
 12785 4aa4 2B70     		strb	r3, [r5, #0]
 12786 4aa6 1B48     		ldr	r0, .L394+28
 12787 4aa8 FFF7FEFF 		bl	uart_transmit
 12788              	.LVL1148:
 12789              	.LBE1571:
 12790              	.LBB1572:
 12791 4aac 03AB     		add	r3, sp, #12
 12792 4aae 5978     		ldrb	r1, [r3, #1]	@ zero_extendqisi2
 12793              	.LVL1149:
 12794 4ab0 3378     		ldrb	r3, [r6, #0]	@ zero_extendqisi2
 12795 4ab2 2A78     		ldrb	r2, [r5, #0]	@ zero_extendqisi2
 12796 4ab4 CB18     		adds	r3, r1, r3
 12797 4ab6 DBB2     		uxtb	r3, r3
 12798 4ab8 3370     		strb	r3, [r6, #0]
 12799 4aba 9B18     		adds	r3, r3, r2
 12800 4abc 2B70     		strb	r3, [r5, #0]
 12801 4abe 1548     		ldr	r0, .L394+28
 12802 4ac0 FFF7FEFF 		bl	uart_transmit
 12803              	.LVL1150:
 12804              	.LBE1572:
 12805              	.LBB1573:
 12806 4ac4 94F85810 		ldrb	r1, [r4, #88]	@ zero_extendqisi2
 12807              	.LVL1151:
 12808 4ac8 3378     		ldrb	r3, [r6, #0]	@ zero_extendqisi2
 12809 4aca 2A78     		ldrb	r2, [r5, #0]	@ zero_extendqisi2
 12810 4acc CB18     		adds	r3, r1, r3
 12811 4ace DBB2     		uxtb	r3, r3
 12812 4ad0 3370     		strb	r3, [r6, #0]
 12813 4ad2 9B18     		adds	r3, r3, r2
 12814 4ad4 04F15807 		add	r7, r4, #88
 12815 4ad8 2B70     		strb	r3, [r5, #0]
 12816 4ada 0E48     		ldr	r0, .L394+28
 12817 4adc FFF7FEFF 		bl	uart_transmit
 12818              	.LVL1152:
 12819              	.LBE1573:
 12820              	.LBB1574:
 12821 4ae0 7978     		ldrb	r1, [r7, #1]	@ zero_extendqisi2
 12822              	.LVL1153:
 12823 4ae2 3378     		ldrb	r3, [r6, #0]	@ zero_extendqisi2
 12824 4ae4 2A78     		ldrb	r2, [r5, #0]	@ zero_extendqisi2
 12825 4ae6 CB18     		adds	r3, r1, r3
 12826 4ae8 DBB2     		uxtb	r3, r3
 12827 4aea 3370     		strb	r3, [r6, #0]
 12828 4aec 9B18     		adds	r3, r3, r2
 12829 4aee 2B70     		strb	r3, [r5, #0]
 12830 4af0 0848     		ldr	r0, .L394+28
 12831 4af2 FFF7FEFF 		bl	uart_transmit
 12832 4af6 17E0     		b	.L395
 12833              	.L396:
 12834              		.align	3
 12835              	.L394:
 12836 4af8 F8C1631A 		.word	442745336
 12837 4afc DCA54C40 		.word	1078765020
 12838 4b00 00000000 		.word	0
 12839 4b04 80842E41 		.word	1093567616
 12840 4b08 00000000 		.word	downlink_nb_ovrn
 12841 4b0c 00000000 		.word	.LANCHOR61
 12842 4b10 00000000 		.word	gps
 12843 4b14 00000000 		.word	uart2
 12844 4b18 00000000 		.word	downlink_nb_bytes
 12845 4b1c 00000000 		.word	downlink_nb_msgs
 12846 4b20 00000000 		.word	ck_a
 12847 4b24 00000000 		.word	ck_b
 12848              	.L395:
 12849              	.LVL1154:
 12850              	.LBE1574:
 12851              	.LBB1575:
 12852 4b28 94F85C10 		ldrb	r1, [r4, #92]	@ zero_extendqisi2
 12853              	.LVL1155:
 12854 4b2c 3378     		ldrb	r3, [r6, #0]	@ zero_extendqisi2
 12855 4b2e 2A78     		ldrb	r2, [r5, #0]	@ zero_extendqisi2
 12856 4b30 CB18     		adds	r3, r1, r3
 12857 4b32 DBB2     		uxtb	r3, r3
 12858 4b34 3370     		strb	r3, [r6, #0]
 12859 4b36 9B18     		adds	r3, r3, r2
 12860 4b38 04F15C07 		add	r7, r4, #92
 12861 4b3c 2B70     		strb	r3, [r5, #0]
 12862 4b3e 8B48     		ldr	r0, .L397
 12863 4b40 FFF7FEFF 		bl	uart_transmit
 12864              	.LVL1156:
 12865              	.LBE1575:
 12866              	.LBB1576:
 12867 4b44 7978     		ldrb	r1, [r7, #1]	@ zero_extendqisi2
 12868              	.LVL1157:
 12869 4b46 3378     		ldrb	r3, [r6, #0]	@ zero_extendqisi2
 12870 4b48 2A78     		ldrb	r2, [r5, #0]	@ zero_extendqisi2
 12871 4b4a CB18     		adds	r3, r1, r3
 12872 4b4c DBB2     		uxtb	r3, r3
 12873 4b4e 3370     		strb	r3, [r6, #0]
 12874 4b50 9B18     		adds	r3, r3, r2
 12875 4b52 2B70     		strb	r3, [r5, #0]
 12876 4b54 8548     		ldr	r0, .L397
 12877 4b56 FFF7FEFF 		bl	uart_transmit
 12878              	.LVL1158:
 12879              	.LBE1576:
 12880              	.LBB1577:
 12881 4b5a B978     		ldrb	r1, [r7, #2]	@ zero_extendqisi2
 12882              	.LVL1159:
 12883 4b5c 3378     		ldrb	r3, [r6, #0]	@ zero_extendqisi2
 12884 4b5e 2A78     		ldrb	r2, [r5, #0]	@ zero_extendqisi2
 12885 4b60 CB18     		adds	r3, r1, r3
 12886 4b62 DBB2     		uxtb	r3, r3
 12887 4b64 3370     		strb	r3, [r6, #0]
 12888 4b66 9B18     		adds	r3, r3, r2
 12889 4b68 2B70     		strb	r3, [r5, #0]
 12890 4b6a 8048     		ldr	r0, .L397
 12891 4b6c FFF7FEFF 		bl	uart_transmit
 12892              	.LVL1160:
 12893              	.LBE1577:
 12894              	.LBB1578:
 12895 4b70 F978     		ldrb	r1, [r7, #3]	@ zero_extendqisi2
 12896              	.LVL1161:
 12897 4b72 3378     		ldrb	r3, [r6, #0]	@ zero_extendqisi2
 12898 4b74 2A78     		ldrb	r2, [r5, #0]	@ zero_extendqisi2
 12899 4b76 CB18     		adds	r3, r1, r3
 12900 4b78 DBB2     		uxtb	r3, r3
 12901 4b7a 3370     		strb	r3, [r6, #0]
 12902 4b7c 9B18     		adds	r3, r3, r2
 12903 4b7e 2B70     		strb	r3, [r5, #0]
 12904 4b80 7A48     		ldr	r0, .L397
 12905 4b82 FFF7FEFF 		bl	uart_transmit
 12906              	.LVL1162:
 12907              	.LBE1578:
 12908              	.LBB1579:
 12909 4b86 94F82410 		ldrb	r1, [r4, #36]	@ zero_extendqisi2
 12910              	.LVL1163:
 12911 4b8a 3378     		ldrb	r3, [r6, #0]	@ zero_extendqisi2
 12912 4b8c 2A78     		ldrb	r2, [r5, #0]	@ zero_extendqisi2
 12913 4b8e CB18     		adds	r3, r1, r3
 12914 4b90 DBB2     		uxtb	r3, r3
 12915 4b92 3370     		strb	r3, [r6, #0]
 12916 4b94 9B18     		adds	r3, r3, r2
 12917 4b96 2B70     		strb	r3, [r5, #0]
 12918 4b98 7448     		ldr	r0, .L397
 12919 4b9a FFF7FEFF 		bl	uart_transmit
 12920              	.LVL1164:
 12921              	.LBE1579:
 12922              	.LBB1580:
 12923 4b9e 744B     		ldr	r3, .L397+4
 12924 4ba0 2A78     		ldrb	r2, [r5, #0]	@ zero_extendqisi2
 12925 4ba2 1978     		ldrb	r1, [r3, #0]	@ zero_extendqisi2
 12926              	.LVL1165:
 12927 4ba4 3378     		ldrb	r3, [r6, #0]	@ zero_extendqisi2
 12928 4ba6 7148     		ldr	r0, .L397
 12929 4ba8 CB18     		adds	r3, r1, r3
 12930 4baa DBB2     		uxtb	r3, r3
 12931 4bac 3370     		strb	r3, [r6, #0]
 12932 4bae 9B18     		adds	r3, r3, r2
 12933 4bb0 2B70     		strb	r3, [r5, #0]
 12934 4bb2 FFF7FEFF 		bl	uart_transmit
 12935              	.LVL1166:
 12936              	.LBE1580:
 12937 4bb6 3178     		ldrb	r1, [r6, #0]	@ zero_extendqisi2
 12938 4bb8 6C48     		ldr	r0, .L397
 12939 4bba FFF7FEFF 		bl	uart_transmit
 12940 4bbe 6B48     		ldr	r0, .L397
 12941 4bc0 2978     		ldrb	r1, [r5, #0]	@ zero_extendqisi2
 12942 4bc2 FFF7FEFF 		bl	uart_transmit
 12943 4bc6 03E0     		b	.L269
 12944              	.L268:
 12945 4bc8 6A4B     		ldr	r3, .L397+8
 12946 4bca 1A78     		ldrb	r2, [r3, #0]	@ zero_extendqisi2
 12947 4bcc 0132     		adds	r2, r2, #1
 12948 4bce 1A70     		strb	r2, [r3, #0]
 12949              	.L269:
 12950 4bd0 694A     		ldr	r2, .L397+12
 12951 4bd2 92F85730 		ldrb	r3, [r2, #87]	@ zero_extendqisi2
 12952 4bd6 032B     		cmp	r3, #3
 12953 4bd8 07D0     		beq	.L270
 12954 4bda 654B     		ldr	r3, .L397+4
 12955 4bdc 92F86020 		ldrb	r2, [r2, #96]	@ zero_extendqisi2
 12956 4be0 1978     		ldrb	r1, [r3, #0]	@ zero_extendqisi2
 12957 4be2 9142     		cmp	r1, r2
 12958 4be4 01D3     		bcc	.L270
 12959 4be6 0022     		movs	r2, #0
 12960 4be8 1A70     		strb	r2, [r3, #0]
 12961              	.L270:
 12962 4bea 634B     		ldr	r3, .L397+12
 12963 4bec 93F86020 		ldrb	r2, [r3, #96]	@ zero_extendqisi2
 12964 4bf0 5F4B     		ldr	r3, .L397+4
 12965 4bf2 1978     		ldrb	r1, [r3, #0]	@ zero_extendqisi2
 12966 4bf4 B1EB420F 		cmp	r1, r2, lsl #1
 12967 4bf8 01DB     		blt	.L271
 12968 4bfa 0021     		movs	r1, #0
 12969 4bfc 1970     		strb	r1, [r3, #0]
 12970              	.L271:
 12971 4bfe 5C4E     		ldr	r6, .L397+4
 12972 4c00 3378     		ldrb	r3, [r6, #0]	@ zero_extendqisi2
 12973 4c02 9342     		cmp	r3, r2
 12974 4c04 80F0C680 		bcs	.L272
 12975 4c08 5B4F     		ldr	r7, .L397+12
 12976 4c0a 07EBC303 		add	r3, r7, r3, lsl #3
 12977 4c0e 93F86530 		ldrb	r3, [r3, #101]	@ zero_extendqisi2
 12978 4c12 002B     		cmp	r3, #0
 12979 4c14 00F0BE80 		beq	.L272
 12980 4c18 5448     		ldr	r0, .L397
 12981 4c1a 0E21     		movs	r1, #14
 12982 4c1c FFF7FEFF 		bl	uart_check_free_space
 12983 4c20 0028     		cmp	r0, #0
 12984 4c22 00F0B380 		beq	.L273
 12985 4c26 554B     		ldr	r3, .L397+16
 12986              	.LBB1581:
 12987 4c28 9921     		movs	r1, #153
 12988              	.LBE1581:
 12989 4c2a 1A88     		ldrh	r2, [r3, #0]
 12990              	.LBB1582:
 12991 4c2c 4F48     		ldr	r0, .L397
 12992              	.LBE1582:
 12993 4c2e 0E32     		adds	r2, r2, #14
 12994 4c30 1A80     		strh	r2, [r3, #0]	@ movhi
 12995 4c32 534B     		ldr	r3, .L397+20
 12996              	.LBB1583:
 12997 4c34 534D     		ldr	r5, .L397+24
 12998              	.LBE1583:
 12999 4c36 1A88     		ldrh	r2, [r3, #0]
 13000              	.LBB1584:
 13001 4c38 534C     		ldr	r4, .L397+28
 13002              	.LBE1584:
 13003 4c3a 0132     		adds	r2, r2, #1
 13004 4c3c 1A80     		strh	r2, [r3, #0]	@ movhi
 13005              	.LBB1585:
 13006 4c3e FFF7FEFF 		bl	uart_transmit
 13007 4c42 0E21     		movs	r1, #14
 13008 4c44 4948     		ldr	r0, .L397
 13009 4c46 FFF7FEFF 		bl	uart_transmit
 13010              	.LBE1585:
 13011 4c4a 0F23     		movs	r3, #15
 13012 4c4c 2B70     		strb	r3, [r5, #0]
 13013 4c4e 0E33     		adds	r3, r3, #14
 13014 4c50 2370     		strb	r3, [r4, #0]
 13015 4c52 0121     		movs	r1, #1
 13016 4c54 4548     		ldr	r0, .L397
 13017 4c56 FFF7FEFF 		bl	uart_transmit
 13018 4c5a 2B78     		ldrb	r3, [r5, #0]	@ zero_extendqisi2
 13019 4c5c 2278     		ldrb	r2, [r4, #0]	@ zero_extendqisi2
 13020 4c5e 1933     		adds	r3, r3, #25
 13021 4c60 DBB2     		uxtb	r3, r3
 13022 4c62 2B70     		strb	r3, [r5, #0]
 13023 4c64 9B18     		adds	r3, r3, r2
 13024 4c66 2370     		strb	r3, [r4, #0]
 13025 4c68 1921     		movs	r1, #25
 13026 4c6a 4048     		ldr	r0, .L397
 13027 4c6c FFF7FEFF 		bl	uart_transmit
 13028              	.LBB1586:
 13029 4c70 3178     		ldrb	r1, [r6, #0]	@ zero_extendqisi2
 13030              	.LVL1167:
 13031 4c72 2B78     		ldrb	r3, [r5, #0]	@ zero_extendqisi2
 13032 4c74 2278     		ldrb	r2, [r4, #0]	@ zero_extendqisi2
 13033 4c76 CB18     		adds	r3, r1, r3
 13034 4c78 DBB2     		uxtb	r3, r3
 13035 4c7a 2B70     		strb	r3, [r5, #0]
 13036 4c7c 9B18     		adds	r3, r3, r2
 13037 4c7e 2370     		strb	r3, [r4, #0]
 13038 4c80 3A48     		ldr	r0, .L397
 13039 4c82 FFF7FEFF 		bl	uart_transmit
 13040              	.LVL1168:
 13041              	.LBE1586:
 13042              	.LBB1587:
 13043 4c86 3378     		ldrb	r3, [r6, #0]	@ zero_extendqisi2
 13044 4c88 2278     		ldrb	r2, [r4, #0]	@ zero_extendqisi2
 13045 4c8a 07EBC303 		add	r3, r7, r3, lsl #3
 13046 4c8e 93F86210 		ldrb	r1, [r3, #98]	@ zero_extendqisi2
 13047              	.LVL1169:
 13048 4c92 2B78     		ldrb	r3, [r5, #0]	@ zero_extendqisi2
 13049 4c94 3548     		ldr	r0, .L397
 13050 4c96 CB18     		adds	r3, r1, r3
 13051 4c98 DBB2     		uxtb	r3, r3
 13052 4c9a 2B70     		strb	r3, [r5, #0]
 13053 4c9c 9B18     		adds	r3, r3, r2
 13054 4c9e 2370     		strb	r3, [r4, #0]
 13055 4ca0 FFF7FEFF 		bl	uart_transmit
 13056              	.LVL1170:
 13057              	.LBE1587:
 13058              	.LBB1588:
 13059 4ca4 3378     		ldrb	r3, [r6, #0]	@ zero_extendqisi2
 13060 4ca6 2278     		ldrb	r2, [r4, #0]	@ zero_extendqisi2
 13061 4ca8 07EBC303 		add	r3, r7, r3, lsl #3
 13062 4cac 93F86310 		ldrb	r1, [r3, #99]	@ zero_extendqisi2
 13063              	.LVL1171:
 13064 4cb0 2B78     		ldrb	r3, [r5, #0]	@ zero_extendqisi2
 13065 4cb2 2E48     		ldr	r0, .L397
 13066 4cb4 CB18     		adds	r3, r1, r3
 13067 4cb6 DBB2     		uxtb	r3, r3
 13068 4cb8 2B70     		strb	r3, [r5, #0]
 13069 4cba 9B18     		adds	r3, r3, r2
 13070 4cbc 2370     		strb	r3, [r4, #0]
 13071 4cbe FFF7FEFF 		bl	uart_transmit
 13072              	.LVL1172:
 13073              	.LBE1588:
 13074              	.LBB1589:
 13075 4cc2 3378     		ldrb	r3, [r6, #0]	@ zero_extendqisi2
 13076 4cc4 2278     		ldrb	r2, [r4, #0]	@ zero_extendqisi2
 13077 4cc6 07EBC303 		add	r3, r7, r3, lsl #3
 13078 4cca 93F86410 		ldrb	r1, [r3, #100]	@ zero_extendqisi2
 13079              	.LVL1173:
 13080 4cce 2B78     		ldrb	r3, [r5, #0]	@ zero_extendqisi2
 13081 4cd0 2648     		ldr	r0, .L397
 13082 4cd2 CB18     		adds	r3, r1, r3
 13083 4cd4 DBB2     		uxtb	r3, r3
 13084 4cd6 2B70     		strb	r3, [r5, #0]
 13085 4cd8 9B18     		adds	r3, r3, r2
 13086 4cda 2370     		strb	r3, [r4, #0]
 13087 4cdc FFF7FEFF 		bl	uart_transmit
 13088              	.LVL1174:
 13089              	.LBE1589:
 13090              	.LBB1590:
 13091 4ce0 3378     		ldrb	r3, [r6, #0]	@ zero_extendqisi2
 13092 4ce2 2278     		ldrb	r2, [r4, #0]	@ zero_extendqisi2
 13093 4ce4 07EBC303 		add	r3, r7, r3, lsl #3
 13094 4ce8 93F86510 		ldrb	r1, [r3, #101]	@ zero_extendqisi2
 13095              	.LVL1175:
 13096 4cec 2B78     		ldrb	r3, [r5, #0]	@ zero_extendqisi2
 13097 4cee 1F48     		ldr	r0, .L397
 13098 4cf0 CB18     		adds	r3, r1, r3
 13099 4cf2 DBB2     		uxtb	r3, r3
 13100 4cf4 2B70     		strb	r3, [r5, #0]
 13101 4cf6 9B18     		adds	r3, r3, r2
 13102 4cf8 2370     		strb	r3, [r4, #0]
 13103 4cfa FFF7FEFF 		bl	uart_transmit
 13104              	.LVL1176:
 13105              	.LBE1590:
 13106              	.LBB1591:
 13107 4cfe 3378     		ldrb	r3, [r6, #0]	@ zero_extendqisi2
 13108 4d00 2278     		ldrb	r2, [r4, #0]	@ zero_extendqisi2
 13109 4d02 07EBC303 		add	r3, r7, r3, lsl #3
 13110 4d06 93F86610 		ldrb	r1, [r3, #102]	@ zero_extendqisi2
 13111              	.LVL1177:
 13112 4d0a 2B78     		ldrb	r3, [r5, #0]	@ zero_extendqisi2
 13113 4d0c 1748     		ldr	r0, .L397
 13114 4d0e CB18     		adds	r3, r1, r3
 13115 4d10 DBB2     		uxtb	r3, r3
 13116 4d12 2B70     		strb	r3, [r5, #0]
 13117 4d14 9B18     		adds	r3, r3, r2
 13118 4d16 2370     		strb	r3, [r4, #0]
 13119 4d18 FFF7FEFF 		bl	uart_transmit
 13120              	.LVL1178:
 13121              	.LBE1591:
 13122              	.LBB1592:
 13123 4d1c 3378     		ldrb	r3, [r6, #0]	@ zero_extendqisi2
 13124 4d1e 2278     		ldrb	r2, [r4, #0]	@ zero_extendqisi2
 13125 4d20 07EBC303 		add	r3, r7, r3, lsl #3
 13126 4d24 93F86810 		ldrb	r1, [r3, #104]	@ zero_extendqisi2
 13127              	.LVL1179:
 13128 4d28 2B78     		ldrb	r3, [r5, #0]	@ zero_extendqisi2
 13129 4d2a 1048     		ldr	r0, .L397
 13130 4d2c CB18     		adds	r3, r1, r3
 13131 4d2e DBB2     		uxtb	r3, r3
 13132 4d30 2B70     		strb	r3, [r5, #0]
 13133 4d32 9B18     		adds	r3, r3, r2
 13134 4d34 2370     		strb	r3, [r4, #0]
 13135 4d36 FFF7FEFF 		bl	uart_transmit
 13136              	.LVL1180:
 13137              	.LBE1592:
 13138              	.LBB1593:
 13139 4d3a 3378     		ldrb	r3, [r6, #0]	@ zero_extendqisi2
 13140 4d3c 2278     		ldrb	r2, [r4, #0]	@ zero_extendqisi2
 13141 4d3e 07EBC307 		add	r7, r7, r3, lsl #3
 13142 4d42 97F86910 		ldrb	r1, [r7, #105]	@ zero_extendqisi2
 13143              	.LVL1181:
 13144 4d46 2B78     		ldrb	r3, [r5, #0]	@ zero_extendqisi2
 13145 4d48 0848     		ldr	r0, .L397
 13146 4d4a CB18     		adds	r3, r1, r3
 13147 4d4c DBB2     		uxtb	r3, r3
 13148 4d4e 2B70     		strb	r3, [r5, #0]
 13149 4d50 9B18     		adds	r3, r3, r2
 13150 4d52 2370     		strb	r3, [r4, #0]
 13151 4d54 FFF7FEFF 		bl	uart_transmit
 13152              	.LVL1182:
 13153              	.LBE1593:
 13154 4d58 2978     		ldrb	r1, [r5, #0]	@ zero_extendqisi2
 13155 4d5a 0448     		ldr	r0, .L397
 13156 4d5c FFF7FEFF 		bl	uart_transmit
 13157 4d60 0248     		ldr	r0, .L397
 13158 4d62 2178     		ldrb	r1, [r4, #0]	@ zero_extendqisi2
 13159 4d64 FFF7FEFF 		bl	uart_transmit
 13160 4d68 14E0     		b	.L272
 13161              	.L398:
 13162 4d6a 00BF     		.align	2
 13163              	.L397:
 13164 4d6c 00000000 		.word	uart2
 13165 4d70 00000000 		.word	.LANCHOR69
 13166 4d74 00000000 		.word	downlink_nb_ovrn
 13167 4d78 00000000 		.word	gps
 13168 4d7c 00000000 		.word	downlink_nb_bytes
 13169 4d80 00000000 		.word	downlink_nb_msgs
 13170 4d84 00000000 		.word	ck_a
 13171 4d88 00000000 		.word	ck_b
 13172              	.L273:
 13173 4d8c 4D4B     		ldr	r3, .L399
 13174 4d8e 1A78     		ldrb	r2, [r3, #0]	@ zero_extendqisi2
 13175 4d90 0132     		adds	r2, r2, #1
 13176 4d92 1A70     		strb	r2, [r3, #0]
 13177              	.L272:
 13178 4d94 4C4B     		ldr	r3, .L399+4
 13179 4d96 1A78     		ldrb	r2, [r3, #0]	@ zero_extendqisi2
 13180 4d98 0132     		adds	r2, r2, #1
 13181 4d9a 1A70     		strb	r2, [r3, #0]
 13182              	.L267:
 13183              	.LBE1548:
 13184 4d9c 4B4B     		ldr	r3, .L399+8
 13185 4d9e 1B88     		ldrh	r3, [r3, #0]
 13186 4da0 0C2B     		cmp	r3, #12
 13187 4da2 40F0A780 		bne	.L274
 13188 4da6 4A48     		ldr	r0, .L399+12
 13189 4da8 0E21     		movs	r1, #14
 13190 4daa FFF7FEFF 		bl	uart_check_free_space
 13191 4dae 0028     		cmp	r0, #0
 13192 4db0 00F09C80 		beq	.L275
 13193 4db4 474B     		ldr	r3, .L399+16
 13194              	.LBB1594:
 13195 4db6 9921     		movs	r1, #153
 13196              	.LBE1594:
 13197 4db8 1A88     		ldrh	r2, [r3, #0]
 13198              	.LBB1595:
 13199 4dba 4548     		ldr	r0, .L399+12
 13200              	.LBE1595:
 13201 4dbc 0E32     		adds	r2, r2, #14
 13202 4dbe 1A80     		strh	r2, [r3, #0]	@ movhi
 13203 4dc0 454B     		ldr	r3, .L399+20
 13204              	.LBB1596:
 13205 4dc2 464D     		ldr	r5, .L399+24
 13206              	.LBE1596:
 13207 4dc4 1A88     		ldrh	r2, [r3, #0]
 13208              	.LBB1597:
 13209 4dc6 464C     		ldr	r4, .L399+28
 13210              	.LBE1597:
 13211 4dc8 0132     		adds	r2, r2, #1
 13212 4dca 1A80     		strh	r2, [r3, #0]	@ movhi
 13213              	.LBB1598:
 13214 4dcc FFF7FEFF 		bl	uart_transmit
 13215 4dd0 0E21     		movs	r1, #14
 13216 4dd2 3F48     		ldr	r0, .L399+12
 13217 4dd4 FFF7FEFF 		bl	uart_transmit
 13218              	.LBE1598:
 13219 4dd8 0F23     		movs	r3, #15
 13220 4dda 2B70     		strb	r3, [r5, #0]
 13221 4ddc 0E33     		adds	r3, r3, #14
 13222 4dde 2370     		strb	r3, [r4, #0]
 13223 4de0 0121     		movs	r1, #1
 13224 4de2 3B48     		ldr	r0, .L399+12
 13225 4de4 FFF7FEFF 		bl	uart_transmit
 13226 4de8 2B78     		ldrb	r3, [r5, #0]	@ zero_extendqisi2
 13227 4dea 2278     		ldrb	r2, [r4, #0]	@ zero_extendqisi2
 13228 4dec 2A33     		adds	r3, r3, #42
 13229 4dee DBB2     		uxtb	r3, r3
 13230              	.LBB1599:
 13231 4df0 3C4E     		ldr	r6, .L399+32
 13232              	.LBE1599:
 13233 4df2 2B70     		strb	r3, [r5, #0]
 13234 4df4 9B18     		adds	r3, r3, r2
 13235 4df6 2370     		strb	r3, [r4, #0]
 13236 4df8 2A21     		movs	r1, #42
 13237 4dfa 3548     		ldr	r0, .L399+12
 13238 4dfc FFF7FEFF 		bl	uart_transmit
 13239              	.LBB1600:
 13240 4e00 3178     		ldrb	r1, [r6, #0]	@ zero_extendqisi2
 13241              	.LVL1183:
 13242 4e02 2B78     		ldrb	r3, [r5, #0]	@ zero_extendqisi2
 13243 4e04 2278     		ldrb	r2, [r4, #0]	@ zero_extendqisi2
 13244 4e06 CB18     		adds	r3, r1, r3
 13245 4e08 DBB2     		uxtb	r3, r3
 13246 4e0a 2B70     		strb	r3, [r5, #0]
 13247 4e0c 9B18     		adds	r3, r3, r2
 13248 4e0e 2370     		strb	r3, [r4, #0]
 13249 4e10 2F48     		ldr	r0, .L399+12
 13250 4e12 FFF7FEFF 		bl	uart_transmit
 13251              	.LVL1184:
 13252              	.LBE1600:
 13253              	.LBB1601:
 13254 4e16 7178     		ldrb	r1, [r6, #1]	@ zero_extendqisi2
 13255              	.LVL1185:
 13256 4e18 2B78     		ldrb	r3, [r5, #0]	@ zero_extendqisi2
 13257 4e1a 2278     		ldrb	r2, [r4, #0]	@ zero_extendqisi2
 13258 4e1c CB18     		adds	r3, r1, r3
 13259 4e1e DBB2     		uxtb	r3, r3
 13260 4e20 2B70     		strb	r3, [r5, #0]
 13261 4e22 9B18     		adds	r3, r3, r2
 13262 4e24 2370     		strb	r3, [r4, #0]
 13263 4e26 2A48     		ldr	r0, .L399+12
 13264 4e28 FFF7FEFF 		bl	uart_transmit
 13265              	.LVL1186:
 13266              	.LBE1601:
 13267              	.LBB1602:
 13268 4e2c B178     		ldrb	r1, [r6, #2]	@ zero_extendqisi2
 13269              	.LVL1187:
 13270 4e2e 2B78     		ldrb	r3, [r5, #0]	@ zero_extendqisi2
 13271 4e30 2278     		ldrb	r2, [r4, #0]	@ zero_extendqisi2
 13272 4e32 CB18     		adds	r3, r1, r3
 13273 4e34 DBB2     		uxtb	r3, r3
 13274 4e36 2B70     		strb	r3, [r5, #0]
 13275 4e38 9B18     		adds	r3, r3, r2
 13276 4e3a 2370     		strb	r3, [r4, #0]
 13277 4e3c 2448     		ldr	r0, .L399+12
 13278 4e3e FFF7FEFF 		bl	uart_transmit
 13279              	.LVL1188:
 13280              	.LBE1602:
 13281              	.LBB1603:
 13282 4e42 F178     		ldrb	r1, [r6, #3]	@ zero_extendqisi2
 13283              	.LVL1189:
 13284 4e44 2B78     		ldrb	r3, [r5, #0]	@ zero_extendqisi2
 13285 4e46 2278     		ldrb	r2, [r4, #0]	@ zero_extendqisi2
 13286 4e48 CB18     		adds	r3, r1, r3
 13287 4e4a DBB2     		uxtb	r3, r3
 13288              	.LBE1603:
 13289              	.LBB1604:
 13290 4e4c 264E     		ldr	r6, .L399+36
 13291              	.LBE1604:
 13292              	.LBB1605:
 13293 4e4e 2B70     		strb	r3, [r5, #0]
 13294 4e50 9B18     		adds	r3, r3, r2
 13295 4e52 2370     		strb	r3, [r4, #0]
 13296 4e54 1E48     		ldr	r0, .L399+12
 13297 4e56 FFF7FEFF 		bl	uart_transmit
 13298              	.LVL1190:
 13299              	.LBE1605:
 13300              	.LBB1606:
 13301 4e5a 3178     		ldrb	r1, [r6, #0]	@ zero_extendqisi2
 13302              	.LVL1191:
 13303 4e5c 2B78     		ldrb	r3, [r5, #0]	@ zero_extendqisi2
 13304 4e5e 2278     		ldrb	r2, [r4, #0]	@ zero_extendqisi2
 13305 4e60 CB18     		adds	r3, r1, r3
 13306 4e62 DBB2     		uxtb	r3, r3
 13307 4e64 2B70     		strb	r3, [r5, #0]
 13308 4e66 9B18     		adds	r3, r3, r2
 13309 4e68 2370     		strb	r3, [r4, #0]
 13310 4e6a 1948     		ldr	r0, .L399+12
 13311 4e6c FFF7FEFF 		bl	uart_transmit
 13312              	.LVL1192:
 13313              	.LBE1606:
 13314              	.LBB1607:
 13315 4e70 7178     		ldrb	r1, [r6, #1]	@ zero_extendqisi2
 13316              	.LVL1193:
 13317 4e72 2B78     		ldrb	r3, [r5, #0]	@ zero_extendqisi2
 13318 4e74 2278     		ldrb	r2, [r4, #0]	@ zero_extendqisi2
 13319 4e76 CB18     		adds	r3, r1, r3
 13320 4e78 DBB2     		uxtb	r3, r3
 13321 4e7a 2B70     		strb	r3, [r5, #0]
 13322 4e7c 9B18     		adds	r3, r3, r2
 13323 4e7e 2370     		strb	r3, [r4, #0]
 13324 4e80 1348     		ldr	r0, .L399+12
 13325 4e82 FFF7FEFF 		bl	uart_transmit
 13326              	.LVL1194:
 13327              	.LBE1607:
 13328              	.LBB1608:
 13329 4e86 B178     		ldrb	r1, [r6, #2]	@ zero_extendqisi2
 13330              	.LVL1195:
 13331 4e88 2B78     		ldrb	r3, [r5, #0]	@ zero_extendqisi2
 13332 4e8a 2278     		ldrb	r2, [r4, #0]	@ zero_extendqisi2
 13333 4e8c CB18     		adds	r3, r1, r3
 13334 4e8e DBB2     		uxtb	r3, r3
 13335 4e90 2B70     		strb	r3, [r5, #0]
 13336 4e92 9B18     		adds	r3, r3, r2
 13337 4e94 2370     		strb	r3, [r4, #0]
 13338 4e96 0E48     		ldr	r0, .L399+12
 13339 4e98 FFF7FEFF 		bl	uart_transmit
 13340              	.LVL1196:
 13341              	.LBE1608:
 13342              	.LBB1609:
 13343 4e9c F178     		ldrb	r1, [r6, #3]	@ zero_extendqisi2
 13344              	.LVL1197:
 13345 4e9e 2B78     		ldrb	r3, [r5, #0]	@ zero_extendqisi2
 13346 4ea0 2278     		ldrb	r2, [r4, #0]	@ zero_extendqisi2
 13347 4ea2 CB18     		adds	r3, r1, r3
 13348 4ea4 DBB2     		uxtb	r3, r3
 13349 4ea6 2B70     		strb	r3, [r5, #0]
 13350 4ea8 9B18     		adds	r3, r3, r2
 13351 4eaa 2370     		strb	r3, [r4, #0]
 13352 4eac 0848     		ldr	r0, .L399+12
 13353 4eae FFF7FEFF 		bl	uart_transmit
 13354              	.LVL1198:
 13355              	.LBE1609:
 13356 4eb2 2978     		ldrb	r1, [r5, #0]	@ zero_extendqisi2
 13357 4eb4 0648     		ldr	r0, .L399+12
 13358 4eb6 FFF7FEFF 		bl	uart_transmit
 13359 4eba 0548     		ldr	r0, .L399+12
 13360 4ebc 2178     		ldrb	r1, [r4, #0]	@ zero_extendqisi2
 13361 4ebe FFF7FEFF 		bl	uart_transmit
 13362 4ec2 17E0     		b	.L274
 13363              	.L400:
 13364              		.align	2
 13365              	.L399:
 13366 4ec4 00000000 		.word	downlink_nb_ovrn
 13367 4ec8 00000000 		.word	.LANCHOR69
 13368 4ecc 00000000 		.word	.LANCHOR62
 13369 4ed0 00000000 		.word	uart2
 13370 4ed4 00000000 		.word	downlink_nb_bytes
 13371 4ed8 00000000 		.word	downlink_nb_msgs
 13372 4edc 00000000 		.word	ck_a
 13373 4ee0 00000000 		.word	ck_b
 13374 4ee4 00000000 		.word	estimator_z
 13375 4ee8 00000000 		.word	estimator_z_dot
 13376              	.L275:
 13377 4eec 9A4B     		ldr	r3, .L401+8
 13378 4eee 1A78     		ldrb	r2, [r3, #0]	@ zero_extendqisi2
 13379 4ef0 0132     		adds	r2, r2, #1
 13380 4ef2 1A70     		strb	r2, [r3, #0]
 13381              	.L274:
 13382 4ef4 994B     		ldr	r3, .L401+12
 13383 4ef6 1B88     		ldrh	r3, [r3, #0]
 13384 4ef8 122B     		cmp	r3, #18
 13385 4efa 40F04F81 		bne	.L276
 13386              	.LBB1610:
 13387 4efe 984B     		ldr	r3, .L401+16
 13388 4f00 9848     		ldr	r0, .L401+20
 13389 4f02 1A21     		movs	r1, #26
 13390 4f04 1C68     		ldr	r4, [r3, #0]	@ float
 13391 4f06 FFF7FEFF 		bl	uart_check_free_space
 13392 4f0a 0028     		cmp	r0, #0
 13393 4f0c 00F04281 		beq	.L277
 13394 4f10 24F00040 		bic	r0, r4, #-2147483648
 13395 4f14 FFF7FEFF 		bl	__aeabi_f2d
 13396 4f18 8DA3     		adr	r3, .L401
 13397 4f1a D3E90023 		ldrd	r2, [r3]
 13398 4f1e FFF7FEFF 		bl	__aeabi_ddiv
 13399 4f22 FFF7FEFF 		bl	__aeabi_d2uiz
 13400 4f26 904B     		ldr	r3, .L401+24
 13401 4f28 C7B2     		uxtb	r7, r0
 13402 4f2a 1A88     		ldrh	r2, [r3, #0]
 13403              	.LBB1611:
 13404 4f2c 9921     		movs	r1, #153
 13405              	.LBE1611:
 13406 4f2e 1A32     		adds	r2, r2, #26
 13407 4f30 1A80     		strh	r2, [r3, #0]	@ movhi
 13408 4f32 8E4B     		ldr	r3, .L401+28
 13409              	.LBB1612:
 13410 4f34 8B48     		ldr	r0, .L401+20
 13411              	.LBE1612:
 13412 4f36 1A88     		ldrh	r2, [r3, #0]
 13413              	.LBB1613:
 13414 4f38 8D4D     		ldr	r5, .L401+32
 13415              	.LBE1613:
 13416 4f3a 0132     		adds	r2, r2, #1
 13417 4f3c 1A80     		strh	r2, [r3, #0]	@ movhi
 13418              	.LBB1614:
 13419 4f3e FFF7FEFF 		bl	uart_transmit
 13420 4f42 1A21     		movs	r1, #26
 13421 4f44 8748     		ldr	r0, .L401+20
 13422 4f46 8B4C     		ldr	r4, .L401+36
 13423 4f48 FFF7FEFF 		bl	uart_transmit
 13424              	.LBE1614:
 13425 4f4c 1B23     		movs	r3, #27
 13426 4f4e 2B70     		strb	r3, [r5, #0]
 13427 4f50 1A33     		adds	r3, r3, #26
 13428 4f52 2370     		strb	r3, [r4, #0]
 13429 4f54 0121     		movs	r1, #1
 13430 4f56 8348     		ldr	r0, .L401+20
 13431 4f58 FFF7FEFF 		bl	uart_transmit
 13432 4f5c 2B78     		ldrb	r3, [r5, #0]	@ zero_extendqisi2
 13433 4f5e 2278     		ldrb	r2, [r4, #0]	@ zero_extendqisi2
 13434 4f60 0A33     		adds	r3, r3, #10
 13435 4f62 DBB2     		uxtb	r3, r3
 13436 4f64 2B70     		strb	r3, [r5, #0]
 13437 4f66 9B18     		adds	r3, r3, r2
 13438 4f68 2370     		strb	r3, [r4, #0]
 13439 4f6a 0A21     		movs	r1, #10
 13440 4f6c 7D48     		ldr	r0, .L401+20
 13441 4f6e FFF7FEFF 		bl	uart_transmit
 13442              	.LBB1615:
 13443 4f72 814B     		ldr	r3, .L401+40
 13444 4f74 2278     		ldrb	r2, [r4, #0]	@ zero_extendqisi2
 13445 4f76 1978     		ldrb	r1, [r3, #0]	@ zero_extendqisi2
 13446              	.LVL1199:
 13447 4f78 2B78     		ldrb	r3, [r5, #0]	@ zero_extendqisi2
 13448 4f7a 7A48     		ldr	r0, .L401+20
 13449 4f7c CB18     		adds	r3, r1, r3
 13450 4f7e DBB2     		uxtb	r3, r3
 13451 4f80 2B70     		strb	r3, [r5, #0]
 13452 4f82 9B18     		adds	r3, r3, r2
 13453 4f84 2370     		strb	r3, [r4, #0]
 13454 4f86 FFF7FEFF 		bl	uart_transmit
 13455              	.LVL1200:
 13456              	.LBE1615:
 13457              	.LBB1616:
 13458 4f8a 7C4B     		ldr	r3, .L401+44
 13459 4f8c 2278     		ldrb	r2, [r4, #0]	@ zero_extendqisi2
 13460 4f8e 1978     		ldrb	r1, [r3, #0]	@ zero_extendqisi2
 13461              	.LVL1201:
 13462 4f90 2B78     		ldrb	r3, [r5, #0]	@ zero_extendqisi2
 13463              	.LBE1616:
 13464              	.LBB1617:
 13465 4f92 7B4E     		ldr	r6, .L401+48
 13466              	.LBE1617:
 13467              	.LBB1618:
 13468 4f94 CB18     		adds	r3, r1, r3
 13469 4f96 DBB2     		uxtb	r3, r3
 13470 4f98 2B70     		strb	r3, [r5, #0]
 13471 4f9a 9B18     		adds	r3, r3, r2
 13472 4f9c 2370     		strb	r3, [r4, #0]
 13473 4f9e 7148     		ldr	r0, .L401+20
 13474 4fa0 FFF7FEFF 		bl	uart_transmit
 13475              	.LVL1202:
 13476              	.LBE1618:
 13477              	.LBB1619:
 13478 4fa4 3178     		ldrb	r1, [r6, #0]	@ zero_extendqisi2
 13479              	.LVL1203:
 13480 4fa6 2B78     		ldrb	r3, [r5, #0]	@ zero_extendqisi2
 13481 4fa8 2278     		ldrb	r2, [r4, #0]	@ zero_extendqisi2
 13482 4faa CB18     		adds	r3, r1, r3
 13483 4fac DBB2     		uxtb	r3, r3
 13484 4fae 2B70     		strb	r3, [r5, #0]
 13485 4fb0 9B18     		adds	r3, r3, r2
 13486 4fb2 2370     		strb	r3, [r4, #0]
 13487 4fb4 6B48     		ldr	r0, .L401+20
 13488 4fb6 FFF7FEFF 		bl	uart_transmit
 13489              	.LVL1204:
 13490              	.LBE1619:
 13491              	.LBB1620:
 13492 4fba 7178     		ldrb	r1, [r6, #1]	@ zero_extendqisi2
 13493              	.LVL1205:
 13494 4fbc 2B78     		ldrb	r3, [r5, #0]	@ zero_extendqisi2
 13495 4fbe 2278     		ldrb	r2, [r4, #0]	@ zero_extendqisi2
 13496 4fc0 CB18     		adds	r3, r1, r3
 13497 4fc2 DBB2     		uxtb	r3, r3
 13498 4fc4 2B70     		strb	r3, [r5, #0]
 13499 4fc6 9B18     		adds	r3, r3, r2
 13500 4fc8 2370     		strb	r3, [r4, #0]
 13501 4fca 6648     		ldr	r0, .L401+20
 13502 4fcc FFF7FEFF 		bl	uart_transmit
 13503              	.LVL1206:
 13504              	.LBE1620:
 13505              	.LBB1621:
 13506 4fd0 B178     		ldrb	r1, [r6, #2]	@ zero_extendqisi2
 13507              	.LVL1207:
 13508 4fd2 2B78     		ldrb	r3, [r5, #0]	@ zero_extendqisi2
 13509 4fd4 2278     		ldrb	r2, [r4, #0]	@ zero_extendqisi2
 13510 4fd6 CB18     		adds	r3, r1, r3
 13511 4fd8 DBB2     		uxtb	r3, r3
 13512 4fda 2B70     		strb	r3, [r5, #0]
 13513 4fdc 9B18     		adds	r3, r3, r2
 13514 4fde 2370     		strb	r3, [r4, #0]
 13515 4fe0 6048     		ldr	r0, .L401+20
 13516 4fe2 FFF7FEFF 		bl	uart_transmit
 13517              	.LVL1208:
 13518              	.LBE1621:
 13519              	.LBB1622:
 13520 4fe6 F178     		ldrb	r1, [r6, #3]	@ zero_extendqisi2
 13521              	.LVL1209:
 13522 4fe8 2B78     		ldrb	r3, [r5, #0]	@ zero_extendqisi2
 13523 4fea 2278     		ldrb	r2, [r4, #0]	@ zero_extendqisi2
 13524 4fec CB18     		adds	r3, r1, r3
 13525 4fee DBB2     		uxtb	r3, r3
 13526              	.LBE1622:
 13527              	.LBB1623:
 13528 4ff0 644E     		ldr	r6, .L401+52
 13529              	.LBE1623:
 13530              	.LBB1624:
 13531 4ff2 2B70     		strb	r3, [r5, #0]
 13532 4ff4 9B18     		adds	r3, r3, r2
 13533 4ff6 2370     		strb	r3, [r4, #0]
 13534 4ff8 5A48     		ldr	r0, .L401+20
 13535 4ffa FFF7FEFF 		bl	uart_transmit
 13536              	.LVL1210:
 13537              	.LBE1624:
 13538              	.LBB1625:
 13539 4ffe 3178     		ldrb	r1, [r6, #0]	@ zero_extendqisi2
 13540              	.LVL1211:
 13541 5000 2B78     		ldrb	r3, [r5, #0]	@ zero_extendqisi2
 13542 5002 2278     		ldrb	r2, [r4, #0]	@ zero_extendqisi2
 13543 5004 CB18     		adds	r3, r1, r3
 13544 5006 DBB2     		uxtb	r3, r3
 13545 5008 2B70     		strb	r3, [r5, #0]
 13546 500a 9B18     		adds	r3, r3, r2
 13547 500c 2370     		strb	r3, [r4, #0]
 13548 500e 5548     		ldr	r0, .L401+20
 13549 5010 FFF7FEFF 		bl	uart_transmit
 13550              	.LVL1212:
 13551              	.LBE1625:
 13552              	.LBB1626:
 13553 5014 7178     		ldrb	r1, [r6, #1]	@ zero_extendqisi2
 13554              	.LVL1213:
 13555 5016 2B78     		ldrb	r3, [r5, #0]	@ zero_extendqisi2
 13556 5018 2278     		ldrb	r2, [r4, #0]	@ zero_extendqisi2
 13557 501a CB18     		adds	r3, r1, r3
 13558 501c DBB2     		uxtb	r3, r3
 13559 501e 2B70     		strb	r3, [r5, #0]
 13560 5020 9B18     		adds	r3, r3, r2
 13561 5022 2370     		strb	r3, [r4, #0]
 13562 5024 4F48     		ldr	r0, .L401+20
 13563 5026 FFF7FEFF 		bl	uart_transmit
 13564              	.LVL1214:
 13565              	.LBE1626:
 13566              	.LBB1627:
 13567 502a B178     		ldrb	r1, [r6, #2]	@ zero_extendqisi2
 13568              	.LVL1215:
 13569 502c 2B78     		ldrb	r3, [r5, #0]	@ zero_extendqisi2
 13570 502e 2278     		ldrb	r2, [r4, #0]	@ zero_extendqisi2
 13571 5030 CB18     		adds	r3, r1, r3
 13572 5032 DBB2     		uxtb	r3, r3
 13573 5034 2B70     		strb	r3, [r5, #0]
 13574 5036 9B18     		adds	r3, r3, r2
 13575 5038 2370     		strb	r3, [r4, #0]
 13576 503a 4A48     		ldr	r0, .L401+20
 13577 503c FFF7FEFF 		bl	uart_transmit
 13578              	.LVL1216:
 13579              	.LBE1627:
 13580              	.LBB1628:
 13581 5040 F178     		ldrb	r1, [r6, #3]	@ zero_extendqisi2
 13582              	.LVL1217:
 13583 5042 2B78     		ldrb	r3, [r5, #0]	@ zero_extendqisi2
 13584 5044 2278     		ldrb	r2, [r4, #0]	@ zero_extendqisi2
 13585 5046 CB18     		adds	r3, r1, r3
 13586 5048 DBB2     		uxtb	r3, r3
 13587              	.LBE1628:
 13588              	.LBB1629:
 13589 504a 4F4E     		ldr	r6, .L401+56
 13590              	.LBE1629:
 13591              	.LBB1630:
 13592 504c 2B70     		strb	r3, [r5, #0]
 13593 504e 9B18     		adds	r3, r3, r2
 13594 5050 2370     		strb	r3, [r4, #0]
 13595 5052 4448     		ldr	r0, .L401+20
 13596 5054 FFF7FEFF 		bl	uart_transmit
 13597              	.LVL1218:
 13598              	.LBE1630:
 13599              	.LBB1631:
 13600 5058 3178     		ldrb	r1, [r6, #0]	@ zero_extendqisi2
 13601              	.LVL1219:
 13602 505a 2B78     		ldrb	r3, [r5, #0]	@ zero_extendqisi2
 13603 505c 2278     		ldrb	r2, [r4, #0]	@ zero_extendqisi2
 13604 505e CB18     		adds	r3, r1, r3
 13605 5060 DBB2     		uxtb	r3, r3
 13606 5062 2B70     		strb	r3, [r5, #0]
 13607 5064 9B18     		adds	r3, r3, r2
 13608 5066 2370     		strb	r3, [r4, #0]
 13609 5068 3E48     		ldr	r0, .L401+20
 13610 506a FFF7FEFF 		bl	uart_transmit
 13611              	.LVL1220:
 13612              	.LBE1631:
 13613              	.LBB1632:
 13614 506e 7178     		ldrb	r1, [r6, #1]	@ zero_extendqisi2
 13615              	.LVL1221:
 13616 5070 2B78     		ldrb	r3, [r5, #0]	@ zero_extendqisi2
 13617 5072 2278     		ldrb	r2, [r4, #0]	@ zero_extendqisi2
 13618 5074 CB18     		adds	r3, r1, r3
 13619 5076 DBB2     		uxtb	r3, r3
 13620 5078 2B70     		strb	r3, [r5, #0]
 13621 507a 9B18     		adds	r3, r3, r2
 13622 507c 2370     		strb	r3, [r4, #0]
 13623 507e 3948     		ldr	r0, .L401+20
 13624 5080 FFF7FEFF 		bl	uart_transmit
 13625              	.LVL1222:
 13626              	.LBE1632:
 13627              	.LBB1633:
 13628 5084 B178     		ldrb	r1, [r6, #2]	@ zero_extendqisi2
 13629              	.LVL1223:
 13630 5086 2B78     		ldrb	r3, [r5, #0]	@ zero_extendqisi2
 13631 5088 2278     		ldrb	r2, [r4, #0]	@ zero_extendqisi2
 13632 508a CB18     		adds	r3, r1, r3
 13633 508c DBB2     		uxtb	r3, r3
 13634 508e 2B70     		strb	r3, [r5, #0]
 13635 5090 9B18     		adds	r3, r3, r2
 13636 5092 2370     		strb	r3, [r4, #0]
 13637 5094 3348     		ldr	r0, .L401+20
 13638 5096 FFF7FEFF 		bl	uart_transmit
 13639              	.LVL1224:
 13640              	.LBE1633:
 13641              	.LBB1634:
 13642 509a F178     		ldrb	r1, [r6, #3]	@ zero_extendqisi2
 13643              	.LVL1225:
 13644 509c 2B78     		ldrb	r3, [r5, #0]	@ zero_extendqisi2
 13645 509e 2278     		ldrb	r2, [r4, #0]	@ zero_extendqisi2
 13646 50a0 CB18     		adds	r3, r1, r3
 13647 50a2 DBB2     		uxtb	r3, r3
 13648              	.LBE1634:
 13649              	.LBB1635:
 13650 50a4 394E     		ldr	r6, .L401+60
 13651              	.LBE1635:
 13652              	.LBB1636:
 13653 50a6 2B70     		strb	r3, [r5, #0]
 13654 50a8 9B18     		adds	r3, r3, r2
 13655 50aa 2370     		strb	r3, [r4, #0]
 13656 50ac 2D48     		ldr	r0, .L401+20
 13657 50ae FFF7FEFF 		bl	uart_transmit
 13658              	.LVL1226:
 13659              	.LBE1636:
 13660              	.LBB1637:
 13661 50b2 3178     		ldrb	r1, [r6, #0]	@ zero_extendqisi2
 13662              	.LVL1227:
 13663 50b4 2B78     		ldrb	r3, [r5, #0]	@ zero_extendqisi2
 13664 50b6 2278     		ldrb	r2, [r4, #0]	@ zero_extendqisi2
 13665 50b8 CB18     		adds	r3, r1, r3
 13666 50ba DBB2     		uxtb	r3, r3
 13667 50bc 2B70     		strb	r3, [r5, #0]
 13668 50be 9B18     		adds	r3, r3, r2
 13669 50c0 2370     		strb	r3, [r4, #0]
 13670 50c2 2848     		ldr	r0, .L401+20
 13671 50c4 FFF7FEFF 		bl	uart_transmit
 13672              	.LVL1228:
 13673              	.LBE1637:
 13674              	.LBB1638:
 13675 50c8 7178     		ldrb	r1, [r6, #1]	@ zero_extendqisi2
 13676              	.LVL1229:
 13677 50ca 2B78     		ldrb	r3, [r5, #0]	@ zero_extendqisi2
 13678 50cc 2278     		ldrb	r2, [r4, #0]	@ zero_extendqisi2
 13679 50ce CB18     		adds	r3, r1, r3
 13680 50d0 DBB2     		uxtb	r3, r3
 13681 50d2 2B70     		strb	r3, [r5, #0]
 13682 50d4 9B18     		adds	r3, r3, r2
 13683 50d6 2370     		strb	r3, [r4, #0]
 13684 50d8 2248     		ldr	r0, .L401+20
 13685 50da FFF7FEFF 		bl	uart_transmit
 13686              	.LVL1230:
 13687              	.LBE1638:
 13688              	.LBB1639:
 13689 50de B178     		ldrb	r1, [r6, #2]	@ zero_extendqisi2
 13690              	.LVL1231:
 13691 50e0 2B78     		ldrb	r3, [r5, #0]	@ zero_extendqisi2
 13692 50e2 2278     		ldrb	r2, [r4, #0]	@ zero_extendqisi2
 13693 50e4 CB18     		adds	r3, r1, r3
 13694 50e6 DBB2     		uxtb	r3, r3
 13695 50e8 2B70     		strb	r3, [r5, #0]
 13696 50ea 9B18     		adds	r3, r3, r2
 13697 50ec 2370     		strb	r3, [r4, #0]
 13698 50ee 1D48     		ldr	r0, .L401+20
 13699 50f0 FFF7FEFF 		bl	uart_transmit
 13700              	.LVL1232:
 13701              	.LBE1639:
 13702              	.LBB1640:
 13703 50f4 F178     		ldrb	r1, [r6, #3]	@ zero_extendqisi2
 13704              	.LVL1233:
 13705 50f6 2B78     		ldrb	r3, [r5, #0]	@ zero_extendqisi2
 13706 50f8 2278     		ldrb	r2, [r4, #0]	@ zero_extendqisi2
 13707 50fa CB18     		adds	r3, r1, r3
 13708 50fc DBB2     		uxtb	r3, r3
 13709 50fe 2B70     		strb	r3, [r5, #0]
 13710 5100 9B18     		adds	r3, r3, r2
 13711 5102 2370     		strb	r3, [r4, #0]
 13712 5104 1748     		ldr	r0, .L401+20
 13713 5106 FFF7FEFF 		bl	uart_transmit
 13714              	.LVL1234:
 13715              	.LBE1640:
 13716              	.LBB1641:
 13717 510a 2B78     		ldrb	r3, [r5, #0]	@ zero_extendqisi2
 13718 510c 2278     		ldrb	r2, [r4, #0]	@ zero_extendqisi2
 13719 510e FB18     		adds	r3, r7, r3
 13720 5110 DBB2     		uxtb	r3, r3
 13721 5112 2B70     		strb	r3, [r5, #0]
 13722 5114 9B18     		adds	r3, r3, r2
 13723 5116 2370     		strb	r3, [r4, #0]
 13724 5118 3946     		mov	r1, r7
 13725 511a 1248     		ldr	r0, .L401+20
 13726 511c FFF7FEFF 		bl	uart_transmit
 13727              	.LBE1641:
 13728              	.LBB1642:
 13729 5120 1B4B     		ldr	r3, .L401+64
 13730 5122 2278     		ldrb	r2, [r4, #0]	@ zero_extendqisi2
 13731 5124 1978     		ldrb	r1, [r3, #0]	@ zero_extendqisi2
 13732              	.LVL1235:
 13733 5126 2B78     		ldrb	r3, [r5, #0]	@ zero_extendqisi2
 13734 5128 0E48     		ldr	r0, .L401+20
 13735 512a CB18     		adds	r3, r1, r3
 13736 512c DBB2     		uxtb	r3, r3
 13737 512e 2B70     		strb	r3, [r5, #0]
 13738 5130 9B18     		adds	r3, r3, r2
 13739 5132 2370     		strb	r3, [r4, #0]
 13740 5134 FFF7FEFF 		bl	uart_transmit
 13741              	.LVL1236:
 13742              	.LBE1642:
 13743 5138 2978     		ldrb	r1, [r5, #0]	@ zero_extendqisi2
 13744 513a 0A48     		ldr	r0, .L401+20
 13745 513c FFF7FEFF 		bl	uart_transmit
 13746 5140 0848     		ldr	r0, .L401+20
 13747 5142 2178     		ldrb	r1, [r4, #0]	@ zero_extendqisi2
 13748 5144 FFF7FEFF 		bl	uart_transmit
 13749 5148 28E0     		b	.L276
 13750              	.L402:
 13751 514a 00BFAFF3 		.align	3
 13751      0080
 13752              	.L401:
 13753 5150 182D4454 		.word	1413754136
 13754 5154 FB211940 		.word	1075388923
 13755 5158 00000000 		.word	downlink_nb_ovrn
 13756 515c 00000000 		.word	.LANCHOR63
 13757 5160 00000000 		.word	nav_circle_radians
 13758 5164 00000000 		.word	uart2
 13759 5168 00000000 		.word	downlink_nb_bytes
 13760 516c 00000000 		.word	downlink_nb_msgs
 13761 5170 00000000 		.word	ck_a
 13762 5174 00000000 		.word	ck_b
 13763 5178 00000000 		.word	nav_block
 13764 517c 00000000 		.word	nav_stage
 13765 5180 00000000 		.word	estimator_x
 13766 5184 00000000 		.word	estimator_y
 13767 5188 00000000 		.word	dist2_to_wp
 13768 518c 00000000 		.word	dist2_to_home
 13769 5190 00000000 		.word	nav_oval_count
 13770              	.L277:
 13771 5194 8A4B     		ldr	r3, .L403+8
 13772 5196 1A78     		ldrb	r2, [r3, #0]	@ zero_extendqisi2
 13773 5198 0132     		adds	r2, r2, #1
 13774 519a 1A70     		strb	r2, [r3, #0]
 13775              	.L276:
 13776              	.LBE1610:
 13777 519c 894B     		ldr	r3, .L403+12
 13778 519e 1B88     		ldrh	r3, [r3, #0]
 13779 51a0 182B     		cmp	r3, #24
 13780 51a2 7FD1     		bne	.L278
 13781 51a4 8848     		ldr	r0, .L403+16
 13782 51a6 0C21     		movs	r1, #12
 13783 51a8 FFF7FEFF 		bl	uart_check_free_space
 13784 51ac 0028     		cmp	r0, #0
 13785 51ae 75D0     		beq	.L279
 13786 51b0 864B     		ldr	r3, .L403+20
 13787              	.LBB1643:
 13788 51b2 8548     		ldr	r0, .L403+16
 13789              	.LBE1643:
 13790 51b4 1A88     		ldrh	r2, [r3, #0]
 13791              	.LBB1644:
 13792 51b6 9921     		movs	r1, #153
 13793              	.LBE1644:
 13794 51b8 0C32     		adds	r2, r2, #12
 13795 51ba 1A80     		strh	r2, [r3, #0]	@ movhi
 13796 51bc 844B     		ldr	r3, .L403+24
 13797              	.LBB1645:
 13798 51be 854D     		ldr	r5, .L403+28
 13799              	.LBE1645:
 13800 51c0 1A88     		ldrh	r2, [r3, #0]
 13801              	.LBB1646:
 13802 51c2 854C     		ldr	r4, .L403+32
 13803              	.LBE1646:
 13804 51c4 0132     		adds	r2, r2, #1
 13805 51c6 1A80     		strh	r2, [r3, #0]	@ movhi
 13806              	.LBB1647:
 13807 51c8 FFF7FEFF 		bl	uart_transmit
 13808 51cc 7E48     		ldr	r0, .L403+16
 13809 51ce 0C21     		movs	r1, #12
 13810 51d0 FFF7FEFF 		bl	uart_transmit
 13811              	.LBE1647:
 13812 51d4 0D23     		movs	r3, #13
 13813 51d6 2B70     		strb	r3, [r5, #0]
 13814 51d8 0C33     		adds	r3, r3, #12
 13815 51da 2370     		strb	r3, [r4, #0]
 13816 51dc 7A48     		ldr	r0, .L403+16
 13817 51de 0121     		movs	r1, #1
 13818 51e0 FFF7FEFF 		bl	uart_transmit
 13819 51e4 2B78     		ldrb	r3, [r5, #0]	@ zero_extendqisi2
 13820 51e6 2278     		ldrb	r2, [r4, #0]	@ zero_extendqisi2
 13821 51e8 0B33     		adds	r3, r3, #11
 13822 51ea DBB2     		uxtb	r3, r3
 13823 51ec 2B70     		strb	r3, [r5, #0]
 13824 51ee 9B18     		adds	r3, r3, r2
 13825 51f0 2370     		strb	r3, [r4, #0]
 13826 51f2 7548     		ldr	r0, .L403+16
 13827 51f4 0B21     		movs	r1, #11
 13828 51f6 FFF7FEFF 		bl	uart_transmit
 13829              	.LBB1648:
 13830 51fa 784B     		ldr	r3, .L403+36
 13831 51fc 2278     		ldrb	r2, [r4, #0]	@ zero_extendqisi2
 13832 51fe 1978     		ldrb	r1, [r3, #0]	@ zero_extendqisi2
 13833              	.LVL1237:
 13834 5200 2B78     		ldrb	r3, [r5, #0]	@ zero_extendqisi2
 13835 5202 7148     		ldr	r0, .L403+16
 13836 5204 CB18     		adds	r3, r1, r3
 13837 5206 DBB2     		uxtb	r3, r3
 13838 5208 2B70     		strb	r3, [r5, #0]
 13839 520a 9B18     		adds	r3, r3, r2
 13840 520c 2370     		strb	r3, [r4, #0]
 13841 520e FFF7FEFF 		bl	uart_transmit
 13842              	.LVL1238:
 13843              	.LBE1648:
 13844              	.LBB1649:
 13845 5212 734B     		ldr	r3, .L403+40
 13846 5214 2278     		ldrb	r2, [r4, #0]	@ zero_extendqisi2
 13847 5216 1978     		ldrb	r1, [r3, #0]	@ zero_extendqisi2
 13848              	.LVL1239:
 13849 5218 2B78     		ldrb	r3, [r5, #0]	@ zero_extendqisi2
 13850 521a 6B48     		ldr	r0, .L403+16
 13851 521c CB18     		adds	r3, r1, r3
 13852 521e DBB2     		uxtb	r3, r3
 13853 5220 2B70     		strb	r3, [r5, #0]
 13854 5222 9B18     		adds	r3, r3, r2
 13855 5224 2370     		strb	r3, [r4, #0]
 13856 5226 FFF7FEFF 		bl	uart_transmit
 13857              	.LVL1240:
 13858              	.LBE1649:
 13859              	.LBB1650:
 13860 522a 6E4B     		ldr	r3, .L403+44
 13861 522c 2278     		ldrb	r2, [r4, #0]	@ zero_extendqisi2
 13862 522e 1978     		ldrb	r1, [r3, #0]	@ zero_extendqisi2
 13863              	.LVL1241:
 13864 5230 2B78     		ldrb	r3, [r5, #0]	@ zero_extendqisi2
 13865 5232 6548     		ldr	r0, .L403+16
 13866 5234 CB18     		adds	r3, r1, r3
 13867 5236 DBB2     		uxtb	r3, r3
 13868 5238 2B70     		strb	r3, [r5, #0]
 13869 523a 9B18     		adds	r3, r3, r2
 13870 523c 2370     		strb	r3, [r4, #0]
 13871 523e FFF7FEFF 		bl	uart_transmit
 13872              	.LVL1242:
 13873              	.LBE1650:
 13874              	.LBB1651:
 13875 5242 694B     		ldr	r3, .L403+48
 13876 5244 2278     		ldrb	r2, [r4, #0]	@ zero_extendqisi2
 13877 5246 1978     		ldrb	r1, [r3, #0]	@ zero_extendqisi2
 13878              	.LVL1243:
 13879 5248 2B78     		ldrb	r3, [r5, #0]	@ zero_extendqisi2
 13880 524a 5F48     		ldr	r0, .L403+16
 13881 524c CB18     		adds	r3, r1, r3
 13882 524e DBB2     		uxtb	r3, r3
 13883 5250 2B70     		strb	r3, [r5, #0]
 13884 5252 9B18     		adds	r3, r3, r2
 13885 5254 2370     		strb	r3, [r4, #0]
 13886 5256 FFF7FEFF 		bl	uart_transmit
 13887              	.LVL1244:
 13888              	.LBE1651:
 13889              	.LBB1652:
 13890 525a 644B     		ldr	r3, .L403+52
 13891 525c 2278     		ldrb	r2, [r4, #0]	@ zero_extendqisi2
 13892 525e 1978     		ldrb	r1, [r3, #0]	@ zero_extendqisi2
 13893              	.LVL1245:
 13894 5260 2B78     		ldrb	r3, [r5, #0]	@ zero_extendqisi2
 13895 5262 5948     		ldr	r0, .L403+16
 13896 5264 CB18     		adds	r3, r1, r3
 13897 5266 DBB2     		uxtb	r3, r3
 13898 5268 2B70     		strb	r3, [r5, #0]
 13899 526a 9B18     		adds	r3, r3, r2
 13900 526c 2370     		strb	r3, [r4, #0]
 13901 526e FFF7FEFF 		bl	uart_transmit
 13902              	.LVL1246:
 13903              	.LBE1652:
 13904              	.LBB1653:
 13905 5272 5F4B     		ldr	r3, .L403+56
 13906 5274 2278     		ldrb	r2, [r4, #0]	@ zero_extendqisi2
 13907 5276 1978     		ldrb	r1, [r3, #0]	@ zero_extendqisi2
 13908              	.LVL1247:
 13909 5278 2B78     		ldrb	r3, [r5, #0]	@ zero_extendqisi2
 13910 527a 5348     		ldr	r0, .L403+16
 13911 527c CB18     		adds	r3, r1, r3
 13912 527e DBB2     		uxtb	r3, r3
 13913 5280 2B70     		strb	r3, [r5, #0]
 13914 5282 9B18     		adds	r3, r3, r2
 13915 5284 2370     		strb	r3, [r4, #0]
 13916 5286 FFF7FEFF 		bl	uart_transmit
 13917              	.LVL1248:
 13918              	.LBE1653:
 13919 528a 2978     		ldrb	r1, [r5, #0]	@ zero_extendqisi2
 13920 528c 4E48     		ldr	r0, .L403+16
 13921 528e FFF7FEFF 		bl	uart_transmit
 13922 5292 4D48     		ldr	r0, .L403+16
 13923 5294 2178     		ldrb	r1, [r4, #0]	@ zero_extendqisi2
 13924 5296 FFF7FEFF 		bl	uart_transmit
 13925 529a 03E0     		b	.L278
 13926              	.L279:
 13927 529c 484B     		ldr	r3, .L403+8
 13928 529e 1A78     		ldrb	r2, [r3, #0]	@ zero_extendqisi2
 13929 52a0 0132     		adds	r2, r2, #1
 13930 52a2 1A70     		strb	r2, [r3, #0]
 13931              	.L278:
 13932 52a4 534B     		ldr	r3, .L403+60
 13933 52a6 1D88     		ldrh	r5, [r3, #0]
 13934 52a8 1E2D     		cmp	r5, #30
 13935 52aa 40F0AA80 		bne	.L280
 13936              	.LBB1654:
 13937 52ae 524E     		ldr	r6, .L403+64
 13938 52b0 464C     		ldr	r4, .L403+20
 13939 52b2 3088     		ldrh	r0, [r6, #0]
 13940 52b4 2788     		ldrh	r7, [r4, #0]
 13941 52b6 381A     		subs	r0, r7, r0
 13942 52b8 FFF7FEFF 		bl	__aeabi_i2d
 13943 52bc 3EA3     		adr	r3, .L403
 13944 52be D3E90023 		ldrd	r2, [r3]
 13945 52c2 FFF7FEFF 		bl	__aeabi_ddiv
 13946 52c6 FFF7FEFF 		bl	__aeabi_d2uiz
 13947 52ca 3780     		strh	r7, [r6, #0]	@ movhi
 13948 52cc ADF80E00 		strh	r0, [sp, #14]	@ movhi
 13949              	.LVL1249:
 13950 52d0 0B21     		movs	r1, #11
 13951 52d2 3D48     		ldr	r0, .L403+16
 13952 52d4 FFF7FEFF 		bl	uart_check_free_space
 13953 52d8 394F     		ldr	r7, .L403+8
 13954 52da 0028     		cmp	r0, #0
 13955 52dc 00F08E80 		beq	.L281
 13956 52e0 2388     		ldrh	r3, [r4, #0]
 13957 52e2 DFF8EC80 		ldr	r8, .L403+24
 13958 52e6 0B33     		adds	r3, r3, #11
 13959 52e8 2380     		strh	r3, [r4, #0]	@ movhi
 13960 52ea B8F80030 		ldrh	r3, [r8, #0]
 13961              	.LBB1655:
 13962 52ee 9921     		movs	r1, #153
 13963              	.LBE1655:
 13964 52f0 0133     		adds	r3, r3, #1
 13965 52f2 A8F80030 		strh	r3, [r8, #0]	@ movhi
 13966              	.LBB1656:
 13967 52f6 3448     		ldr	r0, .L403+16
 13968 52f8 364E     		ldr	r6, .L403+28
 13969 52fa FFF7FEFF 		bl	uart_transmit
 13970 52fe 0B21     		movs	r1, #11
 13971 5300 3148     		ldr	r0, .L403+16
 13972 5302 354C     		ldr	r4, .L403+32
 13973 5304 FFF7FEFF 		bl	uart_transmit
 13974              	.LBE1656:
 13975 5308 0C23     		movs	r3, #12
 13976 530a 3370     		strb	r3, [r6, #0]
 13977 530c 0B33     		adds	r3, r3, #11
 13978 530e 2370     		strb	r3, [r4, #0]
 13979 5310 0121     		movs	r1, #1
 13980 5312 2D48     		ldr	r0, .L403+16
 13981 5314 FFF7FEFF 		bl	uart_transmit
 13982 5318 3378     		ldrb	r3, [r6, #0]	@ zero_extendqisi2
 13983 531a 2278     		ldrb	r2, [r4, #0]	@ zero_extendqisi2
 13984 531c 1E33     		adds	r3, r3, #30
 13985 531e DBB2     		uxtb	r3, r3
 13986 5320 3370     		strb	r3, [r6, #0]
 13987 5322 9B18     		adds	r3, r3, r2
 13988 5324 2370     		strb	r3, [r4, #0]
 13989 5326 2946     		mov	r1, r5
 13990 5328 2748     		ldr	r0, .L403+16
 13991 532a FFF7FEFF 		bl	uart_transmit
 13992              	.LBB1657:
 13993 532e 3978     		ldrb	r1, [r7, #0]	@ zero_extendqisi2
 13994              	.LVL1250:
 13995 5330 3378     		ldrb	r3, [r6, #0]	@ zero_extendqisi2
 13996 5332 2278     		ldrb	r2, [r4, #0]	@ zero_extendqisi2
 13997 5334 CB18     		adds	r3, r1, r3
 13998 5336 DBB2     		uxtb	r3, r3
 13999 5338 3370     		strb	r3, [r6, #0]
 14000 533a 9B18     		adds	r3, r3, r2
 14001 533c 2370     		strb	r3, [r4, #0]
 14002 533e 2248     		ldr	r0, .L403+16
 14003 5340 FFF7FEFF 		bl	uart_transmit
 14004              	.LVL1251:
 14005              	.LBE1657:
 14006              	.LBB1658:
 14007 5344 9DF80E10 		ldrb	r1, [sp, #14]	@ zero_extendqisi2
 14008              	.LVL1252:
 14009 5348 3378     		ldrb	r3, [r6, #0]	@ zero_extendqisi2
 14010 534a 2278     		ldrb	r2, [r4, #0]	@ zero_extendqisi2
 14011 534c CB18     		adds	r3, r1, r3
 14012 534e DBB2     		uxtb	r3, r3
 14013 5350 3370     		strb	r3, [r6, #0]
 14014 5352 9B18     		adds	r3, r3, r2
 14015 5354 2370     		strb	r3, [r4, #0]
 14016 5356 1C48     		ldr	r0, .L403+16
 14017 5358 FFF7FEFF 		bl	uart_transmit
 14018              	.LVL1253:
 14019              	.LBE1658:
 14020              	.LBB1659:
 14021 535c 0DF10E03 		add	r3, sp, #14
 14022 5360 5978     		ldrb	r1, [r3, #1]	@ zero_extendqisi2
 14023              	.LVL1254:
 14024 5362 3378     		ldrb	r3, [r6, #0]	@ zero_extendqisi2
 14025 5364 2278     		ldrb	r2, [r4, #0]	@ zero_extendqisi2
 14026 5366 CB18     		adds	r3, r1, r3
 14027 5368 DBB2     		uxtb	r3, r3
 14028 536a 3370     		strb	r3, [r6, #0]
 14029 536c 9B18     		adds	r3, r3, r2
 14030 536e 2370     		strb	r3, [r4, #0]
 14031 5370 1548     		ldr	r0, .L403+16
 14032 5372 FFF7FEFF 		bl	uart_transmit
 14033              	.LVL1255:
 14034              	.LBE1659:
 14035              	.LBB1660:
 14036 5376 98F80010 		ldrb	r1, [r8, #0]	@ zero_extendqisi2
 14037              	.LVL1256:
 14038 537a 3378     		ldrb	r3, [r6, #0]	@ zero_extendqisi2
 14039 537c 2278     		ldrb	r2, [r4, #0]	@ zero_extendqisi2
 14040 537e CB18     		adds	r3, r1, r3
 14041 5380 DBB2     		uxtb	r3, r3
 14042 5382 3370     		strb	r3, [r6, #0]
 14043 5384 9B18     		adds	r3, r3, r2
 14044 5386 2370     		strb	r3, [r4, #0]
 14045 5388 0F48     		ldr	r0, .L403+16
 14046 538a FFF7FEFF 		bl	uart_transmit
 14047              	.LVL1257:
 14048              	.LBE1660:
 14049              	.LBB1661:
 14050 538e 98F80110 		ldrb	r1, [r8, #1]	@ zero_extendqisi2
 14051              	.LVL1258:
 14052 5392 3378     		ldrb	r3, [r6, #0]	@ zero_extendqisi2
 14053 5394 2278     		ldrb	r2, [r4, #0]	@ zero_extendqisi2
 14054 5396 CB18     		adds	r3, r1, r3
 14055 5398 DBB2     		uxtb	r3, r3
 14056 539a 3370     		strb	r3, [r6, #0]
 14057 539c 9B18     		adds	r3, r3, r2
 14058 539e 2370     		strb	r3, [r4, #0]
 14059 53a0 0948     		ldr	r0, .L403+16
 14060 53a2 FFF7FEFF 		bl	uart_transmit
 14061              	.LVL1259:
 14062              	.LBE1661:
 14063 53a6 3178     		ldrb	r1, [r6, #0]	@ zero_extendqisi2
 14064 53a8 0748     		ldr	r0, .L403+16
 14065 53aa FFF7FEFF 		bl	uart_transmit
 14066 53ae 0648     		ldr	r0, .L403+16
 14067 53b0 2178     		ldrb	r1, [r4, #0]	@ zero_extendqisi2
 14068 53b2 FFF7FEFF 		bl	uart_transmit
 14069 53b6 24E0     		b	.L280
 14070              	.L404:
 14071              		.align	3
 14072              	.L403:
 14073 53b8 66666666 		.word	1717986918
 14074 53bc 66661440 		.word	1075078758
 14075 53c0 00000000 		.word	downlink_nb_ovrn
 14076 53c4 00000000 		.word	.LANCHOR64
 14077 53c8 00000000 		.word	uart2
 14078 53cc 00000000 		.word	downlink_nb_bytes
 14079 53d0 00000000 		.word	downlink_nb_msgs
 14080 53d4 00000000 		.word	ck_a
 14081 53d8 00000000 		.word	ck_b
 14082 53dc 00000000 		.word	.LANCHOR4
 14083 53e0 00000000 		.word	v_ctl_mode
 14084 53e4 00000000 		.word	.LANCHOR7
 14085 53e8 00000000 		.word	horizontal_mode
 14086 53ec 00000000 		.word	.LANCHOR8
 14087 53f0 00000000 		.word	.LANCHOR6
 14088 53f4 00000000 		.word	.LANCHOR65
 14089 53f8 00000000 		.word	.LANCHOR70
 14090              	.L281:
 14091 53fc 3B78     		ldrb	r3, [r7, #0]	@ zero_extendqisi2
 14092 53fe 0133     		adds	r3, r3, #1
 14093 5400 3B70     		strb	r3, [r7, #0]
 14094              	.L280:
 14095              	.LBE1654:
 14096 5402 764B     		ldr	r3, .L405
 14097 5404 1B88     		ldrh	r3, [r3, #0]
 14098 5406 2A2B     		cmp	r3, #42
 14099 5408 40F00881 		bne	.L282
 14100              	.LBB1662:
 14101 540c 744B     		ldr	r3, .L405+4
 14102 540e 1A68     		ldr	r2, [r3, #0]
 14103 5410 0A23     		movs	r3, #10
 14104 5412 92FBF3F3 		sdiv	r3, r2, r3
 14105 5416 ADF80E30 		strh	r3, [sp, #14]	@ movhi
 14106              	.LVL1260:
 14107              	.LBB1663:
 14108 541a 724B     		ldr	r3, .L405+8
 14109 541c 1868     		ldr	r0, [r3, #0]	@ float
 14110 541e FFF7FEFF 		bl	__aeabi_f2iz
 14111 5422 1421     		movs	r1, #20
 14112 5424 ADF80C00 		strh	r0, [sp, #12]	@ movhi
 14113              	.LVL1261:
 14114 5428 6F48     		ldr	r0, .L405+12
 14115 542a FFF7FEFF 		bl	uart_check_free_space
 14116 542e 0028     		cmp	r0, #0
 14117 5430 00F0F080 		beq	.L283
 14118 5434 6D4B     		ldr	r3, .L405+16
 14119              	.LBB1664:
 14120 5436 9921     		movs	r1, #153
 14121              	.LBE1664:
 14122 5438 1A88     		ldrh	r2, [r3, #0]
 14123              	.LBB1665:
 14124 543a 6B48     		ldr	r0, .L405+12
 14125              	.LBE1665:
 14126 543c 1432     		adds	r2, r2, #20
 14127 543e 1A80     		strh	r2, [r3, #0]	@ movhi
 14128 5440 6B4B     		ldr	r3, .L405+20
 14129              	.LBB1666:
 14130 5442 6C4D     		ldr	r5, .L405+24
 14131              	.LBE1666:
 14132 5444 1A88     		ldrh	r2, [r3, #0]
 14133              	.LBB1667:
 14134 5446 6C4C     		ldr	r4, .L405+28
 14135              	.LBE1667:
 14136 5448 0132     		adds	r2, r2, #1
 14137 544a 1A80     		strh	r2, [r3, #0]	@ movhi
 14138              	.LBB1668:
 14139 544c FFF7FEFF 		bl	uart_transmit
 14140 5450 1421     		movs	r1, #20
 14141 5452 6548     		ldr	r0, .L405+12
 14142 5454 FFF7FEFF 		bl	uart_transmit
 14143              	.LBE1668:
 14144 5458 1523     		movs	r3, #21
 14145 545a 2B70     		strb	r3, [r5, #0]
 14146 545c 1433     		adds	r3, r3, #20
 14147 545e 2370     		strb	r3, [r4, #0]
 14148 5460 0121     		movs	r1, #1
 14149 5462 6148     		ldr	r0, .L405+12
 14150 5464 FFF7FEFF 		bl	uart_transmit
 14151 5468 2B78     		ldrb	r3, [r5, #0]	@ zero_extendqisi2
 14152 546a 2278     		ldrb	r2, [r4, #0]	@ zero_extendqisi2
 14153 546c 0C33     		adds	r3, r3, #12
 14154 546e DBB2     		uxtb	r3, r3
 14155 5470 2B70     		strb	r3, [r5, #0]
 14156              	.LBB1669:
 14157 5472 624E     		ldr	r6, .L405+32
 14158              	.LBE1669:
 14159 5474 9B18     		adds	r3, r3, r2
 14160 5476 2370     		strb	r3, [r4, #0]
 14161 5478 0C21     		movs	r1, #12
 14162 547a 5B48     		ldr	r0, .L405+12
 14163 547c FFF7FEFF 		bl	uart_transmit
 14164              	.LBB1670:
 14165 5480 3178     		ldrb	r1, [r6, #0]	@ zero_extendqisi2
 14166              	.LVL1262:
 14167 5482 2B78     		ldrb	r3, [r5, #0]	@ zero_extendqisi2
 14168 5484 2278     		ldrb	r2, [r4, #0]	@ zero_extendqisi2
 14169 5486 CB18     		adds	r3, r1, r3
 14170 5488 DBB2     		uxtb	r3, r3
 14171 548a 2B70     		strb	r3, [r5, #0]
 14172 548c 9B18     		adds	r3, r3, r2
 14173 548e 2370     		strb	r3, [r4, #0]
 14174 5490 5548     		ldr	r0, .L405+12
 14175 5492 FFF7FEFF 		bl	uart_transmit
 14176              	.LVL1263:
 14177              	.LBE1670:
 14178              	.LBB1671:
 14179 5496 7178     		ldrb	r1, [r6, #1]	@ zero_extendqisi2
 14180              	.LVL1264:
 14181 5498 2B78     		ldrb	r3, [r5, #0]	@ zero_extendqisi2
 14182 549a 2278     		ldrb	r2, [r4, #0]	@ zero_extendqisi2
 14183 549c CB18     		adds	r3, r1, r3
 14184 549e DBB2     		uxtb	r3, r3
 14185 54a0 2B70     		strb	r3, [r5, #0]
 14186 54a2 9B18     		adds	r3, r3, r2
 14187 54a4 2370     		strb	r3, [r4, #0]
 14188 54a6 5048     		ldr	r0, .L405+12
 14189 54a8 FFF7FEFF 		bl	uart_transmit
 14190              	.LVL1265:
 14191              	.LBE1671:
 14192              	.LBB1672:
 14193 54ac 544B     		ldr	r3, .L405+36
 14194 54ae 2278     		ldrb	r2, [r4, #0]	@ zero_extendqisi2
 14195 54b0 1978     		ldrb	r1, [r3, #0]	@ zero_extendqisi2
 14196              	.LVL1266:
 14197 54b2 2B78     		ldrb	r3, [r5, #0]	@ zero_extendqisi2
 14198 54b4 4C48     		ldr	r0, .L405+12
 14199 54b6 CB18     		adds	r3, r1, r3
 14200 54b8 DBB2     		uxtb	r3, r3
 14201 54ba 2B70     		strb	r3, [r5, #0]
 14202 54bc 9B18     		adds	r3, r3, r2
 14203 54be 2370     		strb	r3, [r4, #0]
 14204 54c0 FFF7FEFF 		bl	uart_transmit
 14205              	.LVL1267:
 14206              	.LBE1672:
 14207              	.LBB1673:
 14208 54c4 9DF80E10 		ldrb	r1, [sp, #14]	@ zero_extendqisi2
 14209              	.LVL1268:
 14210 54c8 2B78     		ldrb	r3, [r5, #0]	@ zero_extendqisi2
 14211 54ca 2278     		ldrb	r2, [r4, #0]	@ zero_extendqisi2
 14212 54cc CB18     		adds	r3, r1, r3
 14213 54ce DBB2     		uxtb	r3, r3
 14214 54d0 2B70     		strb	r3, [r5, #0]
 14215 54d2 9B18     		adds	r3, r3, r2
 14216 54d4 2370     		strb	r3, [r4, #0]
 14217 54d6 4448     		ldr	r0, .L405+12
 14218 54d8 FFF7FEFF 		bl	uart_transmit
 14219              	.LVL1269:
 14220              	.LBE1673:
 14221              	.LBB1674:
 14222 54dc 0DF10E03 		add	r3, sp, #14
 14223 54e0 5978     		ldrb	r1, [r3, #1]	@ zero_extendqisi2
 14224              	.LVL1270:
 14225 54e2 2B78     		ldrb	r3, [r5, #0]	@ zero_extendqisi2
 14226 54e4 2278     		ldrb	r2, [r4, #0]	@ zero_extendqisi2
 14227 54e6 CB18     		adds	r3, r1, r3
 14228 54e8 DBB2     		uxtb	r3, r3
 14229 54ea 2B70     		strb	r3, [r5, #0]
 14230              	.LBE1674:
 14231              	.LBB1675:
 14232 54ec 454E     		ldr	r6, .L405+40
 14233              	.LBE1675:
 14234              	.LBB1676:
 14235 54ee 9B18     		adds	r3, r3, r2
 14236 54f0 2370     		strb	r3, [r4, #0]
 14237 54f2 3D48     		ldr	r0, .L405+12
 14238 54f4 FFF7FEFF 		bl	uart_transmit
 14239              	.LVL1271:
 14240              	.LBE1676:
 14241              	.LBB1677:
 14242 54f8 3178     		ldrb	r1, [r6, #0]	@ zero_extendqisi2
 14243              	.LVL1272:
 14244 54fa 2B78     		ldrb	r3, [r5, #0]	@ zero_extendqisi2
 14245 54fc 2278     		ldrb	r2, [r4, #0]	@ zero_extendqisi2
 14246 54fe CB18     		adds	r3, r1, r3
 14247 5500 DBB2     		uxtb	r3, r3
 14248 5502 2B70     		strb	r3, [r5, #0]
 14249 5504 9B18     		adds	r3, r3, r2
 14250 5506 2370     		strb	r3, [r4, #0]
 14251 5508 3748     		ldr	r0, .L405+12
 14252 550a FFF7FEFF 		bl	uart_transmit
 14253              	.LVL1273:
 14254              	.LBE1677:
 14255              	.LBB1678:
 14256 550e 7178     		ldrb	r1, [r6, #1]	@ zero_extendqisi2
 14257              	.LVL1274:
 14258 5510 2B78     		ldrb	r3, [r5, #0]	@ zero_extendqisi2
 14259 5512 2278     		ldrb	r2, [r4, #0]	@ zero_extendqisi2
 14260 5514 CB18     		adds	r3, r1, r3
 14261 5516 DBB2     		uxtb	r3, r3
 14262 5518 2B70     		strb	r3, [r5, #0]
 14263 551a 9B18     		adds	r3, r3, r2
 14264 551c 2370     		strb	r3, [r4, #0]
 14265 551e 3248     		ldr	r0, .L405+12
 14266 5520 FFF7FEFF 		bl	uart_transmit
 14267              	.LVL1275:
 14268              	.LBE1678:
 14269              	.LBB1679:
 14270 5524 384B     		ldr	r3, .L405+44
 14271 5526 2278     		ldrb	r2, [r4, #0]	@ zero_extendqisi2
 14272 5528 1978     		ldrb	r1, [r3, #0]	@ zero_extendqisi2
 14273              	.LVL1276:
 14274 552a 2B78     		ldrb	r3, [r5, #0]	@ zero_extendqisi2
 14275              	.LBE1679:
 14276              	.LBB1680:
 14277 552c 374E     		ldr	r6, .L405+48
 14278              	.LBE1680:
 14279              	.LBB1681:
 14280 552e CB18     		adds	r3, r1, r3
 14281 5530 DBB2     		uxtb	r3, r3
 14282 5532 2B70     		strb	r3, [r5, #0]
 14283 5534 9B18     		adds	r3, r3, r2
 14284 5536 2370     		strb	r3, [r4, #0]
 14285 5538 2B48     		ldr	r0, .L405+12
 14286 553a FFF7FEFF 		bl	uart_transmit
 14287              	.LVL1277:
 14288              	.LBE1681:
 14289              	.LBB1682:
 14290 553e 3178     		ldrb	r1, [r6, #0]	@ zero_extendqisi2
 14291              	.LVL1278:
 14292 5540 2B78     		ldrb	r3, [r5, #0]	@ zero_extendqisi2
 14293 5542 2278     		ldrb	r2, [r4, #0]	@ zero_extendqisi2
 14294 5544 CB18     		adds	r3, r1, r3
 14295 5546 DBB2     		uxtb	r3, r3
 14296 5548 2B70     		strb	r3, [r5, #0]
 14297 554a 9B18     		adds	r3, r3, r2
 14298 554c 2370     		strb	r3, [r4, #0]
 14299 554e 2648     		ldr	r0, .L405+12
 14300 5550 FFF7FEFF 		bl	uart_transmit
 14301              	.LVL1279:
 14302              	.LBE1682:
 14303              	.LBB1683:
 14304 5554 7178     		ldrb	r1, [r6, #1]	@ zero_extendqisi2
 14305              	.LVL1280:
 14306 5556 2B78     		ldrb	r3, [r5, #0]	@ zero_extendqisi2
 14307 5558 2278     		ldrb	r2, [r4, #0]	@ zero_extendqisi2
 14308 555a CB18     		adds	r3, r1, r3
 14309 555c DBB2     		uxtb	r3, r3
 14310 555e 2B70     		strb	r3, [r5, #0]
 14311              	.LBE1683:
 14312              	.LBB1684:
 14313 5560 2B4E     		ldr	r6, .L405+52
 14314              	.LBE1684:
 14315              	.LBB1685:
 14316 5562 9B18     		adds	r3, r3, r2
 14317 5564 2370     		strb	r3, [r4, #0]
 14318 5566 2048     		ldr	r0, .L405+12
 14319 5568 FFF7FEFF 		bl	uart_transmit
 14320              	.LVL1281:
 14321              	.LBE1685:
 14322              	.LBB1686:
 14323 556c 3178     		ldrb	r1, [r6, #0]	@ zero_extendqisi2
 14324              	.LVL1282:
 14325 556e 2B78     		ldrb	r3, [r5, #0]	@ zero_extendqisi2
 14326 5570 2278     		ldrb	r2, [r4, #0]	@ zero_extendqisi2
 14327 5572 CB18     		adds	r3, r1, r3
 14328 5574 DBB2     		uxtb	r3, r3
 14329 5576 2B70     		strb	r3, [r5, #0]
 14330 5578 9B18     		adds	r3, r3, r2
 14331 557a 2370     		strb	r3, [r4, #0]
 14332 557c 1A48     		ldr	r0, .L405+12
 14333 557e FFF7FEFF 		bl	uart_transmit
 14334              	.LVL1283:
 14335              	.LBE1686:
 14336              	.LBB1687:
 14337 5582 7178     		ldrb	r1, [r6, #1]	@ zero_extendqisi2
 14338              	.LVL1284:
 14339 5584 2B78     		ldrb	r3, [r5, #0]	@ zero_extendqisi2
 14340 5586 2278     		ldrb	r2, [r4, #0]	@ zero_extendqisi2
 14341 5588 CB18     		adds	r3, r1, r3
 14342 558a DBB2     		uxtb	r3, r3
 14343 558c 2B70     		strb	r3, [r5, #0]
 14344 558e 9B18     		adds	r3, r3, r2
 14345 5590 2370     		strb	r3, [r4, #0]
 14346 5592 1548     		ldr	r0, .L405+12
 14347 5594 FFF7FEFF 		bl	uart_transmit
 14348              	.LVL1285:
 14349              	.LBE1687:
 14350              	.LBB1688:
 14351 5598 9DF80C10 		ldrb	r1, [sp, #12]	@ zero_extendqisi2
 14352              	.LVL1286:
 14353 559c 2B78     		ldrb	r3, [r5, #0]	@ zero_extendqisi2
 14354 559e 2278     		ldrb	r2, [r4, #0]	@ zero_extendqisi2
 14355 55a0 CB18     		adds	r3, r1, r3
 14356 55a2 DBB2     		uxtb	r3, r3
 14357 55a4 2B70     		strb	r3, [r5, #0]
 14358 55a6 9B18     		adds	r3, r3, r2
 14359 55a8 2370     		strb	r3, [r4, #0]
 14360 55aa 0F48     		ldr	r0, .L405+12
 14361 55ac FFF7FEFF 		bl	uart_transmit
 14362              	.LVL1287:
 14363              	.LBE1688:
 14364              	.LBB1689:
 14365 55b0 03AB     		add	r3, sp, #12
 14366 55b2 5978     		ldrb	r1, [r3, #1]	@ zero_extendqisi2
 14367              	.LVL1288:
 14368 55b4 2B78     		ldrb	r3, [r5, #0]	@ zero_extendqisi2
 14369 55b6 2278     		ldrb	r2, [r4, #0]	@ zero_extendqisi2
 14370 55b8 CB18     		adds	r3, r1, r3
 14371 55ba DBB2     		uxtb	r3, r3
 14372 55bc 2B70     		strb	r3, [r5, #0]
 14373 55be 9B18     		adds	r3, r3, r2
 14374 55c0 2370     		strb	r3, [r4, #0]
 14375 55c2 0948     		ldr	r0, .L405+12
 14376 55c4 FFF7FEFF 		bl	uart_transmit
 14377              	.LVL1289:
 14378              	.LBE1689:
 14379 55c8 2978     		ldrb	r1, [r5, #0]	@ zero_extendqisi2
 14380 55ca 0748     		ldr	r0, .L405+12
 14381 55cc FFF7FEFF 		bl	uart_transmit
 14382 55d0 0548     		ldr	r0, .L405+12
 14383 55d2 2178     		ldrb	r1, [r4, #0]	@ zero_extendqisi2
 14384 55d4 FFF7FEFF 		bl	uart_transmit
 14385 55d8 20E0     		b	.L282
 14386              	.L406:
 14387 55da 00BF     		.align	2
 14388              	.L405:
 14389 55dc 00000000 		.word	.LANCHOR67
 14390 55e0 00000000 		.word	.LANCHOR11
 14391 55e4 00000000 		.word	.LANCHOR15
 14392 55e8 00000000 		.word	uart2
 14393 55ec 00000000 		.word	downlink_nb_bytes
 14394 55f0 00000000 		.word	downlink_nb_msgs
 14395 55f4 00000000 		.word	ck_a
 14396 55f8 00000000 		.word	ck_b
 14397 55fc 00000000 		.word	v_ctl_throttle_slewed
 14398 5600 00000000 		.word	.LANCHOR10
 14399 5604 00000000 		.word	estimator_flight_time
 14400 5608 00000000 		.word	.LANCHOR14
 14401 560c 00000000 		.word	block_time
 14402 5610 00000000 		.word	stage_time
 14403              	.L283:
 14404 5614 9C4B     		ldr	r3, .L407
 14405 5616 1A78     		ldrb	r2, [r3, #0]	@ zero_extendqisi2
 14406 5618 0132     		adds	r2, r2, #1
 14407 561a 1A70     		strb	r2, [r3, #0]
 14408              	.L282:
 14409              	.LBE1663:
 14410              	.LBE1662:
 14411 561c 9B4B     		ldr	r3, .L407+4
 14412 561e 1B88     		ldrh	r3, [r3, #0]
 14413 5620 302B     		cmp	r3, #48
 14414 5622 40F09081 		bne	.L109
 14415 5626 9A48     		ldr	r0, .L407+8
 14416 5628 2221     		movs	r1, #34
 14417 562a FFF7FEFF 		bl	uart_check_free_space
 14418 562e 0028     		cmp	r0, #0
 14419 5630 00F08581 		beq	.L284
 14420 5634 974B     		ldr	r3, .L407+12
 14421              	.LBB1690:
 14422 5636 9921     		movs	r1, #153
 14423              	.LBE1690:
 14424 5638 1A88     		ldrh	r2, [r3, #0]
 14425              	.LBB1691:
 14426 563a 9548     		ldr	r0, .L407+8
 14427              	.LBE1691:
 14428 563c 2232     		adds	r2, r2, #34
 14429 563e 1A80     		strh	r2, [r3, #0]	@ movhi
 14430 5640 954B     		ldr	r3, .L407+16
 14431              	.LBB1692:
 14432 5642 964D     		ldr	r5, .L407+20
 14433              	.LBE1692:
 14434 5644 1A88     		ldrh	r2, [r3, #0]
 14435              	.LBB1693:
 14436 5646 964C     		ldr	r4, .L407+24
 14437              	.LBE1693:
 14438 5648 0132     		adds	r2, r2, #1
 14439 564a 1A80     		strh	r2, [r3, #0]	@ movhi
 14440              	.LBB1694:
 14441 564c FFF7FEFF 		bl	uart_transmit
 14442 5650 2221     		movs	r1, #34
 14443 5652 8F48     		ldr	r0, .L407+8
 14444 5654 FFF7FEFF 		bl	uart_transmit
 14445              	.LBE1694:
 14446 5658 2323     		movs	r3, #35
 14447 565a 2B70     		strb	r3, [r5, #0]
 14448 565c 2233     		adds	r3, r3, #34
 14449 565e 2370     		strb	r3, [r4, #0]
 14450 5660 0121     		movs	r1, #1
 14451 5662 8B48     		ldr	r0, .L407+8
 14452 5664 FFF7FEFF 		bl	uart_transmit
 14453 5668 2B78     		ldrb	r3, [r5, #0]	@ zero_extendqisi2
 14454 566a 2278     		ldrb	r2, [r4, #0]	@ zero_extendqisi2
 14455 566c 1033     		adds	r3, r3, #16
 14456 566e DBB2     		uxtb	r3, r3
 14457              	.LBB1695:
 14458 5670 8C4E     		ldr	r6, .L407+28
 14459              	.LBE1695:
 14460 5672 2B70     		strb	r3, [r5, #0]
 14461 5674 9B18     		adds	r3, r3, r2
 14462 5676 2370     		strb	r3, [r4, #0]
 14463 5678 1021     		movs	r1, #16
 14464 567a 8548     		ldr	r0, .L407+8
 14465 567c FFF7FEFF 		bl	uart_transmit
 14466              	.LBB1696:
 14467 5680 3178     		ldrb	r1, [r6, #0]	@ zero_extendqisi2
 14468              	.LVL1290:
 14469 5682 2B78     		ldrb	r3, [r5, #0]	@ zero_extendqisi2
 14470 5684 2278     		ldrb	r2, [r4, #0]	@ zero_extendqisi2
 14471 5686 CB18     		adds	r3, r1, r3
 14472 5688 DBB2     		uxtb	r3, r3
 14473 568a 2B70     		strb	r3, [r5, #0]
 14474 568c 9B18     		adds	r3, r3, r2
 14475 568e 2370     		strb	r3, [r4, #0]
 14476 5690 7F48     		ldr	r0, .L407+8
 14477 5692 FFF7FEFF 		bl	uart_transmit
 14478              	.LVL1291:
 14479              	.LBE1696:
 14480              	.LBB1697:
 14481 5696 7178     		ldrb	r1, [r6, #1]	@ zero_extendqisi2
 14482              	.LVL1292:
 14483 5698 2B78     		ldrb	r3, [r5, #0]	@ zero_extendqisi2
 14484 569a 2278     		ldrb	r2, [r4, #0]	@ zero_extendqisi2
 14485 569c CB18     		adds	r3, r1, r3
 14486 569e DBB2     		uxtb	r3, r3
 14487 56a0 2B70     		strb	r3, [r5, #0]
 14488 56a2 9B18     		adds	r3, r3, r2
 14489 56a4 2370     		strb	r3, [r4, #0]
 14490 56a6 7A48     		ldr	r0, .L407+8
 14491 56a8 FFF7FEFF 		bl	uart_transmit
 14492              	.LVL1293:
 14493              	.LBE1697:
 14494              	.LBB1698:
 14495 56ac B178     		ldrb	r1, [r6, #2]	@ zero_extendqisi2
 14496              	.LVL1294:
 14497 56ae 2B78     		ldrb	r3, [r5, #0]	@ zero_extendqisi2
 14498 56b0 2278     		ldrb	r2, [r4, #0]	@ zero_extendqisi2
 14499 56b2 CB18     		adds	r3, r1, r3
 14500 56b4 DBB2     		uxtb	r3, r3
 14501 56b6 2B70     		strb	r3, [r5, #0]
 14502 56b8 9B18     		adds	r3, r3, r2
 14503 56ba 2370     		strb	r3, [r4, #0]
 14504 56bc 7448     		ldr	r0, .L407+8
 14505 56be FFF7FEFF 		bl	uart_transmit
 14506              	.LVL1295:
 14507              	.LBE1698:
 14508              	.LBB1699:
 14509 56c2 F178     		ldrb	r1, [r6, #3]	@ zero_extendqisi2
 14510              	.LVL1296:
 14511 56c4 2B78     		ldrb	r3, [r5, #0]	@ zero_extendqisi2
 14512 56c6 2278     		ldrb	r2, [r4, #0]	@ zero_extendqisi2
 14513 56c8 CB18     		adds	r3, r1, r3
 14514 56ca DBB2     		uxtb	r3, r3
 14515              	.LBE1699:
 14516              	.LBB1700:
 14517 56cc 764E     		ldr	r6, .L407+32
 14518              	.LBE1700:
 14519              	.LBB1701:
 14520 56ce 2B70     		strb	r3, [r5, #0]
 14521 56d0 9B18     		adds	r3, r3, r2
 14522 56d2 2370     		strb	r3, [r4, #0]
 14523 56d4 6E48     		ldr	r0, .L407+8
 14524 56d6 FFF7FEFF 		bl	uart_transmit
 14525              	.LVL1297:
 14526              	.LBE1701:
 14527              	.LBB1702:
 14528 56da 3178     		ldrb	r1, [r6, #0]	@ zero_extendqisi2
 14529              	.LVL1298:
 14530 56dc 2B78     		ldrb	r3, [r5, #0]	@ zero_extendqisi2
 14531 56de 2278     		ldrb	r2, [r4, #0]	@ zero_extendqisi2
 14532 56e0 CB18     		adds	r3, r1, r3
 14533 56e2 DBB2     		uxtb	r3, r3
 14534 56e4 2B70     		strb	r3, [r5, #0]
 14535 56e6 9B18     		adds	r3, r3, r2
 14536 56e8 2370     		strb	r3, [r4, #0]
 14537 56ea 6948     		ldr	r0, .L407+8
 14538 56ec FFF7FEFF 		bl	uart_transmit
 14539              	.LVL1299:
 14540              	.LBE1702:
 14541              	.LBB1703:
 14542 56f0 7178     		ldrb	r1, [r6, #1]	@ zero_extendqisi2
 14543              	.LVL1300:
 14544 56f2 2B78     		ldrb	r3, [r5, #0]	@ zero_extendqisi2
 14545 56f4 2278     		ldrb	r2, [r4, #0]	@ zero_extendqisi2
 14546 56f6 CB18     		adds	r3, r1, r3
 14547 56f8 DBB2     		uxtb	r3, r3
 14548 56fa 2B70     		strb	r3, [r5, #0]
 14549 56fc 9B18     		adds	r3, r3, r2
 14550 56fe 2370     		strb	r3, [r4, #0]
 14551 5700 6348     		ldr	r0, .L407+8
 14552 5702 FFF7FEFF 		bl	uart_transmit
 14553              	.LVL1301:
 14554              	.LBE1703:
 14555              	.LBB1704:
 14556 5706 B178     		ldrb	r1, [r6, #2]	@ zero_extendqisi2
 14557              	.LVL1302:
 14558 5708 2B78     		ldrb	r3, [r5, #0]	@ zero_extendqisi2
 14559 570a 2278     		ldrb	r2, [r4, #0]	@ zero_extendqisi2
 14560 570c CB18     		adds	r3, r1, r3
 14561 570e DBB2     		uxtb	r3, r3
 14562 5710 2B70     		strb	r3, [r5, #0]
 14563 5712 9B18     		adds	r3, r3, r2
 14564 5714 2370     		strb	r3, [r4, #0]
 14565 5716 5E48     		ldr	r0, .L407+8
 14566 5718 FFF7FEFF 		bl	uart_transmit
 14567              	.LVL1303:
 14568              	.LBE1704:
 14569              	.LBB1705:
 14570 571c F178     		ldrb	r1, [r6, #3]	@ zero_extendqisi2
 14571              	.LVL1304:
 14572 571e 2B78     		ldrb	r3, [r5, #0]	@ zero_extendqisi2
 14573 5720 2278     		ldrb	r2, [r4, #0]	@ zero_extendqisi2
 14574 5722 CB18     		adds	r3, r1, r3
 14575 5724 DBB2     		uxtb	r3, r3
 14576              	.LBE1705:
 14577              	.LBB1706:
 14578 5726 614E     		ldr	r6, .L407+36
 14579              	.LBE1706:
 14580              	.LBB1707:
 14581 5728 2B70     		strb	r3, [r5, #0]
 14582 572a 9B18     		adds	r3, r3, r2
 14583 572c 2370     		strb	r3, [r4, #0]
 14584 572e 5848     		ldr	r0, .L407+8
 14585 5730 FFF7FEFF 		bl	uart_transmit
 14586              	.LVL1305:
 14587              	.LBE1707:
 14588              	.LBB1708:
 14589 5734 3178     		ldrb	r1, [r6, #0]	@ zero_extendqisi2
 14590              	.LVL1306:
 14591 5736 2B78     		ldrb	r3, [r5, #0]	@ zero_extendqisi2
 14592 5738 2278     		ldrb	r2, [r4, #0]	@ zero_extendqisi2
 14593 573a CB18     		adds	r3, r1, r3
 14594 573c DBB2     		uxtb	r3, r3
 14595 573e 2B70     		strb	r3, [r5, #0]
 14596 5740 9B18     		adds	r3, r3, r2
 14597 5742 2370     		strb	r3, [r4, #0]
 14598 5744 5248     		ldr	r0, .L407+8
 14599 5746 FFF7FEFF 		bl	uart_transmit
 14600              	.LVL1307:
 14601              	.LBE1708:
 14602              	.LBB1709:
 14603 574a 7178     		ldrb	r1, [r6, #1]	@ zero_extendqisi2
 14604              	.LVL1308:
 14605 574c 2B78     		ldrb	r3, [r5, #0]	@ zero_extendqisi2
 14606 574e 2278     		ldrb	r2, [r4, #0]	@ zero_extendqisi2
 14607 5750 CB18     		adds	r3, r1, r3
 14608 5752 DBB2     		uxtb	r3, r3
 14609 5754 2B70     		strb	r3, [r5, #0]
 14610 5756 9B18     		adds	r3, r3, r2
 14611 5758 2370     		strb	r3, [r4, #0]
 14612 575a 4D48     		ldr	r0, .L407+8
 14613 575c FFF7FEFF 		bl	uart_transmit
 14614              	.LVL1309:
 14615              	.LBE1709:
 14616              	.LBB1710:
 14617 5760 B178     		ldrb	r1, [r6, #2]	@ zero_extendqisi2
 14618              	.LVL1310:
 14619 5762 2B78     		ldrb	r3, [r5, #0]	@ zero_extendqisi2
 14620 5764 2278     		ldrb	r2, [r4, #0]	@ zero_extendqisi2
 14621 5766 CB18     		adds	r3, r1, r3
 14622 5768 DBB2     		uxtb	r3, r3
 14623 576a 2B70     		strb	r3, [r5, #0]
 14624 576c 9B18     		adds	r3, r3, r2
 14625 576e 2370     		strb	r3, [r4, #0]
 14626 5770 4748     		ldr	r0, .L407+8
 14627 5772 FFF7FEFF 		bl	uart_transmit
 14628              	.LVL1311:
 14629              	.LBE1710:
 14630              	.LBB1711:
 14631 5776 F178     		ldrb	r1, [r6, #3]	@ zero_extendqisi2
 14632              	.LVL1312:
 14633 5778 2B78     		ldrb	r3, [r5, #0]	@ zero_extendqisi2
 14634 577a 2278     		ldrb	r2, [r4, #0]	@ zero_extendqisi2
 14635 577c CB18     		adds	r3, r1, r3
 14636 577e DBB2     		uxtb	r3, r3
 14637              	.LBE1711:
 14638              	.LBB1712:
 14639 5780 4B4E     		ldr	r6, .L407+40
 14640              	.LBE1712:
 14641              	.LBB1713:
 14642 5782 2B70     		strb	r3, [r5, #0]
 14643 5784 9B18     		adds	r3, r3, r2
 14644 5786 2370     		strb	r3, [r4, #0]
 14645 5788 4148     		ldr	r0, .L407+8
 14646 578a FFF7FEFF 		bl	uart_transmit
 14647              	.LVL1313:
 14648              	.LBE1713:
 14649              	.LBB1714:
 14650 578e 3178     		ldrb	r1, [r6, #0]	@ zero_extendqisi2
 14651              	.LVL1314:
 14652 5790 2B78     		ldrb	r3, [r5, #0]	@ zero_extendqisi2
 14653 5792 2278     		ldrb	r2, [r4, #0]	@ zero_extendqisi2
 14654 5794 CB18     		adds	r3, r1, r3
 14655 5796 DBB2     		uxtb	r3, r3
 14656 5798 2B70     		strb	r3, [r5, #0]
 14657 579a 9B18     		adds	r3, r3, r2
 14658 579c 2370     		strb	r3, [r4, #0]
 14659 579e 3C48     		ldr	r0, .L407+8
 14660 57a0 FFF7FEFF 		bl	uart_transmit
 14661              	.LVL1315:
 14662              	.LBE1714:
 14663              	.LBB1715:
 14664 57a4 7178     		ldrb	r1, [r6, #1]	@ zero_extendqisi2
 14665              	.LVL1316:
 14666 57a6 2B78     		ldrb	r3, [r5, #0]	@ zero_extendqisi2
 14667 57a8 2278     		ldrb	r2, [r4, #0]	@ zero_extendqisi2
 14668 57aa CB18     		adds	r3, r1, r3
 14669 57ac DBB2     		uxtb	r3, r3
 14670 57ae 2B70     		strb	r3, [r5, #0]
 14671 57b0 9B18     		adds	r3, r3, r2
 14672 57b2 2370     		strb	r3, [r4, #0]
 14673 57b4 3648     		ldr	r0, .L407+8
 14674 57b6 FFF7FEFF 		bl	uart_transmit
 14675              	.LVL1317:
 14676              	.LBE1715:
 14677              	.LBB1716:
 14678 57ba B178     		ldrb	r1, [r6, #2]	@ zero_extendqisi2
 14679              	.LVL1318:
 14680 57bc 2B78     		ldrb	r3, [r5, #0]	@ zero_extendqisi2
 14681 57be 2278     		ldrb	r2, [r4, #0]	@ zero_extendqisi2
 14682 57c0 CB18     		adds	r3, r1, r3
 14683 57c2 DBB2     		uxtb	r3, r3
 14684 57c4 2B70     		strb	r3, [r5, #0]
 14685 57c6 9B18     		adds	r3, r3, r2
 14686 57c8 2370     		strb	r3, [r4, #0]
 14687 57ca 3148     		ldr	r0, .L407+8
 14688 57cc FFF7FEFF 		bl	uart_transmit
 14689              	.LVL1319:
 14690              	.LBE1716:
 14691              	.LBB1717:
 14692 57d0 F178     		ldrb	r1, [r6, #3]	@ zero_extendqisi2
 14693              	.LVL1320:
 14694 57d2 2B78     		ldrb	r3, [r5, #0]	@ zero_extendqisi2
 14695 57d4 2278     		ldrb	r2, [r4, #0]	@ zero_extendqisi2
 14696 57d6 CB18     		adds	r3, r1, r3
 14697 57d8 DBB2     		uxtb	r3, r3
 14698              	.LBE1717:
 14699              	.LBB1718:
 14700 57da 364E     		ldr	r6, .L407+44
 14701              	.LBE1718:
 14702              	.LBB1719:
 14703 57dc 2B70     		strb	r3, [r5, #0]
 14704 57de 9B18     		adds	r3, r3, r2
 14705 57e0 2370     		strb	r3, [r4, #0]
 14706 57e2 2B48     		ldr	r0, .L407+8
 14707 57e4 FFF7FEFF 		bl	uart_transmit
 14708              	.LVL1321:
 14709              	.LBE1719:
 14710              	.LBB1720:
 14711 57e8 3178     		ldrb	r1, [r6, #0]	@ zero_extendqisi2
 14712              	.LVL1322:
 14713 57ea 2B78     		ldrb	r3, [r5, #0]	@ zero_extendqisi2
 14714 57ec 2278     		ldrb	r2, [r4, #0]	@ zero_extendqisi2
 14715 57ee CB18     		adds	r3, r1, r3
 14716 57f0 DBB2     		uxtb	r3, r3
 14717 57f2 2B70     		strb	r3, [r5, #0]
 14718 57f4 9B18     		adds	r3, r3, r2
 14719 57f6 2370     		strb	r3, [r4, #0]
 14720 57f8 2548     		ldr	r0, .L407+8
 14721 57fa FFF7FEFF 		bl	uart_transmit
 14722              	.LVL1323:
 14723              	.LBE1720:
 14724              	.LBB1721:
 14725 57fe 7178     		ldrb	r1, [r6, #1]	@ zero_extendqisi2
 14726              	.LVL1324:
 14727 5800 2B78     		ldrb	r3, [r5, #0]	@ zero_extendqisi2
 14728 5802 2278     		ldrb	r2, [r4, #0]	@ zero_extendqisi2
 14729 5804 CB18     		adds	r3, r1, r3
 14730 5806 DBB2     		uxtb	r3, r3
 14731 5808 2B70     		strb	r3, [r5, #0]
 14732 580a 9B18     		adds	r3, r3, r2
 14733 580c 2370     		strb	r3, [r4, #0]
 14734 580e 2048     		ldr	r0, .L407+8
 14735 5810 FFF7FEFF 		bl	uart_transmit
 14736              	.LVL1325:
 14737              	.LBE1721:
 14738              	.LBB1722:
 14739 5814 B178     		ldrb	r1, [r6, #2]	@ zero_extendqisi2
 14740              	.LVL1326:
 14741 5816 2B78     		ldrb	r3, [r5, #0]	@ zero_extendqisi2
 14742 5818 2278     		ldrb	r2, [r4, #0]	@ zero_extendqisi2
 14743 581a CB18     		adds	r3, r1, r3
 14744 581c DBB2     		uxtb	r3, r3
 14745 581e 2B70     		strb	r3, [r5, #0]
 14746 5820 9B18     		adds	r3, r3, r2
 14747 5822 2370     		strb	r3, [r4, #0]
 14748 5824 1A48     		ldr	r0, .L407+8
 14749 5826 FFF7FEFF 		bl	uart_transmit
 14750              	.LVL1327:
 14751              	.LBE1722:
 14752              	.LBB1723:
 14753 582a F178     		ldrb	r1, [r6, #3]	@ zero_extendqisi2
 14754              	.LVL1328:
 14755 582c 2B78     		ldrb	r3, [r5, #0]	@ zero_extendqisi2
 14756 582e 2278     		ldrb	r2, [r4, #0]	@ zero_extendqisi2
 14757 5830 CB18     		adds	r3, r1, r3
 14758 5832 DBB2     		uxtb	r3, r3
 14759              	.LBE1723:
 14760              	.LBB1724:
 14761 5834 204E     		ldr	r6, .L407+48
 14762              	.LBE1724:
 14763              	.LBB1725:
 14764 5836 2B70     		strb	r3, [r5, #0]
 14765 5838 9B18     		adds	r3, r3, r2
 14766 583a 2370     		strb	r3, [r4, #0]
 14767 583c 1448     		ldr	r0, .L407+8
 14768 583e FFF7FEFF 		bl	uart_transmit
 14769              	.LVL1329:
 14770              	.LBE1725:
 14771              	.LBB1726:
 14772 5842 3178     		ldrb	r1, [r6, #0]	@ zero_extendqisi2
 14773              	.LVL1330:
 14774 5844 2B78     		ldrb	r3, [r5, #0]	@ zero_extendqisi2
 14775 5846 2278     		ldrb	r2, [r4, #0]	@ zero_extendqisi2
 14776 5848 CB18     		adds	r3, r1, r3
 14777 584a DBB2     		uxtb	r3, r3
 14778 584c 2B70     		strb	r3, [r5, #0]
 14779 584e 9B18     		adds	r3, r3, r2
 14780 5850 2370     		strb	r3, [r4, #0]
 14781 5852 0F48     		ldr	r0, .L407+8
 14782 5854 FFF7FEFF 		bl	uart_transmit
 14783              	.LVL1331:
 14784              	.LBE1726:
 14785              	.LBB1727:
 14786 5858 7178     		ldrb	r1, [r6, #1]	@ zero_extendqisi2
 14787              	.LVL1332:
 14788 585a 2B78     		ldrb	r3, [r5, #0]	@ zero_extendqisi2
 14789 585c 2278     		ldrb	r2, [r4, #0]	@ zero_extendqisi2
 14790 585e CB18     		adds	r3, r1, r3
 14791 5860 DBB2     		uxtb	r3, r3
 14792 5862 2B70     		strb	r3, [r5, #0]
 14793 5864 9B18     		adds	r3, r3, r2
 14794 5866 2370     		strb	r3, [r4, #0]
 14795 5868 0948     		ldr	r0, .L407+8
 14796 586a FFF7FEFF 		bl	uart_transmit
 14797              	.LVL1333:
 14798              	.LBE1727:
 14799              	.LBB1728:
 14800 586e B178     		ldrb	r1, [r6, #2]	@ zero_extendqisi2
 14801              	.LVL1334:
 14802 5870 2B78     		ldrb	r3, [r5, #0]	@ zero_extendqisi2
 14803 5872 2278     		ldrb	r2, [r4, #0]	@ zero_extendqisi2
 14804 5874 CB18     		adds	r3, r1, r3
 14805 5876 DBB2     		uxtb	r3, r3
 14806 5878 2B70     		strb	r3, [r5, #0]
 14807 587a 9B18     		adds	r3, r3, r2
 14808 587c 2370     		strb	r3, [r4, #0]
 14809 587e 0448     		ldr	r0, .L407+8
 14810 5880 FFF7FEFF 		bl	uart_transmit
 14811 5884 1AE0     		b	.L408
 14812              	.L409:
 14813 5886 00BF     		.align	2
 14814              	.L407:
 14815 5888 00000000 		.word	downlink_nb_ovrn
 14816 588c 00000000 		.word	.LANCHOR68
 14817 5890 00000000 		.word	uart2
 14818 5894 00000000 		.word	downlink_nb_bytes
 14819 5898 00000000 		.word	downlink_nb_msgs
 14820 589c 00000000 		.word	ck_a
 14821 58a0 00000000 		.word	ck_b
 14822 58a4 00000000 		.word	h_ctl_roll_setpoint
 14823 58a8 00000000 		.word	h_ctl_pitch_loop_setpoint
 14824 58ac 00000000 		.word	h_ctl_course_setpoint
 14825 58b0 00000000 		.word	desired_x
 14826 58b4 00000000 		.word	desired_y
 14827 58b8 00000000 		.word	v_ctl_altitude_setpoint
 14828              	.L408:
 14829              	.LVL1335:
 14830              	.LBE1728:
 14831              	.LBB1729:
 14832 58bc F178     		ldrb	r1, [r6, #3]	@ zero_extendqisi2
 14833              	.LVL1336:
 14834 58be 2B78     		ldrb	r3, [r5, #0]	@ zero_extendqisi2
 14835 58c0 2278     		ldrb	r2, [r4, #0]	@ zero_extendqisi2
 14836 58c2 CB18     		adds	r3, r1, r3
 14837 58c4 DBB2     		uxtb	r3, r3
 14838              	.LBE1729:
 14839              	.LBB1730:
 14840 58c6 704E     		ldr	r6, .L410
 14841              	.LBE1730:
 14842              	.LBB1731:
 14843 58c8 2B70     		strb	r3, [r5, #0]
 14844 58ca 9B18     		adds	r3, r3, r2
 14845 58cc 2370     		strb	r3, [r4, #0]
 14846 58ce 6F48     		ldr	r0, .L410+4
 14847 58d0 FFF7FEFF 		bl	uart_transmit
 14848              	.LVL1337:
 14849              	.LBE1731:
 14850              	.LBB1732:
 14851 58d4 3178     		ldrb	r1, [r6, #0]	@ zero_extendqisi2
 14852              	.LVL1338:
 14853 58d6 2B78     		ldrb	r3, [r5, #0]	@ zero_extendqisi2
 14854 58d8 2278     		ldrb	r2, [r4, #0]	@ zero_extendqisi2
 14855 58da CB18     		adds	r3, r1, r3
 14856 58dc DBB2     		uxtb	r3, r3
 14857 58de 2B70     		strb	r3, [r5, #0]
 14858 58e0 9B18     		adds	r3, r3, r2
 14859 58e2 2370     		strb	r3, [r4, #0]
 14860 58e4 6948     		ldr	r0, .L410+4
 14861 58e6 FFF7FEFF 		bl	uart_transmit
 14862              	.LVL1339:
 14863              	.LBE1732:
 14864              	.LBB1733:
 14865 58ea 7178     		ldrb	r1, [r6, #1]	@ zero_extendqisi2
 14866              	.LVL1340:
 14867 58ec 2B78     		ldrb	r3, [r5, #0]	@ zero_extendqisi2
 14868 58ee 2278     		ldrb	r2, [r4, #0]	@ zero_extendqisi2
 14869 58f0 CB18     		adds	r3, r1, r3
 14870 58f2 DBB2     		uxtb	r3, r3
 14871 58f4 2B70     		strb	r3, [r5, #0]
 14872 58f6 9B18     		adds	r3, r3, r2
 14873 58f8 2370     		strb	r3, [r4, #0]
 14874 58fa 6448     		ldr	r0, .L410+4
 14875 58fc FFF7FEFF 		bl	uart_transmit
 14876              	.LVL1341:
 14877              	.LBE1733:
 14878              	.LBB1734:
 14879 5900 B178     		ldrb	r1, [r6, #2]	@ zero_extendqisi2
 14880              	.LVL1342:
 14881 5902 2B78     		ldrb	r3, [r5, #0]	@ zero_extendqisi2
 14882 5904 2278     		ldrb	r2, [r4, #0]	@ zero_extendqisi2
 14883 5906 CB18     		adds	r3, r1, r3
 14884 5908 DBB2     		uxtb	r3, r3
 14885 590a 2B70     		strb	r3, [r5, #0]
 14886 590c 9B18     		adds	r3, r3, r2
 14887 590e 2370     		strb	r3, [r4, #0]
 14888 5910 5E48     		ldr	r0, .L410+4
 14889 5912 FFF7FEFF 		bl	uart_transmit
 14890              	.LVL1343:
 14891              	.LBE1734:
 14892              	.LBB1735:
 14893 5916 F178     		ldrb	r1, [r6, #3]	@ zero_extendqisi2
 14894              	.LVL1344:
 14895 5918 2B78     		ldrb	r3, [r5, #0]	@ zero_extendqisi2
 14896 591a 2278     		ldrb	r2, [r4, #0]	@ zero_extendqisi2
 14897 591c CB18     		adds	r3, r1, r3
 14898 591e DBB2     		uxtb	r3, r3
 14899 5920 2B70     		strb	r3, [r5, #0]
 14900 5922 9B18     		adds	r3, r3, r2
 14901 5924 2370     		strb	r3, [r4, #0]
 14902 5926 5948     		ldr	r0, .L410+4
 14903 5928 FFF7FEFF 		bl	uart_transmit
 14904              	.LVL1345:
 14905              	.LBE1735:
 14906 592c 2978     		ldrb	r1, [r5, #0]	@ zero_extendqisi2
 14907 592e 5748     		ldr	r0, .L410+4
 14908 5930 FFF7FEFF 		bl	uart_transmit
 14909 5934 5548     		ldr	r0, .L410+4
 14910 5936 2178     		ldrb	r1, [r4, #0]	@ zero_extendqisi2
 14911 5938 FFF7FEFF 		bl	uart_transmit
 14912 593c 03E0     		b	.L109
 14913              	.L284:
 14914 593e 544B     		ldr	r3, .L410+8
 14915 5940 1A78     		ldrb	r2, [r3, #0]	@ zero_extendqisi2
 14916 5942 0132     		adds	r2, r2, #1
 14917              	.L314:
 14918 5944 1A70     		strb	r2, [r3, #0]
 14919              	.L109:
 14920              	.LBE1540:
 14921              	.LBE779:
 14922              	.LBE778:
 471:firmwares/fixedwing/main_ap.c ****   if (!_1Hz) {
 14923              		.loc 1 471 0
 14924 5946 534B     		ldr	r3, .L410+12
 14925 5948 1B78     		ldrb	r3, [r3, #0]	@ zero_extendqisi2
 14926 594a 002B     		cmp	r3, #0
 14927 594c 2ED1     		bne	.L285
 14928              	.LBB1736:
 472:firmwares/fixedwing/main_ap.c ****     if (estimator_flight_time) estimator_flight_time++;
 14929              		.loc 1 472 0
 14930 594e 524B     		ldr	r3, .L410+16
 14931 5950 1A88     		ldrh	r2, [r3, #0]
 14932 5952 0AB1     		cbz	r2, .L286
 14933 5954 0132     		adds	r2, r2, #1
 14934 5956 1A80     		strh	r2, [r3, #0]	@ movhi
 14935              	.L286:
 474:firmwares/fixedwing/main_ap.c ****     datalink_time++;
 14936              		.loc 1 474 0
 14937 5958 504B     		ldr	r3, .L410+20
 14938 595a 1A88     		ldrh	r2, [r3, #0]
 14939 595c 0132     		adds	r2, r2, #1
 14940 595e 1A80     		strh	r2, [r3, #0]	@ movhi
 478:firmwares/fixedwing/main_ap.c ****     if (vsupply < LOW_BATTERY_DECIVOLT) t++; else t = 0;
 14941              		.loc 1 478 0
 14942 5960 4F4B     		ldr	r3, .L410+24
 14943 5962 1878     		ldrb	r0, [r3, #0]	@ zero_extendqisi2
 14944 5964 FFF7FEFF 		bl	__aeabi_i2d
 14945 5968 0022     		movs	r2, #0
 14946 596a 4E4B     		ldr	r3, .L410+28
 14947 596c FFF7FEFF 		bl	__aeabi_dcmplt
 14948 5970 4D4B     		ldr	r3, .L410+32
 14949 5972 0246     		mov	r2, r0
 14950 5974 08B1     		cbz	r0, .L302
 14951 5976 1A78     		ldrb	r2, [r3, #0]	@ zero_extendqisi2
 14952 5978 0132     		adds	r2, r2, #1
 14953              	.L302:
 14954 597a 1A70     		strb	r2, [r3, #0]
 479:firmwares/fixedwing/main_ap.c ****     kill_throttle |= (t >= LOW_BATTERY_DELAY);
 14955              		.loc 1 479 0
 14956 597c 4A4B     		ldr	r3, .L410+32
 14957 597e 1C78     		ldrb	r4, [r3, #0]	@ zero_extendqisi2
 14958 5980 4A4B     		ldr	r3, .L410+36
 14959 5982 1B78     		ldrb	r3, [r3, #0]	@ zero_extendqisi2
 14960 5984 042C     		cmp	r4, #4
 14961 5986 94BF     		ite	ls
 14962 5988 1C46     		movls	r4, r3
 14963 598a 43F00104 		orrhi	r4, r3, #1
 480:firmwares/fixedwing/main_ap.c ****     kill_throttle |= launch && (dist2_to_home > Square(KILL_MODE_DISTANCE));
 14964              		.loc 1 480 0
 14965 598e 484B     		ldr	r3, .L410+40
 14966 5990 1878     		ldrb	r0, [r3, #0]	@ zero_extendqisi2
 14967 5992 38B1     		cbz	r0, .L291
 14968 5994 474B     		ldr	r3, .L410+44
 14969 5996 4849     		ldr	r1, .L410+48
 14970 5998 1868     		ldr	r0, [r3, #0]	@ float
 14971 599a FFF7FEFF 		bl	__aeabi_fcmpgt
 14972 599e 0038     		subs	r0, r0, #0
 14973 59a0 18BF     		it	ne
 14974 59a2 0120     		movne	r0, #1
 14975              	.L291:
 14976 59a4 414B     		ldr	r3, .L410+36
 14977 59a6 40EA0404 		orr	r4, r0, r4
 14978 59aa 1C70     		strb	r4, [r3, #0]
 14979              	.L285:
 14980              	.LBE1736:
 483:firmwares/fixedwing/main_ap.c ****   switch(_4Hz) {
 14981              		.loc 1 483 0
 14982 59ac 434B     		ldr	r3, .L410+52
 14983 59ae 1E78     		ldrb	r6, [r3, #0]	@ zero_extendqisi2
 14984 59b0 16B1     		cbz	r6, .L295
 14985 59b2 012E     		cmp	r6, #1
 14986 59b4 62D1     		bne	.L294
 14987 59b6 04E0     		b	.L321
 14988              	.L295:
 485:firmwares/fixedwing/main_ap.c ****     estimator_propagate_state();
 14989              		.loc 1 485 0
 14990 59b8 FFF7FEFF 		bl	estimator_propagate_state
 489:firmwares/fixedwing/main_ap.c ****     navigation_task();
 14991              		.loc 1 489 0
 14992 59bc FFF7FEFF 		bl	navigation_task
 490:firmwares/fixedwing/main_ap.c ****     break;
 14993              		.loc 1 490 0
 14994 59c0 5CE0     		b	.L294
 14995              	.L321:
 492:firmwares/fixedwing/main_ap.c ****     if (!estimator_flight_time &&
 14996              		.loc 1 492 0
 14997 59c2 354C     		ldr	r4, .L410+16
 14998 59c4 2388     		ldrh	r3, [r4, #0]
 14999 59c6 002B     		cmp	r3, #0
 15000 59c8 58D1     		bne	.L294
 15001 59ca 3D4B     		ldr	r3, .L410+56
 15002 59cc 3D49     		ldr	r1, .L410+60
 15003 59ce 1868     		ldr	r0, [r3, #0]	@ float
 15004 59d0 FFF7FEFF 		bl	__aeabi_fcmpgt
 15005 59d4 0028     		cmp	r0, #0
 15006 59d6 51D0     		beq	.L294
 495:firmwares/fixedwing/main_ap.c ****       launch = TRUE; /* Not set in non auto launch */
 15007              		.loc 1 495 0
 15008 59d8 354B     		ldr	r3, .L410+40
 494:firmwares/fixedwing/main_ap.c ****       estimator_flight_time = 1;
 15009              		.loc 1 494 0
 15010 59da 2680     		strh	r6, [r4, #0]	@ movhi
 495:firmwares/fixedwing/main_ap.c ****       launch = TRUE; /* Not set in non auto launch */
 15011              		.loc 1 495 0
 15012 59dc 1E70     		strb	r6, [r3, #0]
 496:firmwares/fixedwing/main_ap.c ****       DOWNLINK_SEND_TAKEOFF(DefaultChannel, &cpu_time_sec);
 15013              		.loc 1 496 0
 15014 59de 2B48     		ldr	r0, .L410+4
 15015 59e0 0821     		movs	r1, #8
 15016 59e2 FFF7FEFF 		bl	uart_check_free_space
 15017 59e6 0028     		cmp	r0, #0
 15018 59e8 44D0     		beq	.L298
 15019 59ea 374B     		ldr	r3, .L410+64
 15020              	.LBB1737:
 15021 59ec 9921     		movs	r1, #153
 15022              	.LBE1737:
 15023 59ee 1A88     		ldrh	r2, [r3, #0]
 15024              	.LBB1738:
 15025 59f0 2648     		ldr	r0, .L410+4
 15026              	.LBE1738:
 15027 59f2 0832     		adds	r2, r2, #8
 15028 59f4 1A80     		strh	r2, [r3, #0]	@ movhi
 15029 59f6 354B     		ldr	r3, .L410+68
 15030              	.LBB1739:
 15031 59f8 354D     		ldr	r5, .L410+72
 15032              	.LBE1739:
 15033 59fa 1A88     		ldrh	r2, [r3, #0]
 15034              	.LBB1740:
 15035 59fc 354C     		ldr	r4, .L410+76
 15036              	.LBE1740:
 15037 59fe 0132     		adds	r2, r2, #1
 15038 5a00 1A80     		strh	r2, [r3, #0]	@ movhi
 15039              	.LBB1741:
 15040 5a02 FFF7FEFF 		bl	uart_transmit
 15041 5a06 0821     		movs	r1, #8
 15042 5a08 2048     		ldr	r0, .L410+4
 15043 5a0a FFF7FEFF 		bl	uart_transmit
 15044              	.LBE1741:
 15045 5a0e 0923     		movs	r3, #9
 15046 5a10 2B70     		strb	r3, [r5, #0]
 15047 5a12 0833     		adds	r3, r3, #8
 15048 5a14 2370     		strb	r3, [r4, #0]
 15049 5a16 3146     		mov	r1, r6
 15050 5a18 1C48     		ldr	r0, .L410+4
 15051 5a1a FFF7FEFF 		bl	uart_transmit
 15052 5a1e 2B78     		ldrb	r3, [r5, #0]	@ zero_extendqisi2
 15053 5a20 2278     		ldrb	r2, [r4, #0]	@ zero_extendqisi2
 15054 5a22 0433     		adds	r3, r3, #4
 15055 5a24 DBB2     		uxtb	r3, r3
 15056              	.LVL1346:
 15057 5a26 2B70     		strb	r3, [r5, #0]
 15058              	.LBB1742:
 15059 5a28 2B4E     		ldr	r6, .L410+80
 15060              	.LBE1742:
 15061 5a2a 9B18     		adds	r3, r3, r2
 15062              	.LVL1347:
 15063 5a2c 2370     		strb	r3, [r4, #0]
 15064 5a2e 0421     		movs	r1, #4
 15065 5a30 1648     		ldr	r0, .L410+4
 15066 5a32 FFF7FEFF 		bl	uart_transmit
 15067              	.LBB1743:
 15068 5a36 3178     		ldrb	r1, [r6, #0]	@ zero_extendqisi2
 15069              	.LVL1348:
 15070 5a38 2B78     		ldrb	r3, [r5, #0]	@ zero_extendqisi2
 15071 5a3a 2278     		ldrb	r2, [r4, #0]	@ zero_extendqisi2
 15072 5a3c CB18     		adds	r3, r1, r3
 15073 5a3e DBB2     		uxtb	r3, r3
 15074              	.LVL1349:
 15075 5a40 2B70     		strb	r3, [r5, #0]
 15076 5a42 9B18     		adds	r3, r3, r2
 15077              	.LVL1350:
 15078 5a44 2370     		strb	r3, [r4, #0]
 15079 5a46 1148     		ldr	r0, .L410+4
 15080 5a48 FFF7FEFF 		bl	uart_transmit
 15081              	.LVL1351:
 15082              	.LBE1743:
 15083              	.LBB1744:
 15084 5a4c 7178     		ldrb	r1, [r6, #1]	@ zero_extendqisi2
 15085              	.LVL1352:
 15086 5a4e 2B78     		ldrb	r3, [r5, #0]	@ zero_extendqisi2
 15087 5a50 2278     		ldrb	r2, [r4, #0]	@ zero_extendqisi2
 15088 5a52 CB18     		adds	r3, r1, r3
 15089 5a54 DBB2     		uxtb	r3, r3
 15090              	.LVL1353:
 15091 5a56 2B70     		strb	r3, [r5, #0]
 15092 5a58 9B18     		adds	r3, r3, r2
 15093              	.LVL1354:
 15094 5a5a 2370     		strb	r3, [r4, #0]
 15095 5a5c 0B48     		ldr	r0, .L410+4
 15096 5a5e FFF7FEFF 		bl	uart_transmit
 15097              	.LVL1355:
 15098              	.LBE1744:
 15099 5a62 2978     		ldrb	r1, [r5, #0]	@ zero_extendqisi2
 15100 5a64 0948     		ldr	r0, .L410+4
 15101 5a66 FFF7FEFF 		bl	uart_transmit
 15102 5a6a 0848     		ldr	r0, .L410+4
 15103 5a6c 2178     		ldrb	r1, [r4, #0]	@ zero_extendqisi2
 15104 5a6e FFF7FEFF 		bl	uart_transmit
 15105 5a72 03E0     		b	.L294
 15106              	.L298:
 15107 5a74 064B     		ldr	r3, .L410+8
 15108 5a76 1A78     		ldrb	r2, [r3, #0]	@ zero_extendqisi2
 15109 5a78 0132     		adds	r2, r2, #1
 15110 5a7a 1A70     		strb	r2, [r3, #0]
 15111              	.L294:
 526:firmwares/fixedwing/main_ap.c ****       attitude_loop();
 15112              		.loc 1 526 0
 15113 5a7c FFF7FEFF 		bl	attitude_loop
 15114              	.L299:
 533:firmwares/fixedwing/main_ap.c **** }
 15115              		.loc 1 533 0
 15116 5a80 05B0     		add	sp, sp, #20
 15117 5a82 BDE8F085 		pop	{r4, r5, r6, r7, r8, sl, pc}
 15118              	.L411:
 15119 5a86 00BF     		.align	2
 15120              	.L410:
 15121 5a88 00000000 		.word	v_ctl_climb_setpoint
 15122 5a8c 00000000 		.word	uart2
 15123 5a90 00000000 		.word	downlink_nb_ovrn
 15124 5a94 00000000 		.word	.LANCHOR20
 15125 5a98 00000000 		.word	estimator_flight_time
 15126 5a9c 00000000 		.word	datalink_time
 15127 5aa0 00000000 		.word	.LANCHOR10
 15128 5aa4 0000F03F 		.word	1072693248
 15129 5aa8 00000000 		.word	.LANCHOR71
 15130 5aac 00000000 		.word	.LANCHOR14
 15131 5ab0 00000000 		.word	.LANCHOR5
 15132 5ab4 00000000 		.word	dist2_to_home
 15133 5ab8 4054094A 		.word	1242125376
 15134 5abc 00000000 		.word	.LANCHOR19
 15135 5ac0 00000000 		.word	estimator_hspeed_mod
 15136 5ac4 0000A040 		.word	1084227584
 15137 5ac8 00000000 		.word	downlink_nb_bytes
 15138 5acc 00000000 		.word	downlink_nb_msgs
 15139 5ad0 00000000 		.word	ck_a
 15140 5ad4 00000000 		.word	ck_b
 15141 5ad8 00000000 		.word	cpu_time_sec
 15142              		.cfi_endproc
 15143              	.LFE54:
 15145 5adc AFF30080 		.section	.text.init_ap,"ax",%progbits
 15146              		.align	1
 15147              		.global	init_ap
 15148              		.thumb
 15149              		.thumb_func
 15151              	init_ap:
 15152              	.LFB55:
 536:firmwares/fixedwing/main_ap.c **** void init_ap( void ) {
 15153              		.loc 1 536 0
 15154              		.cfi_startproc
 15155              		@ args = 0, pretend = 0, frame = 0
 15156              		@ frame_needed = 0, uses_anonymous_args = 0
 15157 0000 10B5     		push	{r4, lr}
 15158              	.LCFI5:
 15159              		.cfi_def_cfa_offset 8
 547:firmwares/fixedwing/main_ap.c ****   gps_init();
 15160              		.loc 1 547 0
 15161              		.cfi_offset 14, -4
 15162              		.cfi_offset 4, -8
 15163 0002 FFF7FEFF 		bl	gps_init
 559:firmwares/fixedwing/main_ap.c ****   ahrs_aligner_init();
 15164              		.loc 1 559 0
 15165 0006 FFF7FEFF 		bl	ahrs_aligner_init
 563:firmwares/fixedwing/main_ap.c ****   ahrs_init();
 15166              		.loc 1 563 0
 15167 000a FFF7FEFF 		bl	ahrs_init
 575:firmwares/fixedwing/main_ap.c ****   h_ctl_init();
 15168              		.loc 1 575 0
 15169 000e FFF7FEFF 		bl	h_ctl_init
 576:firmwares/fixedwing/main_ap.c ****   v_ctl_init();
 15170              		.loc 1 576 0
 15171 0012 FFF7FEFF 		bl	v_ctl_init
 577:firmwares/fixedwing/main_ap.c ****   estimator_init();
 15172              		.loc 1 577 0
 15173 0016 FFF7FEFF 		bl	estimator_init
 579:firmwares/fixedwing/main_ap.c ****   alt_kalman_init();
 15174              		.loc 1 579 0
 15175 001a FFF7FEFF 		bl	alt_kalman_init
 581:firmwares/fixedwing/main_ap.c ****   nav_init();
 15176              		.loc 1 581 0
 15177 001e FFF7FEFF 		bl	nav_init
 585:firmwares/fixedwing/main_ap.c ****   settings_init();
 15178              		.loc 1 585 0
 15179 0022 FFF7FEFF 		bl	settings_init
 15180 0026 184B     		ldr	r3, .L417
 15181 0028 184A     		ldr	r2, .L417+4
 15182 002a 1B68     		ldr	r3, [r3, #0]
 15183 002c 1188     		ldrh	r1, [r2, #0]
 15184 002e 1F22     		movs	r2, #31
 15185              	.LVL1356:
 15186              	.L415:
 15187              	.LBB1749:
 15188              	.LBB1750:
 15189              		.file 3 "/home/mav/lisa-m-team4938/paparazzi/sw/airborne/arch/stm32/sys_time_hw.h"
   1:/home/mav/lisa-m-team4938/paparazzi/sw/airborne/arch/stm32/sys_time_hw.h **** /*
   2:/home/mav/lisa-m-team4938/paparazzi/sw/airborne/arch/stm32/sys_time_hw.h ****  * Paparazzi $Id$
   3:/home/mav/lisa-m-team4938/paparazzi/sw/airborne/arch/stm32/sys_time_hw.h ****  *
   4:/home/mav/lisa-m-team4938/paparazzi/sw/airborne/arch/stm32/sys_time_hw.h ****  * Copyright (C) 2009-2010 The Paparazzi Team
   5:/home/mav/lisa-m-team4938/paparazzi/sw/airborne/arch/stm32/sys_time_hw.h ****  *
   6:/home/mav/lisa-m-team4938/paparazzi/sw/airborne/arch/stm32/sys_time_hw.h ****  * This file is part of paparazzi.
   7:/home/mav/lisa-m-team4938/paparazzi/sw/airborne/arch/stm32/sys_time_hw.h ****  *
   8:/home/mav/lisa-m-team4938/paparazzi/sw/airborne/arch/stm32/sys_time_hw.h ****  * paparazzi is free software; you can redistribute it and/or modify
   9:/home/mav/lisa-m-team4938/paparazzi/sw/airborne/arch/stm32/sys_time_hw.h ****  * it under the terms of the GNU General Public License as published by
  10:/home/mav/lisa-m-team4938/paparazzi/sw/airborne/arch/stm32/sys_time_hw.h ****  * the Free Software Foundation; either version 2, or (at your option)
  11:/home/mav/lisa-m-team4938/paparazzi/sw/airborne/arch/stm32/sys_time_hw.h ****  * any later version.
  12:/home/mav/lisa-m-team4938/paparazzi/sw/airborne/arch/stm32/sys_time_hw.h ****  *
  13:/home/mav/lisa-m-team4938/paparazzi/sw/airborne/arch/stm32/sys_time_hw.h ****  * paparazzi is distributed in the hope that it will be useful,
  14:/home/mav/lisa-m-team4938/paparazzi/sw/airborne/arch/stm32/sys_time_hw.h ****  * but WITHOUT ANY WARRANTY; without even the implied warranty of
  15:/home/mav/lisa-m-team4938/paparazzi/sw/airborne/arch/stm32/sys_time_hw.h ****  * MERCHANTABILITY or FITNESS FOR A PARTICULAR PURPOSE.  See the
  16:/home/mav/lisa-m-team4938/paparazzi/sw/airborne/arch/stm32/sys_time_hw.h ****  * GNU General Public License for more details.
  17:/home/mav/lisa-m-team4938/paparazzi/sw/airborne/arch/stm32/sys_time_hw.h ****  *
  18:/home/mav/lisa-m-team4938/paparazzi/sw/airborne/arch/stm32/sys_time_hw.h ****  * You should have received a copy of the GNU General Public License
  19:/home/mav/lisa-m-team4938/paparazzi/sw/airborne/arch/stm32/sys_time_hw.h ****  * along with paparazzi; see the file COPYING.  If not, write to
  20:/home/mav/lisa-m-team4938/paparazzi/sw/airborne/arch/stm32/sys_time_hw.h ****  * the Free Software Foundation, 59 Temple Place - Suite 330,
  21:/home/mav/lisa-m-team4938/paparazzi/sw/airborne/arch/stm32/sys_time_hw.h ****  * Boston, MA 02111-1307, USA.
  22:/home/mav/lisa-m-team4938/paparazzi/sw/airborne/arch/stm32/sys_time_hw.h ****  *
  23:/home/mav/lisa-m-team4938/paparazzi/sw/airborne/arch/stm32/sys_time_hw.h ****  */
  24:/home/mav/lisa-m-team4938/paparazzi/sw/airborne/arch/stm32/sys_time_hw.h **** 
  25:/home/mav/lisa-m-team4938/paparazzi/sw/airborne/arch/stm32/sys_time_hw.h **** /*
  26:/home/mav/lisa-m-team4938/paparazzi/sw/airborne/arch/stm32/sys_time_hw.h ****  *\brief STM32 timing functions
  27:/home/mav/lisa-m-team4938/paparazzi/sw/airborne/arch/stm32/sys_time_hw.h ****  *
  28:/home/mav/lisa-m-team4938/paparazzi/sw/airborne/arch/stm32/sys_time_hw.h ****  */
  29:/home/mav/lisa-m-team4938/paparazzi/sw/airborne/arch/stm32/sys_time_hw.h **** 
  30:/home/mav/lisa-m-team4938/paparazzi/sw/airborne/arch/stm32/sys_time_hw.h **** #ifndef SYS_TIME_HW_H
  31:/home/mav/lisa-m-team4938/paparazzi/sw/airborne/arch/stm32/sys_time_hw.h **** #define SYS_TIME_HW_H
  32:/home/mav/lisa-m-team4938/paparazzi/sw/airborne/arch/stm32/sys_time_hw.h **** 
  33:/home/mav/lisa-m-team4938/paparazzi/sw/airborne/arch/stm32/sys_time_hw.h **** #include "sys_time.h"
  34:/home/mav/lisa-m-team4938/paparazzi/sw/airborne/arch/stm32/sys_time_hw.h **** 
  35:/home/mav/lisa-m-team4938/paparazzi/sw/airborne/arch/stm32/sys_time_hw.h **** #include <stm32/gpio.h>
  36:/home/mav/lisa-m-team4938/paparazzi/sw/airborne/arch/stm32/sys_time_hw.h **** #include <stm32/rcc.h>
  37:/home/mav/lisa-m-team4938/paparazzi/sw/airborne/arch/stm32/sys_time_hw.h **** #include "std.h"
  38:/home/mav/lisa-m-team4938/paparazzi/sw/airborne/arch/stm32/sys_time_hw.h **** #ifdef SYS_TIME_LED
  39:/home/mav/lisa-m-team4938/paparazzi/sw/airborne/arch/stm32/sys_time_hw.h **** #include "led.h"
  40:/home/mav/lisa-m-team4938/paparazzi/sw/airborne/arch/stm32/sys_time_hw.h **** #endif
  41:/home/mav/lisa-m-team4938/paparazzi/sw/airborne/arch/stm32/sys_time_hw.h **** 
  42:/home/mav/lisa-m-team4938/paparazzi/sw/airborne/arch/stm32/sys_time_hw.h **** #define InitSysTimePeriodic()
  43:/home/mav/lisa-m-team4938/paparazzi/sw/airborne/arch/stm32/sys_time_hw.h **** 
  44:/home/mav/lisa-m-team4938/paparazzi/sw/airborne/arch/stm32/sys_time_hw.h **** extern void sys_time_init( void );
  45:/home/mav/lisa-m-team4938/paparazzi/sw/airborne/arch/stm32/sys_time_hw.h **** extern void sys_tick_irq_handler(void);
  46:/home/mav/lisa-m-team4938/paparazzi/sw/airborne/arch/stm32/sys_time_hw.h **** 
  47:/home/mav/lisa-m-team4938/paparazzi/sw/airborne/arch/stm32/sys_time_hw.h **** extern volatile bool_t sys_time_period_elapsed;
  48:/home/mav/lisa-m-team4938/paparazzi/sw/airborne/arch/stm32/sys_time_hw.h **** extern uint32_t cpu_time_ticks;
  49:/home/mav/lisa-m-team4938/paparazzi/sw/airborne/arch/stm32/sys_time_hw.h **** 
  50:/home/mav/lisa-m-team4938/paparazzi/sw/airborne/arch/stm32/sys_time_hw.h **** #define SYS_TICS_OF_SEC(s)        (uint32_t)((s) * AHB_CLK + 0.5)
  51:/home/mav/lisa-m-team4938/paparazzi/sw/airborne/arch/stm32/sys_time_hw.h **** #define SIGNED_SYS_TICS_OF_SEC(s)  (int32_t)((s) * AHB_CLK + 0.5)
  52:/home/mav/lisa-m-team4938/paparazzi/sw/airborne/arch/stm32/sys_time_hw.h **** 
  53:/home/mav/lisa-m-team4938/paparazzi/sw/airborne/arch/stm32/sys_time_hw.h **** static inline bool_t sys_time_periodic( void ) {
  54:/home/mav/lisa-m-team4938/paparazzi/sw/airborne/arch/stm32/sys_time_hw.h ****   if (sys_time_period_elapsed) {
  55:/home/mav/lisa-m-team4938/paparazzi/sw/airborne/arch/stm32/sys_time_hw.h ****     sys_time_period_elapsed = FALSE;
  56:/home/mav/lisa-m-team4938/paparazzi/sw/airborne/arch/stm32/sys_time_hw.h ****     cpu_time_ticks += PERIODIC_TASK_PERIOD;
  57:/home/mav/lisa-m-team4938/paparazzi/sw/airborne/arch/stm32/sys_time_hw.h ****     if (cpu_time_ticks >= TIME_TICKS_PER_SEC) {
  58:/home/mav/lisa-m-team4938/paparazzi/sw/airborne/arch/stm32/sys_time_hw.h ****       cpu_time_ticks -= TIME_TICKS_PER_SEC;
  59:/home/mav/lisa-m-team4938/paparazzi/sw/airborne/arch/stm32/sys_time_hw.h ****       cpu_time_sec++;
  60:/home/mav/lisa-m-team4938/paparazzi/sw/airborne/arch/stm32/sys_time_hw.h **** #ifdef SYS_TIME_LED
  61:/home/mav/lisa-m-team4938/paparazzi/sw/airborne/arch/stm32/sys_time_hw.h ****       LED_TOGGLE(SYS_TIME_LED);
  62:/home/mav/lisa-m-team4938/paparazzi/sw/airborne/arch/stm32/sys_time_hw.h **** #endif
  63:/home/mav/lisa-m-team4938/paparazzi/sw/airborne/arch/stm32/sys_time_hw.h ****     }
  64:/home/mav/lisa-m-team4938/paparazzi/sw/airborne/arch/stm32/sys_time_hw.h ****     return TRUE;
  65:/home/mav/lisa-m-team4938/paparazzi/sw/airborne/arch/stm32/sys_time_hw.h ****   }
  66:/home/mav/lisa-m-team4938/paparazzi/sw/airborne/arch/stm32/sys_time_hw.h ****   else
  67:/home/mav/lisa-m-team4938/paparazzi/sw/airborne/arch/stm32/sys_time_hw.h ****     return FALSE;
  68:/home/mav/lisa-m-team4938/paparazzi/sw/airborne/arch/stm32/sys_time_hw.h **** }
  69:/home/mav/lisa-m-team4938/paparazzi/sw/airborne/arch/stm32/sys_time_hw.h **** 
  70:/home/mav/lisa-m-team4938/paparazzi/sw/airborne/arch/stm32/sys_time_hw.h **** /** Busy wait, in microseconds */
  71:/home/mav/lisa-m-team4938/paparazzi/sw/airborne/arch/stm32/sys_time_hw.h **** /* for now empty shell */
  72:/home/mav/lisa-m-team4938/paparazzi/sw/airborne/arch/stm32/sys_time_hw.h **** static inline void sys_time_usleep(uint32_t us) {
  73:/home/mav/lisa-m-team4938/paparazzi/sw/airborne/arch/stm32/sys_time_hw.h ****   uint32_t ready = SYS_TICS_OF_SEC((((float)us) / 1000000.)) / PERIODIC_TASK_PERIOD + 1;
  74:/home/mav/lisa-m-team4938/paparazzi/sw/airborne/arch/stm32/sys_time_hw.h ****   while (ready > 0)
  75:/home/mav/lisa-m-team4938/paparazzi/sw/airborne/arch/stm32/sys_time_hw.h ****   {
  76:/home/mav/lisa-m-team4938/paparazzi/sw/airborne/arch/stm32/sys_time_hw.h ****     if (sys_time_period_elapsed) ready--;
 15190              		.loc 3 76 0
 15191 0030 1748     		ldr	r0, .L417+8
 15192 0032 0078     		ldrb	r0, [r0, #0]	@ zero_extendqisi2
 15193 0034 00B1     		cbz	r0, .L413
 15194 0036 013A     		subs	r2, r2, #1
 15195              	.L413:
 15196              	.LBB1751:
 15197              	.LBB1752:
  54:/home/mav/lisa-m-team4938/paparazzi/sw/airborne/arch/stm32/sys_time_hw.h ****   if (sys_time_period_elapsed) {
 15198              		.loc 3 54 0
 15199 0038 1548     		ldr	r0, .L417+8
 15200 003a 0478     		ldrb	r4, [r0, #0]	@ zero_extendqisi2
 15201 003c BCB1     		cbz	r4, .L414
  55:/home/mav/lisa-m-team4938/paparazzi/sw/airborne/arch/stm32/sys_time_hw.h ****     sys_time_period_elapsed = FALSE;
 15202              		.loc 3 55 0
 15203 003e 4FF0000C 		mov	ip, #0
 15204 0042 80F800C0 		strb	ip, [r0, #0]
  56:/home/mav/lisa-m-team4938/paparazzi/sw/airborne/arch/stm32/sys_time_hw.h ****     cpu_time_ticks += PERIODIC_TASK_PERIOD;
 15205              		.loc 3 56 0
 15206 0046 03F59213 		add	r3, r3, #1196032
  57:/home/mav/lisa-m-team4938/paparazzi/sw/airborne/arch/stm32/sys_time_hw.h ****     if (cpu_time_ticks >= TIME_TICKS_PER_SEC) {
 15207              		.loc 3 57 0
 15208 004a 1248     		ldr	r0, .L417+12
  56:/home/mav/lisa-m-team4938/paparazzi/sw/airborne/arch/stm32/sys_time_hw.h ****     cpu_time_ticks += PERIODIC_TASK_PERIOD;
 15209              		.loc 3 56 0
 15210 004c 03F57863 		add	r3, r3, #3968
  57:/home/mav/lisa-m-team4938/paparazzi/sw/airborne/arch/stm32/sys_time_hw.h ****     if (cpu_time_ticks >= TIME_TICKS_PER_SEC) {
 15211              		.loc 3 57 0
 15212 0050 8342     		cmp	r3, r0
 15213 0052 0CD9     		bls	.L414
  61:/home/mav/lisa-m-team4938/paparazzi/sw/airborne/arch/stm32/sys_time_hw.h ****       LED_TOGGLE(SYS_TIME_LED);
 15214              		.loc 3 61 0
 15215 0054 1048     		ldr	r0, .L417+16
  58:/home/mav/lisa-m-team4938/paparazzi/sw/airborne/arch/stm32/sys_time_hw.h ****       cpu_time_ticks -= TIME_TICKS_PER_SEC;
 15216              		.loc 3 58 0
 15217 0056 A3F18863 		sub	r3, r3, #71303168
  61:/home/mav/lisa-m-team4938/paparazzi/sw/airborne/arch/stm32/sys_time_hw.h ****       LED_TOGGLE(SYS_TIME_LED);
 15218              		.loc 3 61 0
 15219 005a C468     		ldr	r4, [r0, #12]
  58:/home/mav/lisa-m-team4938/paparazzi/sw/airborne/arch/stm32/sys_time_hw.h ****       cpu_time_ticks -= TIME_TICKS_PER_SEC;
 15220              		.loc 3 58 0
 15221 005c A3F52A23 		sub	r3, r3, #696320
  59:/home/mav/lisa-m-team4938/paparazzi/sw/airborne/arch/stm32/sys_time_hw.h ****       cpu_time_sec++;
 15222              		.loc 3 59 0
 15223 0060 0131     		adds	r1, r1, #1
  61:/home/mav/lisa-m-team4938/paparazzi/sw/airborne/arch/stm32/sys_time_hw.h ****       LED_TOGGLE(SYS_TIME_LED);
 15224              		.loc 3 61 0
 15225 0062 84F01004 		eor	r4, r4, #16
  58:/home/mav/lisa-m-team4938/paparazzi/sw/airborne/arch/stm32/sys_time_hw.h ****       cpu_time_ticks -= TIME_TICKS_PER_SEC;
 15226              		.loc 3 58 0
 15227 0066 A3F50073 		sub	r3, r3, #512
  59:/home/mav/lisa-m-team4938/paparazzi/sw/airborne/arch/stm32/sys_time_hw.h ****       cpu_time_sec++;
 15228              		.loc 3 59 0
 15229 006a 89B2     		uxth	r1, r1
  61:/home/mav/lisa-m-team4938/paparazzi/sw/airborne/arch/stm32/sys_time_hw.h ****       LED_TOGGLE(SYS_TIME_LED);
 15230              		.loc 3 61 0
 15231 006c C460     		str	r4, [r0, #12]
 15232              	.L414:
 15233              	.LBE1752:
 15234              	.LBE1751:
  74:/home/mav/lisa-m-team4938/paparazzi/sw/airborne/arch/stm32/sys_time_hw.h ****   while (ready > 0)
 15235              		.loc 3 74 0
 15236 006e 002A     		cmp	r2, #0
 15237 0070 DED1     		bne	.L415
 15238 0072 0548     		ldr	r0, .L417
 15239 0074 0360     		str	r3, [r0, #0]
 15240 0076 054B     		ldr	r3, .L417+4
 15241 0078 1980     		strh	r1, [r3, #0]	@ movhi
 15242              	.LBE1750:
 15243              	.LBE1749:
 605:firmwares/fixedwing/main_ap.c ****   power_switch = FALSE;
 15244              		.loc 1 605 0
 15245 007a 084B     		ldr	r3, .L417+20
 15246 007c 1A70     		strb	r2, [r3, #0]
 612:firmwares/fixedwing/main_ap.c **** }
 15247              		.loc 1 612 0
 15248 007e BDE81040 		pop	{r4, lr}
 610:firmwares/fixedwing/main_ap.c ****   traffic_info_init();
 15249              		.loc 1 610 0
 15250 0082 FFF7FEBF 		b	traffic_info_init
 15251              	.LVL1357:
 15252              	.L418:
 15253 0086 00BF     		.align	2
 15254              	.L417:
 15255 0088 00000000 		.word	cpu_time_ticks
 15256 008c 00000000 		.word	cpu_time_sec
 15257 0090 00000000 		.word	sys_time_period_elapsed
 15258 0094 FFA14A04 		.word	71999999
 15259 0098 000C0140 		.word	1073810432
 15260 009c 00000000 		.word	.LANCHOR72
 15261              		.cfi_endproc
 15262              	.LFE55:
 15264              		.global	rc_settings_mode
 15265              		.global	fatal_error_nb
 15266              		.global	pprz_mode
 15267              		.global	lateral_mode
 15268              		.global	kill_throttle
 15269              		.global	launch
 15270              		.global	gps_lost
 15271              		.global	ac_ident
 15272              		.global	vsupply
 15273              		.global	energy
 15274              		.global	slider_1_val
 15275              		.global	slider_2_val
 15276              		.global	power_switch
 15277              		.section	.bss.i420.5298,"aw",%nobits
 15278              		.align	1
 15279              		.set	.LANCHOR66,. + 0
 15282              	i420.5298:
 15283 0000 0000     		.space	2
 15284              		.section	.bss.t.7236,"aw",%nobits
 15285              		.set	.LANCHOR71,. + 0
 15288              	t.7236:
 15289 0000 00       		.space	1
 15290              		.section	.bss.rc_settings_mode,"aw",%nobits
 15291              		.set	.LANCHOR8,. + 0
 15294              	rc_settings_mode:
 15295 0000 00       		.space	1
 15296              		.section	.bss.vsupply,"aw",%nobits
 15297              		.set	.LANCHOR10,. + 0
 15300              	vsupply:
 15301 0000 00       		.space	1
 15302              		.section	.bss.slider_2_val,"aw",%nobits
 15303              		.align	2
 15306              	slider_2_val:
 15307 0000 00000000 		.space	4
 15308              		.section	.bss.i84.5014,"aw",%nobits
 15309              		.set	.LANCHOR43,. + 0
 15312              	i84.5014:
 15313 0000 00       		.space	1
 15314              		.section	.bss._ck_b.2893,"aw",%nobits
 15315              		.set	.LANCHOR1,. + 0
 15318              	_ck_b.2893:
 15319 0000 00       		.space	1
 15320              		.section	.bss.i66.5012,"aw",%nobits
 15321              		.set	.LANCHOR41,. + 0
 15324              	i66.5012:
 15325 0000 00       		.space	1
 15326              		.section	.bss.i240.5020,"aw",%nobits
 15327              		.set	.LANCHOR49,. + 0
 15330              	i240.5020:
 15331 0000 00       		.space	1
 15332              		.section	.bss.i183.5018,"aw",%nobits
 15333              		.set	.LANCHOR47,. + 0
 15336              	i183.5018:
 15337 0000 00       		.space	1
 15338              		.section	.bss.last.5274,"aw",%nobits
 15339              		.align	1
 15340              		.set	.LANCHOR59,. + 0
 15343              	last.5274:
 15344 0000 0000     		.space	2
 15345              		.section	.bss.i63.5011,"aw",%nobits
 15346              		.set	.LANCHOR40,. + 0
 15349              	i63.5011:
 15350 0000 00       		.space	1
 15351              		.section	.bss._20Hz.7232,"aw",%nobits
 15352              		.set	.LANCHOR17,. + 0
 15355              	_20Hz.7232:
 15356 0000 00       		.space	1
 15357              		.section	.bss.i72.4719,"aw",%nobits
 15358              		.set	.LANCHOR28,. + 0
 15361              	i72.4719:
 15362 0000 00       		.space	1
 15363              		.section	.bss.i30.4715,"aw",%nobits
 15364              		.set	.LANCHOR24,. + 0
 15367              	i30.4715:
 15368 0000 00       		.space	1
 15369              		.section	.bss.i180.5017,"aw",%nobits
 15370              		.set	.LANCHOR46,. + 0
 15373              	i180.5017:
 15374 0000 00       		.space	1
 15375              		.section	.bss._1Hz.7235,"aw",%nobits
 15376              		.set	.LANCHOR20,. + 0
 15379              	_1Hz.7235:
 15380 0000 00       		.space	1
 15381              		.section	.bss._60Hz.7231,"aw",%nobits
 15382              		.set	.LANCHOR16,. + 0
 15385              	_60Hz.7231:
 15386 0000 00       		.space	1
 15387              		.section	.bss.i318.5294,"aw",%nobits
 15388              		.align	1
 15389              		.set	.LANCHOR62,. + 0
 15392              	i318.5294:
 15393 0000 0000     		.space	2
 15394              		.section	.bss.i243.5021,"aw",%nobits
 15395              		.set	.LANCHOR50,. + 0
 15398              	i243.5021:
 15399 0000 00       		.space	1
 15400              		.section	.bss.i90.4720,"aw",%nobits
 15401              		.set	.LANCHOR29,. + 0
 15404              	i90.4720:
 15405 0000 00       		.space	1
 15406              		.section	.bss.launch,"aw",%nobits
 15407              		.set	.LANCHOR5,. + 0
 15410              	launch:
 15411 0000 00       		.space	1
 15412              		.section	.data.ac_ident,"aw",%progbits
 15415              	ac_ident:
 15416 0000 01       		.byte	1
 15417              		.section	.bss.i330.5296,"aw",%nobits
 15418              		.align	1
 15419              		.set	.LANCHOR64,. + 0
 15422              	i330.5296:
 15423 0000 0000     		.space	2
 15424              		.section	.bss._10Hz.7233,"aw",%nobits
 15425              		.set	.LANCHOR18,. + 0
 15428              	_10Hz.7233:
 15429 0000 00       		.space	1
 15430              		.section	.bss.i.5093,"aw",%nobits
 15431              		.set	.LANCHOR57,. + 0
 15434              	i.5093:
 15435 0000 00       		.space	1
 15436              		.section	.bss.i.5111,"aw",%nobits
 15437              		.set	.LANCHOR58,. + 0
 15440              	i.5111:
 15441 0000 00       		.space	1
 15442              		.section	.bss.i126.4722,"aw",%nobits
 15443              		.set	.LANCHOR31,. + 0
 15446              	i126.4722:
 15447 0000 00       		.space	1
 15448              		.section	.bss.i342.5297,"aw",%nobits
 15449              		.align	1
 15450              		.set	.LANCHOR65,. + 0
 15453              	i342.5297:
 15454 0000 0000     		.space	2
 15455              		.section	.data.pprz_mode,"aw",%progbits
 15456              		.set	.LANCHOR4,. + 0
 15459              	pprz_mode:
 15460 0000 02       		.byte	2
 15461              		.section	.bss.i66.4718,"aw",%nobits
 15462              		.set	.LANCHOR27,. + 0
 15465              	i66.4718:
 15466 0000 00       		.space	1
 15467              		.section	.bss.i606.5299,"aw",%nobits
 15468              		.align	1
 15469              		.set	.LANCHOR67,. + 0
 15472              	i606.5299:
 15473 0000 0000     		.space	2
 15474              		.section	.bss.i.4905,"aw",%nobits
 15475              		.set	.LANCHOR38,. + 0
 15478              	i.4905:
 15479 0000 00       		.space	1
 15480              		.section	.bss.lateral_mode,"aw",%nobits
 15481              		.set	.LANCHOR7,. + 0
 15484              	lateral_mode:
 15485 0000 00       		.space	1
 15486              		.section	.bss.mcu1_status,"aw",%nobits
 15487              		.set	.LANCHOR6,. + 0
 15490              	mcu1_status:
 15491 0000 00       		.space	1
 15492              		.section	.bss.i63.4717,"aw",%nobits
 15493              		.set	.LANCHOR26,. + 0
 15496              	i63.4717:
 15497 0000 00       		.space	1
 15498              		.section	.bss.energy,"aw",%nobits
 15499              		.align	2
 15500              		.set	.LANCHOR15,. + 0
 15503              	energy:
 15504 0000 00000000 		.space	4
 15505              		.section	.bss.i120.4721,"aw",%nobits
 15506              		.set	.LANCHOR30,. + 0
 15509              	i120.4721:
 15510 0000 00       		.space	1
 15511              		.section	.bss.gps_lost,"aw",%nobits
 15512              		.set	.LANCHOR13,. + 0
 15515              	gps_lost:
 15516 0000 00       		.space	1
 15517              		.section	.bss.i60.4716,"aw",%nobits
 15518              		.set	.LANCHOR25,. + 0
 15521              	i60.4716:
 15522 0000 00       		.space	1
 15523              		.section	.bss.i540.5025,"aw",%nobits
 15524              		.align	1
 15525              		.set	.LANCHOR54,. + 0
 15528              	i540.5025:
 15529 0000 0000     		.space	2
 15530              		.section	.bss.last_pprz_mode.7030,"aw",%nobits
 15531              		.set	.LANCHOR12,. + 0
 15534              	last_pprz_mode.7030:
 15535 0000 00       		.space	1
 15536              		.section	.bss.last.5385,"aw",%nobits
 15537              		.align	1
 15538              		.set	.LANCHOR70,. + 0
 15541              	last.5385:
 15542 0000 0000     		.space	2
 15543              		.section	.bss.fatal_error_nb,"aw",%nobits
 15546              	fatal_error_nb:
 15547 0000 00       		.space	1
 15548              		.section	.bss.i.5307,"aw",%nobits
 15549              		.set	.LANCHOR69,. + 0
 15552              	i.5307:
 15553 0000 00       		.space	1
 15554              		.section	.bss.i90.5015,"aw",%nobits
 15555              		.set	.LANCHOR44,. + 0
 15558              	i90.5015:
 15559 0000 00       		.space	1
 15560              		.section	.bss.i.5027,"aw",%nobits
 15561              		.set	.LANCHOR56,. + 0
 15564              	i.5027:
 15565 0000 00       		.space	1
 15566              		.section	.bss.i306.5293,"aw",%nobits
 15567              		.align	1
 15568              		.set	.LANCHOR61,. + 0
 15571              	i306.5293:
 15572 0000 0000     		.space	2
 15573              		.section	.bss.i300.5022,"aw",%nobits
 15574              		.align	1
 15575              		.set	.LANCHOR51,. + 0
 15578              	i300.5022:
 15579 0000 0000     		.space	2
 15580              		.section	.bss.i306.5023,"aw",%nobits
 15581              		.align	1
 15582              		.set	.LANCHOR52,. + 0
 15585              	i306.5023:
 15586 0000 0000     		.space	2
 15587              		.section	.bss.i324.5295,"aw",%nobits
 15588              		.align	1
 15589              		.set	.LANCHOR63,. + 0
 15592              	i324.5295:
 15593 0000 0000     		.space	2
 15594              		.section	.bss.i150.4723,"aw",%nobits
 15595              		.set	.LANCHOR32,. + 0
 15598              	i150.4723:
 15599 0000 00       		.space	1
 15600              		.section	.bss.i15.4714,"aw",%nobits
 15601              		.set	.LANCHOR23,. + 0
 15604              	i15.4714:
 15605 0000 00       		.space	1
 15606              		.section	.bss.kill_throttle,"aw",%nobits
 15607              		.set	.LANCHOR14,. + 0
 15610              	kill_throttle:
 15611 0000 00       		.space	1
 15612              		.section	.bss.pprz_status.2891,"aw",%nobits
 15613              		.set	.LANCHOR0,. + 0
 15616              	pprz_status.2891:
 15617 0000 00       		.space	1
 15618              		.section	.bss._4Hz.7234,"aw",%nobits
 15619              		.set	.LANCHOR19,. + 0
 15622              	_4Hz.7234:
 15623 0000 00       		.space	1
 15624              		.section	.rodata.version,"a",%progbits
 15625              		.align	1
 15626              		.set	.LANCHOR22,. + 0
 15629              	version:
 15630 0000 0100     		.short	1
 15631              		.section	.bss.i612.5300,"aw",%nobits
 15632              		.align	1
 15633              		.set	.LANCHOR68,. + 0
 15636              	i612.5300:
 15637 0000 0000     		.space	2
 15638              		.section	.bss._ck_a.2892,"aw",%nobits
 15639              		.set	.LANCHOR2,. + 0
 15642              	_ck_a.2892:
 15643 0000 00       		.space	1
 15644              		.section	.bss.i.4727,"aw",%nobits
 15645              		.set	.LANCHOR36,. + 0
 15648              	i.4727:
 15649 0000 00       		.space	1
 15650              		.section	.bss.i300.5292,"aw",%nobits
 15651              		.align	1
 15652              		.set	.LANCHOR60,. + 0
 15655              	i300.5292:
 15656 0000 0000     		.space	2
 15657              		.section	.bss.i126.5016,"aw",%nobits
 15658              		.set	.LANCHOR45,. + 0
 15661              	i126.5016:
 15662 0000 00       		.space	1
 15663              		.section	.bss.i78.5013,"aw",%nobits
 15664              		.set	.LANCHOR42,. + 0
 15667              	i78.5013:
 15668 0000 00       		.space	1
 15669              		.section	.bss.i300.4724,"aw",%nobits
 15670              		.align	1
 15671              		.set	.LANCHOR33,. + 0
 15674              	i300.4724:
 15675 0000 0000     		.space	2
 15676              		.section	.bss.i306.4725,"aw",%nobits
 15677              		.align	1
 15678              		.set	.LANCHOR34,. + 0
 15681              	i306.4725:
 15682 0000 0000     		.space	2
 15683              		.section	.bss.slider_1_val,"aw",%nobits
 15684              		.align	2
 15687              	slider_1_val:
 15688 0000 00000000 		.space	4
 15689              		.section	.bss.i540.4726,"aw",%nobits
 15690              		.align	1
 15691              		.set	.LANCHOR35,. + 0
 15694              	i540.4726:
 15695 0000 0000     		.space	2
 15696              		.section	.bss.current,"aw",%nobits
 15697              		.align	2
 15698              		.set	.LANCHOR11,. + 0
 15701              	current:
 15702 0000 00000000 		.space	4
 15703              		.section	.bss.power_switch,"aw",%nobits
 15704              		.set	.LANCHOR72,. + 0
 15707              	power_switch:
 15708 0000 00       		.space	1
 15709              		.section	.bss.last.4993,"aw",%nobits
 15710              		.align	1
 15711              		.set	.LANCHOR39,. + 0
 15714              	last.4993:
 15715 0000 0000     		.space	2
 15716              		.section	.bss.mcu1_ppm_cpt,"aw",%nobits
 15717              		.set	.LANCHOR9,. + 0
 15720              	mcu1_ppm_cpt:
 15721 0000 00       		.space	1
 15722              		.section	.bss.i.4789,"aw",%nobits
 15723              		.set	.LANCHOR37,. + 0
 15726              	i.4789:
 15727 0000 00       		.space	1
 15728              		.section	.bss.i606.5026,"aw",%nobits
 15729              		.align	1
 15730              		.set	.LANCHOR55,. + 0
 15733              	i606.5026:
 15734 0000 0000     		.space	2
 15735              		.section	.rodata.str1.1,"aMS",%progbits,1
 15736              	.LC0:
 15737 0000 27E46793 		.ascii	"'\344g\223\037\021-\261\273\272u\220\237\323\255\343"
 15737      1F112DB1 
 15737      BBBA7590 
 15737      9FD3ADE3 
 15738 0010 00       		.ascii	"\000"
 15739              		.section	.bss.i312.5024,"aw",%nobits
 15740              		.align	1
 15741              		.set	.LANCHOR53,. + 0
 15744              	i312.5024:
 15745 0000 0000     		.space	2
 15746              		.section	.bss.payload_idx.2894,"aw",%nobits
 15747              		.set	.LANCHOR3,. + 0
 15750              	payload_idx.2894:
 15751 0000 00       		.space	1
 15752              		.section	.bss.i192.5019,"aw",%nobits
 15753              		.set	.LANCHOR48,. + 0
 15756              	i192.5019:
 15757 0000 00       		.space	1
 15758              		.section	.data.boot.4710,"aw",%progbits
 15759              		.set	.LANCHOR21,. + 0
 15762              	boot.4710:
 15763 0000 01       		.byte	1
 15764              		.text
 15765              	.Letext0:
DEFINED SYMBOLS
                            *ABS*:00000000 main_ap.c
     /tmp/ccWGJLG7.s:24     .text.on_ahrs_event:00000000 $t
     /tmp/ccWGJLG7.s:28     .text.on_ahrs_event:00000000 on_ahrs_event
     /tmp/ccWGJLG7.s:45     .text.event_task_ap:00000000 $t
     /tmp/ccWGJLG7.s:50     .text.event_task_ap:00000000 event_task_ap
     /tmp/ccWGJLG7.s:171    .text.event_task_ap:000000c4 $d
     /tmp/ccWGJLG7.s:447    .text.event_task_ap:00000238 $d
     /tmp/ccWGJLG7.s:472    .text.event_task_ap:00000294 $t
     /tmp/ccWGJLG7.s:762    .text.event_task_ap:00000444 $d
     /tmp/ccWGJLG7.s:802    .text.navigation_task:00000000 $t
     /tmp/ccWGJLG7.s:806    .text.navigation_task:00000000 navigation_task
     /tmp/ccWGJLG7.s:1212   .text.navigation_task:00000268 $d
     /tmp/ccWGJLG7.s:1231   .text.navigation_task:000002ac $t
     /tmp/ccWGJLG7.s:1644   .text.navigation_task:00000500 $d
     /tmp/ccWGJLG7.s:1661   .text.navigation_task:0000053c $t
     /tmp/ccWGJLG7.s:1806   .text.navigation_task:00000648 $d
     /tmp/ccWGJLG7.s:1827   .text.attitude_loop:00000000 $t
     /tmp/ccWGJLG7.s:1831   .text.attitude_loop:00000000 attitude_loop
     /tmp/ccWGJLG7.s:1869   .text.attitude_loop:00000028 $d
     /tmp/ccWGJLG7.s:1880   .text.periodic_task_ap:00000000 $t
     /tmp/ccWGJLG7.s:1885   .text.periodic_task_ap:00000000 periodic_task_ap
     /tmp/ccWGJLG7.s:2079   .text.periodic_task_ap:00000110 $d
     /tmp/ccWGJLG7.s:2094   .text.periodic_task_ap:00000144 $t
     /tmp/ccWGJLG7.s:2434   .text.periodic_task_ap:000003b0 $d
     /tmp/ccWGJLG7.s:2459   .text.periodic_task_ap:00000410 $t
     /tmp/ccWGJLG7.s:2719   .text.periodic_task_ap:000005c4 $d
     /tmp/ccWGJLG7.s:2722   .text.periodic_task_ap:000005cc $t
     /tmp/ccWGJLG7.s:2941   .text.periodic_task_ap:00000770 $d
     /tmp/ccWGJLG7.s:2950   .text.periodic_task_ap:00000790 $t
     /tmp/ccWGJLG7.s:3316   .text.periodic_task_ap:000009e0 $d
     /tmp/ccWGJLG7.s:3331   .text.periodic_task_ap:00000a14 $t
     /tmp/ccWGJLG7.s:3615   .text.periodic_task_ap:00000c0c $d
     /tmp/ccWGJLG7.s:3629   .text.periodic_task_ap:00000c38 $t
     /tmp/ccWGJLG7.s:4009   .text.periodic_task_ap:00000ea0 $d
     /tmp/ccWGJLG7.s:4027   .text.periodic_task_ap:00000ee4 $t
     /tmp/ccWGJLG7.s:4215   .text.periodic_task_ap:00001010 $d
     /tmp/ccWGJLG7.s:4228   .text.periodic_task_ap:0000103c $t
     /tmp/ccWGJLG7.s:4642   .text.periodic_task_ap:000012b4 $d
     /tmp/ccWGJLG7.s:4654   .text.periodic_task_ap:000012e0 $t
     /tmp/ccWGJLG7.s:5022   .text.periodic_task_ap:00001534 $d
     /tmp/ccWGJLG7.s:5039   .text.periodic_task_ap:00001574 $t
     /tmp/ccWGJLG7.s:5375   .text.periodic_task_ap:0000178c $d
     /tmp/ccWGJLG7.s:5420   .text.periodic_task_ap:000017c0 $d
     /tmp/ccWGJLG7.s:5444   .text.periodic_task_ap:0000181c $t
     /tmp/ccWGJLG7.s:5823   .text.periodic_task_ap:00001a90 $d
     /tmp/ccWGJLG7.s:5835   .text.periodic_task_ap:00001abc $t
     /tmp/ccWGJLG7.s:5959   .text.periodic_task_ap:00001b84 $d
     /tmp/ccWGJLG7.s:5971   .text.periodic_task_ap:00001ba8 $t
     /tmp/ccWGJLG7.s:6278   .text.periodic_task_ap:00001d8c $d
     /tmp/ccWGJLG7.s:6289   .text.periodic_task_ap:00001db4 $t
     /tmp/ccWGJLG7.s:6582   .text.periodic_task_ap:00001fac $d
     /tmp/ccWGJLG7.s:6595   .text.periodic_task_ap:00001fdc $t
     /tmp/ccWGJLG7.s:6846   .text.periodic_task_ap:00002190 $d
     /tmp/ccWGJLG7.s:6861   .text.periodic_task_ap:000021c8 $t
     /tmp/ccWGJLG7.s:7207   .text.periodic_task_ap:00002420 $d
     /tmp/ccWGJLG7.s:7222   .text.periodic_task_ap:00002458 $t
     /tmp/ccWGJLG7.s:7550   .text.periodic_task_ap:000026b8 $d
     /tmp/ccWGJLG7.s:7580   .text.periodic_task_ap:00002728 $t
     /tmp/ccWGJLG7.s:7888   .text.periodic_task_ap:0000292c $d
     /tmp/ccWGJLG7.s:7891   .text.periodic_task_ap:00002934 $t
     /tmp/ccWGJLG7.s:8110   .text.periodic_task_ap:00002ad8 $d
     /tmp/ccWGJLG7.s:8119   .text.periodic_task_ap:00002af8 $t
     /tmp/ccWGJLG7.s:8423   .text.periodic_task_ap:00002ce0 $d
     /tmp/ccWGJLG7.s:8440   .text.periodic_task_ap:00002d20 $t
     /tmp/ccWGJLG7.s:8629   .text.periodic_task_ap:00002e50 $d
     /tmp/ccWGJLG7.s:8639   .text.periodic_task_ap:00002e74 $t
     /tmp/ccWGJLG7.s:8970   .text.periodic_task_ap:000030c4 $d
     /tmp/ccWGJLG7.s:8996   .text.periodic_task_ap:000030e0 $d
     /tmp/ccWGJLG7.s:9015   .text.periodic_task_ap:00003128 $t
     /tmp/ccWGJLG7.s:9183   .text.periodic_task_ap:00003238 $d
     /tmp/ccWGJLG7.s:9198   .text.periodic_task_ap:00003270 $t
     /tmp/ccWGJLG7.s:9517   .text.periodic_task_ap:00003468 $d
     /tmp/ccWGJLG7.s:9531   .text.periodic_task_ap:0000349c $t
     /tmp/ccWGJLG7.s:9907   .text.periodic_task_ap:00003700 $d
     /tmp/ccWGJLG7.s:9925   .text.periodic_task_ap:00003744 $t
     /tmp/ccWGJLG7.s:10178  .text.periodic_task_ap:000038d8 $d
     /tmp/ccWGJLG7.s:10190  .text.periodic_task_ap:00003904 $t
     /tmp/ccWGJLG7.s:10503  .text.periodic_task_ap:00003af4 $d
     /tmp/ccWGJLG7.s:10516  .text.periodic_task_ap:00003b24 $t
     /tmp/ccWGJLG7.s:10764  .text.periodic_task_ap:00003cb0 $d
     /tmp/ccWGJLG7.s:10775  .text.periodic_task_ap:00003cd8 $t
     /tmp/ccWGJLG7.s:11184  .text.periodic_task_ap:00003f4c $d
     /tmp/ccWGJLG7.s:11201  .text.periodic_task_ap:00003f80 $t
     /tmp/ccWGJLG7.s:11534  .text.periodic_task_ap:000041b4 $d
     /tmp/ccWGJLG7.s:11550  .text.periodic_task_ap:000041f0 $t
     /tmp/ccWGJLG7.s:11886  .text.periodic_task_ap:0000440c $d
     /tmp/ccWGJLG7.s:11897  .text.periodic_task_ap:00004434 $t
     /tmp/ccWGJLG7.s:12237  .text.periodic_task_ap:00004680 $d
     /tmp/ccWGJLG7.s:12251  .text.periodic_task_ap:000046b4 $t
     /tmp/ccWGJLG7.s:12441  .text.periodic_task_ap:00004828 $d
     /tmp/ccWGJLG7.s:12459  .text.periodic_task_ap:0000486c $t
     /tmp/ccWGJLG7.s:12836  .text.periodic_task_ap:00004af8 $d
     /tmp/ccWGJLG7.s:12852  .text.periodic_task_ap:00004b28 $t
     /tmp/ccWGJLG7.s:13164  .text.periodic_task_ap:00004d6c $d
     /tmp/ccWGJLG7.s:13173  .text.periodic_task_ap:00004d8c $t
     /tmp/ccWGJLG7.s:13366  .text.periodic_task_ap:00004ec4 $d
     /tmp/ccWGJLG7.s:13377  .text.periodic_task_ap:00004eec $t
     /tmp/ccWGJLG7.s:13753  .text.periodic_task_ap:00005150 $d
     /tmp/ccWGJLG7.s:13771  .text.periodic_task_ap:00005194 $t
     /tmp/ccWGJLG7.s:14073  .text.periodic_task_ap:000053b8 $d
     /tmp/ccWGJLG7.s:14091  .text.periodic_task_ap:000053fc $t
     /tmp/ccWGJLG7.s:14389  .text.periodic_task_ap:000055dc $d
     /tmp/ccWGJLG7.s:14404  .text.periodic_task_ap:00005614 $t
     /tmp/ccWGJLG7.s:14815  .text.periodic_task_ap:00005888 $d
     /tmp/ccWGJLG7.s:14832  .text.periodic_task_ap:000058bc $t
     /tmp/ccWGJLG7.s:15121  .text.periodic_task_ap:00005a88 $d
     /tmp/ccWGJLG7.s:15146  .text.init_ap:00000000 $t
     /tmp/ccWGJLG7.s:15151  .text.init_ap:00000000 init_ap
     /tmp/ccWGJLG7.s:15255  .text.init_ap:00000088 $d
     /tmp/ccWGJLG7.s:15294  .bss.rc_settings_mode:00000000 rc_settings_mode
     /tmp/ccWGJLG7.s:15546  .bss.fatal_error_nb:00000000 fatal_error_nb
     /tmp/ccWGJLG7.s:15459  .data.pprz_mode:00000000 pprz_mode
     /tmp/ccWGJLG7.s:15484  .bss.lateral_mode:00000000 lateral_mode
     /tmp/ccWGJLG7.s:15610  .bss.kill_throttle:00000000 kill_throttle
     /tmp/ccWGJLG7.s:15410  .bss.launch:00000000 launch
     /tmp/ccWGJLG7.s:15515  .bss.gps_lost:00000000 gps_lost
     /tmp/ccWGJLG7.s:15415  .data.ac_ident:00000000 ac_ident
     /tmp/ccWGJLG7.s:15300  .bss.vsupply:00000000 vsupply
     /tmp/ccWGJLG7.s:15503  .bss.energy:00000000 energy
     /tmp/ccWGJLG7.s:15687  .bss.slider_1_val:00000000 slider_1_val
     /tmp/ccWGJLG7.s:15306  .bss.slider_2_val:00000000 slider_2_val
     /tmp/ccWGJLG7.s:15707  .bss.power_switch:00000000 power_switch
     /tmp/ccWGJLG7.s:15278  .bss.i420.5298:00000000 $d
     /tmp/ccWGJLG7.s:15282  .bss.i420.5298:00000000 i420.5298
     /tmp/ccWGJLG7.s:15288  .bss.t.7236:00000000 t.7236
     /tmp/ccWGJLG7.s:15289  .bss.t.7236:00000000 $d
     /tmp/ccWGJLG7.s:15295  .bss.rc_settings_mode:00000000 $d
     /tmp/ccWGJLG7.s:15301  .bss.vsupply:00000000 $d
     /tmp/ccWGJLG7.s:15303  .bss.slider_2_val:00000000 $d
     /tmp/ccWGJLG7.s:15312  .bss.i84.5014:00000000 i84.5014
     /tmp/ccWGJLG7.s:15313  .bss.i84.5014:00000000 $d
     /tmp/ccWGJLG7.s:15318  .bss._ck_b.2893:00000000 _ck_b.2893
     /tmp/ccWGJLG7.s:15319  .bss._ck_b.2893:00000000 $d
     /tmp/ccWGJLG7.s:15324  .bss.i66.5012:00000000 i66.5012
     /tmp/ccWGJLG7.s:15325  .bss.i66.5012:00000000 $d
     /tmp/ccWGJLG7.s:15330  .bss.i240.5020:00000000 i240.5020
     /tmp/ccWGJLG7.s:15331  .bss.i240.5020:00000000 $d
     /tmp/ccWGJLG7.s:15336  .bss.i183.5018:00000000 i183.5018
     /tmp/ccWGJLG7.s:15337  .bss.i183.5018:00000000 $d
     /tmp/ccWGJLG7.s:15339  .bss.last.5274:00000000 $d
     /tmp/ccWGJLG7.s:15343  .bss.last.5274:00000000 last.5274
     /tmp/ccWGJLG7.s:15349  .bss.i63.5011:00000000 i63.5011
     /tmp/ccWGJLG7.s:15350  .bss.i63.5011:00000000 $d
     /tmp/ccWGJLG7.s:15355  .bss._20Hz.7232:00000000 _20Hz.7232
     /tmp/ccWGJLG7.s:15356  .bss._20Hz.7232:00000000 $d
     /tmp/ccWGJLG7.s:15361  .bss.i72.4719:00000000 i72.4719
     /tmp/ccWGJLG7.s:15362  .bss.i72.4719:00000000 $d
     /tmp/ccWGJLG7.s:15367  .bss.i30.4715:00000000 i30.4715
     /tmp/ccWGJLG7.s:15368  .bss.i30.4715:00000000 $d
     /tmp/ccWGJLG7.s:15373  .bss.i180.5017:00000000 i180.5017
     /tmp/ccWGJLG7.s:15374  .bss.i180.5017:00000000 $d
     /tmp/ccWGJLG7.s:15379  .bss._1Hz.7235:00000000 _1Hz.7235
     /tmp/ccWGJLG7.s:15380  .bss._1Hz.7235:00000000 $d
     /tmp/ccWGJLG7.s:15385  .bss._60Hz.7231:00000000 _60Hz.7231
     /tmp/ccWGJLG7.s:15386  .bss._60Hz.7231:00000000 $d
     /tmp/ccWGJLG7.s:15388  .bss.i318.5294:00000000 $d
     /tmp/ccWGJLG7.s:15392  .bss.i318.5294:00000000 i318.5294
     /tmp/ccWGJLG7.s:15398  .bss.i243.5021:00000000 i243.5021
     /tmp/ccWGJLG7.s:15399  .bss.i243.5021:00000000 $d
     /tmp/ccWGJLG7.s:15404  .bss.i90.4720:00000000 i90.4720
     /tmp/ccWGJLG7.s:15405  .bss.i90.4720:00000000 $d
     /tmp/ccWGJLG7.s:15411  .bss.launch:00000000 $d
     /tmp/ccWGJLG7.s:15418  .bss.i330.5296:00000000 $d
     /tmp/ccWGJLG7.s:15422  .bss.i330.5296:00000000 i330.5296
     /tmp/ccWGJLG7.s:15428  .bss._10Hz.7233:00000000 _10Hz.7233
     /tmp/ccWGJLG7.s:15429  .bss._10Hz.7233:00000000 $d
     /tmp/ccWGJLG7.s:15434  .bss.i.5093:00000000 i.5093
     /tmp/ccWGJLG7.s:15435  .bss.i.5093:00000000 $d
     /tmp/ccWGJLG7.s:15440  .bss.i.5111:00000000 i.5111
     /tmp/ccWGJLG7.s:15441  .bss.i.5111:00000000 $d
     /tmp/ccWGJLG7.s:15446  .bss.i126.4722:00000000 i126.4722
     /tmp/ccWGJLG7.s:15447  .bss.i126.4722:00000000 $d
     /tmp/ccWGJLG7.s:15449  .bss.i342.5297:00000000 $d
     /tmp/ccWGJLG7.s:15453  .bss.i342.5297:00000000 i342.5297
     /tmp/ccWGJLG7.s:15465  .bss.i66.4718:00000000 i66.4718
     /tmp/ccWGJLG7.s:15466  .bss.i66.4718:00000000 $d
     /tmp/ccWGJLG7.s:15468  .bss.i606.5299:00000000 $d
     /tmp/ccWGJLG7.s:15472  .bss.i606.5299:00000000 i606.5299
     /tmp/ccWGJLG7.s:15478  .bss.i.4905:00000000 i.4905
     /tmp/ccWGJLG7.s:15479  .bss.i.4905:00000000 $d
     /tmp/ccWGJLG7.s:15485  .bss.lateral_mode:00000000 $d
     /tmp/ccWGJLG7.s:15490  .bss.mcu1_status:00000000 mcu1_status
     /tmp/ccWGJLG7.s:15491  .bss.mcu1_status:00000000 $d
     /tmp/ccWGJLG7.s:15496  .bss.i63.4717:00000000 i63.4717
     /tmp/ccWGJLG7.s:15497  .bss.i63.4717:00000000 $d
     /tmp/ccWGJLG7.s:15499  .bss.energy:00000000 $d
     /tmp/ccWGJLG7.s:15509  .bss.i120.4721:00000000 i120.4721
     /tmp/ccWGJLG7.s:15510  .bss.i120.4721:00000000 $d
     /tmp/ccWGJLG7.s:15516  .bss.gps_lost:00000000 $d
     /tmp/ccWGJLG7.s:15521  .bss.i60.4716:00000000 i60.4716
     /tmp/ccWGJLG7.s:15522  .bss.i60.4716:00000000 $d
     /tmp/ccWGJLG7.s:15524  .bss.i540.5025:00000000 $d
     /tmp/ccWGJLG7.s:15528  .bss.i540.5025:00000000 i540.5025
     /tmp/ccWGJLG7.s:15534  .bss.last_pprz_mode.7030:00000000 last_pprz_mode.7030
     /tmp/ccWGJLG7.s:15535  .bss.last_pprz_mode.7030:00000000 $d
     /tmp/ccWGJLG7.s:15537  .bss.last.5385:00000000 $d
     /tmp/ccWGJLG7.s:15541  .bss.last.5385:00000000 last.5385
     /tmp/ccWGJLG7.s:15547  .bss.fatal_error_nb:00000000 $d
     /tmp/ccWGJLG7.s:15552  .bss.i.5307:00000000 i.5307
     /tmp/ccWGJLG7.s:15553  .bss.i.5307:00000000 $d
     /tmp/ccWGJLG7.s:15558  .bss.i90.5015:00000000 i90.5015
     /tmp/ccWGJLG7.s:15559  .bss.i90.5015:00000000 $d
     /tmp/ccWGJLG7.s:15564  .bss.i.5027:00000000 i.5027
     /tmp/ccWGJLG7.s:15565  .bss.i.5027:00000000 $d
     /tmp/ccWGJLG7.s:15567  .bss.i306.5293:00000000 $d
     /tmp/ccWGJLG7.s:15571  .bss.i306.5293:00000000 i306.5293
     /tmp/ccWGJLG7.s:15574  .bss.i300.5022:00000000 $d
     /tmp/ccWGJLG7.s:15578  .bss.i300.5022:00000000 i300.5022
     /tmp/ccWGJLG7.s:15581  .bss.i306.5023:00000000 $d
     /tmp/ccWGJLG7.s:15585  .bss.i306.5023:00000000 i306.5023
     /tmp/ccWGJLG7.s:15588  .bss.i324.5295:00000000 $d
     /tmp/ccWGJLG7.s:15592  .bss.i324.5295:00000000 i324.5295
     /tmp/ccWGJLG7.s:15598  .bss.i150.4723:00000000 i150.4723
     /tmp/ccWGJLG7.s:15599  .bss.i150.4723:00000000 $d
     /tmp/ccWGJLG7.s:15604  .bss.i15.4714:00000000 i15.4714
     /tmp/ccWGJLG7.s:15605  .bss.i15.4714:00000000 $d
     /tmp/ccWGJLG7.s:15611  .bss.kill_throttle:00000000 $d
     /tmp/ccWGJLG7.s:15616  .bss.pprz_status.2891:00000000 pprz_status.2891
     /tmp/ccWGJLG7.s:15617  .bss.pprz_status.2891:00000000 $d
     /tmp/ccWGJLG7.s:15622  .bss._4Hz.7234:00000000 _4Hz.7234
     /tmp/ccWGJLG7.s:15623  .bss._4Hz.7234:00000000 $d
     /tmp/ccWGJLG7.s:15625  .rodata.version:00000000 $d
     /tmp/ccWGJLG7.s:15629  .rodata.version:00000000 version
     /tmp/ccWGJLG7.s:15632  .bss.i612.5300:00000000 $d
     /tmp/ccWGJLG7.s:15636  .bss.i612.5300:00000000 i612.5300
     /tmp/ccWGJLG7.s:15642  .bss._ck_a.2892:00000000 _ck_a.2892
     /tmp/ccWGJLG7.s:15643  .bss._ck_a.2892:00000000 $d
     /tmp/ccWGJLG7.s:15648  .bss.i.4727:00000000 i.4727
     /tmp/ccWGJLG7.s:15649  .bss.i.4727:00000000 $d
     /tmp/ccWGJLG7.s:15651  .bss.i300.5292:00000000 $d
     /tmp/ccWGJLG7.s:15655  .bss.i300.5292:00000000 i300.5292
     /tmp/ccWGJLG7.s:15661  .bss.i126.5016:00000000 i126.5016
     /tmp/ccWGJLG7.s:15662  .bss.i126.5016:00000000 $d
     /tmp/ccWGJLG7.s:15667  .bss.i78.5013:00000000 i78.5013
     /tmp/ccWGJLG7.s:15668  .bss.i78.5013:00000000 $d
     /tmp/ccWGJLG7.s:15670  .bss.i300.4724:00000000 $d
     /tmp/ccWGJLG7.s:15674  .bss.i300.4724:00000000 i300.4724
     /tmp/ccWGJLG7.s:15677  .bss.i306.4725:00000000 $d
     /tmp/ccWGJLG7.s:15681  .bss.i306.4725:00000000 i306.4725
     /tmp/ccWGJLG7.s:15684  .bss.slider_1_val:00000000 $d
     /tmp/ccWGJLG7.s:15690  .bss.i540.4726:00000000 $d
     /tmp/ccWGJLG7.s:15694  .bss.i540.4726:00000000 i540.4726
     /tmp/ccWGJLG7.s:15697  .bss.current:00000000 $d
     /tmp/ccWGJLG7.s:15701  .bss.current:00000000 current
     /tmp/ccWGJLG7.s:15708  .bss.power_switch:00000000 $d
     /tmp/ccWGJLG7.s:15710  .bss.last.4993:00000000 $d
     /tmp/ccWGJLG7.s:15714  .bss.last.4993:00000000 last.4993
     /tmp/ccWGJLG7.s:15720  .bss.mcu1_ppm_cpt:00000000 mcu1_ppm_cpt
     /tmp/ccWGJLG7.s:15721  .bss.mcu1_ppm_cpt:00000000 $d
     /tmp/ccWGJLG7.s:15726  .bss.i.4789:00000000 i.4789
     /tmp/ccWGJLG7.s:15727  .bss.i.4789:00000000 $d
     /tmp/ccWGJLG7.s:15729  .bss.i606.5026:00000000 $d
     /tmp/ccWGJLG7.s:15733  .bss.i606.5026:00000000 i606.5026
     /tmp/ccWGJLG7.s:15740  .bss.i312.5024:00000000 $d
     /tmp/ccWGJLG7.s:15744  .bss.i312.5024:00000000 i312.5024
     /tmp/ccWGJLG7.s:15750  .bss.payload_idx.2894:00000000 payload_idx.2894
     /tmp/ccWGJLG7.s:15751  .bss.payload_idx.2894:00000000 $d
     /tmp/ccWGJLG7.s:15756  .bss.i192.5019:00000000 i192.5019
     /tmp/ccWGJLG7.s:15757  .bss.i192.5019:00000000 $d
     /tmp/ccWGJLG7.s:15762  .data.boot.4710:00000000 boot.4710
                     .debug_frame:00000010 $d
     /tmp/ccWGJLG7.s:1826   .text.navigation_task:0000068c $t
     /tmp/ccWGJLG7.s:15145  .text.periodic_task_ap:00005adc $t
     /tmp/ccWGJLG7.s:176    .text.event_task_ap:000000c9 $d
     /tmp/ccWGJLG7.s:176    .text.event_task_ap:000000ca $t
     /tmp/ccWGJLG7.s:5386   .text.periodic_task_ap:00001797 $d
     /tmp/ccWGJLG7.s:5386   .text.periodic_task_ap:00001798 $t
     /tmp/ccWGJLG7.s:8981   .text.periodic_task_ap:000030cf $d
     /tmp/ccWGJLG7.s:8981   .text.periodic_task_ap:000030d0 $t

UNDEFINED SYMBOLS
__aeabi_i2f
__aeabi_fdiv
__aeabi_fadd
AhrsEvent
gps_ubx_parse
gps_ubx_read_message
estimator_update_state_gps
dl_parse_msg
uart1
gps_ubx
gps
cpu_time_ticks
cpu_time_sec
uart2
pprz_ovrn
pprz_error
pprz_msg_received
pprz_payload_len
pprz_payload
dl_buffer
dl_msg_available
inter_mcu_received_fbw
fbw_state
too_far_from_home
uart_check_free_space
uart_transmit
downlink_nb_bytes
downlink_nb_msgs
ck_a
ck_b
v_ctl_mode
horizontal_mode
downlink_nb_ovrn
h_ctl_roll_setpoint
h_ctl_pitch_setpoint
v_ctl_throttle_setpoint
estimator_flight_time
__aeabi_f2d
__aeabi_ddiv
__aeabi_d2uiz
__aeabi_i2d
__aeabi_dcmpgt
__aeabi_ui2f
__aeabi_dmul
__aeabi_d2iz
__aeabi_fcmpgt
__aeabi_fcmplt
__aeabi_fmul
common_nav_periodic_task_4Hz
nav_home
nav_without_gps
nav_periodic_task
nav_circle_radians
nav_block
nav_stage
estimator_x
estimator_y
dist2_to_wp
dist2_to_home
nav_oval_count
v_ctl_altitude_loop
h_ctl_course_loop
v_ctl_climb_loop
nav_throttle_setpoint
nav_pitch
h_ctl_attitude_loop
v_ctl_throttle_slew
ap_state
v_ctl_throttle_slewed
h_ctl_aileron_setpoint
h_ctl_elevator_setpoint
inter_mcu_received_ap
__aeabi_f2iz
__aeabi_dcmplt
telemetry_mode_Ap_DefaultChannel
estimator_phi
estimator_psi
estimator_theta
estimator_z
estimator_z_dot
nb_waypoint
nav_utm_east0
waypoints
nav_utm_north0
nav_utm_zone0
nav_in_circle
nav_circle_x
nav_circle_y
nav_circle_radius
h_ctl_pitch_loop_setpoint
h_ctl_course_setpoint
desired_x
desired_y
v_ctl_altitude_setpoint
v_ctl_climb_setpoint
block_time
stage_time
nav_in_segment
nav_segment_x_1
nav_segment_y_1
nav_segment_x_2
nav_segment_y_2
flight_altitude
nav_course
nav_shift
nav_radius
telemetry_mode_Fbw_DefaultChannel
v_ctl_auto_throttle_sum_err
v_ctl_auto_throttle_submode
nav_survey_active
nav_survey_east
nav_survey_north
nav_survey_west
nav_survey_south
estimator_propagate_state
datalink_time
estimator_hspeed_mod
gps_init
ahrs_aligner_init
ahrs_init
h_ctl_init
v_ctl_init
estimator_init
alt_kalman_init
nav_init
settings_init
traffic_info_init
sys_time_period_elapsed
