   1              		.syntax unified
   2              		.cpu cortex-m3
   3              		.fpu softvfp
   4              		.eabi_attribute 20, 1
   5              		.eabi_attribute 21, 1
   6              		.eabi_attribute 23, 3
   7              		.eabi_attribute 24, 1
   8              		.eabi_attribute 25, 1
   9              		.eabi_attribute 26, 1
  10              		.eabi_attribute 30, 4
  11              		.eabi_attribute 18, 4
  12              		.thumb
  13              		.file	"main_ap.c"
  21              	.Ltext0:
  22              		.cfi_sections	.debug_frame
  23              		.section	.text.on_ahrs_event,"ax",%progbits
  24              		.align	1
  25              		.thumb
  26              		.thumb_func
  28              	on_ahrs_event:
  29              	.LFB58:
  30              		.file 1 "firmwares/fixedwing/main_ap.c"
   1:firmwares/fixedwing/main_ap.c **** /*
   2:firmwares/fixedwing/main_ap.c ****  * $Id$
   3:firmwares/fixedwing/main_ap.c ****  *
   4:firmwares/fixedwing/main_ap.c ****  * Copyright (C) 2003-2010  The Paparazzi Team
   5:firmwares/fixedwing/main_ap.c ****  *
   6:firmwares/fixedwing/main_ap.c ****  * This file is part of paparazzi.
   7:firmwares/fixedwing/main_ap.c ****  *
   8:firmwares/fixedwing/main_ap.c ****  * paparazzi is free software; you can redistribute it and/or modify
   9:firmwares/fixedwing/main_ap.c ****  * it under the terms of the GNU General Public License as published by
  10:firmwares/fixedwing/main_ap.c ****  * the Free Software Foundation; either version 2, or (at your option)
  11:firmwares/fixedwing/main_ap.c ****  * any later version.
  12:firmwares/fixedwing/main_ap.c ****  *
  13:firmwares/fixedwing/main_ap.c ****  * paparazzi is distributed in the hope that it will be useful,
  14:firmwares/fixedwing/main_ap.c ****  * but WITHOUT ANY WARRANTY; without even the implied warranty of
  15:firmwares/fixedwing/main_ap.c ****  * MERCHANTABILITY or FITNESS FOR A PARTICULAR PURPOSE.  See the
  16:firmwares/fixedwing/main_ap.c ****  * GNU General Public License for more details.
  17:firmwares/fixedwing/main_ap.c ****  *
  18:firmwares/fixedwing/main_ap.c ****  * You should have received a copy of the GNU General Public License
  19:firmwares/fixedwing/main_ap.c ****  * along with paparazzi; see the file COPYING.  If not, write to
  20:firmwares/fixedwing/main_ap.c ****  * the Free Software Foundation, 59 Temple Place - Suite 330,
  21:firmwares/fixedwing/main_ap.c ****  * Boston, MA 02111-1307, USA.
  22:firmwares/fixedwing/main_ap.c ****  *
  23:firmwares/fixedwing/main_ap.c ****  */
  24:firmwares/fixedwing/main_ap.c **** 
  25:firmwares/fixedwing/main_ap.c **** /** \file main_ap.c
  26:firmwares/fixedwing/main_ap.c ****  *  \brief AP ( AutoPilot ) process
  27:firmwares/fixedwing/main_ap.c ****  *
  28:firmwares/fixedwing/main_ap.c ****  *   This process is reponsible for the collecting the different sensors data, fusing them to obtai
  29:firmwares/fixedwing/main_ap.c ****  * aircraft attitude and running the different control loops
  30:firmwares/fixedwing/main_ap.c ****  */
  31:firmwares/fixedwing/main_ap.c **** 
  32:firmwares/fixedwing/main_ap.c **** #define MODULES_C
  33:firmwares/fixedwing/main_ap.c **** 
  34:firmwares/fixedwing/main_ap.c **** #include <math.h>
  35:firmwares/fixedwing/main_ap.c **** 
  36:firmwares/fixedwing/main_ap.c **** #include "firmwares/fixedwing/main_ap.h"
  37:firmwares/fixedwing/main_ap.c **** #include "mcu.h"
  38:firmwares/fixedwing/main_ap.c **** 
  39:firmwares/fixedwing/main_ap.c **** #include "firmwares/fixedwing/stabilization/stabilization_attitude.h"
  40:firmwares/fixedwing/main_ap.c **** #include "firmwares/fixedwing/guidance/guidance_v.h"
  41:firmwares/fixedwing/main_ap.c **** #include "subsystems/gps.h"
  42:firmwares/fixedwing/main_ap.c **** #include "gyro.h"
  43:firmwares/fixedwing/main_ap.c **** #include "ap_downlink.h"
  44:firmwares/fixedwing/main_ap.c **** #include "subsystems/nav.h"
  45:firmwares/fixedwing/main_ap.c **** #include "firmwares/fixedwing/autopilot.h"
  46:firmwares/fixedwing/main_ap.c **** #include "estimator.h"
  47:firmwares/fixedwing/main_ap.c **** #include "generated/settings.h"
  48:firmwares/fixedwing/main_ap.c **** #include "link_mcu.h"
  49:firmwares/fixedwing/main_ap.c **** #include "sys_time.h"
  50:firmwares/fixedwing/main_ap.c **** #include "generated/flight_plan.h"
  51:firmwares/fixedwing/main_ap.c **** #include "datalink.h"
  52:firmwares/fixedwing/main_ap.c **** #include "subsystems/settings.h"
  53:firmwares/fixedwing/main_ap.c **** #include "xbee.h"
  54:firmwares/fixedwing/main_ap.c **** 
  55:firmwares/fixedwing/main_ap.c **** #include "gpio.h"
  56:firmwares/fixedwing/main_ap.c **** 
  57:firmwares/fixedwing/main_ap.c **** #if defined RADIO_CONTROL || defined RADIO_CONTROL_AUTO1
  58:firmwares/fixedwing/main_ap.c **** #include "rc_settings.h"
  59:firmwares/fixedwing/main_ap.c **** #endif
  60:firmwares/fixedwing/main_ap.c **** 
  61:firmwares/fixedwing/main_ap.c **** 
  62:firmwares/fixedwing/main_ap.c **** 
  63:firmwares/fixedwing/main_ap.c **** #ifdef TRAFFIC_INFO
  64:firmwares/fixedwing/main_ap.c **** #include "subsystems/navigation/traffic_info.h"
  65:firmwares/fixedwing/main_ap.c **** #endif
  66:firmwares/fixedwing/main_ap.c **** 
  67:firmwares/fixedwing/main_ap.c **** 
  68:firmwares/fixedwing/main_ap.c **** #ifdef USE_IMU
  69:firmwares/fixedwing/main_ap.c **** #include "subsystems/imu.h"
  70:firmwares/fixedwing/main_ap.c **** #endif
  71:firmwares/fixedwing/main_ap.c **** #ifdef USE_AHRS
  72:firmwares/fixedwing/main_ap.c **** #include "subsystems/ahrs.h"
  73:firmwares/fixedwing/main_ap.c **** #endif
  74:firmwares/fixedwing/main_ap.c **** #ifdef USE_AHRS_ALIGNER
  75:firmwares/fixedwing/main_ap.c **** #include "subsystems/ahrs/ahrs_aligner.h"
  76:firmwares/fixedwing/main_ap.c **** #endif
  77:firmwares/fixedwing/main_ap.c **** 
  78:firmwares/fixedwing/main_ap.c **** #ifdef USE_AHRS
  79:firmwares/fixedwing/main_ap.c **** #ifdef USE_IMU
  80:firmwares/fixedwing/main_ap.c **** static inline void on_gyro_event( void );
  81:firmwares/fixedwing/main_ap.c **** static inline void on_accel_event( void );
  82:firmwares/fixedwing/main_ap.c **** static inline void on_mag_event( void );
  83:firmwares/fixedwing/main_ap.c **** volatile uint8_t ahrs_timeout_counter = 0;
  84:firmwares/fixedwing/main_ap.c **** #else
  85:firmwares/fixedwing/main_ap.c **** static inline void on_ahrs_event(void);
  86:firmwares/fixedwing/main_ap.c **** #endif // USE_IMU
  87:firmwares/fixedwing/main_ap.c **** #endif // USE_AHRS
  88:firmwares/fixedwing/main_ap.c **** 
  89:firmwares/fixedwing/main_ap.c **** #ifdef USE_GPS
  90:firmwares/fixedwing/main_ap.c **** static inline void on_gps_solution( void );
  91:firmwares/fixedwing/main_ap.c **** #endif
  92:firmwares/fixedwing/main_ap.c **** 
  93:firmwares/fixedwing/main_ap.c **** #if ! defined CATASTROPHIC_BAT_LEVEL && defined LOW_BATTERY
  94:firmwares/fixedwing/main_ap.c **** #warning "LOW_BATTERY deprecated. Renamed into CATASTROPHIC_BAT_LEVEL (in airframe file)"
  95:firmwares/fixedwing/main_ap.c **** #define CATASTROPHIC_BAT_LEVEL LOW_BATTERY
  96:firmwares/fixedwing/main_ap.c **** #endif
  97:firmwares/fixedwing/main_ap.c **** 
  98:firmwares/fixedwing/main_ap.c **** #define LOW_BATTERY_DECIVOLT (CATASTROPHIC_BAT_LEVEL*10)
  99:firmwares/fixedwing/main_ap.c **** 
 100:firmwares/fixedwing/main_ap.c **** #include "generated/modules.h"
 101:firmwares/fixedwing/main_ap.c **** 
 102:firmwares/fixedwing/main_ap.c **** /** FIXME: should be in rc_settings but required by telemetry (ap_downlink.h)*/
 103:firmwares/fixedwing/main_ap.c **** uint8_t rc_settings_mode = 0;
 104:firmwares/fixedwing/main_ap.c **** 
 105:firmwares/fixedwing/main_ap.c **** /** Define minimal speed for takeoff in m/s */
 106:firmwares/fixedwing/main_ap.c **** #define MIN_SPEED_FOR_TAKEOFF 5.
 107:firmwares/fixedwing/main_ap.c **** 
 108:firmwares/fixedwing/main_ap.c **** bool_t power_switch;
 109:firmwares/fixedwing/main_ap.c **** uint8_t fatal_error_nb = 0;
 110:firmwares/fixedwing/main_ap.c **** static const uint16_t version = 1;
 111:firmwares/fixedwing/main_ap.c **** 
 112:firmwares/fixedwing/main_ap.c **** uint8_t pprz_mode = PPRZ_MODE_AUTO2;
 113:firmwares/fixedwing/main_ap.c **** uint8_t lateral_mode = LATERAL_MODE_MANUAL;
 114:firmwares/fixedwing/main_ap.c **** 
 115:firmwares/fixedwing/main_ap.c **** static uint8_t  mcu1_status;
 116:firmwares/fixedwing/main_ap.c **** 
 117:firmwares/fixedwing/main_ap.c **** #if defined RADIO_CONTROL || defined RADIO_CONTROL_AUTO1
 118:firmwares/fixedwing/main_ap.c **** static uint8_t  mcu1_ppm_cpt;
 119:firmwares/fixedwing/main_ap.c **** #endif
 120:firmwares/fixedwing/main_ap.c **** 
 121:firmwares/fixedwing/main_ap.c **** bool_t kill_throttle = FALSE;
 122:firmwares/fixedwing/main_ap.c **** 
 123:firmwares/fixedwing/main_ap.c **** float slider_1_val, slider_2_val;
 124:firmwares/fixedwing/main_ap.c **** 
 125:firmwares/fixedwing/main_ap.c **** bool_t launch = FALSE;
 126:firmwares/fixedwing/main_ap.c **** 
 127:firmwares/fixedwing/main_ap.c **** uint8_t vsupply;	// deciVolt
 128:firmwares/fixedwing/main_ap.c **** static int32_t current;	// milliAmpere
 129:firmwares/fixedwing/main_ap.c **** 
 130:firmwares/fixedwing/main_ap.c **** float energy;       // Fuel consumption (mAh)
 131:firmwares/fixedwing/main_ap.c **** 
 132:firmwares/fixedwing/main_ap.c **** bool_t gps_lost = FALSE;
 133:firmwares/fixedwing/main_ap.c **** 
 134:firmwares/fixedwing/main_ap.c **** 
 135:firmwares/fixedwing/main_ap.c **** #define Min(x, y) (x < y ? x : y)
 136:firmwares/fixedwing/main_ap.c **** #define Max(x, y) (x > y ? x : y)
 137:firmwares/fixedwing/main_ap.c **** 
 138:firmwares/fixedwing/main_ap.c **** /** \brief Update paparazzi mode
 139:firmwares/fixedwing/main_ap.c ****  */
 140:firmwares/fixedwing/main_ap.c **** #if defined RADIO_CONTROL || defined RADIO_CONTROL_AUTO1
 141:firmwares/fixedwing/main_ap.c **** static inline uint8_t pprz_mode_update( void ) {
 142:firmwares/fixedwing/main_ap.c ****   if ((pprz_mode != PPRZ_MODE_HOME &&
 143:firmwares/fixedwing/main_ap.c ****        pprz_mode != PPRZ_MODE_GPS_OUT_OF_ORDER)
 144:firmwares/fixedwing/main_ap.c **** #ifdef UNLOCKED_HOME_MODE
 145:firmwares/fixedwing/main_ap.c ****       || TRUE
 146:firmwares/fixedwing/main_ap.c **** #endif
 147:firmwares/fixedwing/main_ap.c ****       ) {
 148:firmwares/fixedwing/main_ap.c ****     return ModeUpdate(pprz_mode, PPRZ_MODE_OF_PULSE(fbw_state->channels[RADIO_MODE], fbw_state->sta
 149:firmwares/fixedwing/main_ap.c ****   } else
 150:firmwares/fixedwing/main_ap.c ****     return FALSE;
 151:firmwares/fixedwing/main_ap.c **** }
 152:firmwares/fixedwing/main_ap.c **** #else // not RADIO_CONTROL
 153:firmwares/fixedwing/main_ap.c **** static inline uint8_t pprz_mode_update( void ) {
 154:firmwares/fixedwing/main_ap.c ****   return FALSE;
 155:firmwares/fixedwing/main_ap.c **** }
 156:firmwares/fixedwing/main_ap.c **** #endif
 157:firmwares/fixedwing/main_ap.c **** 
 158:firmwares/fixedwing/main_ap.c **** static inline uint8_t mcu1_status_update( void ) {
 159:firmwares/fixedwing/main_ap.c ****   uint8_t new_status = fbw_state->status;
 160:firmwares/fixedwing/main_ap.c ****   if (mcu1_status != new_status) {
 161:firmwares/fixedwing/main_ap.c ****     bool_t changed = ((mcu1_status&MASK_FBW_CHANGED) != (new_status&MASK_FBW_CHANGED));
 162:firmwares/fixedwing/main_ap.c ****     mcu1_status = new_status;
 163:firmwares/fixedwing/main_ap.c ****     return changed;
 164:firmwares/fixedwing/main_ap.c ****   }
 165:firmwares/fixedwing/main_ap.c ****   return FALSE;
 166:firmwares/fixedwing/main_ap.c **** }
 167:firmwares/fixedwing/main_ap.c **** 
 168:firmwares/fixedwing/main_ap.c **** 
 169:firmwares/fixedwing/main_ap.c **** /** \brief Send back uncontrolled channels
 170:firmwares/fixedwing/main_ap.c ****  */
 171:firmwares/fixedwing/main_ap.c **** static inline void copy_from_to_fbw ( void ) {
 172:firmwares/fixedwing/main_ap.c **** #ifdef SetAutoCommandsFromRC
 173:firmwares/fixedwing/main_ap.c ****   SetAutoCommandsFromRC(ap_state->commands, fbw_state->channels);
 174:firmwares/fixedwing/main_ap.c **** #elif defined RADIO_YAW && defined COMMAND_YAW
 175:firmwares/fixedwing/main_ap.c ****   ap_state->commands[COMMAND_YAW] = fbw_state->channels[RADIO_YAW];
 176:firmwares/fixedwing/main_ap.c **** #endif
 177:firmwares/fixedwing/main_ap.c **** }
 178:firmwares/fixedwing/main_ap.c **** 
 179:firmwares/fixedwing/main_ap.c **** 
 180:firmwares/fixedwing/main_ap.c **** 
 181:firmwares/fixedwing/main_ap.c **** /*
 182:firmwares/fixedwing/main_ap.c ****    called at 20Hz.
 183:firmwares/fixedwing/main_ap.c ****    sends a serie of initialisation messages followed by a stream of periodic ones
 184:firmwares/fixedwing/main_ap.c **** */
 185:firmwares/fixedwing/main_ap.c **** 
 186:firmwares/fixedwing/main_ap.c **** /** Define number of message at initialisation */
 187:firmwares/fixedwing/main_ap.c **** #define INIT_MSG_NB 2
 188:firmwares/fixedwing/main_ap.c **** 
 189:firmwares/fixedwing/main_ap.c **** uint8_t ac_ident = AC_ID;
 190:firmwares/fixedwing/main_ap.c **** 
 191:firmwares/fixedwing/main_ap.c **** /** \brief Send a serie of initialisation messages followed by a stream of periodic ones
 192:firmwares/fixedwing/main_ap.c ****  *
 193:firmwares/fixedwing/main_ap.c ****  * Called at 60Hz.
 194:firmwares/fixedwing/main_ap.c ****  */
 195:firmwares/fixedwing/main_ap.c **** static inline void reporting_task( void ) {
 196:firmwares/fixedwing/main_ap.c ****   static uint8_t boot = TRUE;
 197:firmwares/fixedwing/main_ap.c **** 
 198:firmwares/fixedwing/main_ap.c ****   /** initialisation phase during boot */
 199:firmwares/fixedwing/main_ap.c ****   if (boot) {
 200:firmwares/fixedwing/main_ap.c ****     DOWNLINK_SEND_BOOT(DefaultChannel, &version);
 201:firmwares/fixedwing/main_ap.c ****     boot = FALSE;
 202:firmwares/fixedwing/main_ap.c ****   }
 203:firmwares/fixedwing/main_ap.c ****   /** then report periodicly */
 204:firmwares/fixedwing/main_ap.c ****   else {
 205:firmwares/fixedwing/main_ap.c ****     PeriodicSendAp(DefaultChannel);
 206:firmwares/fixedwing/main_ap.c ****   }
 207:firmwares/fixedwing/main_ap.c **** }
 208:firmwares/fixedwing/main_ap.c **** 
 209:firmwares/fixedwing/main_ap.c **** #ifndef RC_LOST_MODE
 210:firmwares/fixedwing/main_ap.c **** #define RC_LOST_MODE PPRZ_MODE_HOME
 211:firmwares/fixedwing/main_ap.c **** #endif
 212:firmwares/fixedwing/main_ap.c **** 
 213:firmwares/fixedwing/main_ap.c **** /** \brief Function to be called when a message from FBW is available */
 214:firmwares/fixedwing/main_ap.c **** static inline void telecommand_task( void ) {
 215:firmwares/fixedwing/main_ap.c ****   uint8_t mode_changed = FALSE;
 216:firmwares/fixedwing/main_ap.c ****   copy_from_to_fbw();
 217:firmwares/fixedwing/main_ap.c **** 
 218:firmwares/fixedwing/main_ap.c ****   uint8_t really_lost = bit_is_set(fbw_state->status, STATUS_RADIO_REALLY_LOST) && (pprz_mode == PP
 219:firmwares/fixedwing/main_ap.c ****   if (pprz_mode != PPRZ_MODE_HOME && pprz_mode != PPRZ_MODE_GPS_OUT_OF_ORDER && launch) {
 220:firmwares/fixedwing/main_ap.c ****     if  (too_far_from_home) {
 221:firmwares/fixedwing/main_ap.c ****       pprz_mode = PPRZ_MODE_HOME;
 222:firmwares/fixedwing/main_ap.c ****       mode_changed = TRUE;
 223:firmwares/fixedwing/main_ap.c ****     }
 224:firmwares/fixedwing/main_ap.c ****     if  (really_lost) {
 225:firmwares/fixedwing/main_ap.c ****       pprz_mode = RC_LOST_MODE;
 226:firmwares/fixedwing/main_ap.c ****       mode_changed = TRUE;
 227:firmwares/fixedwing/main_ap.c ****     }
 228:firmwares/fixedwing/main_ap.c ****   }
 229:firmwares/fixedwing/main_ap.c ****   if (bit_is_set(fbw_state->status, AVERAGED_CHANNELS_SENT)) {
 230:firmwares/fixedwing/main_ap.c ****     bool_t pprz_mode_changed = pprz_mode_update();
 231:firmwares/fixedwing/main_ap.c ****     mode_changed |= pprz_mode_changed;
 232:firmwares/fixedwing/main_ap.c **** #if defined RADIO_CALIB && defined RADIO_CONTROL_SETTINGS
 233:firmwares/fixedwing/main_ap.c ****     bool_t calib_mode_changed = RcSettingsModeUpdate(fbw_state->channels);
 234:firmwares/fixedwing/main_ap.c ****     rc_settings(calib_mode_changed || pprz_mode_changed);
 235:firmwares/fixedwing/main_ap.c ****     mode_changed |= calib_mode_changed;
 236:firmwares/fixedwing/main_ap.c **** #endif
 237:firmwares/fixedwing/main_ap.c ****   }
 238:firmwares/fixedwing/main_ap.c ****   mode_changed |= mcu1_status_update();
 239:firmwares/fixedwing/main_ap.c ****   if ( mode_changed )
 240:firmwares/fixedwing/main_ap.c ****     PERIODIC_SEND_PPRZ_MODE(DefaultChannel);
 241:firmwares/fixedwing/main_ap.c **** 
 242:firmwares/fixedwing/main_ap.c **** #if defined RADIO_CONTROL || defined RADIO_CONTROL_AUTO1
 243:firmwares/fixedwing/main_ap.c ****   /** In AUTO1 mode, compute roll setpoint and pitch setpoint from
 244:firmwares/fixedwing/main_ap.c ****    * \a RADIO_ROLL and \a RADIO_PITCH \n
 245:firmwares/fixedwing/main_ap.c ****    */
 246:firmwares/fixedwing/main_ap.c ****   if (pprz_mode == PPRZ_MODE_AUTO1) {
 247:firmwares/fixedwing/main_ap.c ****     /** Roll is bounded between [-AUTO1_MAX_ROLL;AUTO1_MAX_ROLL] */
 248:firmwares/fixedwing/main_ap.c ****     h_ctl_roll_setpoint = FLOAT_OF_PPRZ(fbw_state->channels[RADIO_ROLL], 0., -AUTO1_MAX_ROLL);
 249:firmwares/fixedwing/main_ap.c **** 
 250:firmwares/fixedwing/main_ap.c ****     /** Pitch is bounded between [-AUTO1_MAX_PITCH;AUTO1_MAX_PITCH] */
 251:firmwares/fixedwing/main_ap.c ****     h_ctl_pitch_setpoint = FLOAT_OF_PPRZ(fbw_state->channels[RADIO_PITCH], 0., AUTO1_MAX_PITCH);
 252:firmwares/fixedwing/main_ap.c ****   } /** Else asynchronously set by \a h_ctl_course_loop() */
 253:firmwares/fixedwing/main_ap.c **** 
 254:firmwares/fixedwing/main_ap.c ****   /** In AUTO1, throttle comes from RADIO_THROTTLE
 255:firmwares/fixedwing/main_ap.c ****       In MANUAL, the value is copied to get it in the telemetry */
 256:firmwares/fixedwing/main_ap.c ****   if (pprz_mode == PPRZ_MODE_MANUAL || pprz_mode == PPRZ_MODE_AUTO1) {
 257:firmwares/fixedwing/main_ap.c ****     v_ctl_throttle_setpoint = fbw_state->channels[RADIO_THROTTLE];
 258:firmwares/fixedwing/main_ap.c ****   }
 259:firmwares/fixedwing/main_ap.c ****   /** else asynchronously set by v_ctl_climb_loop(); */
 260:firmwares/fixedwing/main_ap.c **** 
 261:firmwares/fixedwing/main_ap.c ****   mcu1_ppm_cpt = fbw_state->ppm_cpt;
 262:firmwares/fixedwing/main_ap.c **** #endif // RADIO_CONTROL
 263:firmwares/fixedwing/main_ap.c **** 
 264:firmwares/fixedwing/main_ap.c **** 
 265:firmwares/fixedwing/main_ap.c ****   vsupply = fbw_state->vsupply;
 266:firmwares/fixedwing/main_ap.c ****   current = fbw_state->current;
 267:firmwares/fixedwing/main_ap.c **** 
 268:firmwares/fixedwing/main_ap.c **** #ifdef RADIO_CONTROL
 269:firmwares/fixedwing/main_ap.c ****   if (!estimator_flight_time) {
 270:firmwares/fixedwing/main_ap.c ****     if (pprz_mode == PPRZ_MODE_AUTO2 && fbw_state->channels[RADIO_THROTTLE] > THROTTLE_THRESHOLD_TA
 271:firmwares/fixedwing/main_ap.c ****       launch = TRUE;
 272:firmwares/fixedwing/main_ap.c ****     }
 273:firmwares/fixedwing/main_ap.c ****   }
 274:firmwares/fixedwing/main_ap.c **** #endif
 275:firmwares/fixedwing/main_ap.c **** }
 276:firmwares/fixedwing/main_ap.c **** 
 277:firmwares/fixedwing/main_ap.c **** 
 278:firmwares/fixedwing/main_ap.c **** #ifdef FAILSAFE_DELAY_WITHOUT_GPS
 279:firmwares/fixedwing/main_ap.c **** #define GpsTimeoutError (cpu_time_sec - gps.last_fix_time > FAILSAFE_DELAY_WITHOUT_GPS)
 280:firmwares/fixedwing/main_ap.c **** #endif
 281:firmwares/fixedwing/main_ap.c **** 
 282:firmwares/fixedwing/main_ap.c **** /** \fn void navigation_task( void )
 283:firmwares/fixedwing/main_ap.c ****  *  \brief Compute desired_course
 284:firmwares/fixedwing/main_ap.c ****  */
 285:firmwares/fixedwing/main_ap.c **** static void navigation_task( void ) {
 286:firmwares/fixedwing/main_ap.c **** #if defined FAILSAFE_DELAY_WITHOUT_GPS
 287:firmwares/fixedwing/main_ap.c ****   /** This section is used for the failsafe of GPS */
 288:firmwares/fixedwing/main_ap.c ****   static uint8_t last_pprz_mode;
 289:firmwares/fixedwing/main_ap.c **** 
 290:firmwares/fixedwing/main_ap.c ****   /** If aircraft is launched and is in autonomus mode, go into
 291:firmwares/fixedwing/main_ap.c ****       PPRZ_MODE_GPS_OUT_OF_ORDER mode (Failsafe) if we lost the GPS */
 292:firmwares/fixedwing/main_ap.c ****   if (launch) {
 293:firmwares/fixedwing/main_ap.c ****     if (GpsTimeoutError) {
 294:firmwares/fixedwing/main_ap.c ****       if (pprz_mode == PPRZ_MODE_AUTO2 || pprz_mode == PPRZ_MODE_HOME) {
 295:firmwares/fixedwing/main_ap.c ****         last_pprz_mode = pprz_mode;
 296:firmwares/fixedwing/main_ap.c ****         pprz_mode = PPRZ_MODE_GPS_OUT_OF_ORDER;
 297:firmwares/fixedwing/main_ap.c ****         PERIODIC_SEND_PPRZ_MODE(DefaultChannel);
 298:firmwares/fixedwing/main_ap.c ****         gps_lost = TRUE;
 299:firmwares/fixedwing/main_ap.c ****       }
 300:firmwares/fixedwing/main_ap.c ****     } else if (gps_lost) { /* GPS is ok */
 301:firmwares/fixedwing/main_ap.c ****       /** If aircraft was in failsafe mode, come back in previous mode */
 302:firmwares/fixedwing/main_ap.c ****       pprz_mode = last_pprz_mode;
 303:firmwares/fixedwing/main_ap.c ****       gps_lost = FALSE;
 304:firmwares/fixedwing/main_ap.c **** 
 305:firmwares/fixedwing/main_ap.c ****       PERIODIC_SEND_PPRZ_MODE(DefaultChannel);
 306:firmwares/fixedwing/main_ap.c ****     }
 307:firmwares/fixedwing/main_ap.c ****   }
 308:firmwares/fixedwing/main_ap.c **** #endif /* GPS && FAILSAFE_DELAY_WITHOUT_GPS */
 309:firmwares/fixedwing/main_ap.c **** 
 310:firmwares/fixedwing/main_ap.c ****   common_nav_periodic_task_4Hz();
 311:firmwares/fixedwing/main_ap.c ****   if (pprz_mode == PPRZ_MODE_HOME)
 312:firmwares/fixedwing/main_ap.c ****     nav_home();
 313:firmwares/fixedwing/main_ap.c ****   else if (pprz_mode == PPRZ_MODE_GPS_OUT_OF_ORDER)
 314:firmwares/fixedwing/main_ap.c ****     nav_without_gps();
 315:firmwares/fixedwing/main_ap.c ****   else
 316:firmwares/fixedwing/main_ap.c ****     nav_periodic_task();
 317:firmwares/fixedwing/main_ap.c **** 
 318:firmwares/fixedwing/main_ap.c **** #ifdef TCAS
 319:firmwares/fixedwing/main_ap.c ****   CallTCAS();
 320:firmwares/fixedwing/main_ap.c **** #endif
 321:firmwares/fixedwing/main_ap.c **** 
 322:firmwares/fixedwing/main_ap.c **** #ifndef PERIOD_NAVIGATION_DefaultChannel_0 // If not sent periodically (in default 0 mode)
 323:firmwares/fixedwing/main_ap.c ****   SEND_NAVIGATION(DefaultChannel);
 324:firmwares/fixedwing/main_ap.c **** #endif
 325:firmwares/fixedwing/main_ap.c **** 
 326:firmwares/fixedwing/main_ap.c ****   SEND_CAM(DefaultChannel);
 327:firmwares/fixedwing/main_ap.c **** 
 328:firmwares/fixedwing/main_ap.c ****   /* The nav task computes only nav_altitude. However, we are interested
 329:firmwares/fixedwing/main_ap.c ****      by desired_altitude (= nav_alt+alt_shift) in any case.
 330:firmwares/fixedwing/main_ap.c ****      So we always run the altitude control loop */
 331:firmwares/fixedwing/main_ap.c ****   if (v_ctl_mode == V_CTL_MODE_AUTO_ALT)
 332:firmwares/fixedwing/main_ap.c ****     v_ctl_altitude_loop();
 333:firmwares/fixedwing/main_ap.c **** 
 334:firmwares/fixedwing/main_ap.c ****   if (pprz_mode == PPRZ_MODE_AUTO2 || pprz_mode == PPRZ_MODE_HOME
 335:firmwares/fixedwing/main_ap.c ****             || pprz_mode == PPRZ_MODE_GPS_OUT_OF_ORDER) {
 336:firmwares/fixedwing/main_ap.c **** #ifdef H_CTL_RATE_LOOP
 337:firmwares/fixedwing/main_ap.c ****     /* Be sure to be in attitude mode, not roll */
 338:firmwares/fixedwing/main_ap.c ****     h_ctl_auto1_rate = FALSE;
 339:firmwares/fixedwing/main_ap.c **** #endif
 340:firmwares/fixedwing/main_ap.c ****     if (lateral_mode >=LATERAL_MODE_COURSE)
 341:firmwares/fixedwing/main_ap.c ****       h_ctl_course_loop(); /* aka compute nav_desired_roll */
 342:firmwares/fixedwing/main_ap.c ****     if (v_ctl_mode >= V_CTL_MODE_AUTO_CLIMB)
 343:firmwares/fixedwing/main_ap.c ****       v_ctl_climb_loop();
 344:firmwares/fixedwing/main_ap.c ****     if (v_ctl_mode == V_CTL_MODE_AUTO_THROTTLE)
 345:firmwares/fixedwing/main_ap.c ****       v_ctl_throttle_setpoint = nav_throttle_setpoint;
 346:firmwares/fixedwing/main_ap.c **** 
 347:firmwares/fixedwing/main_ap.c **** #if defined V_CTL_THROTTLE_IDLE
 348:firmwares/fixedwing/main_ap.c ****     Bound(v_ctl_throttle_setpoint, TRIM_PPRZ(V_CTL_THROTTLE_IDLE*MAX_PPRZ), MAX_PPRZ);
 349:firmwares/fixedwing/main_ap.c **** #endif
 350:firmwares/fixedwing/main_ap.c **** 
 351:firmwares/fixedwing/main_ap.c **** #ifdef V_CTL_POWER_CTL_BAT_NOMINAL
 352:firmwares/fixedwing/main_ap.c ****     if (vsupply > 0.) {
 353:firmwares/fixedwing/main_ap.c ****       v_ctl_throttle_setpoint *= 10. * V_CTL_POWER_CTL_BAT_NOMINAL / (float)vsupply;
 354:firmwares/fixedwing/main_ap.c ****       v_ctl_throttle_setpoint = TRIM_UPPRZ(v_ctl_throttle_setpoint);
 355:firmwares/fixedwing/main_ap.c ****     }
 356:firmwares/fixedwing/main_ap.c **** #endif
 357:firmwares/fixedwing/main_ap.c **** 
 358:firmwares/fixedwing/main_ap.c ****     h_ctl_pitch_setpoint = nav_pitch;
 359:firmwares/fixedwing/main_ap.c ****     Bound(h_ctl_pitch_setpoint, H_CTL_PITCH_MIN_SETPOINT, H_CTL_PITCH_MAX_SETPOINT);
 360:firmwares/fixedwing/main_ap.c ****     if (kill_throttle || (!estimator_flight_time && !launch))
 361:firmwares/fixedwing/main_ap.c ****       v_ctl_throttle_setpoint = 0;
 362:firmwares/fixedwing/main_ap.c ****   }
 363:firmwares/fixedwing/main_ap.c ****   energy += ((float)current) / 3600.0f * 0.25f;	// mAh = mA * dt (4Hz -> hours)
 364:firmwares/fixedwing/main_ap.c **** }
 365:firmwares/fixedwing/main_ap.c **** 
 366:firmwares/fixedwing/main_ap.c **** 
 367:firmwares/fixedwing/main_ap.c **** #ifndef KILL_MODE_DISTANCE
 368:firmwares/fixedwing/main_ap.c **** #define KILL_MODE_DISTANCE (1.5*MAX_DIST_FROM_HOME)
 369:firmwares/fixedwing/main_ap.c **** #endif
 370:firmwares/fixedwing/main_ap.c **** 
 371:firmwares/fixedwing/main_ap.c **** 
 372:firmwares/fixedwing/main_ap.c **** /** Maximum time allowed for low battery level */
 373:firmwares/fixedwing/main_ap.c **** #define LOW_BATTERY_DELAY 5
 374:firmwares/fixedwing/main_ap.c **** 
 375:firmwares/fixedwing/main_ap.c **** /** \fn inline void periodic_task( void )
 376:firmwares/fixedwing/main_ap.c ****  *  \brief Do periodic tasks at 60 Hz
 377:firmwares/fixedwing/main_ap.c ****  */
 378:firmwares/fixedwing/main_ap.c **** /**There are four @@@@@ boucles @@@@@:
 379:firmwares/fixedwing/main_ap.c ****  * - 20 Hz:
 380:firmwares/fixedwing/main_ap.c ****  *   - lets use \a reporting_task at 60 Hz
 381:firmwares/fixedwing/main_ap.c ****  *   - updates estimator of ir with \a ahrs_update_infrared
 382:firmwares/fixedwing/main_ap.c ****  *   - set \a desired_aileron and \a desired_elevator with \a pid_attitude_loop
 383:firmwares/fixedwing/main_ap.c ****  *   - sends to \a fbw \a desired_throttle, \a desired_aileron and
 384:firmwares/fixedwing/main_ap.c ****  *     \a desired_elevator \note \a desired_throttle is set upon GPS
 385:firmwares/fixedwing/main_ap.c ****  *     message reception
 386:firmwares/fixedwing/main_ap.c ****  * - 4 Hz:
 387:firmwares/fixedwing/main_ap.c ****  *   - calls \a estimator_propagate_state
 388:firmwares/fixedwing/main_ap.c ****  *   - do navigation with \a navigation_task
 389:firmwares/fixedwing/main_ap.c ****  *
 390:firmwares/fixedwing/main_ap.c ****  */
 391:firmwares/fixedwing/main_ap.c **** 
 392:firmwares/fixedwing/main_ap.c **** 
 393:firmwares/fixedwing/main_ap.c **** static inline void attitude_loop( void ) {
 394:firmwares/fixedwing/main_ap.c **** 
 395:firmwares/fixedwing/main_ap.c **** #ifdef USE_GYRO
 396:firmwares/fixedwing/main_ap.c ****   gyro_update();
 397:firmwares/fixedwing/main_ap.c **** #endif
 398:firmwares/fixedwing/main_ap.c **** 
 399:firmwares/fixedwing/main_ap.c **** #ifdef USE_INFRARED
 400:firmwares/fixedwing/main_ap.c ****   ahrs_update_infrared();
 401:firmwares/fixedwing/main_ap.c **** #endif /* USE_INFRARED */
 402:firmwares/fixedwing/main_ap.c **** 
 403:firmwares/fixedwing/main_ap.c ****   h_ctl_attitude_loop(); /* Set  h_ctl_aileron_setpoint & h_ctl_elevator_setpoint */
 404:firmwares/fixedwing/main_ap.c ****   v_ctl_throttle_slew();
 405:firmwares/fixedwing/main_ap.c ****   ap_state->commands[COMMAND_THROTTLE] = v_ctl_throttle_slewed;
 406:firmwares/fixedwing/main_ap.c ****   ap_state->commands[COMMAND_ROLL] = h_ctl_aileron_setpoint;
 407:firmwares/fixedwing/main_ap.c **** 
 408:firmwares/fixedwing/main_ap.c ****   ap_state->commands[COMMAND_PITCH] = h_ctl_elevator_setpoint;
 409:firmwares/fixedwing/main_ap.c **** 
 410:firmwares/fixedwing/main_ap.c **** #if defined MCU_SPI_LINK
 411:firmwares/fixedwing/main_ap.c ****   link_mcu_send();
 412:firmwares/fixedwing/main_ap.c **** #elif defined INTER_MCU && defined SINGLE_MCU
 413:firmwares/fixedwing/main_ap.c ****   /**Directly set the flag indicating to FBW that shared buffer is available*/
 414:firmwares/fixedwing/main_ap.c ****   inter_mcu_received_ap = TRUE;
 415:firmwares/fixedwing/main_ap.c **** #endif
 416:firmwares/fixedwing/main_ap.c **** 
 417:firmwares/fixedwing/main_ap.c **** }
 418:firmwares/fixedwing/main_ap.c **** 
 419:firmwares/fixedwing/main_ap.c **** #ifdef USE_AHRS
 420:firmwares/fixedwing/main_ap.c **** #ifdef AHRS_TRIGGERED_ATTITUDE_LOOP
 421:firmwares/fixedwing/main_ap.c **** volatile uint8_t new_ins_attitude = 0;
 422:firmwares/fixedwing/main_ap.c **** #endif
 423:firmwares/fixedwing/main_ap.c **** #endif
 424:firmwares/fixedwing/main_ap.c **** 
 425:firmwares/fixedwing/main_ap.c **** void periodic_task_ap( void ) {
 426:firmwares/fixedwing/main_ap.c **** 
 427:firmwares/fixedwing/main_ap.c ****   static uint8_t _60Hz = 0;
 428:firmwares/fixedwing/main_ap.c ****   static uint8_t _20Hz = 0;
 429:firmwares/fixedwing/main_ap.c ****   static uint8_t _10Hz = 0;
 430:firmwares/fixedwing/main_ap.c ****   static uint8_t _4Hz  = 0;
 431:firmwares/fixedwing/main_ap.c ****   static uint8_t _1Hz  = 0;
 432:firmwares/fixedwing/main_ap.c **** 
 433:firmwares/fixedwing/main_ap.c **** #ifdef USE_IMU
 434:firmwares/fixedwing/main_ap.c ****   // Run at PERIODIC_FREQUENCY (60Hz if not defined)
 435:firmwares/fixedwing/main_ap.c ****   imu_periodic();
 436:firmwares/fixedwing/main_ap.c **** 
 437:firmwares/fixedwing/main_ap.c **** #ifdef USE_AHRS
 438:firmwares/fixedwing/main_ap.c ****   if (ahrs_timeout_counter < 255)
 439:firmwares/fixedwing/main_ap.c ****     ahrs_timeout_counter ++;
 440:firmwares/fixedwing/main_ap.c **** #endif
 441:firmwares/fixedwing/main_ap.c **** 
 442:firmwares/fixedwing/main_ap.c **** #endif // USE_IMU
 443:firmwares/fixedwing/main_ap.c **** 
 444:firmwares/fixedwing/main_ap.c **** #define _check_periodic_freq_ PERIODIC_FREQUENCY % 60
 445:firmwares/fixedwing/main_ap.c **** #if _check_periodic_freq_
 446:firmwares/fixedwing/main_ap.c **** #error Using HighSpeed Periodic: PERIODIC_FREQUENCY has to be a multiple of 60!
 447:firmwares/fixedwing/main_ap.c **** #endif
 448:firmwares/fixedwing/main_ap.c ****   _60Hz++;
 449:firmwares/fixedwing/main_ap.c ****   if (_60Hz >= (PERIODIC_FREQUENCY / 60))
 450:firmwares/fixedwing/main_ap.c ****   {
 451:firmwares/fixedwing/main_ap.c ****     _60Hz = 0;
 452:firmwares/fixedwing/main_ap.c ****   }
 453:firmwares/fixedwing/main_ap.c ****   else
 454:firmwares/fixedwing/main_ap.c ****   {
 455:firmwares/fixedwing/main_ap.c ****     return;
 456:firmwares/fixedwing/main_ap.c ****   }
 457:firmwares/fixedwing/main_ap.c **** 
 458:firmwares/fixedwing/main_ap.c **** 
 459:firmwares/fixedwing/main_ap.c ****   // Rest of the periodic function still runs at 60Hz like always
 460:firmwares/fixedwing/main_ap.c ****   _20Hz++;
 461:firmwares/fixedwing/main_ap.c ****   if (_20Hz>=3) _20Hz=0;
 462:firmwares/fixedwing/main_ap.c ****   _10Hz++;
 463:firmwares/fixedwing/main_ap.c ****   if (_10Hz>=6) _10Hz=0;
 464:firmwares/fixedwing/main_ap.c ****   _4Hz++;
 465:firmwares/fixedwing/main_ap.c ****   if (_4Hz>=15) _4Hz=0;
 466:firmwares/fixedwing/main_ap.c ****   _1Hz++;
 467:firmwares/fixedwing/main_ap.c ****   if (_1Hz>=60) _1Hz=0;
 468:firmwares/fixedwing/main_ap.c **** 
 469:firmwares/fixedwing/main_ap.c ****   reporting_task();
 470:firmwares/fixedwing/main_ap.c **** 
 471:firmwares/fixedwing/main_ap.c ****   if (!_1Hz) {
 472:firmwares/fixedwing/main_ap.c ****     if (estimator_flight_time) estimator_flight_time++;
 473:firmwares/fixedwing/main_ap.c **** #if defined DATALINK || defined SITL
 474:firmwares/fixedwing/main_ap.c ****     datalink_time++;
 475:firmwares/fixedwing/main_ap.c **** #endif
 476:firmwares/fixedwing/main_ap.c **** 
 477:firmwares/fixedwing/main_ap.c ****     static uint8_t t = 0;
 478:firmwares/fixedwing/main_ap.c ****     if (vsupply < LOW_BATTERY_DECIVOLT) t++; else t = 0;
 479:firmwares/fixedwing/main_ap.c ****     kill_throttle |= (t >= LOW_BATTERY_DELAY);
 480:firmwares/fixedwing/main_ap.c ****     kill_throttle |= launch && (dist2_to_home > Square(KILL_MODE_DISTANCE));
 481:firmwares/fixedwing/main_ap.c ****   }
 482:firmwares/fixedwing/main_ap.c **** 
 483:firmwares/fixedwing/main_ap.c ****   switch(_4Hz) {
 484:firmwares/fixedwing/main_ap.c ****   case 0:
 485:firmwares/fixedwing/main_ap.c ****     estimator_propagate_state();
 486:firmwares/fixedwing/main_ap.c **** #ifdef EXTRA_DOWNLINK_DEVICE
 487:firmwares/fixedwing/main_ap.c ****     DOWNLINK_SEND_ATTITUDE(ExtraPprzTransport,&estimator_phi,&estimator_psi,&estimator_theta);
 488:firmwares/fixedwing/main_ap.c **** #endif
 489:firmwares/fixedwing/main_ap.c ****     navigation_task();
 490:firmwares/fixedwing/main_ap.c ****     break;
 491:firmwares/fixedwing/main_ap.c ****   case 1:
 492:firmwares/fixedwing/main_ap.c ****     if (!estimator_flight_time &&
 493:firmwares/fixedwing/main_ap.c ****         estimator_hspeed_mod > MIN_SPEED_FOR_TAKEOFF) {
 494:firmwares/fixedwing/main_ap.c ****       estimator_flight_time = 1;
 495:firmwares/fixedwing/main_ap.c ****       launch = TRUE; /* Not set in non auto launch */
 496:firmwares/fixedwing/main_ap.c ****       DOWNLINK_SEND_TAKEOFF(DefaultChannel, &cpu_time_sec);
 497:firmwares/fixedwing/main_ap.c ****   default:
 498:firmwares/fixedwing/main_ap.c ****     break;
 499:firmwares/fixedwing/main_ap.c ****     }
 500:firmwares/fixedwing/main_ap.c **** 
 501:firmwares/fixedwing/main_ap.c ****     break;
 502:firmwares/fixedwing/main_ap.c **** 
 503:firmwares/fixedwing/main_ap.c **** #ifdef USE_GPIO
 504:firmwares/fixedwing/main_ap.c ****   case 3:
 505:firmwares/fixedwing/main_ap.c ****     GpioUpdate1();
 506:firmwares/fixedwing/main_ap.c ****     break;
 507:firmwares/fixedwing/main_ap.c **** #endif
 508:firmwares/fixedwing/main_ap.c **** 
 509:firmwares/fixedwing/main_ap.c ****     /*  default: */
 510:firmwares/fixedwing/main_ap.c ****   }
 511:firmwares/fixedwing/main_ap.c **** 
 512:firmwares/fixedwing/main_ap.c **** #ifndef CONTROL_RATE
 513:firmwares/fixedwing/main_ap.c **** #define CONTROL_RATE 20
 514:firmwares/fixedwing/main_ap.c **** #endif
 515:firmwares/fixedwing/main_ap.c **** 
 516:firmwares/fixedwing/main_ap.c **** #if CONTROL_RATE != 60 && CONTROL_RATE != 20
 517:firmwares/fixedwing/main_ap.c **** #error "Only 20 and 60 allowed for CONTROL_RATE"
 518:firmwares/fixedwing/main_ap.c **** #endif
 519:firmwares/fixedwing/main_ap.c **** 
 520:firmwares/fixedwing/main_ap.c **** #if CONTROL_RATE == 20
 521:firmwares/fixedwing/main_ap.c ****   if (!_20Hz)
 522:firmwares/fixedwing/main_ap.c **** #endif
 523:firmwares/fixedwing/main_ap.c ****     {
 524:firmwares/fixedwing/main_ap.c **** 
 525:firmwares/fixedwing/main_ap.c **** #ifndef AHRS_TRIGGERED_ATTITUDE_LOOP
 526:firmwares/fixedwing/main_ap.c ****       attitude_loop();
 527:firmwares/fixedwing/main_ap.c **** #endif
 528:firmwares/fixedwing/main_ap.c **** 
 529:firmwares/fixedwing/main_ap.c ****     }
 530:firmwares/fixedwing/main_ap.c **** 
 531:firmwares/fixedwing/main_ap.c **** 
 532:firmwares/fixedwing/main_ap.c ****   modules_periodic_task();
 533:firmwares/fixedwing/main_ap.c **** }
 534:firmwares/fixedwing/main_ap.c **** 
 535:firmwares/fixedwing/main_ap.c **** 
 536:firmwares/fixedwing/main_ap.c **** void init_ap( void ) {
 537:firmwares/fixedwing/main_ap.c **** #ifndef SINGLE_MCU /** init done in main_fbw in single MCU */
 538:firmwares/fixedwing/main_ap.c ****   mcu_init();
 539:firmwares/fixedwing/main_ap.c ****   sys_time_init();
 540:firmwares/fixedwing/main_ap.c **** #endif /* SINGLE_MCU */
 541:firmwares/fixedwing/main_ap.c **** 
 542:firmwares/fixedwing/main_ap.c ****   /************* Sensors initialization ***************/
 543:firmwares/fixedwing/main_ap.c **** #ifdef USE_GYRO
 544:firmwares/fixedwing/main_ap.c ****   gyro_init();
 545:firmwares/fixedwing/main_ap.c **** #endif
 546:firmwares/fixedwing/main_ap.c **** #ifdef USE_GPS
 547:firmwares/fixedwing/main_ap.c ****   gps_init();
 548:firmwares/fixedwing/main_ap.c **** #endif
 549:firmwares/fixedwing/main_ap.c **** 
 550:firmwares/fixedwing/main_ap.c **** #ifdef USE_GPIO
 551:firmwares/fixedwing/main_ap.c ****   GpioInit();
 552:firmwares/fixedwing/main_ap.c **** #endif
 553:firmwares/fixedwing/main_ap.c **** 
 554:firmwares/fixedwing/main_ap.c **** #ifdef USE_IMU
 555:firmwares/fixedwing/main_ap.c ****   imu_init();
 556:firmwares/fixedwing/main_ap.c **** #endif
 557:firmwares/fixedwing/main_ap.c **** 
 558:firmwares/fixedwing/main_ap.c **** #ifdef USE_AHRS_ALIGNER
 559:firmwares/fixedwing/main_ap.c ****   ahrs_aligner_init();
 560:firmwares/fixedwing/main_ap.c **** #endif
 561:firmwares/fixedwing/main_ap.c **** 
 562:firmwares/fixedwing/main_ap.c **** #ifdef USE_AHRS
 563:firmwares/fixedwing/main_ap.c ****   ahrs_init();
 564:firmwares/fixedwing/main_ap.c **** #endif
 565:firmwares/fixedwing/main_ap.c **** 
 566:firmwares/fixedwing/main_ap.c ****   /************* Links initialization ***************/
 567:firmwares/fixedwing/main_ap.c **** #if defined MCU_SPI_LINK
 568:firmwares/fixedwing/main_ap.c ****   link_mcu_init();
 569:firmwares/fixedwing/main_ap.c **** #endif
 570:firmwares/fixedwing/main_ap.c **** #ifdef MODEM
 571:firmwares/fixedwing/main_ap.c ****   modem_init();
 572:firmwares/fixedwing/main_ap.c **** #endif
 573:firmwares/fixedwing/main_ap.c **** 
 574:firmwares/fixedwing/main_ap.c ****   /************ Internal status ***************/
 575:firmwares/fixedwing/main_ap.c ****   h_ctl_init();
 576:firmwares/fixedwing/main_ap.c ****   v_ctl_init();
 577:firmwares/fixedwing/main_ap.c ****   estimator_init();
 578:firmwares/fixedwing/main_ap.c **** #ifdef ALT_KALMAN
 579:firmwares/fixedwing/main_ap.c ****   alt_kalman_init();
 580:firmwares/fixedwing/main_ap.c **** #endif
 581:firmwares/fixedwing/main_ap.c ****   nav_init();
 582:firmwares/fixedwing/main_ap.c **** 
 583:firmwares/fixedwing/main_ap.c ****   modules_init();
 584:firmwares/fixedwing/main_ap.c **** 
 585:firmwares/fixedwing/main_ap.c ****   settings_init();
 586:firmwares/fixedwing/main_ap.c **** 
 587:firmwares/fixedwing/main_ap.c ****   /** - start interrupt task */
 588:firmwares/fixedwing/main_ap.c ****   mcu_int_enable();
 589:firmwares/fixedwing/main_ap.c **** 
 590:firmwares/fixedwing/main_ap.c ****   /** wait 0.5s (historical :-) */
 591:firmwares/fixedwing/main_ap.c ****   sys_time_usleep(500000);
 592:firmwares/fixedwing/main_ap.c **** 
 593:firmwares/fixedwing/main_ap.c **** #if defined DATALINK
 594:firmwares/fixedwing/main_ap.c **** 
 595:firmwares/fixedwing/main_ap.c **** #if DATALINK == XBEE
 596:firmwares/fixedwing/main_ap.c ****   xbee_init();
 597:firmwares/fixedwing/main_ap.c **** #endif
 598:firmwares/fixedwing/main_ap.c **** #endif /* DATALINK */
 599:firmwares/fixedwing/main_ap.c **** 
 600:firmwares/fixedwing/main_ap.c **** #if defined AEROCOMM_DATA_PIN
 601:firmwares/fixedwing/main_ap.c ****   IO0DIR |= _BV(AEROCOMM_DATA_PIN);
 602:firmwares/fixedwing/main_ap.c ****   IO0SET = _BV(AEROCOMM_DATA_PIN);
 603:firmwares/fixedwing/main_ap.c **** #endif
 604:firmwares/fixedwing/main_ap.c **** 
 605:firmwares/fixedwing/main_ap.c ****   power_switch = FALSE;
 606:firmwares/fixedwing/main_ap.c **** 
 607:firmwares/fixedwing/main_ap.c ****   /************ Multi-uavs status ***************/
 608:firmwares/fixedwing/main_ap.c **** 
 609:firmwares/fixedwing/main_ap.c **** #ifdef TRAFFIC_INFO
 610:firmwares/fixedwing/main_ap.c ****   traffic_info_init();
 611:firmwares/fixedwing/main_ap.c **** #endif
 612:firmwares/fixedwing/main_ap.c **** }
 613:firmwares/fixedwing/main_ap.c **** 
 614:firmwares/fixedwing/main_ap.c **** 
 615:firmwares/fixedwing/main_ap.c **** /*********** EVENT ***********************************************************/
 616:firmwares/fixedwing/main_ap.c **** void event_task_ap( void ) {
 617:firmwares/fixedwing/main_ap.c **** 
 618:firmwares/fixedwing/main_ap.c **** #if defined USE_AHRS
 619:firmwares/fixedwing/main_ap.c **** #ifdef USE_IMU
 620:firmwares/fixedwing/main_ap.c ****   ImuEvent(on_gyro_event, on_accel_event, on_mag_event);
 621:firmwares/fixedwing/main_ap.c **** #else
 622:firmwares/fixedwing/main_ap.c ****   AhrsEvent(on_ahrs_event);
 623:firmwares/fixedwing/main_ap.c **** #endif // USE_IMU
 624:firmwares/fixedwing/main_ap.c **** #endif // USE_AHRS
 625:firmwares/fixedwing/main_ap.c **** 
 626:firmwares/fixedwing/main_ap.c **** #ifdef USE_GPS
 627:firmwares/fixedwing/main_ap.c ****   GpsEvent(on_gps_solution);
 628:firmwares/fixedwing/main_ap.c **** #endif /** USE_GPS */
 629:firmwares/fixedwing/main_ap.c **** 
 630:firmwares/fixedwing/main_ap.c **** 
 631:firmwares/fixedwing/main_ap.c ****   DatalinkEvent();
 632:firmwares/fixedwing/main_ap.c **** 
 633:firmwares/fixedwing/main_ap.c **** 
 634:firmwares/fixedwing/main_ap.c **** #ifdef MCU_SPI_LINK
 635:firmwares/fixedwing/main_ap.c ****     link_mcu_event_task();
 636:firmwares/fixedwing/main_ap.c **** #endif
 637:firmwares/fixedwing/main_ap.c **** 
 638:firmwares/fixedwing/main_ap.c ****   if (inter_mcu_received_fbw) {
 639:firmwares/fixedwing/main_ap.c ****     /* receive radio control task from fbw */
 640:firmwares/fixedwing/main_ap.c ****     inter_mcu_received_fbw = FALSE;
 641:firmwares/fixedwing/main_ap.c ****     telecommand_task();
 642:firmwares/fixedwing/main_ap.c ****   }
 643:firmwares/fixedwing/main_ap.c **** 
 644:firmwares/fixedwing/main_ap.c ****   modules_event_task();
 645:firmwares/fixedwing/main_ap.c **** 
 646:firmwares/fixedwing/main_ap.c **** #ifdef AHRS_TRIGGERED_ATTITUDE_LOOP
 647:firmwares/fixedwing/main_ap.c ****   if (new_ins_attitude > 0)
 648:firmwares/fixedwing/main_ap.c ****   {
 649:firmwares/fixedwing/main_ap.c ****     attitude_loop();
 650:firmwares/fixedwing/main_ap.c ****     //LED_TOGGLE(3);
 651:firmwares/fixedwing/main_ap.c ****     new_ins_attitude = 0;
 652:firmwares/fixedwing/main_ap.c ****   }
 653:firmwares/fixedwing/main_ap.c **** #endif
 654:firmwares/fixedwing/main_ap.c **** 
 655:firmwares/fixedwing/main_ap.c **** } /* event_task_ap() */
 656:firmwares/fixedwing/main_ap.c **** 
 657:firmwares/fixedwing/main_ap.c **** 
 658:firmwares/fixedwing/main_ap.c **** #ifdef USE_GPS
 659:firmwares/fixedwing/main_ap.c **** static inline void on_gps_solution( void ) {
 660:firmwares/fixedwing/main_ap.c ****   estimator_update_state_gps();
 661:firmwares/fixedwing/main_ap.c **** #ifdef USE_INFRARED
 662:firmwares/fixedwing/main_ap.c ****   ahrs_update_gps();
 663:firmwares/fixedwing/main_ap.c **** #endif
 664:firmwares/fixedwing/main_ap.c **** #ifdef GPS_TRIGGERED_FUNCTION
 665:firmwares/fixedwing/main_ap.c ****   GPS_TRIGGERED_FUNCTION();
 666:firmwares/fixedwing/main_ap.c **** #endif
 667:firmwares/fixedwing/main_ap.c **** }
 668:firmwares/fixedwing/main_ap.c **** #endif
 669:firmwares/fixedwing/main_ap.c **** 
 670:firmwares/fixedwing/main_ap.c **** 
 671:firmwares/fixedwing/main_ap.c **** #ifdef USE_AHRS
 672:firmwares/fixedwing/main_ap.c **** #ifdef USE_IMU
 673:firmwares/fixedwing/main_ap.c **** static inline void on_accel_event( void ) {
 674:firmwares/fixedwing/main_ap.c **** }
 675:firmwares/fixedwing/main_ap.c **** 
 676:firmwares/fixedwing/main_ap.c **** static inline void on_gyro_event( void ) {
 677:firmwares/fixedwing/main_ap.c **** 
 678:firmwares/fixedwing/main_ap.c ****   ahrs_timeout_counter = 0;
 679:firmwares/fixedwing/main_ap.c **** 
 680:firmwares/fixedwing/main_ap.c **** #ifdef AHRS_CPU_LED
 681:firmwares/fixedwing/main_ap.c ****     LED_ON(AHRS_CPU_LED);
 682:firmwares/fixedwing/main_ap.c **** #endif
 683:firmwares/fixedwing/main_ap.c **** 
 684:firmwares/fixedwing/main_ap.c **** #ifdef USE_AHRS_ALIGNER
 685:firmwares/fixedwing/main_ap.c ****   // Run aligner on raw data as it also makes averages.
 686:firmwares/fixedwing/main_ap.c ****   if (ahrs.status == AHRS_UNINIT) {
 687:firmwares/fixedwing/main_ap.c ****     ImuScaleGyro(imu);
 688:firmwares/fixedwing/main_ap.c ****     ImuScaleAccel(imu);
 689:firmwares/fixedwing/main_ap.c ****     ahrs_aligner_run();
 690:firmwares/fixedwing/main_ap.c ****     if (ahrs_aligner.status == AHRS_ALIGNER_LOCKED)
 691:firmwares/fixedwing/main_ap.c ****       ahrs_align();
 692:firmwares/fixedwing/main_ap.c ****     return;
 693:firmwares/fixedwing/main_ap.c ****   }
 694:firmwares/fixedwing/main_ap.c **** #endif
 695:firmwares/fixedwing/main_ap.c **** 
 696:firmwares/fixedwing/main_ap.c **** #if PERIODIC_FREQUENCY == 60
 697:firmwares/fixedwing/main_ap.c ****   ImuScaleGyro(imu);
 698:firmwares/fixedwing/main_ap.c ****   ImuScaleAccel(imu);
 699:firmwares/fixedwing/main_ap.c **** 
 700:firmwares/fixedwing/main_ap.c ****   ahrs_propagate();
 701:firmwares/fixedwing/main_ap.c ****   ahrs_update_accel();
 702:firmwares/fixedwing/main_ap.c ****   ahrs_update_fw_estimator();
 703:firmwares/fixedwing/main_ap.c **** 
 704:firmwares/fixedwing/main_ap.c **** #ifdef AHRS_TRIGGERED_ATTITUDE_LOOP
 705:firmwares/fixedwing/main_ap.c ****   new_ins_attitude = 1;
 706:firmwares/fixedwing/main_ap.c **** #endif
 707:firmwares/fixedwing/main_ap.c **** 
 708:firmwares/fixedwing/main_ap.c **** #else //PERIODIC_FREQUENCY
 709:firmwares/fixedwing/main_ap.c ****   static uint8_t _reduced_propagation_rate = 0;
 710:firmwares/fixedwing/main_ap.c ****   static uint8_t _reduced_correction_rate = 0;
 711:firmwares/fixedwing/main_ap.c ****   static struct Int32Vect3 acc_avg;
 712:firmwares/fixedwing/main_ap.c ****   static struct Int32Rates gyr_avg;
 713:firmwares/fixedwing/main_ap.c **** 
 714:firmwares/fixedwing/main_ap.c ****   RATES_ADD(gyr_avg, imu.gyro_unscaled);
 715:firmwares/fixedwing/main_ap.c ****   VECT3_ADD(acc_avg, imu.accel_unscaled);
 716:firmwares/fixedwing/main_ap.c **** 
 717:firmwares/fixedwing/main_ap.c ****   _reduced_propagation_rate++;
 718:firmwares/fixedwing/main_ap.c ****   if (_reduced_propagation_rate < (PERIODIC_FREQUENCY / AHRS_PROPAGATE_FREQUENCY))
 719:firmwares/fixedwing/main_ap.c ****   {
 720:firmwares/fixedwing/main_ap.c ****   }
 721:firmwares/fixedwing/main_ap.c ****   else
 722:firmwares/fixedwing/main_ap.c ****   {
 723:firmwares/fixedwing/main_ap.c ****     _reduced_propagation_rate = 0;
 724:firmwares/fixedwing/main_ap.c **** 
 725:firmwares/fixedwing/main_ap.c ****     RATES_SDIV(imu.gyro_unscaled, gyr_avg, (PERIODIC_FREQUENCY / AHRS_PROPAGATE_FREQUENCY) );
 726:firmwares/fixedwing/main_ap.c ****     INT_RATES_ZERO(gyr_avg);
 727:firmwares/fixedwing/main_ap.c **** 
 728:firmwares/fixedwing/main_ap.c ****     ImuScaleGyro(imu);
 729:firmwares/fixedwing/main_ap.c **** 
 730:firmwares/fixedwing/main_ap.c ****     ahrs_propagate();
 731:firmwares/fixedwing/main_ap.c **** 
 732:firmwares/fixedwing/main_ap.c ****     _reduced_correction_rate++;
 733:firmwares/fixedwing/main_ap.c ****     if (_reduced_correction_rate >= (AHRS_PROPAGATE_FREQUENCY / AHRS_CORRECT_FREQUENCY))
 734:firmwares/fixedwing/main_ap.c ****     {
 735:firmwares/fixedwing/main_ap.c ****       _reduced_correction_rate = 0;
 736:firmwares/fixedwing/main_ap.c ****       VECT3_SDIV(imu.accel_unscaled, acc_avg, (PERIODIC_FREQUENCY / AHRS_CORRECT_FREQUENCY) );
 737:firmwares/fixedwing/main_ap.c ****       INT_VECT3_ZERO(acc_avg);
 738:firmwares/fixedwing/main_ap.c ****       ImuScaleAccel(imu);
 739:firmwares/fixedwing/main_ap.c ****       ahrs_update_accel();
 740:firmwares/fixedwing/main_ap.c ****     }
 741:firmwares/fixedwing/main_ap.c **** 
 742:firmwares/fixedwing/main_ap.c ****     ahrs_update_fw_estimator();
 743:firmwares/fixedwing/main_ap.c **** 
 744:firmwares/fixedwing/main_ap.c **** #ifdef AHRS_TRIGGERED_ATTITUDE_LOOP
 745:firmwares/fixedwing/main_ap.c ****     new_ins_attitude = 1;
 746:firmwares/fixedwing/main_ap.c **** #endif
 747:firmwares/fixedwing/main_ap.c ****   }
 748:firmwares/fixedwing/main_ap.c **** #endif //PERIODIC_FREQUENCY
 749:firmwares/fixedwing/main_ap.c **** 
 750:firmwares/fixedwing/main_ap.c **** #ifdef AHRS_CPU_LED
 751:firmwares/fixedwing/main_ap.c ****     LED_OFF(AHRS_CPU_LED);
 752:firmwares/fixedwing/main_ap.c **** #endif
 753:firmwares/fixedwing/main_ap.c **** 
 754:firmwares/fixedwing/main_ap.c **** }
 755:firmwares/fixedwing/main_ap.c **** 
 756:firmwares/fixedwing/main_ap.c **** static inline void on_mag_event(void)
 757:firmwares/fixedwing/main_ap.c **** {
 758:firmwares/fixedwing/main_ap.c **** #ifdef IMU_MAG_X_SIGN
 759:firmwares/fixedwing/main_ap.c ****   ImuScaleMag(imu);
 760:firmwares/fixedwing/main_ap.c ****   if (ahrs.status == AHRS_RUNNING) {
 761:firmwares/fixedwing/main_ap.c ****     ahrs_update_mag();
 762:firmwares/fixedwing/main_ap.c **** //    ahrs_update_fw_estimator();
 763:firmwares/fixedwing/main_ap.c ****   }
 764:firmwares/fixedwing/main_ap.c **** #endif
 765:firmwares/fixedwing/main_ap.c **** }
 766:firmwares/fixedwing/main_ap.c **** 
 767:firmwares/fixedwing/main_ap.c **** #else // USE_IMU not defined
 768:firmwares/fixedwing/main_ap.c **** static inline void on_ahrs_event(void)
 769:firmwares/fixedwing/main_ap.c **** {
  31              		.loc 1 769 0
  32              		.cfi_startproc
  33              		@ args = 0, pretend = 0, frame = 0
  34              		@ frame_needed = 0, uses_anonymous_args = 0
  35              		@ link register save eliminated.
 770:firmwares/fixedwing/main_ap.c **** #ifdef AHRS_UPDATE_FW_ESTIMATOR
 771:firmwares/fixedwing/main_ap.c ****   ahrs_update_fw_estimator();
 772:firmwares/fixedwing/main_ap.c **** #endif
 773:firmwares/fixedwing/main_ap.c **** }
  36              		.loc 1 773 0
  37 0000 7047     		bx	lr
  38              		.cfi_endproc
  39              	.LFE58:
  41              		.global	__aeabi_i2f
  42              		.global	__aeabi_fdiv
  43              		.global	__aeabi_fadd
  44              		.section	.text.event_task_ap,"ax",%progbits
  45              		.align	1
  46              		.global	event_task_ap
  47              		.thumb
  48              		.thumb_func
  50              	event_task_ap:
  51              	.LFB56:
 616:firmwares/fixedwing/main_ap.c **** void event_task_ap( void ) {
  52              		.loc 1 616 0
  53              		.cfi_startproc
  54              		@ args = 0, pretend = 0, frame = 0
  55              		@ frame_needed = 0, uses_anonymous_args = 0
  56 0000 2DE9F041 		push	{r4, r5, r6, r7, r8, lr}
  57              	.LCFI0:
  58              		.cfi_def_cfa_offset 24
 622:firmwares/fixedwing/main_ap.c ****   AhrsEvent(on_ahrs_event);
  59              		.loc 1 622 0
  60 0004 8C48     		ldr	r0, .L56
  61              		.cfi_offset 14, -4
  62              		.cfi_offset 8, -8
  63              		.cfi_offset 7, -12
  64              		.cfi_offset 6, -16
  65              		.cfi_offset 5, -20
  66              		.cfi_offset 4, -24
  67 0006 FFF7FEFF 		bl	AhrsEvent
 627:firmwares/fixedwing/main_ap.c ****   GpsEvent(on_gps_solution);
  68              		.loc 1 627 0
  69 000a 8C4B     		ldr	r3, .L56+4
  70 000c B3F88020 		ldrh	r2, [r3, #128]
  71 0010 B3F88230 		ldrh	r3, [r3, #130]
  72 0014 9A42     		cmp	r2, r3
  73 0016 08D1     		bne	.L4
  74 0018 12E0     		b	.L5
  75              	.L6:
  76              	.LBB48:
  77 001a 985C     		ldrb	r0, [r3, r2]	@ zero_extendqisi2
  78              	.LVL0:
  79 001c 0132     		adds	r2, r2, #1
  80 001e 02F07F02 		and	r2, r2, #127
  81 0022 A3F88220 		strh	r2, [r3, #130]	@ movhi
  82              	.LBE48:
  83 0026 FFF7FEFF 		bl	gps_ubx_parse
  84              	.LVL1:
  85              	.L4:
  86 002a 844B     		ldr	r3, .L56+4
  87 002c B3F88220 		ldrh	r2, [r3, #130]
  88 0030 B3F88010 		ldrh	r1, [r3, #128]
  89 0034 9142     		cmp	r1, r2
  90 0036 03D0     		beq	.L5
  91 0038 8149     		ldr	r1, .L56+8
  92 003a 0978     		ldrb	r1, [r1, #0]	@ zero_extendqisi2
  93 003c 0029     		cmp	r1, #0
  94 003e ECD0     		beq	.L6
  95              	.L5:
  96 0040 7F4C     		ldr	r4, .L56+8
  97 0042 2378     		ldrb	r3, [r4, #0]	@ zero_extendqisi2
  98 0044 03B3     		cbz	r3, .L7
  99 0046 FFF7FEFF 		bl	gps_ubx_read_message
 100 004a 94F80831 		ldrb	r3, [r4, #264]	@ zero_extendqisi2
 101 004e 012B     		cmp	r3, #1
 102 0050 17D1     		bne	.L8
 103 0052 94F80731 		ldrb	r3, [r4, #263]	@ zero_extendqisi2
 104 0056 122B     		cmp	r3, #18
 105 0058 04D0     		beq	.L9
 106 005a 062B     		cmp	r3, #6
 107 005c 11D1     		bne	.L8
 108 005e 94F81531 		ldrb	r3, [r4, #277]	@ zero_extendqisi2
 109 0062 73B9     		cbnz	r3, .L8
 110              	.L9:
 111 0064 774B     		ldr	r3, .L56+12
 112 0066 93F85720 		ldrb	r2, [r3, #87]	@ zero_extendqisi2
 113 006a 032A     		cmp	r2, #3
 114 006c 07D1     		bne	.L10
 115 006e 764A     		ldr	r2, .L56+16
 116 0070 1268     		ldr	r2, [r2, #0]
 117 0072 C3F8E420 		str	r2, [r3, #228]
 118 0076 754A     		ldr	r2, .L56+20
 119 0078 1288     		ldrh	r2, [r2, #0]
 120 007a A3F8E820 		strh	r2, [r3, #232]	@ movhi
 121              	.L10:
 122              	.LBB49:
 123              	.LBB50:
 660:firmwares/fixedwing/main_ap.c ****   estimator_update_state_gps();
 124              		.loc 1 660 0
 125 007e FFF7FEFF 		bl	estimator_update_state_gps
 126              	.L8:
 127              	.LBE50:
 128              	.LBE49:
 627:firmwares/fixedwing/main_ap.c ****   GpsEvent(on_gps_solution);
 129              		.loc 1 627 0
 130 0082 6F4B     		ldr	r3, .L56+8
 131 0084 0022     		movs	r2, #0
 132 0086 1A70     		strb	r2, [r3, #0]
 133              	.L7:
 631:firmwares/fixedwing/main_ap.c ****   DatalinkEvent();
 134              		.loc 1 631 0
 135 0088 714B     		ldr	r3, .L56+24
 136 008a B3F88070 		ldrh	r7, [r3, #128]
 137 008e B3F88240 		ldrh	r4, [r3, #130]
 138 0092 A742     		cmp	r7, r4
 139 0094 00F08180 		beq	.L11
 140 0098 6E4B     		ldr	r3, .L56+28
 141 009a 1A78     		ldrb	r2, [r3, #0]	@ zero_extendqisi2
 142 009c 6E4B     		ldr	r3, .L56+32
 143 009e 1E78     		ldrb	r6, [r3, #0]	@ zero_extendqisi2
 144 00a0 6E4B     		ldr	r3, .L56+36
 145 00a2 1978     		ldrb	r1, [r3, #0]	@ zero_extendqisi2
 146              	.LVL2:
 147 00a4 6E4B     		ldr	r3, .L56+40
 148 00a6 1878     		ldrb	r0, [r3, #0]	@ zero_extendqisi2
 149              	.LVL3:
 150 00a8 6E4B     		ldr	r3, .L56+44
 151 00aa 93F800C0 		ldrb	ip, [r3, #0]	@ zero_extendqisi2
 152 00ae 6E4B     		ldr	r3, .L56+48
 153 00b0 1D78     		ldrb	r5, [r3, #0]	@ zero_extendqisi2
 154 00b2 41E0     		b	.L12
 155              	.LVL4:
 156              	.L26:
 157              	.LBB51:
 158 00b4 1B5D     		ldrb	r3, [r3, r4]	@ zero_extendqisi2
 159              	.LVL5:
 160 00b6 0134     		adds	r4, r4, #1
 161 00b8 04F07F04 		and	r4, r4, #127
 162              	.LBE51:
 163              	.LBB52:
 164              	.LBB53:
 165              		.file 2 "./pprz_transport.h"
   1:./pprz_transport.h **** /*
   2:./pprz_transport.h ****  * Paparazzi $Id$
   3:./pprz_transport.h ****  *
   4:./pprz_transport.h ****  * Copyright (C) 2003  Pascal Brisset, Antoine Drouin
   5:./pprz_transport.h ****  *
   6:./pprz_transport.h ****  * This file is part of paparazzi.
   7:./pprz_transport.h ****  *
   8:./pprz_transport.h ****  * paparazzi is free software; you can redistribute it and/or modify
   9:./pprz_transport.h ****  * it under the terms of the GNU General Public License as published by
  10:./pprz_transport.h ****  * the Free Software Foundation; either version 2, or (at your option)
  11:./pprz_transport.h ****  * any later version.
  12:./pprz_transport.h ****  *
  13:./pprz_transport.h ****  * paparazzi is distributed in the hope that it will be useful,
  14:./pprz_transport.h ****  * but WITHOUT ANY WARRANTY; without even the implied warranty of
  15:./pprz_transport.h ****  * MERCHANTABILITY or FITNESS FOR A PARTICULAR PURPOSE.  See the
  16:./pprz_transport.h ****  * GNU General Public License for more details.
  17:./pprz_transport.h ****  *
  18:./pprz_transport.h ****  * You should have received a copy of the GNU General Public License
  19:./pprz_transport.h ****  * along with paparazzi; see the file COPYING.  If not, write to
  20:./pprz_transport.h ****  * the Free Software Foundation, 59 Temple Place - Suite 330,
  21:./pprz_transport.h ****  * Boston, MA 02111-1307, USA.
  22:./pprz_transport.h ****  *
  23:./pprz_transport.h ****  */
  24:./pprz_transport.h **** 
  25:./pprz_transport.h **** /** \file pprz_transport.h
  26:./pprz_transport.h ****  *  \brief Building and parsing Paparazzi frames
  27:./pprz_transport.h ****  *
  28:./pprz_transport.h ****  *  Pprz frame:
  29:./pprz_transport.h ****  *
  30:./pprz_transport.h ****  *   |STX|length|... payload=(length-4) bytes ...|Checksum A|Checksum B|
  31:./pprz_transport.h ****  *
  32:./pprz_transport.h ****  *   where checksum is computed over length and payload:
  33:./pprz_transport.h ****  *     ck_A = ck_B = length
  34:./pprz_transport.h ****  *     for each byte b in payload
  35:./pprz_transport.h ****  *       ck_A += b; ck_b += ck_A
  36:./pprz_transport.h ****  */
  37:./pprz_transport.h **** 
  38:./pprz_transport.h **** #ifndef PPRZ_TRANSPORT_H
  39:./pprz_transport.h **** #define PPRZ_TRANSPORT_H
  40:./pprz_transport.h **** 
  41:./pprz_transport.h **** #include <inttypes.h>
  42:./pprz_transport.h **** #include "std.h"
  43:./pprz_transport.h **** #include "datalink.h"
  44:./pprz_transport.h **** 
  45:./pprz_transport.h **** extern uint8_t ck_a, ck_b;
  46:./pprz_transport.h **** 
  47:./pprz_transport.h **** #define STX  0x99
  48:./pprz_transport.h **** 
  49:./pprz_transport.h **** /** 4 = STX + len + ck_a + ck_b */
  50:./pprz_transport.h **** #define PprzTransportSizeOf(_payload) (_payload+4)
  51:./pprz_transport.h **** 
  52:./pprz_transport.h **** #define __Link(dev, _x) dev##_x
  53:./pprz_transport.h **** #define _Link(dev, _x)  __Link(dev, _x)
  54:./pprz_transport.h **** #define Link(_x) _Link(DOWNLINK_DEVICE, _x)
  55:./pprz_transport.h **** 
  56:./pprz_transport.h **** #define PprzTransportCheckFreeSpace(_x) Link(CheckFreeSpace(_x))
  57:./pprz_transport.h **** 
  58:./pprz_transport.h **** #define PprzTransportPut1Byte(_x) Link(Transmit(_x))
  59:./pprz_transport.h **** #define PprzTransportSendMessage() Link(SendMessage())
  60:./pprz_transport.h **** 
  61:./pprz_transport.h **** #define PprzTransportHeader(payload_len) { \
  62:./pprz_transport.h ****   PprzTransportPut1Byte(STX);				\
  63:./pprz_transport.h ****   uint8_t msg_len = PprzTransportSizeOf(payload_len);	\
  64:./pprz_transport.h ****   PprzTransportPut1Byte(msg_len);			\
  65:./pprz_transport.h ****   ck_a = msg_len; ck_b = msg_len;			\
  66:./pprz_transport.h **** }
  67:./pprz_transport.h **** 
  68:./pprz_transport.h **** #define PprzTransportTrailer() { \
  69:./pprz_transport.h ****   PprzTransportPut1Byte(ck_a);	\
  70:./pprz_transport.h ****   PprzTransportPut1Byte(ck_b);	\
  71:./pprz_transport.h ****   PprzTransportSendMessage() \
  72:./pprz_transport.h **** }
  73:./pprz_transport.h **** 
  74:./pprz_transport.h **** #define PprzTransportPutUint8(_byte) { \
  75:./pprz_transport.h ****     ck_a += _byte;			  \
  76:./pprz_transport.h ****     ck_b += ck_a;			  \
  77:./pprz_transport.h ****     PprzTransportPut1Byte(_byte);		  \
  78:./pprz_transport.h ****  }
  79:./pprz_transport.h **** 
  80:./pprz_transport.h **** #define PprzTransportPutNamedUint8(_name, _byte) PprzTransportPutUint8(_byte)
  81:./pprz_transport.h **** 
  82:./pprz_transport.h **** #define PprzTransportPut1ByteByAddr(_byte) {	 \
  83:./pprz_transport.h ****     uint8_t _x = *(_byte);		 \
  84:./pprz_transport.h ****     PprzTransportPutUint8(_x);	 \
  85:./pprz_transport.h ****   }
  86:./pprz_transport.h **** 
  87:./pprz_transport.h **** #define PprzTransportPut2ByteByAddr(_byte) { \
  88:./pprz_transport.h ****     PprzTransportPut1ByteByAddr(_byte);	\
  89:./pprz_transport.h ****     PprzTransportPut1ByteByAddr((const uint8_t*)_byte+1);	\
  90:./pprz_transport.h ****   }
  91:./pprz_transport.h **** 
  92:./pprz_transport.h **** #define PprzTransportPut4ByteByAddr(_byte) { \
  93:./pprz_transport.h ****     PprzTransportPut2ByteByAddr(_byte);	\
  94:./pprz_transport.h ****     PprzTransportPut2ByteByAddr((const uint8_t*)_byte+2);	\
  95:./pprz_transport.h ****   }
  96:./pprz_transport.h **** 
  97:./pprz_transport.h **** #ifdef __IEEE_BIG_ENDIAN /* From machine/ieeefp.h */
  98:./pprz_transport.h **** #define PprzTransportPutDoubleByAddr(_byte) { \
  99:./pprz_transport.h ****     PprzTransportPut4ByteByAddr((const uint8_t*)_byte+4);	\
 100:./pprz_transport.h ****     PprzTransportPut4ByteByAddr((const uint8_t*)_byte);	\
 101:./pprz_transport.h ****   }
 102:./pprz_transport.h **** #else
 103:./pprz_transport.h **** #define PprzTransportPutDoubleByAddr(_byte) { \
 104:./pprz_transport.h ****     PprzTransportPut4ByteByAddr((const uint8_t*)_byte);	\
 105:./pprz_transport.h ****     PprzTransportPut4ByteByAddr((const uint8_t*)_byte+4);	\
 106:./pprz_transport.h ****   }
 107:./pprz_transport.h **** #endif
 108:./pprz_transport.h **** 
 109:./pprz_transport.h **** 
 110:./pprz_transport.h **** #define PprzTransportPutInt8ByAddr(_x) PprzTransportPut1ByteByAddr(_x)
 111:./pprz_transport.h **** #define PprzTransportPutUint8ByAddr(_x) PprzTransportPut1ByteByAddr((const uint8_t*)_x)
 112:./pprz_transport.h **** #define PprzTransportPutInt16ByAddr(_x) PprzTransportPut2ByteByAddr((const uint8_t*)_x)
 113:./pprz_transport.h **** #define PprzTransportPutUint16ByAddr(_x) PprzTransportPut2ByteByAddr((const uint8_t*)_x)
 114:./pprz_transport.h **** #define PprzTransportPutInt32ByAddr(_x) PprzTransportPut4ByteByAddr((const uint8_t*)_x)
 115:./pprz_transport.h **** #define PprzTransportPutUint32ByAddr(_x) PprzTransportPut4ByteByAddr((const uint8_t*)_x)
 116:./pprz_transport.h **** #define PprzTransportPutFloatByAddr(_x) PprzTransportPut4ByteByAddr((const uint8_t*)_x)
 117:./pprz_transport.h **** 
 118:./pprz_transport.h **** #define PprzTransportPutArray(_put, _n, _x) { \
 119:./pprz_transport.h ****   uint8_t _i; \
 120:./pprz_transport.h ****   PprzTransportPutUint8(_n); \
 121:./pprz_transport.h ****   for(_i = 0; _i < _n; _i++) { \
 122:./pprz_transport.h ****     _put(&_x[_i]); \
 123:./pprz_transport.h ****   } \
 124:./pprz_transport.h **** }
 125:./pprz_transport.h **** 
 126:./pprz_transport.h **** #define PprzTransportPutFloatArray(_n, _x) PprzTransportPutArray(PprzTransportPutFloatByAddr, _n, _
 127:./pprz_transport.h **** #define PprzTransportPutDoubleArray(_n, _x) PprzTransportPutArray(PprzTransportPutDoubleByAddr, _n,
 128:./pprz_transport.h **** 
 129:./pprz_transport.h **** #define PprzTransportPutInt16Array(_n, _x) PprzTransportPutArray(PprzTransportPutInt16ByAddr, _n, _
 130:./pprz_transport.h **** #define PprzTransportPutUint16Array(_n, _x) PprzTransportPutArray(PprzTransportPutUint16ByAddr, _n,
 131:./pprz_transport.h **** 
 132:./pprz_transport.h **** #define PprzTransportPutInt32Array(_n, _x) PprzTransportPutArray(PprzTransportPutInt32ByAddr, _n, _
 133:./pprz_transport.h **** #define PprzTransportPutUint32Array(_n, _x) PprzTransportPutArray(PprzTransportPutUint32ByAddr, _n,
 134:./pprz_transport.h **** 
 135:./pprz_transport.h **** #define PprzTransportPutUint8Array(_n, _x) PprzTransportPutArray(PprzTransportPutUint8ByAddr, _n, _
 136:./pprz_transport.h **** 
 137:./pprz_transport.h **** 
 138:./pprz_transport.h **** /** Receiving pprz messages */
 139:./pprz_transport.h **** 
 140:./pprz_transport.h **** #define UNINIT 0
 141:./pprz_transport.h **** #define GOT_STX 1
 142:./pprz_transport.h **** #define GOT_LENGTH 2
 143:./pprz_transport.h **** #define GOT_PAYLOAD 3
 144:./pprz_transport.h **** #define GOT_CRC1 4
 145:./pprz_transport.h **** 
 146:./pprz_transport.h **** 
 147:./pprz_transport.h **** #define PPRZ_PAYLOAD_LEN 256
 148:./pprz_transport.h **** extern uint8_t pprz_payload[PPRZ_PAYLOAD_LEN];
 149:./pprz_transport.h **** 
 150:./pprz_transport.h **** extern volatile bool_t pprz_msg_received;
 151:./pprz_transport.h **** extern uint8_t pprz_ovrn, pprz_error;
 152:./pprz_transport.h **** extern volatile uint8_t pprz_payload_len;
 153:./pprz_transport.h **** 
 154:./pprz_transport.h **** static inline void parse_pprz( uint8_t c ) {
 155:./pprz_transport.h ****   static uint8_t pprz_status = UNINIT;
 156:./pprz_transport.h ****   static uint8_t _ck_a, _ck_b, payload_idx;
 157:./pprz_transport.h **** 
 158:./pprz_transport.h ****   switch (pprz_status) {
 166              		.loc 2 158 0
 167 00bc 042A     		cmp	r2, #4
 168 00be 36D8     		bhi	.L13
 169 00c0 DFE802F0 		tbb	[pc, r2]
 170              	.L19:
 171 00c4 03       		.byte	(.L14-.L19)/2
 172 00c5 08       		.byte	(.L15-.L19)/2
 173 00c6 17       		.byte	(.L16-.L19)/2
 174 00c7 29       		.byte	(.L17-.L19)/2
 175 00c8 2F       		.byte	(.L18-.L19)/2
 176 00c9 00       		.align	1
 177              	.L14:
 159:./pprz_transport.h ****   case UNINIT:
 160:./pprz_transport.h ****     if (c == STX)
 178              		.loc 2 160 0
 179 00ca 992B     		cmp	r3, #153
 180 00cc 08BF     		it	eq
 181 00ce 0122     		moveq	r2, #1
 182 00d0 0B46     		mov	r3, r1
 183 00d2 30E0     		b	.L21
 184              	.LVL6:
 185              	.L15:
 161:./pprz_transport.h ****       pprz_status++;
 162:./pprz_transport.h ****     break;
 163:./pprz_transport.h ****   case GOT_STX:
 164:./pprz_transport.h ****     if (pprz_msg_received) {
 186              		.loc 2 164 0
 187 00d4 654A     		ldr	r2, .L56+52
 188 00d6 1278     		ldrb	r2, [r2, #0]	@ zero_extendqisi2
 189 00d8 9046     		mov	r8, r2
 190 00da 12B1     		cbz	r2, .L22
 165:./pprz_transport.h ****       pprz_ovrn++;
 191              		.loc 2 165 0
 192 00dc 0136     		adds	r6, r6, #1
 193 00de F6B2     		uxtb	r6, r6
 194 00e0 25E0     		b	.L13
 195              	.L22:
 166:./pprz_transport.h ****       goto error;
 167:./pprz_transport.h ****     }
 168:./pprz_transport.h ****     pprz_payload_len = c-4; /* Counting STX, LENGTH and CRC1 and CRC2 */
 196              		.loc 2 168 0
 197 00e2 634A     		ldr	r2, .L56+56
 198 00e4 191F     		subs	r1, r3, #4
 199 00e6 C9B2     		uxtb	r1, r1
 200 00e8 1170     		strb	r1, [r2, #0]
 201 00ea 1846     		mov	r0, r3
 202 00ec C446     		mov	ip, r8
 203 00ee 0222     		movs	r2, #2
 204 00f0 21E0     		b	.L21
 205              	.LVL7:
 206              	.L16:
 169:./pprz_transport.h ****     _ck_a = _ck_b = c;
 170:./pprz_transport.h ****     pprz_status++;
 171:./pprz_transport.h ****     payload_idx = 0;
 172:./pprz_transport.h ****     break;
 173:./pprz_transport.h ****   case GOT_LENGTH:
 174:./pprz_transport.h ****     pprz_payload[payload_idx] = c;
 175:./pprz_transport.h ****     _ck_a += c; _ck_b += _ck_a;
 207              		.loc 2 175 0
 208 00f2 1818     		adds	r0, r3, r0
 174:./pprz_transport.h ****     pprz_payload[payload_idx] = c;
 209              		.loc 2 174 0
 210 00f4 DFF87C81 		ldr	r8, .L56+60
 211              		.loc 2 175 0
 212 00f8 C0B2     		uxtb	r0, r0
 213              	.LVL8:
 174:./pprz_transport.h ****     pprz_payload[payload_idx] = c;
 214              		.loc 2 174 0
 215 00fa 08F80C30 		strb	r3, [r8, ip]
 216              		.loc 2 175 0
 217 00fe 4318     		adds	r3, r0, r1
 176:./pprz_transport.h ****     payload_idx++;
 177:./pprz_transport.h ****     if (payload_idx == pprz_payload_len)
 218              		.loc 2 177 0
 219 0100 5B49     		ldr	r1, .L56+56
 176:./pprz_transport.h ****     payload_idx++;
 220              		.loc 2 176 0
 221 0102 0CF1010C 		add	ip, ip, #1
 222              		.loc 2 177 0
 223 0106 0978     		ldrb	r1, [r1, #0]	@ zero_extendqisi2
 176:./pprz_transport.h ****     payload_idx++;
 224              		.loc 2 176 0
 225 0108 5FFA8CFC 		uxtb	ip, ip
 175:./pprz_transport.h ****     _ck_a += c; _ck_b += _ck_a;
 226              		.loc 2 175 0
 227 010c DBB2     		uxtb	r3, r3
 228              	.LVL9:
 229              		.loc 2 177 0
 230 010e 8C45     		cmp	ip, r1
 231 0110 08BF     		it	eq
 232 0112 0322     		moveq	r2, #3
 233 0114 0FE0     		b	.L21
 234              	.L17:
 178:./pprz_transport.h ****       pprz_status++;
 179:./pprz_transport.h ****     break;
 180:./pprz_transport.h ****   case GOT_PAYLOAD:
 181:./pprz_transport.h ****     if (c != _ck_a)
 235              		.loc 2 181 0
 236 0116 8342     		cmp	r3, r0
 237 0118 09D1     		bne	.L13
 238              	.LVL10:
 239 011a 1846     		mov	r0, r3
 240 011c 0422     		movs	r2, #4
 241 011e 0B46     		mov	r3, r1
 242 0120 09E0     		b	.L21
 243              	.LVL11:
 244              	.L18:
 182:./pprz_transport.h ****       goto error;
 183:./pprz_transport.h ****     pprz_status++;
 184:./pprz_transport.h ****     break;
 185:./pprz_transport.h ****   case GOT_CRC1:
 186:./pprz_transport.h ****     if (c != _ck_b)
 245              		.loc 2 186 0
 246 0122 8B42     		cmp	r3, r1
 247 0124 03D1     		bne	.L13
 248              	.LVL12:
 187:./pprz_transport.h ****       goto error;
 188:./pprz_transport.h ****     pprz_msg_received = TRUE;
 249              		.loc 2 188 0
 250 0126 514B     		ldr	r3, .L56+52
 251 0128 0122     		movs	r2, #1
 252 012a 1A70     		strb	r2, [r3, #0]
 253 012c 01E0     		b	.L23
 254              	.LVL13:
 255              	.L13:
 189:./pprz_transport.h ****     goto restart;
 190:./pprz_transport.h ****   default:
 191:./pprz_transport.h ****     goto error;
 192:./pprz_transport.h ****   }
 193:./pprz_transport.h ****   return;
 194:./pprz_transport.h ****  error:
 195:./pprz_transport.h ****   pprz_error++;
 256              		.loc 2 195 0
 257 012e 0135     		adds	r5, r5, #1
 258 0130 EDB2     		uxtb	r5, r5
 259              	.LVL14:
 260              	.L23:
 261 0132 0B46     		mov	r3, r1
 262 0134 0022     		movs	r2, #0
 263              	.LVL15:
 264              	.L21:
 265 0136 1946     		mov	r1, r3
 266              	.LVL16:
 267              	.L12:
 268              	.LBE53:
 269              	.LBE52:
 631:firmwares/fixedwing/main_ap.c ****   DatalinkEvent();
 270              		.loc 1 631 0
 271 0138 A742     		cmp	r7, r4
 272 013a 03D1     		bne	.L24
 273 013c 444B     		ldr	r3, .L56+24
 274 013e A3F88270 		strh	r7, [r3, #130]	@ movhi
 275 0142 08E0     		b	.L54
 276              	.LVL17:
 277              	.L24:
 278 0144 494B     		ldr	r3, .L56+52
 279 0146 93F80080 		ldrb	r8, [r3, #0]	@ zero_extendqisi2
 280 014a 414B     		ldr	r3, .L56+24
 281 014c B8F1000F 		cmp	r8, #0
 282 0150 B0D0     		beq	.L26
 283 0152 A3F88240 		strh	r4, [r3, #130]	@ movhi
 284              	.L54:
 285 0156 3F4B     		ldr	r3, .L56+28
 286 0158 1A70     		strb	r2, [r3, #0]
 287 015a 3F4B     		ldr	r3, .L56+32
 288 015c 1E70     		strb	r6, [r3, #0]
 289 015e 3F4B     		ldr	r3, .L56+36
 290 0160 1970     		strb	r1, [r3, #0]
 291 0162 3F4B     		ldr	r3, .L56+40
 292 0164 1870     		strb	r0, [r3, #0]
 293 0166 3F4B     		ldr	r3, .L56+44
 294 0168 83F800C0 		strb	ip, [r3, #0]
 295 016c 3E4B     		ldr	r3, .L56+48
 296 016e 1D70     		strb	r5, [r3, #0]
 297 0170 3E4B     		ldr	r3, .L56+52
 298 0172 1B78     		ldrb	r3, [r3, #0]	@ zero_extendqisi2
 299 0174 8BB1     		cbz	r3, .L11
 300 0176 0023     		movs	r3, #0
 301              	.LVL18:
 302 0178 05E0     		b	.L27
 303              	.L28:
 304              	.LBB54:
 305              	.LBB55:
 196:./pprz_transport.h ****  restart:
 197:./pprz_transport.h ****   pprz_status = UNINIT;
 198:./pprz_transport.h ****   return;
 199:./pprz_transport.h **** }
 200:./pprz_transport.h **** 
 201:./pprz_transport.h **** static inline void pprz_parse_payload(void) {
 202:./pprz_transport.h ****   uint8_t i;
 203:./pprz_transport.h ****   for(i = 0; i < pprz_payload_len; i++)
 204:./pprz_transport.h ****     dl_buffer[i] = pprz_payload[i];
 306              		.loc 2 204 0
 307 017a 3E4A     		ldr	r2, .L56+60
 308 017c D15C     		ldrb	r1, [r2, r3]	@ zero_extendqisi2
 309 017e 3E4A     		ldr	r2, .L56+64
 310 0180 D154     		strb	r1, [r2, r3]
 203:./pprz_transport.h ****   for(i = 0; i < pprz_payload_len; i++)
 311              		.loc 2 203 0
 312 0182 0133     		adds	r3, r3, #1
 313              	.LVL19:
 314 0184 DBB2     		uxtb	r3, r3
 315              	.LVL20:
 316              	.L27:
 317 0186 3A4A     		ldr	r2, .L56+56
 318 0188 1278     		ldrb	r2, [r2, #0]	@ zero_extendqisi2
 319 018a 9342     		cmp	r3, r2
 320 018c F5D3     		bcc	.L28
 205:./pprz_transport.h ****   dl_msg_available = TRUE;
 321              		.loc 2 205 0
 322 018e 3B4B     		ldr	r3, .L56+68
 323              	.LVL21:
 324 0190 0122     		movs	r2, #1
 325 0192 1A70     		strb	r2, [r3, #0]
 326              	.LBE55:
 327              	.LBE54:
 631:firmwares/fixedwing/main_ap.c ****   DatalinkEvent();
 328              		.loc 1 631 0
 329 0194 354B     		ldr	r3, .L56+52
 330 0196 013A     		subs	r2, r2, #1
 331 0198 1A70     		strb	r2, [r3, #0]
 332              	.L11:
 333 019a 384C     		ldr	r4, .L56+68
 334 019c 2378     		ldrb	r3, [r4, #0]	@ zero_extendqisi2
 335 019e 1BB1     		cbz	r3, .L29
 336 01a0 FFF7FEFF 		bl	dl_parse_msg
 337              	.LVL22:
 338 01a4 0023     		movs	r3, #0
 339 01a6 2370     		strb	r3, [r4, #0]
 340              	.LVL23:
 341              	.L29:
 638:firmwares/fixedwing/main_ap.c ****   if (inter_mcu_received_fbw) {
 342              		.loc 1 638 0
 343 01a8 354B     		ldr	r3, .L56+72
 344 01aa 1A78     		ldrb	r2, [r3, #0]	@ zero_extendqisi2
 345 01ac 002A     		cmp	r2, #0
 346 01ae 00F04781 		beq	.L51
 640:firmwares/fixedwing/main_ap.c ****     inter_mcu_received_fbw = FALSE;
 347              		.loc 1 640 0
 348 01b2 0022     		movs	r2, #0
 349 01b4 1A70     		strb	r2, [r3, #0]
 350              	.LBB56:
 351              	.LBB57:
 218:firmwares/fixedwing/main_ap.c ****   uint8_t really_lost = bit_is_set(fbw_state->status, STATUS_RADIO_REALLY_LOST) && (pprz_mode == PP
 352              		.loc 1 218 0
 353 01b6 334B     		ldr	r3, .L56+76
 354 01b8 1B68     		ldr	r3, [r3, #0]
 355 01ba DA7B     		ldrb	r2, [r3, #15]	@ zero_extendqisi2
 356 01bc 5208     		lsrs	r2, r2, #1
 357 01be 12F00102 		ands	r2, r2, #1
 358 01c2 05D0     		beq	.L32
 359 01c4 304B     		ldr	r3, .L56+80
 360 01c6 1A78     		ldrb	r2, [r3, #0]	@ zero_extendqisi2
 361 01c8 012A     		cmp	r2, #1
 362 01ca 8CBF     		ite	hi
 363 01cc 0022     		movhi	r2, #0
 364 01ce 0122     		movls	r2, #1
 365              	.L32:
 219:firmwares/fixedwing/main_ap.c ****   if (pprz_mode != PPRZ_MODE_HOME && pprz_mode != PPRZ_MODE_GPS_OUT_OF_ORDER && launch) {
 366              		.loc 1 219 0
 367 01d0 2D49     		ldr	r1, .L56+80
 368 01d2 0B78     		ldrb	r3, [r1, #0]	@ zero_extendqisi2
 369 01d4 033B     		subs	r3, r3, #3
 370 01d6 DBB2     		uxtb	r3, r3
 371 01d8 012B     		cmp	r3, #1
 372 01da 0ED9     		bls	.L33
 373 01dc 2B4B     		ldr	r3, .L56+84
 374 01de 1B78     		ldrb	r3, [r3, #0]	@ zero_extendqisi2
 375 01e0 5BB1     		cbz	r3, .L33
 220:firmwares/fixedwing/main_ap.c ****     if  (too_far_from_home) {
 376              		.loc 1 220 0
 377 01e2 2B4B     		ldr	r3, .L56+88
 378 01e4 1B78     		ldrb	r3, [r3, #0]	@ zero_extendqisi2
 379 01e6 13B1     		cbz	r3, .L35
 221:firmwares/fixedwing/main_ap.c ****       pprz_mode = PPRZ_MODE_HOME;
 380              		.loc 1 221 0
 381 01e8 0323     		movs	r3, #3
 382 01ea 0B70     		strb	r3, [r1, #0]
 383 01ec 023B     		subs	r3, r3, #2
 384              	.LVL24:
 385              	.L35:
 224:firmwares/fixedwing/main_ap.c ****     if  (really_lost) {
 386              		.loc 1 224 0
 387 01ee 2AB1     		cbz	r2, .L36
 225:firmwares/fixedwing/main_ap.c ****       pprz_mode = RC_LOST_MODE;
 388              		.loc 1 225 0
 389 01f0 254B     		ldr	r3, .L56+80
 390              	.LVL25:
 391 01f2 0322     		movs	r2, #3
 392 01f4 1A70     		strb	r2, [r3, #0]
 393 01f6 0123     		movs	r3, #1
 394              	.LVL26:
 395 01f8 00E0     		b	.L36
 396              	.LVL27:
 397              	.L33:
 398 01fa 0023     		movs	r3, #0
 399              	.LVL28:
 400              	.L36:
 229:firmwares/fixedwing/main_ap.c ****   if (bit_is_set(fbw_state->status, AVERAGED_CHANNELS_SENT)) {
 401              		.loc 1 229 0
 402 01fc 214A     		ldr	r2, .L56+76
 403 01fe 1268     		ldr	r2, [r2, #0]
 404 0200 D17B     		ldrb	r1, [r2, #15]	@ zero_extendqisi2
 405 0202 11F0100F 		tst	r1, #16
 406 0206 4BD0     		beq	.L37
 407              	.LBB58:
 408              	.LBB59:
 409              	.LBB60:
 142:firmwares/fixedwing/main_ap.c ****   if ((pprz_mode != PPRZ_MODE_HOME &&
 410              		.loc 1 142 0
 411 0208 1F49     		ldr	r1, .L56+80
 412 020a 0978     		ldrb	r1, [r1, #0]	@ zero_extendqisi2
 413 020c C81E     		subs	r0, r1, #3
 414              	.LVL29:
 415 020e C0B2     		uxtb	r0, r0
 416 0210 0128     		cmp	r0, #1
 417 0212 01D8     		bhi	.L38
 418 0214 0022     		movs	r2, #0
 419              	.LVL30:
 420 0216 41E0     		b	.L39
 421              	.LVL31:
 422              	.L38:
 423              	.LBB61:
 148:firmwares/fixedwing/main_ap.c ****     return ModeUpdate(pprz_mode, PPRZ_MODE_OF_PULSE(fbw_state->channels[RADIO_MODE], fbw_state->sta
 424              		.loc 1 148 0
 425 0218 B2F90C20 		ldrsh	r2, [r2, #12]
 426 021c B2F5965F 		cmp	r2, #4800
 427 0220 01DD     		ble	.L40
 428 0222 0222     		movs	r2, #2
 429              	.LVL32:
 430 0224 04E0     		b	.L41
 431              	.LVL33:
 432              	.L40:
 433 0226 12F5965F 		cmn	r2, #4800
 434 022a D4BF     		ite	le
 435 022c 0022     		movle	r2, #0
 436 022e 0122     		movgt	r2, #1
 437              	.LVL34:
 438              	.L41:
 439 0230 9142     		cmp	r1, r2
 440 0232 2FD1     		bne	.L42
 441 0234 0022     		movs	r2, #0
 442              	.LVL35:
 443 0236 30E0     		b	.L43
 444              	.L57:
 445              		.align	2
 446              	.L56:
 447 0238 00000000 		.word	on_ahrs_event
 448 023c 00000000 		.word	uart1
 449 0240 00000000 		.word	gps_ubx
 450 0244 00000000 		.word	gps
 451 0248 00000000 		.word	cpu_time_ticks
 452 024c 00000000 		.word	cpu_time_sec
 453 0250 00000000 		.word	uart2
 454 0254 00000000 		.word	.LANCHOR0
 455 0258 00000000 		.word	pprz_ovrn
 456 025c 00000000 		.word	.LANCHOR1
 457 0260 00000000 		.word	.LANCHOR2
 458 0264 00000000 		.word	.LANCHOR3
 459 0268 00000000 		.word	pprz_error
 460 026c 00000000 		.word	pprz_msg_received
 461 0270 00000000 		.word	pprz_payload_len
 462 0274 00000000 		.word	pprz_payload
 463 0278 00000000 		.word	dl_buffer
 464 027c 00000000 		.word	dl_msg_available
 465 0280 00000000 		.word	inter_mcu_received_fbw
 466 0284 00000000 		.word	fbw_state
 467 0288 00000000 		.word	.LANCHOR4
 468 028c 00000000 		.word	.LANCHOR5
 469 0290 00000000 		.word	too_far_from_home
 470              	.LVL36:
 471              	.L42:
 472 0294 6B49     		ldr	r1, .L58
 473 0296 0A70     		strb	r2, [r1, #0]
 474 0298 0122     		movs	r2, #1
 475              	.LVL37:
 476              	.L43:
 477              	.LBE61:
 478 029a D2B2     		uxtb	r2, r2
 479              	.LVL38:
 480              	.L39:
 481              	.LBE60:
 482              	.LBE59:
 231:firmwares/fixedwing/main_ap.c ****     mode_changed |= pprz_mode_changed;
 483              		.loc 1 231 0
 484 029c 42EA0303 		orr	r3, r2, r3
 485              	.LVL39:
 486              	.L37:
 487              	.LBE58:
 488              	.LBB62:
 489              	.LBB63:
 159:firmwares/fixedwing/main_ap.c ****   uint8_t new_status = fbw_state->status;
 490              		.loc 1 159 0
 491 02a0 694A     		ldr	r2, .L58+4
 492              	.LVL40:
 160:firmwares/fixedwing/main_ap.c ****   if (mcu1_status != new_status) {
 493              		.loc 1 160 0
 494 02a2 6A49     		ldr	r1, .L58+8
 159:firmwares/fixedwing/main_ap.c ****   uint8_t new_status = fbw_state->status;
 495              		.loc 1 159 0
 496 02a4 1268     		ldr	r2, [r2, #0]
 160:firmwares/fixedwing/main_ap.c ****   if (mcu1_status != new_status) {
 497              		.loc 1 160 0
 498 02a6 0878     		ldrb	r0, [r1, #0]	@ zero_extendqisi2
 499              	.LVL41:
 159:firmwares/fixedwing/main_ap.c ****   uint8_t new_status = fbw_state->status;
 500              		.loc 1 159 0
 501 02a8 D27B     		ldrb	r2, [r2, #15]	@ zero_extendqisi2
 502              	.LVL42:
 160:firmwares/fixedwing/main_ap.c ****   if (mcu1_status != new_status) {
 503              		.loc 1 160 0
 504 02aa 9042     		cmp	r0, r2
 505 02ac 05D0     		beq	.L53
 506              	.LBB64:
 161:firmwares/fixedwing/main_ap.c ****     bool_t changed = ((mcu1_status&MASK_FBW_CHANGED) != (new_status&MASK_FBW_CHANGED));
 507              		.loc 1 161 0
 508 02ae 82EA0000 		eor	r0, r2, r0
 509              	.LBE64:
 510              	.LBE63:
 511              	.LBE62:
 239:firmwares/fixedwing/main_ap.c ****   if ( mode_changed )
 512              		.loc 1 239 0
 513 02b2 10F00F0F 		tst	r0, #15
 514              	.LBB67:
 515              	.LBB66:
 516              	.LBB65:
 162:firmwares/fixedwing/main_ap.c ****     mcu1_status = new_status;
 517              		.loc 1 162 0
 518 02b6 0A70     		strb	r2, [r1, #0]
 519              	.LBE65:
 520              	.LBE66:
 521              	.LBE67:
 239:firmwares/fixedwing/main_ap.c ****   if ( mode_changed )
 522              		.loc 1 239 0
 523 02b8 01D1     		bne	.L52
 524              	.L53:
 525 02ba 002B     		cmp	r3, #0
 526 02bc 7FD0     		beq	.L46
 527              	.L52:
 240:firmwares/fixedwing/main_ap.c ****     PERIODIC_SEND_PPRZ_MODE(DefaultChannel);
 528              		.loc 1 240 0
 529 02be 6448     		ldr	r0, .L58+12
 530 02c0 0C21     		movs	r1, #12
 531 02c2 FFF7FEFF 		bl	uart_check_free_space
 532              	.LVL43:
 533 02c6 0028     		cmp	r0, #0
 534 02c8 75D0     		beq	.L48
 535 02ca 624B     		ldr	r3, .L58+16
 536              	.LBB68:
 537 02cc 6048     		ldr	r0, .L58+12
 538              	.LBE68:
 539 02ce 1A88     		ldrh	r2, [r3, #0]
 540              	.LBB69:
 541 02d0 9921     		movs	r1, #153
 542              	.LBE69:
 543 02d2 0C32     		adds	r2, r2, #12
 544 02d4 1A80     		strh	r2, [r3, #0]	@ movhi
 545 02d6 604B     		ldr	r3, .L58+20
 546              	.LBB70:
 547 02d8 604D     		ldr	r5, .L58+24
 548              	.LBE70:
 549 02da 1A88     		ldrh	r2, [r3, #0]
 550              	.LBB71:
 551 02dc 604C     		ldr	r4, .L58+28
 552              	.LBE71:
 553 02de 0132     		adds	r2, r2, #1
 554 02e0 1A80     		strh	r2, [r3, #0]	@ movhi
 555              	.LBB72:
 556 02e2 FFF7FEFF 		bl	uart_transmit
 557 02e6 5A48     		ldr	r0, .L58+12
 558 02e8 0C21     		movs	r1, #12
 559 02ea FFF7FEFF 		bl	uart_transmit
 560              	.LBE72:
 561 02ee 0D23     		movs	r3, #13
 562 02f0 2B70     		strb	r3, [r5, #0]
 563 02f2 0C33     		adds	r3, r3, #12
 564 02f4 2370     		strb	r3, [r4, #0]
 565 02f6 5648     		ldr	r0, .L58+12
 566 02f8 0121     		movs	r1, #1
 567 02fa FFF7FEFF 		bl	uart_transmit
 568 02fe 2B78     		ldrb	r3, [r5, #0]	@ zero_extendqisi2
 569 0300 2278     		ldrb	r2, [r4, #0]	@ zero_extendqisi2
 570 0302 0B33     		adds	r3, r3, #11
 571 0304 DBB2     		uxtb	r3, r3
 572 0306 2B70     		strb	r3, [r5, #0]
 573 0308 9B18     		adds	r3, r3, r2
 574 030a 2370     		strb	r3, [r4, #0]
 575 030c 5048     		ldr	r0, .L58+12
 576 030e 0B21     		movs	r1, #11
 577 0310 FFF7FEFF 		bl	uart_transmit
 578              	.LBB73:
 579 0314 4B4B     		ldr	r3, .L58
 580 0316 2278     		ldrb	r2, [r4, #0]	@ zero_extendqisi2
 581 0318 1978     		ldrb	r1, [r3, #0]	@ zero_extendqisi2
 582              	.LVL44:
 583 031a 2B78     		ldrb	r3, [r5, #0]	@ zero_extendqisi2
 584 031c 4C48     		ldr	r0, .L58+12
 585 031e CB18     		adds	r3, r1, r3
 586 0320 DBB2     		uxtb	r3, r3
 587 0322 2B70     		strb	r3, [r5, #0]
 588 0324 9B18     		adds	r3, r3, r2
 589 0326 2370     		strb	r3, [r4, #0]
 590 0328 FFF7FEFF 		bl	uart_transmit
 591              	.LVL45:
 592              	.LBE73:
 593              	.LBB74:
 594 032c 4D4B     		ldr	r3, .L58+32
 595 032e 2278     		ldrb	r2, [r4, #0]	@ zero_extendqisi2
 596 0330 1978     		ldrb	r1, [r3, #0]	@ zero_extendqisi2
 597              	.LVL46:
 598 0332 2B78     		ldrb	r3, [r5, #0]	@ zero_extendqisi2
 599 0334 4648     		ldr	r0, .L58+12
 600 0336 CB18     		adds	r3, r1, r3
 601 0338 DBB2     		uxtb	r3, r3
 602 033a 2B70     		strb	r3, [r5, #0]
 603 033c 9B18     		adds	r3, r3, r2
 604 033e 2370     		strb	r3, [r4, #0]
 605 0340 FFF7FEFF 		bl	uart_transmit
 606              	.LVL47:
 607              	.LBE74:
 608              	.LBB75:
 609 0344 484B     		ldr	r3, .L58+36
 610 0346 2278     		ldrb	r2, [r4, #0]	@ zero_extendqisi2
 611 0348 1978     		ldrb	r1, [r3, #0]	@ zero_extendqisi2
 612              	.LVL48:
 613 034a 2B78     		ldrb	r3, [r5, #0]	@ zero_extendqisi2
 614 034c 4048     		ldr	r0, .L58+12
 615 034e CB18     		adds	r3, r1, r3
 616 0350 DBB2     		uxtb	r3, r3
 617 0352 2B70     		strb	r3, [r5, #0]
 618 0354 9B18     		adds	r3, r3, r2
 619 0356 2370     		strb	r3, [r4, #0]
 620 0358 FFF7FEFF 		bl	uart_transmit
 621              	.LVL49:
 622              	.LBE75:
 623              	.LBB76:
 624 035c 434B     		ldr	r3, .L58+40
 625 035e 2278     		ldrb	r2, [r4, #0]	@ zero_extendqisi2
 626 0360 1978     		ldrb	r1, [r3, #0]	@ zero_extendqisi2
 627              	.LVL50:
 628 0362 2B78     		ldrb	r3, [r5, #0]	@ zero_extendqisi2
 629 0364 3A48     		ldr	r0, .L58+12
 630 0366 CB18     		adds	r3, r1, r3
 631 0368 DBB2     		uxtb	r3, r3
 632 036a 2B70     		strb	r3, [r5, #0]
 633 036c 9B18     		adds	r3, r3, r2
 634 036e 2370     		strb	r3, [r4, #0]
 635 0370 FFF7FEFF 		bl	uart_transmit
 636              	.LVL51:
 637              	.LBE76:
 638              	.LBB77:
 639 0374 3E4B     		ldr	r3, .L58+44
 640 0376 2278     		ldrb	r2, [r4, #0]	@ zero_extendqisi2
 641 0378 1978     		ldrb	r1, [r3, #0]	@ zero_extendqisi2
 642              	.LVL52:
 643 037a 2B78     		ldrb	r3, [r5, #0]	@ zero_extendqisi2
 644 037c 3448     		ldr	r0, .L58+12
 645 037e CB18     		adds	r3, r1, r3
 646 0380 DBB2     		uxtb	r3, r3
 647 0382 2B70     		strb	r3, [r5, #0]
 648 0384 9B18     		adds	r3, r3, r2
 649 0386 2370     		strb	r3, [r4, #0]
 650 0388 FFF7FEFF 		bl	uart_transmit
 651              	.LVL53:
 652              	.LBE77:
 653              	.LBB78:
 654 038c 2F4B     		ldr	r3, .L58+8
 655 038e 2278     		ldrb	r2, [r4, #0]	@ zero_extendqisi2
 656 0390 1978     		ldrb	r1, [r3, #0]	@ zero_extendqisi2
 657              	.LVL54:
 658 0392 2B78     		ldrb	r3, [r5, #0]	@ zero_extendqisi2
 659 0394 2E48     		ldr	r0, .L58+12
 660 0396 CB18     		adds	r3, r1, r3
 661 0398 DBB2     		uxtb	r3, r3
 662 039a 2B70     		strb	r3, [r5, #0]
 663 039c 9B18     		adds	r3, r3, r2
 664 039e 2370     		strb	r3, [r4, #0]
 665 03a0 FFF7FEFF 		bl	uart_transmit
 666              	.LVL55:
 667              	.LBE78:
 668 03a4 2978     		ldrb	r1, [r5, #0]	@ zero_extendqisi2
 669 03a6 2A48     		ldr	r0, .L58+12
 670 03a8 FFF7FEFF 		bl	uart_transmit
 671 03ac 2848     		ldr	r0, .L58+12
 672 03ae 2178     		ldrb	r1, [r4, #0]	@ zero_extendqisi2
 673 03b0 FFF7FEFF 		bl	uart_transmit
 674 03b4 03E0     		b	.L46
 675              	.L48:
 676 03b6 2F4B     		ldr	r3, .L58+48
 677 03b8 1A78     		ldrb	r2, [r3, #0]	@ zero_extendqisi2
 678 03ba 0132     		adds	r2, r2, #1
 679 03bc 1A70     		strb	r2, [r3, #0]
 680              	.LVL56:
 681              	.L46:
 246:firmwares/fixedwing/main_ap.c ****   if (pprz_mode == PPRZ_MODE_AUTO1) {
 682              		.loc 1 246 0
 683 03be 214B     		ldr	r3, .L58
 684              	.LVL57:
 685 03c0 1B78     		ldrb	r3, [r3, #0]	@ zero_extendqisi2
 686 03c2 012B     		cmp	r3, #1
 687 03c4 19D1     		bne	.L49
 248:firmwares/fixedwing/main_ap.c ****     h_ctl_roll_setpoint = FLOAT_OF_PPRZ(fbw_state->channels[RADIO_ROLL], 0., -AUTO1_MAX_ROLL);
 688              		.loc 1 248 0
 689 03c6 204B     		ldr	r3, .L58+4
 690 03c8 1C68     		ldr	r4, [r3, #0]
 691 03ca B4F90000 		ldrsh	r0, [r4, #0]
 692 03ce FFF7FEFF 		bl	__aeabi_i2f
 693              	.LVL58:
 694 03d2 2949     		ldr	r1, .L58+52
 695 03d4 FFF7FEFF 		bl	__aeabi_fdiv
 696 03d8 0021     		movs	r1, #0
 697 03da FFF7FEFF 		bl	__aeabi_fadd
 698 03de 274B     		ldr	r3, .L58+56
 699 03e0 1860     		str	r0, [r3, #0]	@ float
 251:firmwares/fixedwing/main_ap.c ****     h_ctl_pitch_setpoint = FLOAT_OF_PPRZ(fbw_state->channels[RADIO_PITCH], 0., AUTO1_MAX_PITCH);
 700              		.loc 1 251 0
 701 03e2 B4F90200 		ldrsh	r0, [r4, #2]
 702 03e6 FFF7FEFF 		bl	__aeabi_i2f
 703 03ea 2549     		ldr	r1, .L58+60
 704 03ec FFF7FEFF 		bl	__aeabi_fdiv
 705 03f0 0021     		movs	r1, #0
 706 03f2 FFF7FEFF 		bl	__aeabi_fadd
 707 03f6 234B     		ldr	r3, .L58+64
 708 03f8 1860     		str	r0, [r3, #0]	@ float
 709              	.LVL59:
 710              	.L49:
 256:firmwares/fixedwing/main_ap.c ****   if (pprz_mode == PPRZ_MODE_MANUAL || pprz_mode == PPRZ_MODE_AUTO1) {
 711              		.loc 1 256 0
 712 03fa 124B     		ldr	r3, .L58
 713 03fc 1B78     		ldrb	r3, [r3, #0]	@ zero_extendqisi2
 714 03fe 012B     		cmp	r3, #1
 715 0400 04D8     		bhi	.L50
 257:firmwares/fixedwing/main_ap.c ****     v_ctl_throttle_setpoint = fbw_state->channels[RADIO_THROTTLE];
 716              		.loc 1 257 0
 717 0402 114B     		ldr	r3, .L58+4
 718 0404 1A68     		ldr	r2, [r3, #0]
 719              	.LVL60:
 720 0406 204B     		ldr	r3, .L58+68
 721 0408 D288     		ldrh	r2, [r2, #6]
 722 040a 1A80     		strh	r2, [r3, #0]	@ movhi
 723              	.LVL61:
 724              	.L50:
 261:firmwares/fixedwing/main_ap.c ****   mcu1_ppm_cpt = fbw_state->ppm_cpt;
 725              		.loc 1 261 0
 726 040c 0E4B     		ldr	r3, .L58+4
 727 040e 1F4A     		ldr	r2, .L58+72
 728              	.LVL62:
 729 0410 1B68     		ldr	r3, [r3, #0]
 730 0412 997B     		ldrb	r1, [r3, #14]	@ zero_extendqisi2
 731 0414 1170     		strb	r1, [r2, #0]
 265:firmwares/fixedwing/main_ap.c ****   vsupply = fbw_state->vsupply;
 732              		.loc 1 265 0
 733 0416 597C     		ldrb	r1, [r3, #17]	@ zero_extendqisi2
 734 0418 1D4A     		ldr	r2, .L58+76
 735 041a 1170     		strb	r1, [r2, #0]
 266:firmwares/fixedwing/main_ap.c ****   current = fbw_state->current;
 736              		.loc 1 266 0
 737 041c 5969     		ldr	r1, [r3, #20]
 738 041e 1D4A     		ldr	r2, .L58+80
 739 0420 1160     		str	r1, [r2, #0]
 269:firmwares/fixedwing/main_ap.c ****   if (!estimator_flight_time) {
 740              		.loc 1 269 0
 741 0422 1D4A     		ldr	r2, .L58+84
 742 0424 1288     		ldrh	r2, [r2, #0]
 743 0426 5AB9     		cbnz	r2, .L51
 270:firmwares/fixedwing/main_ap.c ****     if (pprz_mode == PPRZ_MODE_AUTO2 && fbw_state->channels[RADIO_THROTTLE] > THROTTLE_THRESHOLD_TA
 744              		.loc 1 270 0
 745 0428 064A     		ldr	r2, .L58
 746 042a 1278     		ldrb	r2, [r2, #0]	@ zero_extendqisi2
 747 042c 022A     		cmp	r2, #2
 748 042e 07D1     		bne	.L51
 749 0430 B3F90630 		ldrsh	r3, [r3, #6]
 750 0434 B3F5075F 		cmp	r3, #8640
 751 0438 02DD     		ble	.L51
 271:firmwares/fixedwing/main_ap.c ****       launch = TRUE;
 752              		.loc 1 271 0
 753 043a 184B     		ldr	r3, .L58+88
 754 043c 013A     		subs	r2, r2, #1
 755 043e 1A70     		strb	r2, [r3, #0]
 756              	.LVL63:
 757              	.L51:
 758 0440 BDE8F081 		pop	{r4, r5, r6, r7, r8, pc}
 759              	.L59:
 760              		.align	2
 761              	.L58:
 762 0444 00000000 		.word	.LANCHOR4
 763 0448 00000000 		.word	fbw_state
 764 044c 00000000 		.word	.LANCHOR6
 765 0450 00000000 		.word	uart2
 766 0454 00000000 		.word	downlink_nb_bytes
 767 0458 00000000 		.word	downlink_nb_msgs
 768 045c 00000000 		.word	ck_a
 769 0460 00000000 		.word	ck_b
 770 0464 00000000 		.word	v_ctl_mode
 771 0468 00000000 		.word	.LANCHOR7
 772 046c 00000000 		.word	horizontal_mode
 773 0470 00000000 		.word	.LANCHOR8
 774 0474 00000000 		.word	downlink_nb_ovrn
 775 0478 000016C6 		.word	-971636736
 776 047c 00000000 		.word	h_ctl_roll_setpoint
 777 0480 00001646 		.word	1175846912
 778 0484 00000000 		.word	h_ctl_pitch_setpoint
 779 0488 00000000 		.word	v_ctl_throttle_setpoint
 780 048c 00000000 		.word	.LANCHOR9
 781 0490 00000000 		.word	.LANCHOR10
 782 0494 00000000 		.word	.LANCHOR11
 783 0498 00000000 		.word	estimator_flight_time
 784 049c 00000000 		.word	.LANCHOR5
 785              	.LBE57:
 786              	.LBE56:
 787              		.cfi_endproc
 788              	.LFE56:
 790              		.global	__aeabi_f2d
 791              		.global	__aeabi_ddiv
 792              		.global	__aeabi_d2uiz
 793              		.global	__aeabi_i2d
 794              		.global	__aeabi_dcmpgt
 795              		.global	__aeabi_ui2f
 796              		.global	__aeabi_dmul
 797              		.global	__aeabi_d2iz
 798              		.global	__aeabi_fcmpgt
 799              		.global	__aeabi_fcmplt
 800              		.global	__aeabi_fmul
 801              		.section	.text.navigation_task,"ax",%progbits
 802              		.align	1
 803              		.thumb
 804              		.thumb_func
 806              	navigation_task:
 807              	.LFB52:
 285:firmwares/fixedwing/main_ap.c **** static void navigation_task( void ) {
 808              		.loc 1 285 0
 809              		.cfi_startproc
 810              		@ args = 0, pretend = 0, frame = 0
 811              		@ frame_needed = 0, uses_anonymous_args = 0
 812 0000 F8B5     		push	{r3, r4, r5, r6, r7, lr}
 813              	.LCFI1:
 814              		.cfi_def_cfa_offset 24
 292:firmwares/fixedwing/main_ap.c ****   if (launch) {
 815              		.loc 1 292 0
 816 0002 994B     		ldr	r3, .L90
 817              		.cfi_offset 14, -4
 818              		.cfi_offset 7, -8
 819              		.cfi_offset 6, -12
 820              		.cfi_offset 5, -16
 821              		.cfi_offset 4, -20
 822              		.cfi_offset 3, -24
 823 0004 1B78     		ldrb	r3, [r3, #0]	@ zero_extendqisi2
 824 0006 002B     		cmp	r3, #0
 825 0008 00F02081 		beq	.L61
 293:firmwares/fixedwing/main_ap.c ****     if (GpsTimeoutError) {
 826              		.loc 1 293 0
 827 000c 974B     		ldr	r3, .L90+4
 828 000e 1A88     		ldrh	r2, [r3, #0]
 829 0010 974B     		ldr	r3, .L90+8
 830 0012 B3F8E830 		ldrh	r3, [r3, #232]
 831 0016 D31A     		subs	r3, r2, r3
 832 0018 012B     		cmp	r3, #1
 833 001a 40F38D80 		ble	.L62
 294:firmwares/fixedwing/main_ap.c ****       if (pprz_mode == PPRZ_MODE_AUTO2 || pprz_mode == PPRZ_MODE_HOME) {
 834              		.loc 1 294 0
 835 001e 954E     		ldr	r6, .L90+12
 836 0020 3378     		ldrb	r3, [r6, #0]	@ zero_extendqisi2
 837 0022 9A1E     		subs	r2, r3, #2
 838 0024 D2B2     		uxtb	r2, r2
 839 0026 012A     		cmp	r2, #1
 840 0028 00F21081 		bhi	.L61
 295:firmwares/fixedwing/main_ap.c ****         last_pprz_mode = pprz_mode;
 841              		.loc 1 295 0
 842 002c 924A     		ldr	r2, .L90+16
 297:firmwares/fixedwing/main_ap.c ****         PERIODIC_SEND_PPRZ_MODE(DefaultChannel);
 843              		.loc 1 297 0
 844 002e 9348     		ldr	r0, .L90+20
 295:firmwares/fixedwing/main_ap.c ****         last_pprz_mode = pprz_mode;
 845              		.loc 1 295 0
 846 0030 1370     		strb	r3, [r2, #0]
 296:firmwares/fixedwing/main_ap.c ****         pprz_mode = PPRZ_MODE_GPS_OUT_OF_ORDER;
 847              		.loc 1 296 0
 848 0032 0423     		movs	r3, #4
 849 0034 3370     		strb	r3, [r6, #0]
 297:firmwares/fixedwing/main_ap.c ****         PERIODIC_SEND_PPRZ_MODE(DefaultChannel);
 850              		.loc 1 297 0
 851 0036 0C21     		movs	r1, #12
 852 0038 FFF7FEFF 		bl	uart_check_free_space
 853 003c 0028     		cmp	r0, #0
 854 003e 74D0     		beq	.L63
 855 0040 8F4B     		ldr	r3, .L90+24
 856              	.LBB79:
 857 0042 8E48     		ldr	r0, .L90+20
 858              	.LBE79:
 859 0044 1A88     		ldrh	r2, [r3, #0]
 860              	.LBB80:
 861 0046 9921     		movs	r1, #153
 862              	.LBE80:
 863 0048 0C32     		adds	r2, r2, #12
 864 004a 1A80     		strh	r2, [r3, #0]	@ movhi
 865 004c 8D4B     		ldr	r3, .L90+28
 866 004e 8E4D     		ldr	r5, .L90+32
 867 0050 1A88     		ldrh	r2, [r3, #0]
 868 0052 8E4C     		ldr	r4, .L90+36
 869 0054 0132     		adds	r2, r2, #1
 870 0056 1A80     		strh	r2, [r3, #0]	@ movhi
 871              	.LBB81:
 872 0058 FFF7FEFF 		bl	uart_transmit
 873 005c 8748     		ldr	r0, .L90+20
 874 005e 0C21     		movs	r1, #12
 875 0060 FFF7FEFF 		bl	uart_transmit
 876              	.LBE81:
 877 0064 0D23     		movs	r3, #13
 878 0066 2B70     		strb	r3, [r5, #0]
 879 0068 0C33     		adds	r3, r3, #12
 880 006a 2370     		strb	r3, [r4, #0]
 881 006c 8348     		ldr	r0, .L90+20
 882 006e 0121     		movs	r1, #1
 883 0070 FFF7FEFF 		bl	uart_transmit
 884 0074 2B78     		ldrb	r3, [r5, #0]	@ zero_extendqisi2
 885 0076 2278     		ldrb	r2, [r4, #0]	@ zero_extendqisi2
 886 0078 0B33     		adds	r3, r3, #11
 887 007a DBB2     		uxtb	r3, r3
 888              	.LVL64:
 889 007c 2B70     		strb	r3, [r5, #0]
 890 007e 9B18     		adds	r3, r3, r2
 891              	.LVL65:
 892 0080 2370     		strb	r3, [r4, #0]
 893 0082 7E48     		ldr	r0, .L90+20
 894 0084 0B21     		movs	r1, #11
 895 0086 FFF7FEFF 		bl	uart_transmit
 896              	.LBB82:
 897 008a 3178     		ldrb	r1, [r6, #0]	@ zero_extendqisi2
 898              	.LVL66:
 899 008c 2B78     		ldrb	r3, [r5, #0]	@ zero_extendqisi2
 900 008e 2278     		ldrb	r2, [r4, #0]	@ zero_extendqisi2
 901 0090 CB18     		adds	r3, r1, r3
 902 0092 DBB2     		uxtb	r3, r3
 903              	.LVL67:
 904 0094 2B70     		strb	r3, [r5, #0]
 905 0096 9B18     		adds	r3, r3, r2
 906              	.LVL68:
 907 0098 2370     		strb	r3, [r4, #0]
 908 009a 7848     		ldr	r0, .L90+20
 909 009c FFF7FEFF 		bl	uart_transmit
 910              	.LVL69:
 911              	.LBE82:
 912              	.LBB83:
 913 00a0 7B4B     		ldr	r3, .L90+40
 914 00a2 2278     		ldrb	r2, [r4, #0]	@ zero_extendqisi2
 915 00a4 1978     		ldrb	r1, [r3, #0]	@ zero_extendqisi2
 916              	.LVL70:
 917 00a6 2B78     		ldrb	r3, [r5, #0]	@ zero_extendqisi2
 918 00a8 7448     		ldr	r0, .L90+20
 919 00aa CB18     		adds	r3, r1, r3
 920 00ac DBB2     		uxtb	r3, r3
 921              	.LVL71:
 922 00ae 2B70     		strb	r3, [r5, #0]
 923 00b0 9B18     		adds	r3, r3, r2
 924              	.LVL72:
 925 00b2 2370     		strb	r3, [r4, #0]
 926 00b4 FFF7FEFF 		bl	uart_transmit
 927              	.LVL73:
 928              	.LBE83:
 929              	.LBB84:
 930 00b8 764B     		ldr	r3, .L90+44
 931 00ba 2278     		ldrb	r2, [r4, #0]	@ zero_extendqisi2
 932 00bc 1978     		ldrb	r1, [r3, #0]	@ zero_extendqisi2
 933              	.LVL74:
 934 00be 2B78     		ldrb	r3, [r5, #0]	@ zero_extendqisi2
 935 00c0 6E48     		ldr	r0, .L90+20
 936 00c2 CB18     		adds	r3, r1, r3
 937 00c4 DBB2     		uxtb	r3, r3
 938              	.LVL75:
 939 00c6 2B70     		strb	r3, [r5, #0]
 940 00c8 9B18     		adds	r3, r3, r2
 941              	.LVL76:
 942 00ca 2370     		strb	r3, [r4, #0]
 943 00cc FFF7FEFF 		bl	uart_transmit
 944              	.LVL77:
 945              	.LBE84:
 946              	.LBB85:
 947 00d0 714B     		ldr	r3, .L90+48
 948 00d2 2278     		ldrb	r2, [r4, #0]	@ zero_extendqisi2
 949 00d4 1978     		ldrb	r1, [r3, #0]	@ zero_extendqisi2
 950              	.LVL78:
 951 00d6 2B78     		ldrb	r3, [r5, #0]	@ zero_extendqisi2
 952 00d8 6848     		ldr	r0, .L90+20
 953 00da CB18     		adds	r3, r1, r3
 954 00dc DBB2     		uxtb	r3, r3
 955              	.LVL79:
 956 00de 2B70     		strb	r3, [r5, #0]
 957 00e0 9B18     		adds	r3, r3, r2
 958              	.LVL80:
 959 00e2 2370     		strb	r3, [r4, #0]
 960 00e4 FFF7FEFF 		bl	uart_transmit
 961              	.LVL81:
 962              	.LBE85:
 963              	.LBB86:
 964 00e8 6C4B     		ldr	r3, .L90+52
 965 00ea 2278     		ldrb	r2, [r4, #0]	@ zero_extendqisi2
 966 00ec 1978     		ldrb	r1, [r3, #0]	@ zero_extendqisi2
 967              	.LVL82:
 968 00ee 2B78     		ldrb	r3, [r5, #0]	@ zero_extendqisi2
 969 00f0 6248     		ldr	r0, .L90+20
 970 00f2 CB18     		adds	r3, r1, r3
 971 00f4 DBB2     		uxtb	r3, r3
 972              	.LVL83:
 973 00f6 2B70     		strb	r3, [r5, #0]
 974 00f8 9B18     		adds	r3, r3, r2
 975              	.LVL84:
 976 00fa 2370     		strb	r3, [r4, #0]
 977 00fc FFF7FEFF 		bl	uart_transmit
 978              	.LVL85:
 979              	.LBE86:
 980              	.LBB87:
 981 0100 674B     		ldr	r3, .L90+56
 982 0102 2278     		ldrb	r2, [r4, #0]	@ zero_extendqisi2
 983 0104 1978     		ldrb	r1, [r3, #0]	@ zero_extendqisi2
 984              	.LVL86:
 985 0106 2B78     		ldrb	r3, [r5, #0]	@ zero_extendqisi2
 986 0108 5C48     		ldr	r0, .L90+20
 987 010a CB18     		adds	r3, r1, r3
 988 010c DBB2     		uxtb	r3, r3
 989              	.LVL87:
 990 010e 2B70     		strb	r3, [r5, #0]
 991 0110 9B18     		adds	r3, r3, r2
 992              	.LVL88:
 993 0112 2370     		strb	r3, [r4, #0]
 994 0114 FFF7FEFF 		bl	uart_transmit
 995              	.LVL89:
 996              	.LBE87:
 997 0118 2978     		ldrb	r1, [r5, #0]	@ zero_extendqisi2
 998 011a 5848     		ldr	r0, .L90+20
 999 011c FFF7FEFF 		bl	uart_transmit
 1000 0120 5648     		ldr	r0, .L90+20
 1001 0122 2178     		ldrb	r1, [r4, #0]	@ zero_extendqisi2
 1002 0124 FFF7FEFF 		bl	uart_transmit
 1003 0128 03E0     		b	.L64
 1004              	.L63:
 1005 012a 5E4B     		ldr	r3, .L90+60
 1006 012c 1A78     		ldrb	r2, [r3, #0]	@ zero_extendqisi2
 1007 012e 0132     		adds	r2, r2, #1
 1008 0130 1A70     		strb	r2, [r3, #0]
 1009              	.L64:
 298:firmwares/fixedwing/main_ap.c ****         gps_lost = TRUE;
 1010              		.loc 1 298 0
 1011 0132 0122     		movs	r2, #1
 1012 0134 5C4B     		ldr	r3, .L90+64
 1013 0136 88E0     		b	.L88
 1014              	.L62:
 300:firmwares/fixedwing/main_ap.c ****     } else if (gps_lost) { /* GPS is ok */
 1015              		.loc 1 300 0
 1016 0138 5B4B     		ldr	r3, .L90+64
 1017 013a 1A78     		ldrb	r2, [r3, #0]	@ zero_extendqisi2
 1018 013c 002A     		cmp	r2, #0
 1019 013e 00F08580 		beq	.L61
 302:firmwares/fixedwing/main_ap.c ****       pprz_mode = last_pprz_mode;
 1020              		.loc 1 302 0
 1021 0142 4D4A     		ldr	r2, .L90+16
 1022 0144 4B4E     		ldr	r6, .L90+12
 1023 0146 1278     		ldrb	r2, [r2, #0]	@ zero_extendqisi2
 305:firmwares/fixedwing/main_ap.c ****       PERIODIC_SEND_PPRZ_MODE(DefaultChannel);
 1024              		.loc 1 305 0
 1025 0148 4C48     		ldr	r0, .L90+20
 302:firmwares/fixedwing/main_ap.c ****       pprz_mode = last_pprz_mode;
 1026              		.loc 1 302 0
 1027 014a 3270     		strb	r2, [r6, #0]
 303:firmwares/fixedwing/main_ap.c ****       gps_lost = FALSE;
 1028              		.loc 1 303 0
 1029 014c 0022     		movs	r2, #0
 1030 014e 1A70     		strb	r2, [r3, #0]
 305:firmwares/fixedwing/main_ap.c ****       PERIODIC_SEND_PPRZ_MODE(DefaultChannel);
 1031              		.loc 1 305 0
 1032 0150 0C21     		movs	r1, #12
 1033 0152 FFF7FEFF 		bl	uart_check_free_space
 1034 0156 0028     		cmp	r0, #0
 1035 0158 74D0     		beq	.L65
 1036 015a 494B     		ldr	r3, .L90+24
 1037              	.LBB88:
 1038 015c 4748     		ldr	r0, .L90+20
 1039              	.LBE88:
 1040 015e 1A88     		ldrh	r2, [r3, #0]
 1041              	.LBB89:
 1042 0160 9921     		movs	r1, #153
 1043              	.LBE89:
 1044 0162 0C32     		adds	r2, r2, #12
 1045 0164 1A80     		strh	r2, [r3, #0]	@ movhi
 1046 0166 474B     		ldr	r3, .L90+28
 1047 0168 474D     		ldr	r5, .L90+32
 1048 016a 1A88     		ldrh	r2, [r3, #0]
 1049 016c 474C     		ldr	r4, .L90+36
 1050 016e 0132     		adds	r2, r2, #1
 1051 0170 1A80     		strh	r2, [r3, #0]	@ movhi
 1052              	.LBB90:
 1053 0172 FFF7FEFF 		bl	uart_transmit
 1054 0176 4148     		ldr	r0, .L90+20
 1055 0178 0C21     		movs	r1, #12
 1056 017a FFF7FEFF 		bl	uart_transmit
 1057              	.LBE90:
 1058 017e 0D23     		movs	r3, #13
 1059 0180 2B70     		strb	r3, [r5, #0]
 1060 0182 0C33     		adds	r3, r3, #12
 1061 0184 2370     		strb	r3, [r4, #0]
 1062 0186 3D48     		ldr	r0, .L90+20
 1063 0188 0121     		movs	r1, #1
 1064 018a FFF7FEFF 		bl	uart_transmit
 1065 018e 2B78     		ldrb	r3, [r5, #0]	@ zero_extendqisi2
 1066 0190 2278     		ldrb	r2, [r4, #0]	@ zero_extendqisi2
 1067 0192 0B33     		adds	r3, r3, #11
 1068 0194 DBB2     		uxtb	r3, r3
 1069              	.LVL90:
 1070 0196 2B70     		strb	r3, [r5, #0]
 1071 0198 9B18     		adds	r3, r3, r2
 1072              	.LVL91:
 1073 019a 2370     		strb	r3, [r4, #0]
 1074 019c 3748     		ldr	r0, .L90+20
 1075 019e 0B21     		movs	r1, #11
 1076 01a0 FFF7FEFF 		bl	uart_transmit
 1077              	.LBB91:
 1078 01a4 3178     		ldrb	r1, [r6, #0]	@ zero_extendqisi2
 1079              	.LVL92:
 1080 01a6 2B78     		ldrb	r3, [r5, #0]	@ zero_extendqisi2
 1081 01a8 2278     		ldrb	r2, [r4, #0]	@ zero_extendqisi2
 1082 01aa CB18     		adds	r3, r1, r3
 1083 01ac DBB2     		uxtb	r3, r3
 1084              	.LVL93:
 1085 01ae 2B70     		strb	r3, [r5, #0]
 1086 01b0 9B18     		adds	r3, r3, r2
 1087              	.LVL94:
 1088 01b2 2370     		strb	r3, [r4, #0]
 1089 01b4 3148     		ldr	r0, .L90+20
 1090 01b6 FFF7FEFF 		bl	uart_transmit
 1091              	.LVL95:
 1092              	.LBE91:
 1093              	.LBB92:
 1094 01ba 354B     		ldr	r3, .L90+40
 1095 01bc 2278     		ldrb	r2, [r4, #0]	@ zero_extendqisi2
 1096 01be 1978     		ldrb	r1, [r3, #0]	@ zero_extendqisi2
 1097              	.LVL96:
 1098 01c0 2B78     		ldrb	r3, [r5, #0]	@ zero_extendqisi2
 1099 01c2 2E48     		ldr	r0, .L90+20
 1100 01c4 CB18     		adds	r3, r1, r3
 1101 01c6 DBB2     		uxtb	r3, r3
 1102              	.LVL97:
 1103 01c8 2B70     		strb	r3, [r5, #0]
 1104 01ca 9B18     		adds	r3, r3, r2
 1105              	.LVL98:
 1106 01cc 2370     		strb	r3, [r4, #0]
 1107 01ce FFF7FEFF 		bl	uart_transmit
 1108              	.LVL99:
 1109              	.LBE92:
 1110              	.LBB93:
 1111 01d2 304B     		ldr	r3, .L90+44
 1112 01d4 2278     		ldrb	r2, [r4, #0]	@ zero_extendqisi2
 1113 01d6 1978     		ldrb	r1, [r3, #0]	@ zero_extendqisi2
 1114              	.LVL100:
 1115 01d8 2B78     		ldrb	r3, [r5, #0]	@ zero_extendqisi2
 1116 01da 2848     		ldr	r0, .L90+20
 1117 01dc CB18     		adds	r3, r1, r3
 1118 01de DBB2     		uxtb	r3, r3
 1119              	.LVL101:
 1120 01e0 2B70     		strb	r3, [r5, #0]
 1121 01e2 9B18     		adds	r3, r3, r2
 1122              	.LVL102:
 1123 01e4 2370     		strb	r3, [r4, #0]
 1124 01e6 FFF7FEFF 		bl	uart_transmit
 1125              	.LVL103:
 1126              	.LBE93:
 1127              	.LBB94:
 1128 01ea 2B4B     		ldr	r3, .L90+48
 1129 01ec 2278     		ldrb	r2, [r4, #0]	@ zero_extendqisi2
 1130 01ee 1978     		ldrb	r1, [r3, #0]	@ zero_extendqisi2
 1131              	.LVL104:
 1132 01f0 2B78     		ldrb	r3, [r5, #0]	@ zero_extendqisi2
 1133 01f2 2248     		ldr	r0, .L90+20
 1134 01f4 CB18     		adds	r3, r1, r3
 1135 01f6 DBB2     		uxtb	r3, r3
 1136              	.LVL105:
 1137 01f8 2B70     		strb	r3, [r5, #0]
 1138 01fa 9B18     		adds	r3, r3, r2
 1139              	.LVL106:
 1140 01fc 2370     		strb	r3, [r4, #0]
 1141 01fe FFF7FEFF 		bl	uart_transmit
 1142              	.LVL107:
 1143              	.LBE94:
 1144              	.LBB95:
 1145 0202 264B     		ldr	r3, .L90+52
 1146 0204 2278     		ldrb	r2, [r4, #0]	@ zero_extendqisi2
 1147 0206 1978     		ldrb	r1, [r3, #0]	@ zero_extendqisi2
 1148              	.LVL108:
 1149 0208 2B78     		ldrb	r3, [r5, #0]	@ zero_extendqisi2
 1150 020a 1C48     		ldr	r0, .L90+20
 1151 020c CB18     		adds	r3, r1, r3
 1152 020e DBB2     		uxtb	r3, r3
 1153              	.LVL109:
 1154 0210 2B70     		strb	r3, [r5, #0]
 1155 0212 9B18     		adds	r3, r3, r2
 1156              	.LVL110:
 1157 0214 2370     		strb	r3, [r4, #0]
 1158 0216 FFF7FEFF 		bl	uart_transmit
 1159              	.LVL111:
 1160              	.LBE95:
 1161              	.LBB96:
 1162 021a 214B     		ldr	r3, .L90+56
 1163 021c 2278     		ldrb	r2, [r4, #0]	@ zero_extendqisi2
 1164 021e 1978     		ldrb	r1, [r3, #0]	@ zero_extendqisi2
 1165              	.LVL112:
 1166 0220 2B78     		ldrb	r3, [r5, #0]	@ zero_extendqisi2
 1167 0222 1648     		ldr	r0, .L90+20
 1168 0224 CB18     		adds	r3, r1, r3
 1169 0226 DBB2     		uxtb	r3, r3
 1170              	.LVL113:
 1171 0228 2B70     		strb	r3, [r5, #0]
 1172 022a 9B18     		adds	r3, r3, r2
 1173              	.LVL114:
 1174 022c 2370     		strb	r3, [r4, #0]
 1175 022e FFF7FEFF 		bl	uart_transmit
 1176              	.LVL115:
 1177              	.LBE96:
 1178 0232 2978     		ldrb	r1, [r5, #0]	@ zero_extendqisi2
 1179 0234 1148     		ldr	r0, .L90+20
 1180 0236 FFF7FEFF 		bl	uart_transmit
 1181 023a 1048     		ldr	r0, .L90+20
 1182 023c 2178     		ldrb	r1, [r4, #0]	@ zero_extendqisi2
 1183 023e FFF7FEFF 		bl	uart_transmit
 1184 0242 03E0     		b	.L61
 1185              	.L65:
 1186 0244 174B     		ldr	r3, .L90+60
 1187 0246 1A78     		ldrb	r2, [r3, #0]	@ zero_extendqisi2
 1188 0248 0132     		adds	r2, r2, #1
 1189              	.L88:
 1190 024a 1A70     		strb	r2, [r3, #0]
 1191              	.L61:
 310:firmwares/fixedwing/main_ap.c ****   common_nav_periodic_task_4Hz();
 1192              		.loc 1 310 0
 1193 024c FFF7FEFF 		bl	common_nav_periodic_task_4Hz
 311:firmwares/fixedwing/main_ap.c ****   if (pprz_mode == PPRZ_MODE_HOME)
 1194              		.loc 1 311 0
 1195 0250 084B     		ldr	r3, .L90+12
 1196 0252 1B78     		ldrb	r3, [r3, #0]	@ zero_extendqisi2
 1197 0254 032B     		cmp	r3, #3
 1198 0256 02D1     		bne	.L66
 312:firmwares/fixedwing/main_ap.c ****     nav_home();
 1199              		.loc 1 312 0
 1200 0258 FFF7FEFF 		bl	nav_home
 1201 025c 28E0     		b	.L67
 1202              	.L66:
 313:firmwares/fixedwing/main_ap.c ****   else if (pprz_mode == PPRZ_MODE_GPS_OUT_OF_ORDER)
 1203              		.loc 1 313 0
 1204 025e 042B     		cmp	r3, #4
 1205 0260 24D1     		bne	.L68
 314:firmwares/fixedwing/main_ap.c ****     nav_without_gps();
 1206              		.loc 1 314 0
 1207 0262 FFF7FEFF 		bl	nav_without_gps
 1208 0266 23E0     		b	.L67
 1209              	.L91:
 1210              		.align	2
 1211              	.L90:
 1212 0268 00000000 		.word	.LANCHOR5
 1213 026c 00000000 		.word	cpu_time_sec
 1214 0270 00000000 		.word	gps
 1215 0274 00000000 		.word	.LANCHOR4
 1216 0278 00000000 		.word	.LANCHOR12
 1217 027c 00000000 		.word	uart2
 1218 0280 00000000 		.word	downlink_nb_bytes
 1219 0284 00000000 		.word	downlink_nb_msgs
 1220 0288 00000000 		.word	ck_a
 1221 028c 00000000 		.word	ck_b
 1222 0290 00000000 		.word	v_ctl_mode
 1223 0294 00000000 		.word	.LANCHOR7
 1224 0298 00000000 		.word	horizontal_mode
 1225 029c 00000000 		.word	.LANCHOR8
 1226 02a0 00000000 		.word	.LANCHOR6
 1227 02a4 00000000 		.word	downlink_nb_ovrn
 1228 02a8 00000000 		.word	.LANCHOR13
 1229              	.L68:
 316:firmwares/fixedwing/main_ap.c ****     nav_periodic_task();
 1230              		.loc 1 316 0
 1231 02ac FFF7FEFF 		bl	nav_periodic_task
 1232              	.L67:
 1233              	.LBB97:
 323:firmwares/fixedwing/main_ap.c ****   SEND_NAVIGATION(DefaultChannel);
 1234              		.loc 1 323 0
 1235 02b0 954B     		ldr	r3, .L92+8
 1236 02b2 9648     		ldr	r0, .L92+12
 1237 02b4 1A21     		movs	r1, #26
 1238 02b6 1C68     		ldr	r4, [r3, #0]	@ float
 1239 02b8 FFF7FEFF 		bl	uart_check_free_space
 1240 02bc 0028     		cmp	r0, #0
 1241 02be 00F03D81 		beq	.L69
 1242 02c2 24F00040 		bic	r0, r4, #-2147483648
 1243 02c6 FFF7FEFF 		bl	__aeabi_f2d
 1244 02ca 8DA3     		adr	r3, .L92
 1245 02cc D3E90023 		ldrd	r2, [r3]
 1246 02d0 FFF7FEFF 		bl	__aeabi_ddiv
 1247 02d4 FFF7FEFF 		bl	__aeabi_d2uiz
 1248 02d8 8D4B     		ldr	r3, .L92+16
 1249 02da C7B2     		uxtb	r7, r0
 1250              	.LVL116:
 1251 02dc 1A88     		ldrh	r2, [r3, #0]
 1252              	.LBB98:
 1253 02de 9921     		movs	r1, #153
 1254              	.LBE98:
 1255 02e0 1A32     		adds	r2, r2, #26
 1256 02e2 1A80     		strh	r2, [r3, #0]	@ movhi
 1257 02e4 8B4B     		ldr	r3, .L92+20
 1258              	.LBB99:
 1259 02e6 8948     		ldr	r0, .L92+12
 1260              	.LBE99:
 1261 02e8 1A88     		ldrh	r2, [r3, #0]
 1262 02ea 8B4D     		ldr	r5, .L92+24
 1263 02ec 0132     		adds	r2, r2, #1
 1264 02ee 1A80     		strh	r2, [r3, #0]	@ movhi
 1265              	.LBB100:
 1266 02f0 FFF7FEFF 		bl	uart_transmit
 1267 02f4 1A21     		movs	r1, #26
 1268 02f6 8548     		ldr	r0, .L92+12
 1269              	.LBE100:
 1270 02f8 884C     		ldr	r4, .L92+28
 1271              	.LBB101:
 1272 02fa FFF7FEFF 		bl	uart_transmit
 1273              	.LBE101:
 1274 02fe 1B23     		movs	r3, #27
 1275 0300 2B70     		strb	r3, [r5, #0]
 1276 0302 1A33     		adds	r3, r3, #26
 1277 0304 2370     		strb	r3, [r4, #0]
 1278 0306 0121     		movs	r1, #1
 1279 0308 8048     		ldr	r0, .L92+12
 1280 030a FFF7FEFF 		bl	uart_transmit
 1281 030e 2B78     		ldrb	r3, [r5, #0]	@ zero_extendqisi2
 1282 0310 2278     		ldrb	r2, [r4, #0]	@ zero_extendqisi2
 1283 0312 0A33     		adds	r3, r3, #10
 1284 0314 DBB2     		uxtb	r3, r3
 1285              	.LVL117:
 1286 0316 2B70     		strb	r3, [r5, #0]
 1287 0318 9B18     		adds	r3, r3, r2
 1288              	.LVL118:
 1289 031a 2370     		strb	r3, [r4, #0]
 1290 031c 0A21     		movs	r1, #10
 1291 031e 7B48     		ldr	r0, .L92+12
 1292 0320 FFF7FEFF 		bl	uart_transmit
 1293              	.LBB102:
 1294 0324 7E4B     		ldr	r3, .L92+32
 1295 0326 2278     		ldrb	r2, [r4, #0]	@ zero_extendqisi2
 1296 0328 1978     		ldrb	r1, [r3, #0]	@ zero_extendqisi2
 1297              	.LVL119:
 1298 032a 2B78     		ldrb	r3, [r5, #0]	@ zero_extendqisi2
 1299 032c 7748     		ldr	r0, .L92+12
 1300 032e CB18     		adds	r3, r1, r3
 1301 0330 DBB2     		uxtb	r3, r3
 1302              	.LVL120:
 1303 0332 2B70     		strb	r3, [r5, #0]
 1304 0334 9B18     		adds	r3, r3, r2
 1305              	.LVL121:
 1306 0336 2370     		strb	r3, [r4, #0]
 1307 0338 FFF7FEFF 		bl	uart_transmit
 1308              	.LVL122:
 1309              	.LBE102:
 1310              	.LBB103:
 1311 033c 794B     		ldr	r3, .L92+36
 1312 033e 2278     		ldrb	r2, [r4, #0]	@ zero_extendqisi2
 1313 0340 1978     		ldrb	r1, [r3, #0]	@ zero_extendqisi2
 1314              	.LVL123:
 1315 0342 2B78     		ldrb	r3, [r5, #0]	@ zero_extendqisi2
 1316              	.LBE103:
 1317              	.LBB104:
 1318 0344 784E     		ldr	r6, .L92+40
 1319              	.LBE104:
 1320              	.LBB105:
 1321 0346 CB18     		adds	r3, r1, r3
 1322 0348 DBB2     		uxtb	r3, r3
 1323              	.LVL124:
 1324 034a 2B70     		strb	r3, [r5, #0]
 1325 034c 9B18     		adds	r3, r3, r2
 1326              	.LVL125:
 1327 034e 2370     		strb	r3, [r4, #0]
 1328 0350 6E48     		ldr	r0, .L92+12
 1329 0352 FFF7FEFF 		bl	uart_transmit
 1330              	.LVL126:
 1331              	.LBE105:
 1332              	.LBB106:
 1333 0356 3178     		ldrb	r1, [r6, #0]	@ zero_extendqisi2
 1334              	.LVL127:
 1335 0358 2B78     		ldrb	r3, [r5, #0]	@ zero_extendqisi2
 1336 035a 2278     		ldrb	r2, [r4, #0]	@ zero_extendqisi2
 1337 035c CB18     		adds	r3, r1, r3
 1338 035e DBB2     		uxtb	r3, r3
 1339              	.LVL128:
 1340 0360 2B70     		strb	r3, [r5, #0]
 1341 0362 9B18     		adds	r3, r3, r2
 1342              	.LVL129:
 1343 0364 2370     		strb	r3, [r4, #0]
 1344 0366 6948     		ldr	r0, .L92+12
 1345 0368 FFF7FEFF 		bl	uart_transmit
 1346              	.LVL130:
 1347              	.LBE106:
 1348              	.LBB107:
 1349 036c 7178     		ldrb	r1, [r6, #1]	@ zero_extendqisi2
 1350              	.LVL131:
 1351 036e 2B78     		ldrb	r3, [r5, #0]	@ zero_extendqisi2
 1352 0370 2278     		ldrb	r2, [r4, #0]	@ zero_extendqisi2
 1353 0372 CB18     		adds	r3, r1, r3
 1354 0374 DBB2     		uxtb	r3, r3
 1355              	.LVL132:
 1356 0376 2B70     		strb	r3, [r5, #0]
 1357 0378 9B18     		adds	r3, r3, r2
 1358              	.LVL133:
 1359 037a 2370     		strb	r3, [r4, #0]
 1360 037c 6348     		ldr	r0, .L92+12
 1361 037e FFF7FEFF 		bl	uart_transmit
 1362              	.LVL134:
 1363              	.LBE107:
 1364              	.LBB108:
 1365 0382 B178     		ldrb	r1, [r6, #2]	@ zero_extendqisi2
 1366              	.LVL135:
 1367 0384 2B78     		ldrb	r3, [r5, #0]	@ zero_extendqisi2
 1368 0386 2278     		ldrb	r2, [r4, #0]	@ zero_extendqisi2
 1369 0388 CB18     		adds	r3, r1, r3
 1370 038a DBB2     		uxtb	r3, r3
 1371              	.LVL136:
 1372 038c 2B70     		strb	r3, [r5, #0]
 1373 038e 9B18     		adds	r3, r3, r2
 1374              	.LVL137:
 1375 0390 2370     		strb	r3, [r4, #0]
 1376 0392 5E48     		ldr	r0, .L92+12
 1377 0394 FFF7FEFF 		bl	uart_transmit
 1378              	.LVL138:
 1379              	.LBE108:
 1380              	.LBB109:
 1381 0398 F178     		ldrb	r1, [r6, #3]	@ zero_extendqisi2
 1382              	.LVL139:
 1383 039a 2B78     		ldrb	r3, [r5, #0]	@ zero_extendqisi2
 1384 039c 2278     		ldrb	r2, [r4, #0]	@ zero_extendqisi2
 1385 039e CB18     		adds	r3, r1, r3
 1386 03a0 DBB2     		uxtb	r3, r3
 1387              	.LVL140:
 1388              	.LBE109:
 1389              	.LBB110:
 1390 03a2 624E     		ldr	r6, .L92+44
 1391              	.LBE110:
 1392              	.LBB111:
 1393 03a4 2B70     		strb	r3, [r5, #0]
 1394 03a6 9B18     		adds	r3, r3, r2
 1395              	.LVL141:
 1396 03a8 2370     		strb	r3, [r4, #0]
 1397 03aa 5848     		ldr	r0, .L92+12
 1398 03ac FFF7FEFF 		bl	uart_transmit
 1399              	.LVL142:
 1400              	.LBE111:
 1401              	.LBB112:
 1402 03b0 3178     		ldrb	r1, [r6, #0]	@ zero_extendqisi2
 1403              	.LVL143:
 1404 03b2 2B78     		ldrb	r3, [r5, #0]	@ zero_extendqisi2
 1405 03b4 2278     		ldrb	r2, [r4, #0]	@ zero_extendqisi2
 1406 03b6 CB18     		adds	r3, r1, r3
 1407 03b8 DBB2     		uxtb	r3, r3
 1408              	.LVL144:
 1409 03ba 2B70     		strb	r3, [r5, #0]
 1410 03bc 9B18     		adds	r3, r3, r2
 1411              	.LVL145:
 1412 03be 2370     		strb	r3, [r4, #0]
 1413 03c0 5248     		ldr	r0, .L92+12
 1414 03c2 FFF7FEFF 		bl	uart_transmit
 1415              	.LVL146:
 1416              	.LBE112:
 1417              	.LBB113:
 1418 03c6 7178     		ldrb	r1, [r6, #1]	@ zero_extendqisi2
 1419              	.LVL147:
 1420 03c8 2B78     		ldrb	r3, [r5, #0]	@ zero_extendqisi2
 1421 03ca 2278     		ldrb	r2, [r4, #0]	@ zero_extendqisi2
 1422 03cc CB18     		adds	r3, r1, r3
 1423 03ce DBB2     		uxtb	r3, r3
 1424              	.LVL148:
 1425 03d0 2B70     		strb	r3, [r5, #0]
 1426 03d2 9B18     		adds	r3, r3, r2
 1427              	.LVL149:
 1428 03d4 2370     		strb	r3, [r4, #0]
 1429 03d6 4D48     		ldr	r0, .L92+12
 1430 03d8 FFF7FEFF 		bl	uart_transmit
 1431              	.LVL150:
 1432              	.LBE113:
 1433              	.LBB114:
 1434 03dc B178     		ldrb	r1, [r6, #2]	@ zero_extendqisi2
 1435              	.LVL151:
 1436 03de 2B78     		ldrb	r3, [r5, #0]	@ zero_extendqisi2
 1437 03e0 2278     		ldrb	r2, [r4, #0]	@ zero_extendqisi2
 1438 03e2 CB18     		adds	r3, r1, r3
 1439 03e4 DBB2     		uxtb	r3, r3
 1440              	.LVL152:
 1441 03e6 2B70     		strb	r3, [r5, #0]
 1442 03e8 9B18     		adds	r3, r3, r2
 1443              	.LVL153:
 1444 03ea 2370     		strb	r3, [r4, #0]
 1445 03ec 4748     		ldr	r0, .L92+12
 1446 03ee FFF7FEFF 		bl	uart_transmit
 1447              	.LVL154:
 1448              	.LBE114:
 1449              	.LBB115:
 1450 03f2 F178     		ldrb	r1, [r6, #3]	@ zero_extendqisi2
 1451              	.LVL155:
 1452 03f4 2B78     		ldrb	r3, [r5, #0]	@ zero_extendqisi2
 1453 03f6 2278     		ldrb	r2, [r4, #0]	@ zero_extendqisi2
 1454 03f8 CB18     		adds	r3, r1, r3
 1455 03fa DBB2     		uxtb	r3, r3
 1456              	.LVL156:
 1457              	.LBE115:
 1458              	.LBB116:
 1459 03fc 4C4E     		ldr	r6, .L92+48
 1460              	.LBE116:
 1461              	.LBB117:
 1462 03fe 2B70     		strb	r3, [r5, #0]
 1463 0400 9B18     		adds	r3, r3, r2
 1464              	.LVL157:
 1465 0402 2370     		strb	r3, [r4, #0]
 1466 0404 4148     		ldr	r0, .L92+12
 1467 0406 FFF7FEFF 		bl	uart_transmit
 1468              	.LVL158:
 1469              	.LBE117:
 1470              	.LBB118:
 1471 040a 3178     		ldrb	r1, [r6, #0]	@ zero_extendqisi2
 1472              	.LVL159:
 1473 040c 2B78     		ldrb	r3, [r5, #0]	@ zero_extendqisi2
 1474 040e 2278     		ldrb	r2, [r4, #0]	@ zero_extendqisi2
 1475 0410 CB18     		adds	r3, r1, r3
 1476 0412 DBB2     		uxtb	r3, r3
 1477              	.LVL160:
 1478 0414 2B70     		strb	r3, [r5, #0]
 1479 0416 9B18     		adds	r3, r3, r2
 1480              	.LVL161:
 1481 0418 2370     		strb	r3, [r4, #0]
 1482 041a 3C48     		ldr	r0, .L92+12
 1483 041c FFF7FEFF 		bl	uart_transmit
 1484              	.LVL162:
 1485              	.LBE118:
 1486              	.LBB119:
 1487 0420 7178     		ldrb	r1, [r6, #1]	@ zero_extendqisi2
 1488              	.LVL163:
 1489 0422 2B78     		ldrb	r3, [r5, #0]	@ zero_extendqisi2
 1490 0424 2278     		ldrb	r2, [r4, #0]	@ zero_extendqisi2
 1491 0426 CB18     		adds	r3, r1, r3
 1492 0428 DBB2     		uxtb	r3, r3
 1493              	.LVL164:
 1494 042a 2B70     		strb	r3, [r5, #0]
 1495 042c 9B18     		adds	r3, r3, r2
 1496              	.LVL165:
 1497 042e 2370     		strb	r3, [r4, #0]
 1498 0430 3648     		ldr	r0, .L92+12
 1499 0432 FFF7FEFF 		bl	uart_transmit
 1500              	.LVL166:
 1501              	.LBE119:
 1502              	.LBB120:
 1503 0436 B178     		ldrb	r1, [r6, #2]	@ zero_extendqisi2
 1504              	.LVL167:
 1505 0438 2B78     		ldrb	r3, [r5, #0]	@ zero_extendqisi2
 1506 043a 2278     		ldrb	r2, [r4, #0]	@ zero_extendqisi2
 1507 043c CB18     		adds	r3, r1, r3
 1508 043e DBB2     		uxtb	r3, r3
 1509              	.LVL168:
 1510 0440 2B70     		strb	r3, [r5, #0]
 1511 0442 9B18     		adds	r3, r3, r2
 1512              	.LVL169:
 1513 0444 2370     		strb	r3, [r4, #0]
 1514 0446 3148     		ldr	r0, .L92+12
 1515 0448 FFF7FEFF 		bl	uart_transmit
 1516              	.LVL170:
 1517              	.LBE120:
 1518              	.LBB121:
 1519 044c F178     		ldrb	r1, [r6, #3]	@ zero_extendqisi2
 1520              	.LVL171:
 1521 044e 2B78     		ldrb	r3, [r5, #0]	@ zero_extendqisi2
 1522 0450 2278     		ldrb	r2, [r4, #0]	@ zero_extendqisi2
 1523 0452 CB18     		adds	r3, r1, r3
 1524 0454 DBB2     		uxtb	r3, r3
 1525              	.LVL172:
 1526              	.LBE121:
 1527              	.LBB122:
 1528 0456 374E     		ldr	r6, .L92+52
 1529              	.LBE122:
 1530              	.LBB123:
 1531 0458 2B70     		strb	r3, [r5, #0]
 1532 045a 9B18     		adds	r3, r3, r2
 1533              	.LVL173:
 1534 045c 2370     		strb	r3, [r4, #0]
 1535 045e 2B48     		ldr	r0, .L92+12
 1536 0460 FFF7FEFF 		bl	uart_transmit
 1537              	.LVL174:
 1538              	.LBE123:
 1539              	.LBB124:
 1540 0464 3178     		ldrb	r1, [r6, #0]	@ zero_extendqisi2
 1541              	.LVL175:
 1542 0466 2B78     		ldrb	r3, [r5, #0]	@ zero_extendqisi2
 1543 0468 2278     		ldrb	r2, [r4, #0]	@ zero_extendqisi2
 1544 046a CB18     		adds	r3, r1, r3
 1545 046c DBB2     		uxtb	r3, r3
 1546              	.LVL176:
 1547 046e 2B70     		strb	r3, [r5, #0]
 1548 0470 9B18     		adds	r3, r3, r2
 1549              	.LVL177:
 1550 0472 2370     		strb	r3, [r4, #0]
 1551 0474 2548     		ldr	r0, .L92+12
 1552 0476 FFF7FEFF 		bl	uart_transmit
 1553              	.LVL178:
 1554              	.LBE124:
 1555              	.LBB125:
 1556 047a 7178     		ldrb	r1, [r6, #1]	@ zero_extendqisi2
 1557              	.LVL179:
 1558 047c 2B78     		ldrb	r3, [r5, #0]	@ zero_extendqisi2
 1559 047e 2278     		ldrb	r2, [r4, #0]	@ zero_extendqisi2
 1560 0480 CB18     		adds	r3, r1, r3
 1561 0482 DBB2     		uxtb	r3, r3
 1562              	.LVL180:
 1563 0484 2B70     		strb	r3, [r5, #0]
 1564 0486 9B18     		adds	r3, r3, r2
 1565              	.LVL181:
 1566 0488 2370     		strb	r3, [r4, #0]
 1567 048a 2048     		ldr	r0, .L92+12
 1568 048c FFF7FEFF 		bl	uart_transmit
 1569              	.LVL182:
 1570              	.LBE125:
 1571              	.LBB126:
 1572 0490 B178     		ldrb	r1, [r6, #2]	@ zero_extendqisi2
 1573              	.LVL183:
 1574 0492 2B78     		ldrb	r3, [r5, #0]	@ zero_extendqisi2
 1575 0494 2278     		ldrb	r2, [r4, #0]	@ zero_extendqisi2
 1576 0496 CB18     		adds	r3, r1, r3
 1577 0498 DBB2     		uxtb	r3, r3
 1578              	.LVL184:
 1579 049a 2B70     		strb	r3, [r5, #0]
 1580 049c 9B18     		adds	r3, r3, r2
 1581              	.LVL185:
 1582 049e 2370     		strb	r3, [r4, #0]
 1583 04a0 1A48     		ldr	r0, .L92+12
 1584 04a2 FFF7FEFF 		bl	uart_transmit
 1585              	.LVL186:
 1586              	.LBE126:
 1587              	.LBB127:
 1588 04a6 F178     		ldrb	r1, [r6, #3]	@ zero_extendqisi2
 1589              	.LVL187:
 1590 04a8 2B78     		ldrb	r3, [r5, #0]	@ zero_extendqisi2
 1591 04aa 2278     		ldrb	r2, [r4, #0]	@ zero_extendqisi2
 1592 04ac CB18     		adds	r3, r1, r3
 1593 04ae DBB2     		uxtb	r3, r3
 1594              	.LVL188:
 1595 04b0 2B70     		strb	r3, [r5, #0]
 1596 04b2 9B18     		adds	r3, r3, r2
 1597              	.LVL189:
 1598 04b4 2370     		strb	r3, [r4, #0]
 1599 04b6 1548     		ldr	r0, .L92+12
 1600 04b8 FFF7FEFF 		bl	uart_transmit
 1601              	.LVL190:
 1602              	.LBE127:
 1603              	.LBB128:
 1604 04bc 2B78     		ldrb	r3, [r5, #0]	@ zero_extendqisi2
 1605 04be 2278     		ldrb	r2, [r4, #0]	@ zero_extendqisi2
 1606 04c0 FB18     		adds	r3, r7, r3
 1607 04c2 DBB2     		uxtb	r3, r3
 1608              	.LVL191:
 1609 04c4 2B70     		strb	r3, [r5, #0]
 1610 04c6 9B18     		adds	r3, r3, r2
 1611              	.LVL192:
 1612 04c8 2370     		strb	r3, [r4, #0]
 1613 04ca 3946     		mov	r1, r7
 1614 04cc 0F48     		ldr	r0, .L92+12
 1615 04ce FFF7FEFF 		bl	uart_transmit
 1616              	.LBE128:
 1617              	.LBB129:
 1618 04d2 194B     		ldr	r3, .L92+56
 1619 04d4 2278     		ldrb	r2, [r4, #0]	@ zero_extendqisi2
 1620 04d6 1978     		ldrb	r1, [r3, #0]	@ zero_extendqisi2
 1621              	.LVL193:
 1622 04d8 2B78     		ldrb	r3, [r5, #0]	@ zero_extendqisi2
 1623 04da 0C48     		ldr	r0, .L92+12
 1624 04dc CB18     		adds	r3, r1, r3
 1625 04de DBB2     		uxtb	r3, r3
 1626              	.LVL194:
 1627 04e0 2B70     		strb	r3, [r5, #0]
 1628 04e2 9B18     		adds	r3, r3, r2
 1629              	.LVL195:
 1630 04e4 2370     		strb	r3, [r4, #0]
 1631 04e6 FFF7FEFF 		bl	uart_transmit
 1632              	.LVL196:
 1633              	.LBE129:
 1634 04ea 2978     		ldrb	r1, [r5, #0]	@ zero_extendqisi2
 1635 04ec 0748     		ldr	r0, .L92+12
 1636 04ee FFF7FEFF 		bl	uart_transmit
 1637 04f2 0648     		ldr	r0, .L92+12
 1638 04f4 2178     		ldrb	r1, [r4, #0]	@ zero_extendqisi2
 1639 04f6 FFF7FEFF 		bl	uart_transmit
 1640 04fa 23E0     		b	.L70
 1641              	.L93:
 1642 04fc AFF30080 		.align	3
 1643              	.L92:
 1644 0500 182D4454 		.word	1413754136
 1645 0504 FB211940 		.word	1075388923
 1646 0508 00000000 		.word	nav_circle_radians
 1647 050c 00000000 		.word	uart2
 1648 0510 00000000 		.word	downlink_nb_bytes
 1649 0514 00000000 		.word	downlink_nb_msgs
 1650 0518 00000000 		.word	ck_a
 1651 051c 00000000 		.word	ck_b
 1652 0520 00000000 		.word	nav_block
 1653 0524 00000000 		.word	nav_stage
 1654 0528 00000000 		.word	estimator_x
 1655 052c 00000000 		.word	estimator_y
 1656 0530 00000000 		.word	dist2_to_wp
 1657 0534 00000000 		.word	dist2_to_home
 1658 0538 00000000 		.word	nav_oval_count
 1659              	.LVL197:
 1660              	.L69:
 1661 053c 444B     		ldr	r3, .L94+8
 1662 053e 1A78     		ldrb	r2, [r3, #0]	@ zero_extendqisi2
 1663 0540 0132     		adds	r2, r2, #1
 1664 0542 1A70     		strb	r2, [r3, #0]
 1665              	.LVL198:
 1666              	.L70:
 1667              	.LBE97:
 331:firmwares/fixedwing/main_ap.c ****   if (v_ctl_mode == V_CTL_MODE_AUTO_ALT)
 1668              		.loc 1 331 0
 1669 0544 434B     		ldr	r3, .L94+12
 1670 0546 1B78     		ldrb	r3, [r3, #0]	@ zero_extendqisi2
 1671 0548 032B     		cmp	r3, #3
 1672 054a 01D1     		bne	.L71
 332:firmwares/fixedwing/main_ap.c ****     v_ctl_altitude_loop();
 1673              		.loc 1 332 0
 1674 054c FFF7FEFF 		bl	v_ctl_altitude_loop
 1675              	.L71:
 334:firmwares/fixedwing/main_ap.c ****   if (pprz_mode == PPRZ_MODE_AUTO2 || pprz_mode == PPRZ_MODE_HOME
 1676              		.loc 1 334 0
 1677 0550 414B     		ldr	r3, .L94+16
 1678 0552 1B78     		ldrb	r3, [r3, #0]	@ zero_extendqisi2
 1679 0554 023B     		subs	r3, r3, #2
 1680 0556 DBB2     		uxtb	r3, r3
 1681 0558 022B     		cmp	r3, #2
 1682 055a 61D8     		bhi	.L72
 340:firmwares/fixedwing/main_ap.c ****     if (lateral_mode >=LATERAL_MODE_COURSE)
 1683              		.loc 1 340 0
 1684 055c 3F4B     		ldr	r3, .L94+20
 1685 055e 1B78     		ldrb	r3, [r3, #0]	@ zero_extendqisi2
 1686 0560 022B     		cmp	r3, #2
 1687 0562 01D9     		bls	.L73
 341:firmwares/fixedwing/main_ap.c ****       h_ctl_course_loop(); /* aka compute nav_desired_roll */
 1688              		.loc 1 341 0
 1689 0564 FFF7FEFF 		bl	h_ctl_course_loop
 1690              	.L73:
 342:firmwares/fixedwing/main_ap.c ****     if (v_ctl_mode >= V_CTL_MODE_AUTO_CLIMB)
 1691              		.loc 1 342 0
 1692 0568 3A4B     		ldr	r3, .L94+12
 1693 056a 1B78     		ldrb	r3, [r3, #0]	@ zero_extendqisi2
 1694 056c 012B     		cmp	r3, #1
 1695 056e 01D9     		bls	.L74
 343:firmwares/fixedwing/main_ap.c ****       v_ctl_climb_loop();
 1696              		.loc 1 343 0
 1697 0570 FFF7FEFF 		bl	v_ctl_climb_loop
 1698              	.L74:
 344:firmwares/fixedwing/main_ap.c ****     if (v_ctl_mode == V_CTL_MODE_AUTO_THROTTLE)
 1699              		.loc 1 344 0
 1700 0574 374B     		ldr	r3, .L94+12
 1701 0576 1B78     		ldrb	r3, [r3, #0]	@ zero_extendqisi2
 1702 0578 012B     		cmp	r3, #1
 1703 057a 03D1     		bne	.L75
 345:firmwares/fixedwing/main_ap.c ****       v_ctl_throttle_setpoint = nav_throttle_setpoint;
 1704              		.loc 1 345 0
 1705 057c 384A     		ldr	r2, .L94+24
 1706 057e 394B     		ldr	r3, .L94+28
 1707 0580 1288     		ldrh	r2, [r2, #0]
 1708 0582 1A80     		strh	r2, [r3, #0]	@ movhi
 1709              	.L75:
 352:firmwares/fixedwing/main_ap.c ****     if (vsupply > 0.) {
 1710              		.loc 1 352 0
 1711 0584 384B     		ldr	r3, .L94+32
 1712 0586 1D78     		ldrb	r5, [r3, #0]	@ zero_extendqisi2
 1713 0588 2846     		mov	r0, r5
 1714 058a FFF7FEFF 		bl	__aeabi_i2d
 1715 058e 0022     		movs	r2, #0
 1716 0590 0023     		movs	r3, #0
 1717 0592 FFF7FEFF 		bl	__aeabi_dcmpgt
 1718 0596 18B3     		cbz	r0, .L76
 354:firmwares/fixedwing/main_ap.c ****       v_ctl_throttle_setpoint = TRIM_UPPRZ(v_ctl_throttle_setpoint);
 1719              		.loc 1 354 0
 1720 0598 324C     		ldr	r4, .L94+28
 1721 059a B4F90000 		ldrsh	r0, [r4, #0]
 1722 059e FFF7FEFF 		bl	__aeabi_i2d
 1723 05a2 0646     		mov	r6, r0
 1724 05a4 2846     		mov	r0, r5
 1725 05a6 0F46     		mov	r7, r1
 1726              	.LVL199:
 1727 05a8 FFF7FEFF 		bl	__aeabi_ui2f
 1728 05ac FFF7FEFF 		bl	__aeabi_f2d
 1729 05b0 0246     		mov	r2, r0
 1730 05b2 0B46     		mov	r3, r1
 1731 05b4 24A1     		adr	r1, .L94
 1732 05b6 D1E90001 		ldrd	r0, [r1]
 1733 05ba FFF7FEFF 		bl	__aeabi_ddiv
 1734 05be 0B46     		mov	r3, r1
 1735 05c0 0246     		mov	r2, r0
 1736 05c2 3946     		mov	r1, r7
 1737 05c4 3046     		mov	r0, r6
 1738 05c6 FFF7FEFF 		bl	__aeabi_dmul
 1739 05ca FFF7FEFF 		bl	__aeabi_d2iz
 1740 05ce 03B2     		sxth	r3, r0
 1741 05d0 B3F5165F 		cmp	r3, #9600
 1742 05d4 A8BF     		it	ge
 1743 05d6 4FF41653 		movge	r3, #9600
 1744              	.LVL200:
 1745 05da 23EAE373 		bic	r3, r3, r3, asr #31
 1746              	.LVL201:
 1747 05de 2380     		strh	r3, [r4, #0]	@ movhi
 1748              	.LVL202:
 1749              	.L76:
 358:firmwares/fixedwing/main_ap.c ****     h_ctl_pitch_setpoint = nav_pitch;
 1750              		.loc 1 358 0
 1751 05e0 224B     		ldr	r3, .L94+36
 1752 05e2 234C     		ldr	r4, .L94+40
 1753 05e4 1D68     		ldr	r5, [r3, #0]	@ float
 1754              	.LVL203:
 359:firmwares/fixedwing/main_ap.c ****     Bound(h_ctl_pitch_setpoint, H_CTL_PITCH_MIN_SETPOINT, H_CTL_PITCH_MAX_SETPOINT);
 1755              		.loc 1 359 0
 1756 05e6 4FF07C56 		mov	r6, #1056964608
 358:firmwares/fixedwing/main_ap.c ****     h_ctl_pitch_setpoint = nav_pitch;
 1757              		.loc 1 358 0
 1758 05ea 2560     		str	r5, [r4, #0]	@ float
 359:firmwares/fixedwing/main_ap.c ****     Bound(h_ctl_pitch_setpoint, H_CTL_PITCH_MIN_SETPOINT, H_CTL_PITCH_MAX_SETPOINT);
 1759              		.loc 1 359 0
 1760 05ec 2846     		mov	r0, r5
 1761 05ee 3146     		mov	r1, r6
 1762 05f0 FFF7FEFF 		bl	__aeabi_fcmpgt
 1763 05f4 30B9     		cbnz	r0, .L89
 1764 05f6 4FF03F46 		mov	r6, #-1090519040
 1765 05fa 2846     		mov	r0, r5
 1766 05fc 3146     		mov	r1, r6
 1767 05fe FFF7FEFF 		bl	__aeabi_fcmplt
 1768 0602 00B1     		cbz	r0, .L80
 1769              	.L89:
 1770 0604 2660     		str	r6, [r4, #0]	@ float
 1771              	.L80:
 360:firmwares/fixedwing/main_ap.c ****     if (kill_throttle || (!estimator_flight_time && !launch))
 1772              		.loc 1 360 0
 1773 0606 1B4B     		ldr	r3, .L94+44
 1774 0608 1B78     		ldrb	r3, [r3, #0]	@ zero_extendqisi2
 1775 060a 2BB9     		cbnz	r3, .L82
 1776 060c 1A4B     		ldr	r3, .L94+48
 1777 060e 1B88     		ldrh	r3, [r3, #0]
 1778 0610 33B9     		cbnz	r3, .L72
 1779 0612 1A4B     		ldr	r3, .L94+52
 1780 0614 1B78     		ldrb	r3, [r3, #0]	@ zero_extendqisi2
 1781 0616 1BB9     		cbnz	r3, .L72
 1782              	.L82:
 361:firmwares/fixedwing/main_ap.c ****       v_ctl_throttle_setpoint = 0;
 1783              		.loc 1 361 0
 1784 0618 124B     		ldr	r3, .L94+28
 1785 061a 4FF00002 		mov	r2, #0	@ movhi
 1786 061e 1A80     		strh	r2, [r3, #0]	@ movhi
 1787              	.L72:
 363:firmwares/fixedwing/main_ap.c ****   energy += ((float)current) / 3600.0f * 0.25f;	// mAh = mA * dt (4Hz -> hours)
 1788              		.loc 1 363 0
 1789 0620 174B     		ldr	r3, .L94+56
 1790 0622 184C     		ldr	r4, .L94+60
 1791 0624 1868     		ldr	r0, [r3, #0]
 1792 0626 FFF7FEFF 		bl	__aeabi_i2f
 1793 062a 1749     		ldr	r1, .L94+64
 1794 062c FFF7FEFF 		bl	__aeabi_fdiv
 1795 0630 4FF07A51 		mov	r1, #1048576000
 1796 0634 FFF7FEFF 		bl	__aeabi_fmul
 1797 0638 0146     		mov	r1, r0
 1798 063a 2068     		ldr	r0, [r4, #0]	@ float
 1799 063c FFF7FEFF 		bl	__aeabi_fadd
 1800 0640 2060     		str	r0, [r4, #0]	@ float
 364:firmwares/fixedwing/main_ap.c **** }
 1801              		.loc 1 364 0
 1802 0642 F8BD     		pop	{r3, r4, r5, r6, r7, pc}
 1803              	.L95:
 1804 0644 AFF30080 		.align	3
 1805              	.L94:
 1806 0648 00000000 		.word	0
 1807 064c 00C05B40 		.word	1079754752
 1808 0650 00000000 		.word	downlink_nb_ovrn
 1809 0654 00000000 		.word	v_ctl_mode
 1810 0658 00000000 		.word	.LANCHOR4
 1811 065c 00000000 		.word	.LANCHOR7
 1812 0660 00000000 		.word	nav_throttle_setpoint
 1813 0664 00000000 		.word	v_ctl_throttle_setpoint
 1814 0668 00000000 		.word	.LANCHOR10
 1815 066c 00000000 		.word	nav_pitch
 1816 0670 00000000 		.word	h_ctl_pitch_setpoint
 1817 0674 00000000 		.word	.LANCHOR14
 1818 0678 00000000 		.word	estimator_flight_time
 1819 067c 00000000 		.word	.LANCHOR5
 1820 0680 00000000 		.word	.LANCHOR11
 1821 0684 00000000 		.word	.LANCHOR15
 1822 0688 00006145 		.word	1163984896
 1823              		.cfi_endproc
 1824              	.LFE52:
 1826 068c AFF30080 		.section	.text.attitude_loop,"ax",%progbits
 1827              		.align	1
 1828              		.thumb
 1829              		.thumb_func
 1831              	attitude_loop:
 1832              	.LFB53:
 393:firmwares/fixedwing/main_ap.c **** static inline void attitude_loop( void ) {
 1833              		.loc 1 393 0
 1834              		.cfi_startproc
 1835              		@ args = 0, pretend = 0, frame = 0
 1836              		@ frame_needed = 0, uses_anonymous_args = 0
 1837 0000 08B5     		push	{r3, lr}
 1838              	.LCFI2:
 1839              		.cfi_def_cfa_offset 8
 403:firmwares/fixedwing/main_ap.c ****   h_ctl_attitude_loop(); /* Set  h_ctl_aileron_setpoint & h_ctl_elevator_setpoint */
 1840              		.loc 1 403 0
 1841              		.cfi_offset 14, -4
 1842              		.cfi_offset 3, -8
 1843 0002 FFF7FEFF 		bl	h_ctl_attitude_loop
 404:firmwares/fixedwing/main_ap.c ****   v_ctl_throttle_slew();
 1844              		.loc 1 404 0
 1845 0006 FFF7FEFF 		bl	v_ctl_throttle_slew
 405:firmwares/fixedwing/main_ap.c ****   ap_state->commands[COMMAND_THROTTLE] = v_ctl_throttle_slewed;
 1846              		.loc 1 405 0
 1847 000a 074B     		ldr	r3, .L98
 1848 000c 074A     		ldr	r2, .L98+4
 1849 000e 1B68     		ldr	r3, [r3, #0]
 1850 0010 1288     		ldrh	r2, [r2, #0]
 1851 0012 1A80     		strh	r2, [r3, #0]	@ movhi
 406:firmwares/fixedwing/main_ap.c ****   ap_state->commands[COMMAND_ROLL] = h_ctl_aileron_setpoint;
 1852              		.loc 1 406 0
 1853 0014 064A     		ldr	r2, .L98+8
 1854 0016 1288     		ldrh	r2, [r2, #0]
 1855 0018 5A80     		strh	r2, [r3, #2]	@ movhi
 408:firmwares/fixedwing/main_ap.c ****   ap_state->commands[COMMAND_PITCH] = h_ctl_elevator_setpoint;
 1856              		.loc 1 408 0
 1857 001a 064A     		ldr	r2, .L98+12
 1858 001c 1288     		ldrh	r2, [r2, #0]
 1859 001e 9A80     		strh	r2, [r3, #4]	@ movhi
 414:firmwares/fixedwing/main_ap.c ****   inter_mcu_received_ap = TRUE;
 1860              		.loc 1 414 0
 1861 0020 054B     		ldr	r3, .L98+16
 1862 0022 0122     		movs	r2, #1
 1863 0024 1A70     		strb	r2, [r3, #0]
 417:firmwares/fixedwing/main_ap.c **** }
 1864              		.loc 1 417 0
 1865 0026 08BD     		pop	{r3, pc}
 1866              	.L99:
 1867              		.align	2
 1868              	.L98:
 1869 0028 00000000 		.word	ap_state
 1870 002c 00000000 		.word	v_ctl_throttle_slewed
 1871 0030 00000000 		.word	h_ctl_aileron_setpoint
 1872 0034 00000000 		.word	h_ctl_elevator_setpoint
 1873 0038 00000000 		.word	inter_mcu_received_ap
 1874              		.cfi_endproc
 1875              	.LFE53:
 1877              		.global	__aeabi_f2iz
 1878              		.global	__aeabi_dcmplt
 1879              		.section	.text.periodic_task_ap,"ax",%progbits
 1880              		.align	1
 1881              		.global	periodic_task_ap
 1882              		.thumb
 1883              		.thumb_func
 1885              	periodic_task_ap:
 1886              	.LFB54:
 425:firmwares/fixedwing/main_ap.c **** void periodic_task_ap( void ) {
 1887              		.loc 1 425 0
 1888              		.cfi_startproc
 1889              		@ args = 0, pretend = 0, frame = 16
 1890              		@ frame_needed = 0, uses_anonymous_args = 0
 1891 0000 2DE9F045 		push	{r4, r5, r6, r7, r8, sl, lr}
 1892              	.LCFI3:
 1893              		.cfi_def_cfa_offset 28
 448:firmwares/fixedwing/main_ap.c ****   _60Hz++;
 1894              		.loc 1 448 0
 1895 0004 424B     		ldr	r3, .L322
 425:firmwares/fixedwing/main_ap.c **** void periodic_task_ap( void ) {
 1896              		.loc 1 425 0
 1897 0006 85B0     		sub	sp, sp, #20
 1898              	.LCFI4:
 1899              		.cfi_def_cfa_offset 48
 448:firmwares/fixedwing/main_ap.c ****   _60Hz++;
 1900              		.loc 1 448 0
 1901 0008 1A78     		ldrb	r2, [r3, #0]	@ zero_extendqisi2
 1902 000a 0132     		adds	r2, r2, #1
 1903 000c D2B2     		uxtb	r2, r2
 1904 000e 1A70     		strb	r2, [r3, #0]
 449:firmwares/fixedwing/main_ap.c ****   if (_60Hz >= (PERIODIC_FREQUENCY / 60))
 1905              		.loc 1 449 0
 1906 0010 002A     		cmp	r2, #0
 1907 0012 05F03585 		beq	.L299
 1908              		.cfi_offset 14, -4
 1909              		.cfi_offset 10, -8
 1910              		.cfi_offset 8, -12
 1911              		.cfi_offset 7, -16
 1912              		.cfi_offset 6, -20
 1913              		.cfi_offset 5, -24
 1914              		.cfi_offset 4, -28
 451:firmwares/fixedwing/main_ap.c ****     _60Hz = 0;
 1915              		.loc 1 451 0
 1916 0016 0022     		movs	r2, #0
 1917 0018 1A70     		strb	r2, [r3, #0]
 460:firmwares/fixedwing/main_ap.c ****   _20Hz++;
 1918              		.loc 1 460 0
 1919 001a 3E4B     		ldr	r3, .L322+4
 1920 001c 1978     		ldrb	r1, [r3, #0]	@ zero_extendqisi2
 1921 001e 0131     		adds	r1, r1, #1
 1922 0020 C9B2     		uxtb	r1, r1
 461:firmwares/fixedwing/main_ap.c ****   if (_20Hz>=3) _20Hz=0;
 1923              		.loc 1 461 0
 1924 0022 0229     		cmp	r1, #2
 460:firmwares/fixedwing/main_ap.c ****   _20Hz++;
 1925              		.loc 1 460 0
 1926 0024 1970     		strb	r1, [r3, #0]
 461:firmwares/fixedwing/main_ap.c ****   if (_20Hz>=3) _20Hz=0;
 1927              		.loc 1 461 0
 1928 0026 88BF     		it	hi
 1929 0028 1A70     		strbhi	r2, [r3, #0]
 462:firmwares/fixedwing/main_ap.c ****   _10Hz++;
 1930              		.loc 1 462 0
 1931 002a 3B4B     		ldr	r3, .L322+8
 1932 002c 1A78     		ldrb	r2, [r3, #0]	@ zero_extendqisi2
 1933 002e 0132     		adds	r2, r2, #1
 1934 0030 D2B2     		uxtb	r2, r2
 463:firmwares/fixedwing/main_ap.c ****   if (_10Hz>=6) _10Hz=0;
 1935              		.loc 1 463 0
 1936 0032 052A     		cmp	r2, #5
 462:firmwares/fixedwing/main_ap.c ****   _10Hz++;
 1937              		.loc 1 462 0
 1938 0034 1A70     		strb	r2, [r3, #0]
 463:firmwares/fixedwing/main_ap.c ****   if (_10Hz>=6) _10Hz=0;
 1939              		.loc 1 463 0
 1940 0036 01D9     		bls	.L103
 1941 0038 0022     		movs	r2, #0
 1942 003a 1A70     		strb	r2, [r3, #0]
 1943              	.L103:
 464:firmwares/fixedwing/main_ap.c ****   _4Hz++;
 1944              		.loc 1 464 0
 1945 003c 374B     		ldr	r3, .L322+12
 1946 003e 1A78     		ldrb	r2, [r3, #0]	@ zero_extendqisi2
 1947 0040 0132     		adds	r2, r2, #1
 1948 0042 D2B2     		uxtb	r2, r2
 465:firmwares/fixedwing/main_ap.c ****   if (_4Hz>=15) _4Hz=0;
 1949              		.loc 1 465 0
 1950 0044 0E2A     		cmp	r2, #14
 464:firmwares/fixedwing/main_ap.c ****   _4Hz++;
 1951              		.loc 1 464 0
 1952 0046 1A70     		strb	r2, [r3, #0]
 465:firmwares/fixedwing/main_ap.c ****   if (_4Hz>=15) _4Hz=0;
 1953              		.loc 1 465 0
 1954 0048 01D9     		bls	.L104
 1955 004a 0022     		movs	r2, #0
 1956 004c 1A70     		strb	r2, [r3, #0]
 1957              	.L104:
 466:firmwares/fixedwing/main_ap.c ****   _1Hz++;
 1958              		.loc 1 466 0
 1959 004e 344B     		ldr	r3, .L322+16
 1960 0050 1A78     		ldrb	r2, [r3, #0]	@ zero_extendqisi2
 1961 0052 0132     		adds	r2, r2, #1
 1962 0054 D2B2     		uxtb	r2, r2
 467:firmwares/fixedwing/main_ap.c ****   if (_1Hz>=60) _1Hz=0;
 1963              		.loc 1 467 0
 1964 0056 3B2A     		cmp	r2, #59
 466:firmwares/fixedwing/main_ap.c ****   _1Hz++;
 1965              		.loc 1 466 0
 1966 0058 1A70     		strb	r2, [r3, #0]
 467:firmwares/fixedwing/main_ap.c ****   if (_1Hz>=60) _1Hz=0;
 1967              		.loc 1 467 0
 1968 005a 01D9     		bls	.L105
 1969 005c 0022     		movs	r2, #0
 1970 005e 1A70     		strb	r2, [r3, #0]
 1971              	.L105:
 1972              	.LBB778:
 1973              	.LBB779:
 199:firmwares/fixedwing/main_ap.c ****   if (boot) {
 1974              		.loc 1 199 0
 1975 0060 304B     		ldr	r3, .L322+20
 1976 0062 1B78     		ldrb	r3, [r3, #0]	@ zero_extendqisi2
 1977 0064 002B     		cmp	r3, #0
 1978 0066 6DD0     		beq	.L106
 200:firmwares/fixedwing/main_ap.c ****     DOWNLINK_SEND_BOOT(DefaultChannel, &version);
 1979              		.loc 1 200 0
 1980 0068 2F48     		ldr	r0, .L322+24
 1981 006a 0821     		movs	r1, #8
 1982 006c FFF7FEFF 		bl	uart_check_free_space
 1983 0070 0028     		cmp	r0, #0
 1984 0072 44D0     		beq	.L107
 1985 0074 2D4B     		ldr	r3, .L322+28
 1986              	.LBB780:
 1987 0076 9921     		movs	r1, #153
 1988              	.LBE780:
 1989 0078 1A88     		ldrh	r2, [r3, #0]
 1990              	.LBB781:
 1991 007a 2B48     		ldr	r0, .L322+24
 1992              	.LBE781:
 1993 007c 0832     		adds	r2, r2, #8
 1994 007e 1A80     		strh	r2, [r3, #0]	@ movhi
 1995 0080 2B4B     		ldr	r3, .L322+32
 1996              	.LBB782:
 1997 0082 2C4D     		ldr	r5, .L322+36
 1998              	.LBE782:
 1999 0084 1A88     		ldrh	r2, [r3, #0]
 2000              	.LBB783:
 2001 0086 2C4C     		ldr	r4, .L322+40
 2002              	.LBE783:
 2003 0088 0132     		adds	r2, r2, #1
 2004 008a 1A80     		strh	r2, [r3, #0]	@ movhi
 2005              	.LBB784:
 2006 008c FFF7FEFF 		bl	uart_transmit
 2007 0090 0821     		movs	r1, #8
 2008 0092 2548     		ldr	r0, .L322+24
 2009 0094 FFF7FEFF 		bl	uart_transmit
 2010              	.LBE784:
 2011 0098 0923     		movs	r3, #9
 2012 009a 2B70     		strb	r3, [r5, #0]
 2013 009c 0833     		adds	r3, r3, #8
 2014 009e 2370     		strb	r3, [r4, #0]
 2015 00a0 0121     		movs	r1, #1
 2016 00a2 2148     		ldr	r0, .L322+24
 2017 00a4 FFF7FEFF 		bl	uart_transmit
 2018 00a8 2B78     		ldrb	r3, [r5, #0]	@ zero_extendqisi2
 2019 00aa 2278     		ldrb	r2, [r4, #0]	@ zero_extendqisi2
 2020 00ac 0133     		adds	r3, r3, #1
 2021 00ae DBB2     		uxtb	r3, r3
 2022 00b0 2B70     		strb	r3, [r5, #0]
 2023              	.LBB785:
 2024 00b2 224E     		ldr	r6, .L322+44
 2025              	.LBE785:
 2026 00b4 9B18     		adds	r3, r3, r2
 2027 00b6 2370     		strb	r3, [r4, #0]
 2028 00b8 0121     		movs	r1, #1
 2029 00ba 1B48     		ldr	r0, .L322+24
 2030 00bc FFF7FEFF 		bl	uart_transmit
 2031              	.LBB786:
 2032 00c0 3178     		ldrb	r1, [r6, #0]	@ zero_extendqisi2
 2033              	.LVL204:
 2034 00c2 2B78     		ldrb	r3, [r5, #0]	@ zero_extendqisi2
 2035 00c4 2278     		ldrb	r2, [r4, #0]	@ zero_extendqisi2
 2036 00c6 CB18     		adds	r3, r1, r3
 2037 00c8 DBB2     		uxtb	r3, r3
 2038 00ca 2B70     		strb	r3, [r5, #0]
 2039 00cc 9B18     		adds	r3, r3, r2
 2040 00ce 2370     		strb	r3, [r4, #0]
 2041 00d0 1548     		ldr	r0, .L322+24
 2042 00d2 FFF7FEFF 		bl	uart_transmit
 2043              	.LVL205:
 2044              	.LBE786:
 2045              	.LBB787:
 2046 00d6 7178     		ldrb	r1, [r6, #1]	@ zero_extendqisi2
 2047              	.LVL206:
 2048 00d8 2B78     		ldrb	r3, [r5, #0]	@ zero_extendqisi2
 2049 00da 2278     		ldrb	r2, [r4, #0]	@ zero_extendqisi2
 2050 00dc CB18     		adds	r3, r1, r3
 2051 00de DBB2     		uxtb	r3, r3
 2052 00e0 2B70     		strb	r3, [r5, #0]
 2053 00e2 9B18     		adds	r3, r3, r2
 2054 00e4 2370     		strb	r3, [r4, #0]
 2055 00e6 1048     		ldr	r0, .L322+24
 2056 00e8 FFF7FEFF 		bl	uart_transmit
 2057              	.LVL207:
 2058              	.LBE787:
 2059 00ec 2978     		ldrb	r1, [r5, #0]	@ zero_extendqisi2
 2060 00ee 0E48     		ldr	r0, .L322+24
 2061 00f0 FFF7FEFF 		bl	uart_transmit
 2062 00f4 0C48     		ldr	r0, .L322+24
 2063 00f6 2178     		ldrb	r1, [r4, #0]	@ zero_extendqisi2
 2064 00f8 FFF7FEFF 		bl	uart_transmit
 2065 00fc 03E0     		b	.L108
 2066              	.L107:
 2067 00fe 104B     		ldr	r3, .L322+48
 2068 0100 1A78     		ldrb	r2, [r3, #0]	@ zero_extendqisi2
 2069 0102 0132     		adds	r2, r2, #1
 2070 0104 1A70     		strb	r2, [r3, #0]
 2071              	.L108:
 201:firmwares/fixedwing/main_ap.c ****     boot = FALSE;
 2072              		.loc 1 201 0
 2073 0106 0022     		movs	r2, #0
 2074 0108 064B     		ldr	r3, .L322+20
 2075 010a 05F01BBC 		b	.L314
 2076              	.L323:
 2077 010e 00BF     		.align	2
 2078              	.L322:
 2079 0110 00000000 		.word	.LANCHOR16
 2080 0114 00000000 		.word	.LANCHOR17
 2081 0118 00000000 		.word	.LANCHOR18
 2082 011c 00000000 		.word	.LANCHOR19
 2083 0120 00000000 		.word	.LANCHOR20
 2084 0124 00000000 		.word	.LANCHOR21
 2085 0128 00000000 		.word	uart2
 2086 012c 00000000 		.word	downlink_nb_bytes
 2087 0130 00000000 		.word	downlink_nb_msgs
 2088 0134 00000000 		.word	ck_a
 2089 0138 00000000 		.word	ck_b
 2090 013c 00000000 		.word	.LANCHOR22
 2091 0140 00000000 		.word	downlink_nb_ovrn
 2092              	.L106:
 205:firmwares/fixedwing/main_ap.c ****     PeriodicSendAp(DefaultChannel);
 2093              		.loc 1 205 0
 2094 0144 9E4B     		ldr	r3, .L324+16
 2095 0146 1A78     		ldrb	r2, [r3, #0]	@ zero_extendqisi2
 2096 0148 002A     		cmp	r2, #0
 2097 014a 42F08981 		bne	.L110
 2098              	.LBB788:
 2099 014e 9D4B     		ldr	r3, .L324+20
 2100 0150 1978     		ldrb	r1, [r3, #0]	@ zero_extendqisi2
 2101 0152 0131     		adds	r1, r1, #1
 2102 0154 C9B2     		uxtb	r1, r1
 2103 0156 0E29     		cmp	r1, #14
 2104 0158 1970     		strb	r1, [r3, #0]
 2105 015a 88BF     		it	hi
 2106 015c 1A70     		strbhi	r2, [r3, #0]
 2107 015e 9A4B     		ldr	r3, .L324+24
 2108 0160 1A78     		ldrb	r2, [r3, #0]	@ zero_extendqisi2
 2109 0162 0132     		adds	r2, r2, #1
 2110 0164 D2B2     		uxtb	r2, r2
 2111 0166 1D2A     		cmp	r2, #29
 2112 0168 1A70     		strb	r2, [r3, #0]
 2113 016a 01D9     		bls	.L112
 2114 016c 0022     		movs	r2, #0
 2115 016e 1A70     		strb	r2, [r3, #0]
 2116              	.L112:
 2117 0170 964B     		ldr	r3, .L324+28
 2118 0172 1A78     		ldrb	r2, [r3, #0]	@ zero_extendqisi2
 2119 0174 0132     		adds	r2, r2, #1
 2120 0176 D2B2     		uxtb	r2, r2
 2121 0178 3B2A     		cmp	r2, #59
 2122 017a 1A70     		strb	r2, [r3, #0]
 2123 017c 01D9     		bls	.L113
 2124 017e 0022     		movs	r2, #0
 2125 0180 1A70     		strb	r2, [r3, #0]
 2126              	.L113:
 2127 0182 934B     		ldr	r3, .L324+32
 2128 0184 1A78     		ldrb	r2, [r3, #0]	@ zero_extendqisi2
 2129 0186 0132     		adds	r2, r2, #1
 2130 0188 D2B2     		uxtb	r2, r2
 2131 018a 3E2A     		cmp	r2, #62
 2132 018c 1A70     		strb	r2, [r3, #0]
 2133 018e 01D9     		bls	.L114
 2134 0190 0022     		movs	r2, #0
 2135 0192 1A70     		strb	r2, [r3, #0]
 2136              	.L114:
 2137 0194 8F4B     		ldr	r3, .L324+36
 2138 0196 1A78     		ldrb	r2, [r3, #0]	@ zero_extendqisi2
 2139 0198 0132     		adds	r2, r2, #1
 2140 019a D2B2     		uxtb	r2, r2
 2141 019c 412A     		cmp	r2, #65
 2142 019e 1A70     		strb	r2, [r3, #0]
 2143 01a0 01D9     		bls	.L115
 2144 01a2 0022     		movs	r2, #0
 2145 01a4 1A70     		strb	r2, [r3, #0]
 2146              	.L115:
 2147 01a6 8C4B     		ldr	r3, .L324+40
 2148 01a8 1A78     		ldrb	r2, [r3, #0]	@ zero_extendqisi2
 2149 01aa 0132     		adds	r2, r2, #1
 2150 01ac D2B2     		uxtb	r2, r2
 2151 01ae 472A     		cmp	r2, #71
 2152 01b0 1A70     		strb	r2, [r3, #0]
 2153 01b2 01D9     		bls	.L116
 2154 01b4 0022     		movs	r2, #0
 2155 01b6 1A70     		strb	r2, [r3, #0]
 2156              	.L116:
 2157 01b8 884B     		ldr	r3, .L324+44
 2158 01ba 1A78     		ldrb	r2, [r3, #0]	@ zero_extendqisi2
 2159 01bc 0132     		adds	r2, r2, #1
 2160 01be D2B2     		uxtb	r2, r2
 2161 01c0 592A     		cmp	r2, #89
 2162 01c2 1A70     		strb	r2, [r3, #0]
 2163 01c4 01D9     		bls	.L117
 2164 01c6 0022     		movs	r2, #0
 2165 01c8 1A70     		strb	r2, [r3, #0]
 2166              	.L117:
 2167 01ca 854B     		ldr	r3, .L324+48
 2168 01cc 1A78     		ldrb	r2, [r3, #0]	@ zero_extendqisi2
 2169 01ce 0132     		adds	r2, r2, #1
 2170 01d0 D2B2     		uxtb	r2, r2
 2171 01d2 772A     		cmp	r2, #119
 2172 01d4 1A70     		strb	r2, [r3, #0]
 2173 01d6 01D9     		bls	.L118
 2174 01d8 0022     		movs	r2, #0
 2175 01da 1A70     		strb	r2, [r3, #0]
 2176              	.L118:
 2177 01dc 814B     		ldr	r3, .L324+52
 2178 01de 1A78     		ldrb	r2, [r3, #0]	@ zero_extendqisi2
 2179 01e0 0132     		adds	r2, r2, #1
 2180 01e2 D2B2     		uxtb	r2, r2
 2181 01e4 7D2A     		cmp	r2, #125
 2182 01e6 1A70     		strb	r2, [r3, #0]
 2183 01e8 01D9     		bls	.L119
 2184 01ea 0022     		movs	r2, #0
 2185 01ec 1A70     		strb	r2, [r3, #0]
 2186              	.L119:
 2187 01ee 7E4B     		ldr	r3, .L324+56
 2188 01f0 1A78     		ldrb	r2, [r3, #0]	@ zero_extendqisi2
 2189 01f2 0132     		adds	r2, r2, #1
 2190 01f4 D2B2     		uxtb	r2, r2
 2191 01f6 952A     		cmp	r2, #149
 2192 01f8 1A70     		strb	r2, [r3, #0]
 2193 01fa 01D9     		bls	.L120
 2194 01fc 0022     		movs	r2, #0
 2195 01fe 1A70     		strb	r2, [r3, #0]
 2196              	.L120:
 2197 0200 7A4B     		ldr	r3, .L324+60
 2198 0202 1A88     		ldrh	r2, [r3, #0]
 2199 0204 0132     		adds	r2, r2, #1
 2200 0206 92B2     		uxth	r2, r2
 2201 0208 B2F5967F 		cmp	r2, #300
 2202 020c 1A80     		strh	r2, [r3, #0]	@ movhi
 2203 020e 24BF     		itt	cs
 2204 0210 0022     		movcs	r2, #0	@ movhi
 2205 0212 1A80     		strhcs	r2, [r3, #0]	@ movhi
 2206 0214 764B     		ldr	r3, .L324+64
 2207 0216 1A88     		ldrh	r2, [r3, #0]
 2208 0218 0132     		adds	r2, r2, #1
 2209 021a 92B2     		uxth	r2, r2
 2210 021c B2F5997F 		cmp	r2, #306
 2211 0220 1A80     		strh	r2, [r3, #0]	@ movhi
 2212 0222 24BF     		itt	cs
 2213 0224 0022     		movcs	r2, #0	@ movhi
 2214 0226 1A80     		strhcs	r2, [r3, #0]	@ movhi
 2215 0228 724B     		ldr	r3, .L324+68
 2216 022a 1A88     		ldrh	r2, [r3, #0]
 2217 022c 0132     		adds	r2, r2, #1
 2218 022e 92B2     		uxth	r2, r2
 2219 0230 B2F5077F 		cmp	r2, #540
 2220 0234 1A80     		strh	r2, [r3, #0]	@ movhi
 2221 0236 24BF     		itt	cs
 2222 0238 0022     		movcs	r2, #0	@ movhi
 2223 023a 1A80     		strhcs	r2, [r3, #0]	@ movhi
 2224 023c 614B     		ldr	r3, .L324+20
 2225 023e 1B78     		ldrb	r3, [r3, #0]	@ zero_extendqisi2
 2226 0240 002B     		cmp	r3, #0
 2227 0242 40F0AD82 		bne	.L124
 2228              	.LBB789:
 2229 0246 6C4C     		ldr	r4, .L324+72
 2230 0248 236C     		ldr	r3, [r4, #64]
 2231 024a A06C     		ldr	r0, [r4, #72]
 2232 024c 5B42     		negs	r3, r3
 2233 024e ADF80C30 		strh	r3, [sp, #12]	@ movhi
 2234              	.LVL208:
 2235 0252 FFF7FEFF 		bl	__aeabi_i2d
 2236 0256 56A3     		adr	r3, .L324
 2237 0258 D3E90023 		ldrd	r2, [r3]
 2238 025c FFF7FEFF 		bl	__aeabi_dmul
 2239 0260 55A3     		adr	r3, .L324+8
 2240 0262 D3E90023 		ldrd	r2, [r3]
 2241 0266 FFF7FEFF 		bl	__aeabi_ddiv
 2242 026a FFF7FEFF 		bl	__aeabi_d2iz
 2243 026e 2121     		movs	r1, #33
 2244 0270 ADF80E00 		strh	r0, [sp, #14]	@ movhi
 2245              	.LVL209:
 2246 0274 6148     		ldr	r0, .L324+76
 2247 0276 FFF7FEFF 		bl	uart_check_free_space
 2248 027a 0028     		cmp	r0, #0
 2249 027c 00F0A681 		beq	.L125
 2250 0280 5F4B     		ldr	r3, .L324+80
 2251              	.LBB790:
 2252 0282 9921     		movs	r1, #153
 2253              	.LBE790:
 2254 0284 1A88     		ldrh	r2, [r3, #0]
 2255              	.LBB791:
 2256 0286 5D48     		ldr	r0, .L324+76
 2257              	.LBE791:
 2258 0288 2132     		adds	r2, r2, #33
 2259 028a 1A80     		strh	r2, [r3, #0]	@ movhi
 2260 028c 5D4B     		ldr	r3, .L324+84
 2261              	.LBB792:
 2262 028e 5E4E     		ldr	r6, .L324+88
 2263              	.LBE792:
 2264 0290 1A88     		ldrh	r2, [r3, #0]
 2265              	.LBB793:
 2266 0292 5E4D     		ldr	r5, .L324+92
 2267              	.LBE793:
 2268 0294 0132     		adds	r2, r2, #1
 2269 0296 1A80     		strh	r2, [r3, #0]	@ movhi
 2270              	.LBB794:
 2271 0298 FFF7FEFF 		bl	uart_transmit
 2272 029c 2121     		movs	r1, #33
 2273 029e 5748     		ldr	r0, .L324+76
 2274 02a0 FFF7FEFF 		bl	uart_transmit
 2275              	.LBE794:
 2276 02a4 2223     		movs	r3, #34
 2277 02a6 3370     		strb	r3, [r6, #0]
 2278 02a8 2133     		adds	r3, r3, #33
 2279 02aa 2B70     		strb	r3, [r5, #0]
 2280 02ac 0121     		movs	r1, #1
 2281 02ae 5348     		ldr	r0, .L324+76
 2282 02b0 FFF7FEFF 		bl	uart_transmit
 2283 02b4 3378     		ldrb	r3, [r6, #0]	@ zero_extendqisi2
 2284 02b6 2A78     		ldrb	r2, [r5, #0]	@ zero_extendqisi2
 2285 02b8 0833     		adds	r3, r3, #8
 2286 02ba DBB2     		uxtb	r3, r3
 2287 02bc 3370     		strb	r3, [r6, #0]
 2288 02be 9B18     		adds	r3, r3, r2
 2289 02c0 2B70     		strb	r3, [r5, #0]
 2290 02c2 0821     		movs	r1, #8
 2291 02c4 4D48     		ldr	r0, .L324+76
 2292 02c6 FFF7FEFF 		bl	uart_transmit
 2293              	.LBB795:
 2294 02ca 94F85710 		ldrb	r1, [r4, #87]	@ zero_extendqisi2
 2295              	.LVL210:
 2296 02ce 3378     		ldrb	r3, [r6, #0]	@ zero_extendqisi2
 2297 02d0 2A78     		ldrb	r2, [r5, #0]	@ zero_extendqisi2
 2298 02d2 CB18     		adds	r3, r1, r3
 2299 02d4 DBB2     		uxtb	r3, r3
 2300 02d6 3370     		strb	r3, [r6, #0]
 2301 02d8 9B18     		adds	r3, r3, r2
 2302 02da 2B70     		strb	r3, [r5, #0]
 2303 02dc 4748     		ldr	r0, .L324+76
 2304 02de FFF7FEFF 		bl	uart_transmit
 2305              	.LVL211:
 2306              	.LBE795:
 2307              	.LBB796:
 2308 02e2 217F     		ldrb	r1, [r4, #28]	@ zero_extendqisi2
 2309              	.LVL212:
 2310 02e4 3378     		ldrb	r3, [r6, #0]	@ zero_extendqisi2
 2311 02e6 2A78     		ldrb	r2, [r5, #0]	@ zero_extendqisi2
 2312 02e8 CB18     		adds	r3, r1, r3
 2313 02ea DBB2     		uxtb	r3, r3
 2314 02ec 3370     		strb	r3, [r6, #0]
 2315 02ee 9B18     		adds	r3, r3, r2
 2316 02f0 04F11C07 		add	r7, r4, #28
 2317 02f4 2B70     		strb	r3, [r5, #0]
 2318 02f6 4148     		ldr	r0, .L324+76
 2319 02f8 FFF7FEFF 		bl	uart_transmit
 2320              	.LVL213:
 2321              	.LBE796:
 2322              	.LBB797:
 2323 02fc 7978     		ldrb	r1, [r7, #1]	@ zero_extendqisi2
 2324              	.LVL214:
 2325 02fe 3378     		ldrb	r3, [r6, #0]	@ zero_extendqisi2
 2326 0300 2A78     		ldrb	r2, [r5, #0]	@ zero_extendqisi2
 2327 0302 CB18     		adds	r3, r1, r3
 2328 0304 DBB2     		uxtb	r3, r3
 2329 0306 3370     		strb	r3, [r6, #0]
 2330 0308 9B18     		adds	r3, r3, r2
 2331 030a 2B70     		strb	r3, [r5, #0]
 2332 030c 3B48     		ldr	r0, .L324+76
 2333 030e FFF7FEFF 		bl	uart_transmit
 2334              	.LVL215:
 2335              	.LBE797:
 2336              	.LBB798:
 2337 0312 B978     		ldrb	r1, [r7, #2]	@ zero_extendqisi2
 2338              	.LVL216:
 2339 0314 3378     		ldrb	r3, [r6, #0]	@ zero_extendqisi2
 2340 0316 2A78     		ldrb	r2, [r5, #0]	@ zero_extendqisi2
 2341 0318 CB18     		adds	r3, r1, r3
 2342 031a DBB2     		uxtb	r3, r3
 2343 031c 3370     		strb	r3, [r6, #0]
 2344 031e 9B18     		adds	r3, r3, r2
 2345 0320 2B70     		strb	r3, [r5, #0]
 2346 0322 3648     		ldr	r0, .L324+76
 2347 0324 FFF7FEFF 		bl	uart_transmit
 2348              	.LVL217:
 2349              	.LBE798:
 2350              	.LBB799:
 2351 0328 F978     		ldrb	r1, [r7, #3]	@ zero_extendqisi2
 2352              	.LVL218:
 2353 032a 3378     		ldrb	r3, [r6, #0]	@ zero_extendqisi2
 2354 032c 2A78     		ldrb	r2, [r5, #0]	@ zero_extendqisi2
 2355 032e CB18     		adds	r3, r1, r3
 2356 0330 DBB2     		uxtb	r3, r3
 2357 0332 3370     		strb	r3, [r6, #0]
 2358 0334 9B18     		adds	r3, r3, r2
 2359 0336 2B70     		strb	r3, [r5, #0]
 2360 0338 3048     		ldr	r0, .L324+76
 2361 033a FFF7FEFF 		bl	uart_transmit
 2362              	.LVL219:
 2363              	.LBE799:
 2364              	.LBB800:
 2365 033e 217E     		ldrb	r1, [r4, #24]	@ zero_extendqisi2
 2366              	.LVL220:
 2367 0340 3378     		ldrb	r3, [r6, #0]	@ zero_extendqisi2
 2368 0342 2A78     		ldrb	r2, [r5, #0]	@ zero_extendqisi2
 2369 0344 CB18     		adds	r3, r1, r3
 2370 0346 DBB2     		uxtb	r3, r3
 2371 0348 3370     		strb	r3, [r6, #0]
 2372 034a 9B18     		adds	r3, r3, r2
 2373 034c 04F11807 		add	r7, r4, #24
 2374 0350 2B70     		strb	r3, [r5, #0]
 2375 0352 2A48     		ldr	r0, .L324+76
 2376 0354 FFF7FEFF 		bl	uart_transmit
 2377              	.LVL221:
 2378              	.LBE800:
 2379              	.LBB801:
 2380 0358 7978     		ldrb	r1, [r7, #1]	@ zero_extendqisi2
 2381              	.LVL222:
 2382 035a 3378     		ldrb	r3, [r6, #0]	@ zero_extendqisi2
 2383 035c 2A78     		ldrb	r2, [r5, #0]	@ zero_extendqisi2
 2384 035e CB18     		adds	r3, r1, r3
 2385 0360 DBB2     		uxtb	r3, r3
 2386 0362 3370     		strb	r3, [r6, #0]
 2387 0364 9B18     		adds	r3, r3, r2
 2388 0366 2B70     		strb	r3, [r5, #0]
 2389 0368 2448     		ldr	r0, .L324+76
 2390 036a FFF7FEFF 		bl	uart_transmit
 2391              	.LVL223:
 2392              	.LBE801:
 2393              	.LBB802:
 2394 036e B978     		ldrb	r1, [r7, #2]	@ zero_extendqisi2
 2395              	.LVL224:
 2396 0370 3378     		ldrb	r3, [r6, #0]	@ zero_extendqisi2
 2397 0372 2A78     		ldrb	r2, [r5, #0]	@ zero_extendqisi2
 2398 0374 CB18     		adds	r3, r1, r3
 2399 0376 DBB2     		uxtb	r3, r3
 2400 0378 3370     		strb	r3, [r6, #0]
 2401 037a 9B18     		adds	r3, r3, r2
 2402 037c 2B70     		strb	r3, [r5, #0]
 2403 037e 1F48     		ldr	r0, .L324+76
 2404 0380 FFF7FEFF 		bl	uart_transmit
 2405              	.LVL225:
 2406              	.LBE802:
 2407              	.LBB803:
 2408 0384 F978     		ldrb	r1, [r7, #3]	@ zero_extendqisi2
 2409              	.LVL226:
 2410 0386 3378     		ldrb	r3, [r6, #0]	@ zero_extendqisi2
 2411 0388 2A78     		ldrb	r2, [r5, #0]	@ zero_extendqisi2
 2412 038a CB18     		adds	r3, r1, r3
 2413 038c DBB2     		uxtb	r3, r3
 2414 038e 3370     		strb	r3, [r6, #0]
 2415 0390 9B18     		adds	r3, r3, r2
 2416 0392 2B70     		strb	r3, [r5, #0]
 2417 0394 1948     		ldr	r0, .L324+76
 2418 0396 FFF7FEFF 		bl	uart_transmit
 2419              	.LVL227:
 2420              	.LBE803:
 2421              	.LBB804:
 2422 039a 9DF80E10 		ldrb	r1, [sp, #14]	@ zero_extendqisi2
 2423              	.LVL228:
 2424 039e 3378     		ldrb	r3, [r6, #0]	@ zero_extendqisi2
 2425 03a0 2A78     		ldrb	r2, [r5, #0]	@ zero_extendqisi2
 2426 03a2 CB18     		adds	r3, r1, r3
 2427 03a4 DBB2     		uxtb	r3, r3
 2428 03a6 3370     		strb	r3, [r6, #0]
 2429 03a8 9B18     		adds	r3, r3, r2
 2430 03aa 31E0     		b	.L325
 2431              	.L326:
 2432 03ac AFF30080 		.align	3
 2433              	.L324:
 2434 03b0 F8C1631A 		.word	442745336
 2435 03b4 DCA54C40 		.word	1078765020
 2436 03b8 00000000 		.word	0
 2437 03bc 80842E41 		.word	1093567616
 2438 03c0 00000000 		.word	telemetry_mode_Ap_DefaultChannel
 2439 03c4 00000000 		.word	.LANCHOR23
 2440 03c8 00000000 		.word	.LANCHOR24
 2441 03cc 00000000 		.word	.LANCHOR25
 2442 03d0 00000000 		.word	.LANCHOR26
 2443 03d4 00000000 		.word	.LANCHOR27
 2444 03d8 00000000 		.word	.LANCHOR28
 2445 03dc 00000000 		.word	.LANCHOR29
 2446 03e0 00000000 		.word	.LANCHOR30
 2447 03e4 00000000 		.word	.LANCHOR31
 2448 03e8 00000000 		.word	.LANCHOR32
 2449 03ec 00000000 		.word	.LANCHOR33
 2450 03f0 00000000 		.word	.LANCHOR34
 2451 03f4 00000000 		.word	.LANCHOR35
 2452 03f8 00000000 		.word	gps
 2453 03fc 00000000 		.word	uart2
 2454 0400 00000000 		.word	downlink_nb_bytes
 2455 0404 00000000 		.word	downlink_nb_msgs
 2456 0408 00000000 		.word	ck_a
 2457 040c 00000000 		.word	ck_b
 2458              	.L325:
 2459 0410 2B70     		strb	r3, [r5, #0]
 2460 0412 6C48     		ldr	r0, .L327
 2461 0414 FFF7FEFF 		bl	uart_transmit
 2462              	.LVL229:
 2463              	.LBE804:
 2464              	.LBB805:
 2465 0418 0DF10E03 		add	r3, sp, #14
 2466 041c 5978     		ldrb	r1, [r3, #1]	@ zero_extendqisi2
 2467              	.LVL230:
 2468 041e 3378     		ldrb	r3, [r6, #0]	@ zero_extendqisi2
 2469 0420 2A78     		ldrb	r2, [r5, #0]	@ zero_extendqisi2
 2470 0422 CB18     		adds	r3, r1, r3
 2471 0424 DBB2     		uxtb	r3, r3
 2472 0426 3370     		strb	r3, [r6, #0]
 2473 0428 9B18     		adds	r3, r3, r2
 2474 042a 2B70     		strb	r3, [r5, #0]
 2475 042c 6548     		ldr	r0, .L327
 2476 042e FFF7FEFF 		bl	uart_transmit
 2477              	.LVL231:
 2478              	.LBE805:
 2479              	.LBB806:
 2480 0432 94F82810 		ldrb	r1, [r4, #40]	@ zero_extendqisi2
 2481              	.LVL232:
 2482 0436 3378     		ldrb	r3, [r6, #0]	@ zero_extendqisi2
 2483 0438 2A78     		ldrb	r2, [r5, #0]	@ zero_extendqisi2
 2484 043a CB18     		adds	r3, r1, r3
 2485 043c DBB2     		uxtb	r3, r3
 2486 043e 3370     		strb	r3, [r6, #0]
 2487 0440 9B18     		adds	r3, r3, r2
 2488 0442 04F12807 		add	r7, r4, #40
 2489 0446 2B70     		strb	r3, [r5, #0]
 2490 0448 5E48     		ldr	r0, .L327
 2491 044a FFF7FEFF 		bl	uart_transmit
 2492              	.LVL233:
 2493              	.LBE806:
 2494              	.LBB807:
 2495 044e 7978     		ldrb	r1, [r7, #1]	@ zero_extendqisi2
 2496              	.LVL234:
 2497 0450 3378     		ldrb	r3, [r6, #0]	@ zero_extendqisi2
 2498 0452 2A78     		ldrb	r2, [r5, #0]	@ zero_extendqisi2
 2499 0454 CB18     		adds	r3, r1, r3
 2500 0456 DBB2     		uxtb	r3, r3
 2501 0458 3370     		strb	r3, [r6, #0]
 2502 045a 9B18     		adds	r3, r3, r2
 2503 045c 2B70     		strb	r3, [r5, #0]
 2504 045e 5948     		ldr	r0, .L327
 2505 0460 FFF7FEFF 		bl	uart_transmit
 2506              	.LVL235:
 2507              	.LBE807:
 2508              	.LBB808:
 2509 0464 B978     		ldrb	r1, [r7, #2]	@ zero_extendqisi2
 2510              	.LVL236:
 2511 0466 3378     		ldrb	r3, [r6, #0]	@ zero_extendqisi2
 2512 0468 2A78     		ldrb	r2, [r5, #0]	@ zero_extendqisi2
 2513 046a CB18     		adds	r3, r1, r3
 2514 046c DBB2     		uxtb	r3, r3
 2515 046e 3370     		strb	r3, [r6, #0]
 2516 0470 9B18     		adds	r3, r3, r2
 2517 0472 2B70     		strb	r3, [r5, #0]
 2518 0474 5348     		ldr	r0, .L327
 2519 0476 FFF7FEFF 		bl	uart_transmit
 2520              	.LVL237:
 2521              	.LBE808:
 2522              	.LBB809:
 2523 047a F978     		ldrb	r1, [r7, #3]	@ zero_extendqisi2
 2524              	.LVL238:
 2525 047c 3378     		ldrb	r3, [r6, #0]	@ zero_extendqisi2
 2526 047e 2A78     		ldrb	r2, [r5, #0]	@ zero_extendqisi2
 2527 0480 CB18     		adds	r3, r1, r3
 2528 0482 DBB2     		uxtb	r3, r3
 2529 0484 3370     		strb	r3, [r6, #0]
 2530 0486 9B18     		adds	r3, r3, r2
 2531 0488 2B70     		strb	r3, [r5, #0]
 2532 048a 4E48     		ldr	r0, .L327
 2533 048c FFF7FEFF 		bl	uart_transmit
 2534              	.LVL239:
 2535              	.LBE809:
 2536              	.LBB810:
 2537 0490 94F84410 		ldrb	r1, [r4, #68]	@ zero_extendqisi2
 2538              	.LVL240:
 2539 0494 3378     		ldrb	r3, [r6, #0]	@ zero_extendqisi2
 2540 0496 2A78     		ldrb	r2, [r5, #0]	@ zero_extendqisi2
 2541 0498 CB18     		adds	r3, r1, r3
 2542 049a DBB2     		uxtb	r3, r3
 2543 049c 3370     		strb	r3, [r6, #0]
 2544 049e 9B18     		adds	r3, r3, r2
 2545 04a0 04F14407 		add	r7, r4, #68
 2546 04a4 2B70     		strb	r3, [r5, #0]
 2547 04a6 4748     		ldr	r0, .L327
 2548 04a8 FFF7FEFF 		bl	uart_transmit
 2549              	.LVL241:
 2550              	.LBE810:
 2551              	.LBB811:
 2552 04ac 7978     		ldrb	r1, [r7, #1]	@ zero_extendqisi2
 2553              	.LVL242:
 2554 04ae 3378     		ldrb	r3, [r6, #0]	@ zero_extendqisi2
 2555 04b0 2A78     		ldrb	r2, [r5, #0]	@ zero_extendqisi2
 2556 04b2 CB18     		adds	r3, r1, r3
 2557 04b4 DBB2     		uxtb	r3, r3
 2558 04b6 3370     		strb	r3, [r6, #0]
 2559 04b8 9B18     		adds	r3, r3, r2
 2560 04ba 2B70     		strb	r3, [r5, #0]
 2561 04bc 4148     		ldr	r0, .L327
 2562 04be FFF7FEFF 		bl	uart_transmit
 2563              	.LVL243:
 2564              	.LBE811:
 2565              	.LBB812:
 2566 04c2 9DF80C10 		ldrb	r1, [sp, #12]	@ zero_extendqisi2
 2567              	.LVL244:
 2568 04c6 3378     		ldrb	r3, [r6, #0]	@ zero_extendqisi2
 2569 04c8 2A78     		ldrb	r2, [r5, #0]	@ zero_extendqisi2
 2570 04ca CB18     		adds	r3, r1, r3
 2571 04cc DBB2     		uxtb	r3, r3
 2572 04ce 3370     		strb	r3, [r6, #0]
 2573 04d0 9B18     		adds	r3, r3, r2
 2574 04d2 2B70     		strb	r3, [r5, #0]
 2575 04d4 3B48     		ldr	r0, .L327
 2576 04d6 FFF7FEFF 		bl	uart_transmit
 2577              	.LVL245:
 2578              	.LBE812:
 2579              	.LBB813:
 2580 04da 03AB     		add	r3, sp, #12
 2581 04dc 5978     		ldrb	r1, [r3, #1]	@ zero_extendqisi2
 2582              	.LVL246:
 2583 04de 3378     		ldrb	r3, [r6, #0]	@ zero_extendqisi2
 2584 04e0 2A78     		ldrb	r2, [r5, #0]	@ zero_extendqisi2
 2585 04e2 CB18     		adds	r3, r1, r3
 2586 04e4 DBB2     		uxtb	r3, r3
 2587 04e6 3370     		strb	r3, [r6, #0]
 2588 04e8 9B18     		adds	r3, r3, r2
 2589 04ea 2B70     		strb	r3, [r5, #0]
 2590 04ec 3548     		ldr	r0, .L327
 2591 04ee FFF7FEFF 		bl	uart_transmit
 2592              	.LVL247:
 2593              	.LBE813:
 2594              	.LBB814:
 2595 04f2 94F85810 		ldrb	r1, [r4, #88]	@ zero_extendqisi2
 2596              	.LVL248:
 2597 04f6 3378     		ldrb	r3, [r6, #0]	@ zero_extendqisi2
 2598 04f8 2A78     		ldrb	r2, [r5, #0]	@ zero_extendqisi2
 2599 04fa CB18     		adds	r3, r1, r3
 2600 04fc DBB2     		uxtb	r3, r3
 2601 04fe 3370     		strb	r3, [r6, #0]
 2602 0500 9B18     		adds	r3, r3, r2
 2603 0502 04F15807 		add	r7, r4, #88
 2604 0506 2B70     		strb	r3, [r5, #0]
 2605 0508 2E48     		ldr	r0, .L327
 2606 050a FFF7FEFF 		bl	uart_transmit
 2607              	.LVL249:
 2608              	.LBE814:
 2609              	.LBB815:
 2610 050e 7978     		ldrb	r1, [r7, #1]	@ zero_extendqisi2
 2611              	.LVL250:
 2612 0510 3378     		ldrb	r3, [r6, #0]	@ zero_extendqisi2
 2613 0512 2A78     		ldrb	r2, [r5, #0]	@ zero_extendqisi2
 2614 0514 CB18     		adds	r3, r1, r3
 2615 0516 DBB2     		uxtb	r3, r3
 2616 0518 3370     		strb	r3, [r6, #0]
 2617 051a 9B18     		adds	r3, r3, r2
 2618 051c 2B70     		strb	r3, [r5, #0]
 2619 051e 2948     		ldr	r0, .L327
 2620 0520 FFF7FEFF 		bl	uart_transmit
 2621              	.LVL251:
 2622              	.LBE815:
 2623              	.LBB816:
 2624 0524 94F85C10 		ldrb	r1, [r4, #92]	@ zero_extendqisi2
 2625              	.LVL252:
 2626 0528 3378     		ldrb	r3, [r6, #0]	@ zero_extendqisi2
 2627 052a 2A78     		ldrb	r2, [r5, #0]	@ zero_extendqisi2
 2628 052c CB18     		adds	r3, r1, r3
 2629 052e DBB2     		uxtb	r3, r3
 2630 0530 3370     		strb	r3, [r6, #0]
 2631 0532 9B18     		adds	r3, r3, r2
 2632 0534 04F15C07 		add	r7, r4, #92
 2633 0538 2B70     		strb	r3, [r5, #0]
 2634 053a 2248     		ldr	r0, .L327
 2635 053c FFF7FEFF 		bl	uart_transmit
 2636              	.LVL253:
 2637              	.LBE816:
 2638              	.LBB817:
 2639 0540 7978     		ldrb	r1, [r7, #1]	@ zero_extendqisi2
 2640              	.LVL254:
 2641 0542 3378     		ldrb	r3, [r6, #0]	@ zero_extendqisi2
 2642 0544 2A78     		ldrb	r2, [r5, #0]	@ zero_extendqisi2
 2643 0546 CB18     		adds	r3, r1, r3
 2644 0548 DBB2     		uxtb	r3, r3
 2645 054a 3370     		strb	r3, [r6, #0]
 2646 054c 9B18     		adds	r3, r3, r2
 2647 054e 2B70     		strb	r3, [r5, #0]
 2648 0550 1C48     		ldr	r0, .L327
 2649 0552 FFF7FEFF 		bl	uart_transmit
 2650              	.LVL255:
 2651              	.LBE817:
 2652              	.LBB818:
 2653 0556 B978     		ldrb	r1, [r7, #2]	@ zero_extendqisi2
 2654              	.LVL256:
 2655 0558 3378     		ldrb	r3, [r6, #0]	@ zero_extendqisi2
 2656 055a 2A78     		ldrb	r2, [r5, #0]	@ zero_extendqisi2
 2657 055c CB18     		adds	r3, r1, r3
 2658 055e DBB2     		uxtb	r3, r3
 2659 0560 3370     		strb	r3, [r6, #0]
 2660 0562 9B18     		adds	r3, r3, r2
 2661 0564 2B70     		strb	r3, [r5, #0]
 2662 0566 1748     		ldr	r0, .L327
 2663 0568 FFF7FEFF 		bl	uart_transmit
 2664              	.LVL257:
 2665              	.LBE818:
 2666              	.LBB819:
 2667 056c F978     		ldrb	r1, [r7, #3]	@ zero_extendqisi2
 2668              	.LVL258:
 2669 056e 3378     		ldrb	r3, [r6, #0]	@ zero_extendqisi2
 2670 0570 2A78     		ldrb	r2, [r5, #0]	@ zero_extendqisi2
 2671 0572 CB18     		adds	r3, r1, r3
 2672 0574 DBB2     		uxtb	r3, r3
 2673 0576 3370     		strb	r3, [r6, #0]
 2674 0578 9B18     		adds	r3, r3, r2
 2675 057a 2B70     		strb	r3, [r5, #0]
 2676 057c 1148     		ldr	r0, .L327
 2677 057e FFF7FEFF 		bl	uart_transmit
 2678              	.LVL259:
 2679              	.LBE819:
 2680              	.LBB820:
 2681 0582 94F82410 		ldrb	r1, [r4, #36]	@ zero_extendqisi2
 2682              	.LVL260:
 2683 0586 3378     		ldrb	r3, [r6, #0]	@ zero_extendqisi2
 2684 0588 2A78     		ldrb	r2, [r5, #0]	@ zero_extendqisi2
 2685 058a CB18     		adds	r3, r1, r3
 2686 058c DBB2     		uxtb	r3, r3
 2687 058e 3370     		strb	r3, [r6, #0]
 2688 0590 9B18     		adds	r3, r3, r2
 2689 0592 2B70     		strb	r3, [r5, #0]
 2690 0594 0B48     		ldr	r0, .L327
 2691 0596 FFF7FEFF 		bl	uart_transmit
 2692              	.LVL261:
 2693              	.LBE820:
 2694              	.LBB821:
 2695 059a 0B4B     		ldr	r3, .L327+4
 2696 059c 2A78     		ldrb	r2, [r5, #0]	@ zero_extendqisi2
 2697 059e 1978     		ldrb	r1, [r3, #0]	@ zero_extendqisi2
 2698              	.LVL262:
 2699 05a0 3378     		ldrb	r3, [r6, #0]	@ zero_extendqisi2
 2700 05a2 0848     		ldr	r0, .L327
 2701 05a4 CB18     		adds	r3, r1, r3
 2702 05a6 DBB2     		uxtb	r3, r3
 2703 05a8 3370     		strb	r3, [r6, #0]
 2704 05aa 9B18     		adds	r3, r3, r2
 2705 05ac 2B70     		strb	r3, [r5, #0]
 2706 05ae FFF7FEFF 		bl	uart_transmit
 2707              	.LVL263:
 2708              	.LBE821:
 2709 05b2 3178     		ldrb	r1, [r6, #0]	@ zero_extendqisi2
 2710 05b4 0348     		ldr	r0, .L327
 2711 05b6 FFF7FEFF 		bl	uart_transmit
 2712 05ba 0248     		ldr	r0, .L327
 2713 05bc 2978     		ldrb	r1, [r5, #0]	@ zero_extendqisi2
 2714 05be FFF7FEFF 		bl	uart_transmit
 2715 05c2 07E0     		b	.L126
 2716              	.L328:
 2717              		.align	2
 2718              	.L327:
 2719 05c4 00000000 		.word	uart2
 2720 05c8 00000000 		.word	.LANCHOR36
 2721              	.L125:
 2722 05cc 684B     		ldr	r3, .L329
 2723 05ce 1A78     		ldrb	r2, [r3, #0]	@ zero_extendqisi2
 2724 05d0 0132     		adds	r2, r2, #1
 2725 05d2 1A70     		strb	r2, [r3, #0]
 2726              	.L126:
 2727 05d4 674A     		ldr	r2, .L329+4
 2728 05d6 92F85730 		ldrb	r3, [r2, #87]	@ zero_extendqisi2
 2729 05da 032B     		cmp	r3, #3
 2730 05dc 07D0     		beq	.L127
 2731 05de 664B     		ldr	r3, .L329+8
 2732 05e0 92F86020 		ldrb	r2, [r2, #96]	@ zero_extendqisi2
 2733 05e4 1978     		ldrb	r1, [r3, #0]	@ zero_extendqisi2
 2734 05e6 9142     		cmp	r1, r2
 2735 05e8 01D3     		bcc	.L127
 2736 05ea 0022     		movs	r2, #0
 2737 05ec 1A70     		strb	r2, [r3, #0]
 2738              	.L127:
 2739 05ee 614B     		ldr	r3, .L329+4
 2740 05f0 93F86020 		ldrb	r2, [r3, #96]	@ zero_extendqisi2
 2741 05f4 604B     		ldr	r3, .L329+8
 2742 05f6 1978     		ldrb	r1, [r3, #0]	@ zero_extendqisi2
 2743 05f8 B1EB420F 		cmp	r1, r2, lsl #1
 2744 05fc 01DB     		blt	.L128
 2745 05fe 0021     		movs	r1, #0
 2746 0600 1970     		strb	r1, [r3, #0]
 2747              	.L128:
 2748 0602 5D4E     		ldr	r6, .L329+8
 2749 0604 3378     		ldrb	r3, [r6, #0]	@ zero_extendqisi2
 2750 0606 9342     		cmp	r3, r2
 2751 0608 80F0C680 		bcs	.L129
 2752 060c 594F     		ldr	r7, .L329+4
 2753 060e 07EBC303 		add	r3, r7, r3, lsl #3
 2754 0612 93F86530 		ldrb	r3, [r3, #101]	@ zero_extendqisi2
 2755 0616 002B     		cmp	r3, #0
 2756 0618 00F0BE80 		beq	.L129
 2757 061c 5748     		ldr	r0, .L329+12
 2758 061e 0E21     		movs	r1, #14
 2759 0620 FFF7FEFF 		bl	uart_check_free_space
 2760 0624 0028     		cmp	r0, #0
 2761 0626 00F0B380 		beq	.L130
 2762 062a 554B     		ldr	r3, .L329+16
 2763              	.LBB822:
 2764 062c 9921     		movs	r1, #153
 2765              	.LBE822:
 2766 062e 1A88     		ldrh	r2, [r3, #0]
 2767              	.LBB823:
 2768 0630 5248     		ldr	r0, .L329+12
 2769              	.LBE823:
 2770 0632 0E32     		adds	r2, r2, #14
 2771 0634 1A80     		strh	r2, [r3, #0]	@ movhi
 2772 0636 534B     		ldr	r3, .L329+20
 2773              	.LBB824:
 2774 0638 534D     		ldr	r5, .L329+24
 2775              	.LBE824:
 2776 063a 1A88     		ldrh	r2, [r3, #0]
 2777              	.LBB825:
 2778 063c 534C     		ldr	r4, .L329+28
 2779              	.LBE825:
 2780 063e 0132     		adds	r2, r2, #1
 2781 0640 1A80     		strh	r2, [r3, #0]	@ movhi
 2782              	.LBB826:
 2783 0642 FFF7FEFF 		bl	uart_transmit
 2784 0646 0E21     		movs	r1, #14
 2785 0648 4C48     		ldr	r0, .L329+12
 2786 064a FFF7FEFF 		bl	uart_transmit
 2787              	.LBE826:
 2788 064e 0F23     		movs	r3, #15
 2789 0650 2B70     		strb	r3, [r5, #0]
 2790 0652 0E33     		adds	r3, r3, #14
 2791 0654 2370     		strb	r3, [r4, #0]
 2792 0656 0121     		movs	r1, #1
 2793 0658 4848     		ldr	r0, .L329+12
 2794 065a FFF7FEFF 		bl	uart_transmit
 2795 065e 2B78     		ldrb	r3, [r5, #0]	@ zero_extendqisi2
 2796 0660 2278     		ldrb	r2, [r4, #0]	@ zero_extendqisi2
 2797 0662 1933     		adds	r3, r3, #25
 2798 0664 DBB2     		uxtb	r3, r3
 2799 0666 2B70     		strb	r3, [r5, #0]
 2800 0668 9B18     		adds	r3, r3, r2
 2801 066a 2370     		strb	r3, [r4, #0]
 2802 066c 1921     		movs	r1, #25
 2803 066e 4348     		ldr	r0, .L329+12
 2804 0670 FFF7FEFF 		bl	uart_transmit
 2805              	.LBB827:
 2806 0674 3178     		ldrb	r1, [r6, #0]	@ zero_extendqisi2
 2807              	.LVL264:
 2808 0676 2B78     		ldrb	r3, [r5, #0]	@ zero_extendqisi2
 2809 0678 2278     		ldrb	r2, [r4, #0]	@ zero_extendqisi2
 2810 067a CB18     		adds	r3, r1, r3
 2811 067c DBB2     		uxtb	r3, r3
 2812 067e 2B70     		strb	r3, [r5, #0]
 2813 0680 9B18     		adds	r3, r3, r2
 2814 0682 2370     		strb	r3, [r4, #0]
 2815 0684 3D48     		ldr	r0, .L329+12
 2816 0686 FFF7FEFF 		bl	uart_transmit
 2817              	.LVL265:
 2818              	.LBE827:
 2819              	.LBB828:
 2820 068a 3378     		ldrb	r3, [r6, #0]	@ zero_extendqisi2
 2821 068c 2278     		ldrb	r2, [r4, #0]	@ zero_extendqisi2
 2822 068e 07EBC303 		add	r3, r7, r3, lsl #3
 2823 0692 93F86210 		ldrb	r1, [r3, #98]	@ zero_extendqisi2
 2824              	.LVL266:
 2825 0696 2B78     		ldrb	r3, [r5, #0]	@ zero_extendqisi2
 2826 0698 3848     		ldr	r0, .L329+12
 2827 069a CB18     		adds	r3, r1, r3
 2828 069c DBB2     		uxtb	r3, r3
 2829 069e 2B70     		strb	r3, [r5, #0]
 2830 06a0 9B18     		adds	r3, r3, r2
 2831 06a2 2370     		strb	r3, [r4, #0]
 2832 06a4 FFF7FEFF 		bl	uart_transmit
 2833              	.LVL267:
 2834              	.LBE828:
 2835              	.LBB829:
 2836 06a8 3378     		ldrb	r3, [r6, #0]	@ zero_extendqisi2
 2837 06aa 2278     		ldrb	r2, [r4, #0]	@ zero_extendqisi2
 2838 06ac 07EBC303 		add	r3, r7, r3, lsl #3
 2839 06b0 93F86310 		ldrb	r1, [r3, #99]	@ zero_extendqisi2
 2840              	.LVL268:
 2841 06b4 2B78     		ldrb	r3, [r5, #0]	@ zero_extendqisi2
 2842 06b6 3148     		ldr	r0, .L329+12
 2843 06b8 CB18     		adds	r3, r1, r3
 2844 06ba DBB2     		uxtb	r3, r3
 2845 06bc 2B70     		strb	r3, [r5, #0]
 2846 06be 9B18     		adds	r3, r3, r2
 2847 06c0 2370     		strb	r3, [r4, #0]
 2848 06c2 FFF7FEFF 		bl	uart_transmit
 2849              	.LVL269:
 2850              	.LBE829:
 2851              	.LBB830:
 2852 06c6 3378     		ldrb	r3, [r6, #0]	@ zero_extendqisi2
 2853 06c8 2278     		ldrb	r2, [r4, #0]	@ zero_extendqisi2
 2854 06ca 07EBC303 		add	r3, r7, r3, lsl #3
 2855 06ce 93F86410 		ldrb	r1, [r3, #100]	@ zero_extendqisi2
 2856              	.LVL270:
 2857 06d2 2B78     		ldrb	r3, [r5, #0]	@ zero_extendqisi2
 2858 06d4 2948     		ldr	r0, .L329+12
 2859 06d6 CB18     		adds	r3, r1, r3
 2860 06d8 DBB2     		uxtb	r3, r3
 2861 06da 2B70     		strb	r3, [r5, #0]
 2862 06dc 9B18     		adds	r3, r3, r2
 2863 06de 2370     		strb	r3, [r4, #0]
 2864 06e0 FFF7FEFF 		bl	uart_transmit
 2865              	.LVL271:
 2866              	.LBE830:
 2867              	.LBB831:
 2868 06e4 3378     		ldrb	r3, [r6, #0]	@ zero_extendqisi2
 2869 06e6 2278     		ldrb	r2, [r4, #0]	@ zero_extendqisi2
 2870 06e8 07EBC303 		add	r3, r7, r3, lsl #3
 2871 06ec 93F86510 		ldrb	r1, [r3, #101]	@ zero_extendqisi2
 2872              	.LVL272:
 2873 06f0 2B78     		ldrb	r3, [r5, #0]	@ zero_extendqisi2
 2874 06f2 2248     		ldr	r0, .L329+12
 2875 06f4 CB18     		adds	r3, r1, r3
 2876 06f6 DBB2     		uxtb	r3, r3
 2877 06f8 2B70     		strb	r3, [r5, #0]
 2878 06fa 9B18     		adds	r3, r3, r2
 2879 06fc 2370     		strb	r3, [r4, #0]
 2880 06fe FFF7FEFF 		bl	uart_transmit
 2881              	.LVL273:
 2882              	.LBE831:
 2883              	.LBB832:
 2884 0702 3378     		ldrb	r3, [r6, #0]	@ zero_extendqisi2
 2885 0704 2278     		ldrb	r2, [r4, #0]	@ zero_extendqisi2
 2886 0706 07EBC303 		add	r3, r7, r3, lsl #3
 2887 070a 93F86610 		ldrb	r1, [r3, #102]	@ zero_extendqisi2
 2888              	.LVL274:
 2889 070e 2B78     		ldrb	r3, [r5, #0]	@ zero_extendqisi2
 2890 0710 1A48     		ldr	r0, .L329+12
 2891 0712 CB18     		adds	r3, r1, r3
 2892 0714 DBB2     		uxtb	r3, r3
 2893 0716 2B70     		strb	r3, [r5, #0]
 2894 0718 9B18     		adds	r3, r3, r2
 2895 071a 2370     		strb	r3, [r4, #0]
 2896 071c FFF7FEFF 		bl	uart_transmit
 2897              	.LVL275:
 2898              	.LBE832:
 2899              	.LBB833:
 2900 0720 3378     		ldrb	r3, [r6, #0]	@ zero_extendqisi2
 2901 0722 2278     		ldrb	r2, [r4, #0]	@ zero_extendqisi2
 2902 0724 07EBC303 		add	r3, r7, r3, lsl #3
 2903 0728 93F86810 		ldrb	r1, [r3, #104]	@ zero_extendqisi2
 2904              	.LVL276:
 2905 072c 2B78     		ldrb	r3, [r5, #0]	@ zero_extendqisi2
 2906 072e 1348     		ldr	r0, .L329+12
 2907 0730 CB18     		adds	r3, r1, r3
 2908 0732 DBB2     		uxtb	r3, r3
 2909 0734 2B70     		strb	r3, [r5, #0]
 2910 0736 9B18     		adds	r3, r3, r2
 2911 0738 2370     		strb	r3, [r4, #0]
 2912 073a FFF7FEFF 		bl	uart_transmit
 2913              	.LVL277:
 2914              	.LBE833:
 2915              	.LBB834:
 2916 073e 3378     		ldrb	r3, [r6, #0]	@ zero_extendqisi2
 2917 0740 2278     		ldrb	r2, [r4, #0]	@ zero_extendqisi2
 2918 0742 07EBC307 		add	r7, r7, r3, lsl #3
 2919 0746 97F86910 		ldrb	r1, [r7, #105]	@ zero_extendqisi2
 2920              	.LVL278:
 2921 074a 2B78     		ldrb	r3, [r5, #0]	@ zero_extendqisi2
 2922 074c 0B48     		ldr	r0, .L329+12
 2923 074e CB18     		adds	r3, r1, r3
 2924 0750 DBB2     		uxtb	r3, r3
 2925 0752 2B70     		strb	r3, [r5, #0]
 2926 0754 9B18     		adds	r3, r3, r2
 2927 0756 2370     		strb	r3, [r4, #0]
 2928 0758 FFF7FEFF 		bl	uart_transmit
 2929              	.LVL279:
 2930              	.LBE834:
 2931 075c 2978     		ldrb	r1, [r5, #0]	@ zero_extendqisi2
 2932 075e 0748     		ldr	r0, .L329+12
 2933 0760 FFF7FEFF 		bl	uart_transmit
 2934 0764 0548     		ldr	r0, .L329+12
 2935 0766 2178     		ldrb	r1, [r4, #0]	@ zero_extendqisi2
 2936 0768 FFF7FEFF 		bl	uart_transmit
 2937 076c 14E0     		b	.L129
 2938              	.L330:
 2939 076e 00BF     		.align	2
 2940              	.L329:
 2941 0770 00000000 		.word	downlink_nb_ovrn
 2942 0774 00000000 		.word	gps
 2943 0778 00000000 		.word	.LANCHOR36
 2944 077c 00000000 		.word	uart2
 2945 0780 00000000 		.word	downlink_nb_bytes
 2946 0784 00000000 		.word	downlink_nb_msgs
 2947 0788 00000000 		.word	ck_a
 2948 078c 00000000 		.word	ck_b
 2949              	.L130:
 2950 0790 934B     		ldr	r3, .L331
 2951 0792 1A78     		ldrb	r2, [r3, #0]	@ zero_extendqisi2
 2952 0794 0132     		adds	r2, r2, #1
 2953 0796 1A70     		strb	r2, [r3, #0]
 2954              	.L129:
 2955 0798 924B     		ldr	r3, .L331+4
 2956 079a 1A78     		ldrb	r2, [r3, #0]	@ zero_extendqisi2
 2957 079c 0132     		adds	r2, r2, #1
 2958 079e 1A70     		strb	r2, [r3, #0]
 2959              	.L124:
 2960              	.LBE789:
 2961 07a0 914B     		ldr	r3, .L331+8
 2962 07a2 1E78     		ldrb	r6, [r3, #0]	@ zero_extendqisi2
 2963 07a4 062E     		cmp	r6, #6
 2964 07a6 40F08880 		bne	.L131
 2965 07aa 9048     		ldr	r0, .L331+12
 2966 07ac 1221     		movs	r1, #18
 2967 07ae FFF7FEFF 		bl	uart_check_free_space
 2968 07b2 0028     		cmp	r0, #0
 2969 07b4 00F04082 		beq	.L137
 2970 07b8 8D4B     		ldr	r3, .L331+16
 2971              	.LBB835:
 2972 07ba 9921     		movs	r1, #153
 2973              	.LBE835:
 2974 07bc 1A88     		ldrh	r2, [r3, #0]
 2975              	.LBB836:
 2976 07be 8B48     		ldr	r0, .L331+12
 2977              	.LBE836:
 2978 07c0 1232     		adds	r2, r2, #18
 2979 07c2 1A80     		strh	r2, [r3, #0]	@ movhi
 2980 07c4 8B4B     		ldr	r3, .L331+20
 2981              	.LBB837:
 2982 07c6 8C4D     		ldr	r5, .L331+24
 2983              	.LBE837:
 2984 07c8 1A88     		ldrh	r2, [r3, #0]
 2985              	.LBB838:
 2986 07ca 8C4C     		ldr	r4, .L331+28
 2987              	.LBE838:
 2988 07cc 0132     		adds	r2, r2, #1
 2989 07ce 1A80     		strh	r2, [r3, #0]	@ movhi
 2990              	.LBB839:
 2991 07d0 FFF7FEFF 		bl	uart_transmit
 2992 07d4 1221     		movs	r1, #18
 2993 07d6 8548     		ldr	r0, .L331+12
 2994 07d8 FFF7FEFF 		bl	uart_transmit
 2995              	.LBE839:
 2996 07dc 1323     		movs	r3, #19
 2997 07de 2B70     		strb	r3, [r5, #0]
 2998 07e0 1233     		adds	r3, r3, #18
 2999 07e2 0121     		movs	r1, #1
 3000 07e4 2370     		strb	r3, [r4, #0]
 3001 07e6 8148     		ldr	r0, .L331+12
 3002 07e8 FFF7FEFF 		bl	uart_transmit
 3003 07ec 2B78     		ldrb	r3, [r5, #0]	@ zero_extendqisi2
 3004 07ee 2278     		ldrb	r2, [r4, #0]	@ zero_extendqisi2
 3005 07f0 0633     		adds	r3, r3, #6
 3006 07f2 DBB2     		uxtb	r3, r3
 3007 07f4 3146     		mov	r1, r6
 3008 07f6 2B70     		strb	r3, [r5, #0]
 3009              	.LBB840:
 3010 07f8 814E     		ldr	r6, .L331+32
 3011              	.LBE840:
 3012 07fa 9B18     		adds	r3, r3, r2
 3013 07fc 2370     		strb	r3, [r4, #0]
 3014 07fe 7B48     		ldr	r0, .L331+12
 3015 0800 FFF7FEFF 		bl	uart_transmit
 3016              	.LBB841:
 3017 0804 3178     		ldrb	r1, [r6, #0]	@ zero_extendqisi2
 3018              	.LVL280:
 3019 0806 2B78     		ldrb	r3, [r5, #0]	@ zero_extendqisi2
 3020 0808 2278     		ldrb	r2, [r4, #0]	@ zero_extendqisi2
 3021 080a CB18     		adds	r3, r1, r3
 3022 080c DBB2     		uxtb	r3, r3
 3023 080e 2B70     		strb	r3, [r5, #0]
 3024 0810 9B18     		adds	r3, r3, r2
 3025 0812 2370     		strb	r3, [r4, #0]
 3026 0814 7548     		ldr	r0, .L331+12
 3027 0816 FFF7FEFF 		bl	uart_transmit
 3028              	.LVL281:
 3029              	.LBE841:
 3030              	.LBB842:
 3031 081a 7178     		ldrb	r1, [r6, #1]	@ zero_extendqisi2
 3032              	.LVL282:
 3033 081c 2B78     		ldrb	r3, [r5, #0]	@ zero_extendqisi2
 3034 081e 2278     		ldrb	r2, [r4, #0]	@ zero_extendqisi2
 3035 0820 CB18     		adds	r3, r1, r3
 3036 0822 DBB2     		uxtb	r3, r3
 3037 0824 2B70     		strb	r3, [r5, #0]
 3038 0826 9B18     		adds	r3, r3, r2
 3039 0828 2370     		strb	r3, [r4, #0]
 3040 082a 7048     		ldr	r0, .L331+12
 3041 082c FFF7FEFF 		bl	uart_transmit
 3042              	.LVL283:
 3043              	.LBE842:
 3044              	.LBB843:
 3045 0830 B178     		ldrb	r1, [r6, #2]	@ zero_extendqisi2
 3046              	.LVL284:
 3047 0832 2B78     		ldrb	r3, [r5, #0]	@ zero_extendqisi2
 3048 0834 2278     		ldrb	r2, [r4, #0]	@ zero_extendqisi2
 3049 0836 CB18     		adds	r3, r1, r3
 3050 0838 DBB2     		uxtb	r3, r3
 3051 083a 2B70     		strb	r3, [r5, #0]
 3052 083c 9B18     		adds	r3, r3, r2
 3053 083e 2370     		strb	r3, [r4, #0]
 3054 0840 6A48     		ldr	r0, .L331+12
 3055 0842 FFF7FEFF 		bl	uart_transmit
 3056              	.LVL285:
 3057              	.LBE843:
 3058              	.LBB844:
 3059 0846 F178     		ldrb	r1, [r6, #3]	@ zero_extendqisi2
 3060              	.LVL286:
 3061 0848 2B78     		ldrb	r3, [r5, #0]	@ zero_extendqisi2
 3062 084a 2278     		ldrb	r2, [r4, #0]	@ zero_extendqisi2
 3063 084c CB18     		adds	r3, r1, r3
 3064 084e DBB2     		uxtb	r3, r3
 3065              	.LBE844:
 3066              	.LBB845:
 3067 0850 6C4E     		ldr	r6, .L331+36
 3068              	.LBE845:
 3069              	.LBB846:
 3070 0852 2B70     		strb	r3, [r5, #0]
 3071 0854 9B18     		adds	r3, r3, r2
 3072 0856 2370     		strb	r3, [r4, #0]
 3073 0858 6448     		ldr	r0, .L331+12
 3074 085a FFF7FEFF 		bl	uart_transmit
 3075              	.LVL287:
 3076              	.LBE846:
 3077              	.LBB847:
 3078 085e 3178     		ldrb	r1, [r6, #0]	@ zero_extendqisi2
 3079              	.LVL288:
 3080 0860 2B78     		ldrb	r3, [r5, #0]	@ zero_extendqisi2
 3081 0862 2278     		ldrb	r2, [r4, #0]	@ zero_extendqisi2
 3082 0864 CB18     		adds	r3, r1, r3
 3083 0866 DBB2     		uxtb	r3, r3
 3084 0868 2B70     		strb	r3, [r5, #0]
 3085 086a 9B18     		adds	r3, r3, r2
 3086 086c 2370     		strb	r3, [r4, #0]
 3087 086e 5F48     		ldr	r0, .L331+12
 3088 0870 FFF7FEFF 		bl	uart_transmit
 3089              	.LVL289:
 3090              	.LBE847:
 3091              	.LBB848:
 3092 0874 7178     		ldrb	r1, [r6, #1]	@ zero_extendqisi2
 3093              	.LVL290:
 3094 0876 2B78     		ldrb	r3, [r5, #0]	@ zero_extendqisi2
 3095 0878 2278     		ldrb	r2, [r4, #0]	@ zero_extendqisi2
 3096 087a CB18     		adds	r3, r1, r3
 3097 087c DBB2     		uxtb	r3, r3
 3098 087e 2B70     		strb	r3, [r5, #0]
 3099 0880 9B18     		adds	r3, r3, r2
 3100 0882 2370     		strb	r3, [r4, #0]
 3101 0884 5948     		ldr	r0, .L331+12
 3102 0886 FFF7FEFF 		bl	uart_transmit
 3103              	.LVL291:
 3104              	.LBE848:
 3105              	.LBB849:
 3106 088a B178     		ldrb	r1, [r6, #2]	@ zero_extendqisi2
 3107              	.LVL292:
 3108 088c 2B78     		ldrb	r3, [r5, #0]	@ zero_extendqisi2
 3109 088e 2278     		ldrb	r2, [r4, #0]	@ zero_extendqisi2
 3110 0890 CB18     		adds	r3, r1, r3
 3111 0892 DBB2     		uxtb	r3, r3
 3112 0894 2B70     		strb	r3, [r5, #0]
 3113 0896 9B18     		adds	r3, r3, r2
 3114 0898 2370     		strb	r3, [r4, #0]
 3115 089a 5448     		ldr	r0, .L331+12
 3116 089c FFF7FEFF 		bl	uart_transmit
 3117              	.LVL293:
 3118              	.LBE849:
 3119              	.LBB850:
 3120 08a0 F178     		ldrb	r1, [r6, #3]	@ zero_extendqisi2
 3121              	.LVL294:
 3122 08a2 2B78     		ldrb	r3, [r5, #0]	@ zero_extendqisi2
 3123 08a4 2278     		ldrb	r2, [r4, #0]	@ zero_extendqisi2
 3124 08a6 CB18     		adds	r3, r1, r3
 3125 08a8 DBB2     		uxtb	r3, r3
 3126 08aa 2B70     		strb	r3, [r5, #0]
 3127 08ac 9B18     		adds	r3, r3, r2
 3128 08ae 2370     		strb	r3, [r4, #0]
 3129 08b0 4E48     		ldr	r0, .L331+12
 3130 08b2 FFF7FEFF 		bl	uart_transmit
 3131              	.LVL295:
 3132              	.LBE850:
 3133              	.LBB851:
 3134 08b6 544E     		ldr	r6, .L331+40
 3135 08b8 5CE0     		b	.L303
 3136              	.L131:
 3137              	.LBE851:
 3138 08ba 0C2E     		cmp	r6, #12
 3139 08bc 40F0AA80 		bne	.L134
 3140 08c0 4A48     		ldr	r0, .L331+12
 3141 08c2 0E21     		movs	r1, #14
 3142 08c4 FFF7FEFF 		bl	uart_check_free_space
 3143 08c8 0028     		cmp	r0, #0
 3144 08ca 00F0B581 		beq	.L137
 3145 08ce 484B     		ldr	r3, .L331+16
 3146              	.LBB852:
 3147 08d0 4648     		ldr	r0, .L331+12
 3148              	.LBE852:
 3149 08d2 1A88     		ldrh	r2, [r3, #0]
 3150              	.LBB853:
 3151 08d4 9921     		movs	r1, #153
 3152              	.LBE853:
 3153 08d6 0E32     		adds	r2, r2, #14
 3154 08d8 1A80     		strh	r2, [r3, #0]	@ movhi
 3155 08da 464B     		ldr	r3, .L331+20
 3156              	.LBB854:
 3157 08dc 464D     		ldr	r5, .L331+24
 3158              	.LBE854:
 3159 08de 1A88     		ldrh	r2, [r3, #0]
 3160              	.LBB855:
 3161 08e0 464C     		ldr	r4, .L331+28
 3162              	.LBE855:
 3163 08e2 0132     		adds	r2, r2, #1
 3164 08e4 1A80     		strh	r2, [r3, #0]	@ movhi
 3165              	.LBB856:
 3166 08e6 FFF7FEFF 		bl	uart_transmit
 3167 08ea 4048     		ldr	r0, .L331+12
 3168 08ec 0E21     		movs	r1, #14
 3169 08ee FFF7FEFF 		bl	uart_transmit
 3170              	.LBE856:
 3171 08f2 0F23     		movs	r3, #15
 3172 08f4 2B70     		strb	r3, [r5, #0]
 3173 08f6 0E33     		adds	r3, r3, #14
 3174 08f8 2370     		strb	r3, [r4, #0]
 3175 08fa 3C48     		ldr	r0, .L331+12
 3176 08fc 0121     		movs	r1, #1
 3177 08fe FFF7FEFF 		bl	uart_transmit
 3178 0902 2B78     		ldrb	r3, [r5, #0]	@ zero_extendqisi2
 3179 0904 2278     		ldrb	r2, [r4, #0]	@ zero_extendqisi2
 3180 0906 2A33     		adds	r3, r3, #42
 3181 0908 DBB2     		uxtb	r3, r3
 3182              	.LBB857:
 3183 090a 404E     		ldr	r6, .L331+44
 3184              	.LBE857:
 3185 090c 2B70     		strb	r3, [r5, #0]
 3186 090e 9B18     		adds	r3, r3, r2
 3187 0910 2370     		strb	r3, [r4, #0]
 3188 0912 3648     		ldr	r0, .L331+12
 3189 0914 2A21     		movs	r1, #42
 3190 0916 FFF7FEFF 		bl	uart_transmit
 3191              	.LBB858:
 3192 091a 3178     		ldrb	r1, [r6, #0]	@ zero_extendqisi2
 3193              	.LVL296:
 3194 091c 2B78     		ldrb	r3, [r5, #0]	@ zero_extendqisi2
 3195 091e 2278     		ldrb	r2, [r4, #0]	@ zero_extendqisi2
 3196 0920 CB18     		adds	r3, r1, r3
 3197 0922 DBB2     		uxtb	r3, r3
 3198 0924 2B70     		strb	r3, [r5, #0]
 3199 0926 9B18     		adds	r3, r3, r2
 3200 0928 2370     		strb	r3, [r4, #0]
 3201 092a 3048     		ldr	r0, .L331+12
 3202 092c FFF7FEFF 		bl	uart_transmit
 3203              	.LVL297:
 3204              	.LBE858:
 3205              	.LBB859:
 3206 0930 7178     		ldrb	r1, [r6, #1]	@ zero_extendqisi2
 3207              	.LVL298:
 3208 0932 2B78     		ldrb	r3, [r5, #0]	@ zero_extendqisi2
 3209 0934 2278     		ldrb	r2, [r4, #0]	@ zero_extendqisi2
 3210 0936 CB18     		adds	r3, r1, r3
 3211 0938 DBB2     		uxtb	r3, r3
 3212 093a 2B70     		strb	r3, [r5, #0]
 3213 093c 9B18     		adds	r3, r3, r2
 3214 093e 2370     		strb	r3, [r4, #0]
 3215 0940 2A48     		ldr	r0, .L331+12
 3216 0942 FFF7FEFF 		bl	uart_transmit
 3217              	.LVL299:
 3218              	.LBE859:
 3219              	.LBB860:
 3220 0946 B178     		ldrb	r1, [r6, #2]	@ zero_extendqisi2
 3221              	.LVL300:
 3222 0948 2B78     		ldrb	r3, [r5, #0]	@ zero_extendqisi2
 3223 094a 2278     		ldrb	r2, [r4, #0]	@ zero_extendqisi2
 3224 094c CB18     		adds	r3, r1, r3
 3225 094e DBB2     		uxtb	r3, r3
 3226 0950 2B70     		strb	r3, [r5, #0]
 3227 0952 9B18     		adds	r3, r3, r2
 3228 0954 2370     		strb	r3, [r4, #0]
 3229 0956 2548     		ldr	r0, .L331+12
 3230 0958 FFF7FEFF 		bl	uart_transmit
 3231              	.LVL301:
 3232              	.LBE860:
 3233              	.LBB861:
 3234 095c F178     		ldrb	r1, [r6, #3]	@ zero_extendqisi2
 3235              	.LVL302:
 3236 095e 2B78     		ldrb	r3, [r5, #0]	@ zero_extendqisi2
 3237 0960 2278     		ldrb	r2, [r4, #0]	@ zero_extendqisi2
 3238 0962 CB18     		adds	r3, r1, r3
 3239 0964 DBB2     		uxtb	r3, r3
 3240 0966 2B70     		strb	r3, [r5, #0]
 3241 0968 9B18     		adds	r3, r3, r2
 3242 096a 2370     		strb	r3, [r4, #0]
 3243 096c 1F48     		ldr	r0, .L331+12
 3244 096e FFF7FEFF 		bl	uart_transmit
 3245              	.LVL303:
 3246              	.LBE861:
 3247              	.LBB862:
 3248 0972 274E     		ldr	r6, .L331+48
 3249              	.L303:
 3250 0974 3178     		ldrb	r1, [r6, #0]	@ zero_extendqisi2
 3251              	.LVL304:
 3252 0976 2B78     		ldrb	r3, [r5, #0]	@ zero_extendqisi2
 3253 0978 2278     		ldrb	r2, [r4, #0]	@ zero_extendqisi2
 3254 097a CB18     		adds	r3, r1, r3
 3255 097c DBB2     		uxtb	r3, r3
 3256 097e 2B70     		strb	r3, [r5, #0]
 3257 0980 9B18     		adds	r3, r3, r2
 3258 0982 2370     		strb	r3, [r4, #0]
 3259 0984 1948     		ldr	r0, .L331+12
 3260 0986 FFF7FEFF 		bl	uart_transmit
 3261              	.LVL305:
 3262              	.LBE862:
 3263              	.LBB863:
 3264 098a 7178     		ldrb	r1, [r6, #1]	@ zero_extendqisi2
 3265              	.LVL306:
 3266 098c 2B78     		ldrb	r3, [r5, #0]	@ zero_extendqisi2
 3267 098e 2278     		ldrb	r2, [r4, #0]	@ zero_extendqisi2
 3268 0990 CB18     		adds	r3, r1, r3
 3269 0992 DBB2     		uxtb	r3, r3
 3270 0994 2B70     		strb	r3, [r5, #0]
 3271 0996 9B18     		adds	r3, r3, r2
 3272 0998 2370     		strb	r3, [r4, #0]
 3273 099a 1448     		ldr	r0, .L331+12
 3274 099c FFF7FEFF 		bl	uart_transmit
 3275              	.LVL307:
 3276              	.LBE863:
 3277              	.LBB864:
 3278 09a0 B178     		ldrb	r1, [r6, #2]	@ zero_extendqisi2
 3279              	.LVL308:
 3280 09a2 2B78     		ldrb	r3, [r5, #0]	@ zero_extendqisi2
 3281 09a4 2278     		ldrb	r2, [r4, #0]	@ zero_extendqisi2
 3282 09a6 CB18     		adds	r3, r1, r3
 3283 09a8 DBB2     		uxtb	r3, r3
 3284 09aa 2B70     		strb	r3, [r5, #0]
 3285 09ac 9B18     		adds	r3, r3, r2
 3286 09ae 2370     		strb	r3, [r4, #0]
 3287 09b0 0E48     		ldr	r0, .L331+12
 3288 09b2 FFF7FEFF 		bl	uart_transmit
 3289              	.LVL309:
 3290              	.LBE864:
 3291              	.LBB865:
 3292 09b6 F178     		ldrb	r1, [r6, #3]	@ zero_extendqisi2
 3293              	.LVL310:
 3294              	.L304:
 3295 09b8 2B78     		ldrb	r3, [r5, #0]	@ zero_extendqisi2
 3296 09ba 2278     		ldrb	r2, [r4, #0]	@ zero_extendqisi2
 3297 09bc CB18     		adds	r3, r1, r3
 3298 09be DBB2     		uxtb	r3, r3
 3299 09c0 2B70     		strb	r3, [r5, #0]
 3300 09c2 9B18     		adds	r3, r3, r2
 3301 09c4 2370     		strb	r3, [r4, #0]
 3302 09c6 0948     		ldr	r0, .L331+12
 3303 09c8 FFF7FEFF 		bl	uart_transmit
 3304              	.LVL311:
 3305              	.LBE865:
 3306 09cc 2978     		ldrb	r1, [r5, #0]	@ zero_extendqisi2
 3307 09ce 0748     		ldr	r0, .L331+12
 3308 09d0 FFF7FEFF 		bl	uart_transmit
 3309 09d4 0548     		ldr	r0, .L331+12
 3310 09d6 2178     		ldrb	r1, [r4, #0]	@ zero_extendqisi2
 3311 09d8 FFF7FEFF 		bl	uart_transmit
 3312 09dc 30E1     		b	.L133
 3313              	.L332:
 3314 09de 00BF     		.align	2
 3315              	.L331:
 3316 09e0 00000000 		.word	downlink_nb_ovrn
 3317 09e4 00000000 		.word	.LANCHOR36
 3318 09e8 00000000 		.word	.LANCHOR24
 3319 09ec 00000000 		.word	uart2
 3320 09f0 00000000 		.word	downlink_nb_bytes
 3321 09f4 00000000 		.word	downlink_nb_msgs
 3322 09f8 00000000 		.word	ck_a
 3323 09fc 00000000 		.word	ck_b
 3324 0a00 00000000 		.word	estimator_phi
 3325 0a04 00000000 		.word	estimator_psi
 3326 0a08 00000000 		.word	estimator_theta
 3327 0a0c 00000000 		.word	estimator_z
 3328 0a10 00000000 		.word	estimator_z_dot
 3329              	.LVL312:
 3330              	.L134:
 3331 0a14 122E     		cmp	r6, #18
 3332 0a16 40F01381 		bne	.L133
 3333              	.LBB866:
 3334 0a1a 7C4B     		ldr	r3, .L333
 3335 0a1c 7C49     		ldr	r1, .L333+4
 3336 0a1e 1A78     		ldrb	r2, [r3, #0]	@ zero_extendqisi2
 3337 0a20 0978     		ldrb	r1, [r1, #0]	@ zero_extendqisi2
 3338 0a22 0132     		adds	r2, r2, #1
 3339 0a24 D2B2     		uxtb	r2, r2
 3340 0a26 9142     		cmp	r1, r2
 3341 0a28 1A70     		strb	r2, [r3, #0]
 3342 0a2a 01D8     		bhi	.L136
 3343 0a2c 0022     		movs	r2, #0
 3344 0a2e 1A70     		strb	r2, [r3, #0]
 3345              	.L136:
 3346              	.LBB867:
 3347 0a30 784B     		ldr	r3, .L333+8
 3348 0a32 764F     		ldr	r7, .L333
 3349 0a34 1868     		ldr	r0, [r3, #0]
 3350 0a36 FFF7FEFF 		bl	__aeabi_i2f
 3351 0a3a 3B78     		ldrb	r3, [r7, #0]	@ zero_extendqisi2
 3352 0a3c 4FF00C08 		mov	r8, #12
 3353 0a40 08FB03F3 		mul	r3, r8, r3
 3354 0a44 744E     		ldr	r6, .L333+12
 3355 0a46 9959     		ldr	r1, [r3, r6]	@ float
 3356 0a48 9C19     		adds	r4, r3, r6
 3357 0a4a FFF7FEFF 		bl	__aeabi_fadd
 3358 0a4e 734B     		ldr	r3, .L333+16
 3359 0a50 0090     		str	r0, [sp, #0]	@ float
 3360              	.LVL313:
 3361 0a52 1868     		ldr	r0, [r3, #0]
 3362 0a54 FFF7FEFF 		bl	__aeabi_i2f
 3363 0a58 6168     		ldr	r1, [r4, #4]	@ float
 3364 0a5a FFF7FEFF 		bl	__aeabi_fadd
 3365 0a5e 1421     		movs	r1, #20
 3366 0a60 0290     		str	r0, [sp, #8]	@ float
 3367              	.LVL314:
 3368 0a62 6F48     		ldr	r0, .L333+20
 3369 0a64 FFF7FEFF 		bl	uart_check_free_space
 3370 0a68 0028     		cmp	r0, #0
 3371 0a6a 00F0E580 		beq	.L137
 3372 0a6e 6D4B     		ldr	r3, .L333+24
 3373              	.LBB868:
 3374 0a70 9921     		movs	r1, #153
 3375              	.LBE868:
 3376 0a72 1A88     		ldrh	r2, [r3, #0]
 3377              	.LBB869:
 3378 0a74 6A48     		ldr	r0, .L333+20
 3379              	.LBE869:
 3380 0a76 1432     		adds	r2, r2, #20
 3381 0a78 1A80     		strh	r2, [r3, #0]	@ movhi
 3382 0a7a 6B4B     		ldr	r3, .L333+28
 3383              	.LBB870:
 3384 0a7c 6B4D     		ldr	r5, .L333+32
 3385              	.LBE870:
 3386 0a7e 1A88     		ldrh	r2, [r3, #0]
 3387              	.LBB871:
 3388 0a80 6B4C     		ldr	r4, .L333+36
 3389              	.LBE871:
 3390 0a82 0132     		adds	r2, r2, #1
 3391 0a84 1A80     		strh	r2, [r3, #0]	@ movhi
 3392              	.LBB872:
 3393 0a86 FFF7FEFF 		bl	uart_transmit
 3394 0a8a 1421     		movs	r1, #20
 3395 0a8c 6448     		ldr	r0, .L333+20
 3396 0a8e FFF7FEFF 		bl	uart_transmit
 3397              	.LBE872:
 3398 0a92 1523     		movs	r3, #21
 3399 0a94 2B70     		strb	r3, [r5, #0]
 3400 0a96 1433     		adds	r3, r3, #20
 3401 0a98 0121     		movs	r1, #1
 3402 0a9a 2370     		strb	r3, [r4, #0]
 3403 0a9c 6048     		ldr	r0, .L333+20
 3404 0a9e FFF7FEFF 		bl	uart_transmit
 3405 0aa2 2B78     		ldrb	r3, [r5, #0]	@ zero_extendqisi2
 3406 0aa4 2278     		ldrb	r2, [r4, #0]	@ zero_extendqisi2
 3407 0aa6 2333     		adds	r3, r3, #35
 3408 0aa8 DBB2     		uxtb	r3, r3
 3409 0aaa 2B70     		strb	r3, [r5, #0]
 3410 0aac 9B18     		adds	r3, r3, r2
 3411 0aae 2321     		movs	r1, #35
 3412 0ab0 2370     		strb	r3, [r4, #0]
 3413 0ab2 5B48     		ldr	r0, .L333+20
 3414 0ab4 FFF7FEFF 		bl	uart_transmit
 3415              	.LBB873:
 3416 0ab8 3978     		ldrb	r1, [r7, #0]	@ zero_extendqisi2
 3417              	.LVL315:
 3418 0aba 2B78     		ldrb	r3, [r5, #0]	@ zero_extendqisi2
 3419 0abc 2278     		ldrb	r2, [r4, #0]	@ zero_extendqisi2
 3420 0abe CB18     		adds	r3, r1, r3
 3421 0ac0 DBB2     		uxtb	r3, r3
 3422 0ac2 2B70     		strb	r3, [r5, #0]
 3423 0ac4 9B18     		adds	r3, r3, r2
 3424 0ac6 2370     		strb	r3, [r4, #0]
 3425 0ac8 5548     		ldr	r0, .L333+20
 3426 0aca FFF7FEFF 		bl	uart_transmit
 3427              	.LVL316:
 3428              	.LBE873:
 3429              	.LBB874:
 3430 0ace 9DF80010 		ldrb	r1, [sp, #0]	@ zero_extendqisi2
 3431              	.LVL317:
 3432 0ad2 2B78     		ldrb	r3, [r5, #0]	@ zero_extendqisi2
 3433 0ad4 2278     		ldrb	r2, [r4, #0]	@ zero_extendqisi2
 3434 0ad6 CB18     		adds	r3, r1, r3
 3435 0ad8 DBB2     		uxtb	r3, r3
 3436 0ada 2B70     		strb	r3, [r5, #0]
 3437 0adc 9B18     		adds	r3, r3, r2
 3438 0ade EA46     		mov	sl, sp
 3439 0ae0 2370     		strb	r3, [r4, #0]
 3440 0ae2 4F48     		ldr	r0, .L333+20
 3441 0ae4 FFF7FEFF 		bl	uart_transmit
 3442              	.LVL318:
 3443              	.LBE874:
 3444              	.LBB875:
 3445 0ae8 9AF80110 		ldrb	r1, [sl, #1]	@ zero_extendqisi2
 3446              	.LVL319:
 3447 0aec 2B78     		ldrb	r3, [r5, #0]	@ zero_extendqisi2
 3448 0aee 2278     		ldrb	r2, [r4, #0]	@ zero_extendqisi2
 3449 0af0 CB18     		adds	r3, r1, r3
 3450 0af2 DBB2     		uxtb	r3, r3
 3451 0af4 2B70     		strb	r3, [r5, #0]
 3452 0af6 9B18     		adds	r3, r3, r2
 3453 0af8 2370     		strb	r3, [r4, #0]
 3454 0afa 4948     		ldr	r0, .L333+20
 3455 0afc FFF7FEFF 		bl	uart_transmit
 3456              	.LVL320:
 3457              	.LBE875:
 3458              	.LBB876:
 3459 0b00 9AF80210 		ldrb	r1, [sl, #2]	@ zero_extendqisi2
 3460              	.LVL321:
 3461 0b04 2B78     		ldrb	r3, [r5, #0]	@ zero_extendqisi2
 3462 0b06 2278     		ldrb	r2, [r4, #0]	@ zero_extendqisi2
 3463 0b08 CB18     		adds	r3, r1, r3
 3464 0b0a DBB2     		uxtb	r3, r3
 3465 0b0c 2B70     		strb	r3, [r5, #0]
 3466 0b0e 9B18     		adds	r3, r3, r2
 3467 0b10 2370     		strb	r3, [r4, #0]
 3468 0b12 4348     		ldr	r0, .L333+20
 3469 0b14 FFF7FEFF 		bl	uart_transmit
 3470              	.LVL322:
 3471              	.LBE876:
 3472              	.LBB877:
 3473 0b18 9AF80310 		ldrb	r1, [sl, #3]	@ zero_extendqisi2
 3474              	.LVL323:
 3475 0b1c 2B78     		ldrb	r3, [r5, #0]	@ zero_extendqisi2
 3476 0b1e 2278     		ldrb	r2, [r4, #0]	@ zero_extendqisi2
 3477 0b20 CB18     		adds	r3, r1, r3
 3478 0b22 DBB2     		uxtb	r3, r3
 3479 0b24 2B70     		strb	r3, [r5, #0]
 3480 0b26 9B18     		adds	r3, r3, r2
 3481 0b28 2370     		strb	r3, [r4, #0]
 3482 0b2a 3D48     		ldr	r0, .L333+20
 3483 0b2c FFF7FEFF 		bl	uart_transmit
 3484              	.LVL324:
 3485              	.LBE877:
 3486              	.LBB878:
 3487 0b30 9DF80810 		ldrb	r1, [sp, #8]	@ zero_extendqisi2
 3488              	.LVL325:
 3489 0b34 2B78     		ldrb	r3, [r5, #0]	@ zero_extendqisi2
 3490 0b36 2278     		ldrb	r2, [r4, #0]	@ zero_extendqisi2
 3491 0b38 CB18     		adds	r3, r1, r3
 3492 0b3a DBB2     		uxtb	r3, r3
 3493 0b3c 2B70     		strb	r3, [r5, #0]
 3494 0b3e 9B18     		adds	r3, r3, r2
 3495 0b40 0DF1080A 		add	sl, sp, #8
 3496 0b44 2370     		strb	r3, [r4, #0]
 3497 0b46 3648     		ldr	r0, .L333+20
 3498 0b48 FFF7FEFF 		bl	uart_transmit
 3499              	.LVL326:
 3500              	.LBE878:
 3501              	.LBB879:
 3502 0b4c 9AF80110 		ldrb	r1, [sl, #1]	@ zero_extendqisi2
 3503              	.LVL327:
 3504 0b50 2B78     		ldrb	r3, [r5, #0]	@ zero_extendqisi2
 3505 0b52 2278     		ldrb	r2, [r4, #0]	@ zero_extendqisi2
 3506 0b54 CB18     		adds	r3, r1, r3
 3507 0b56 DBB2     		uxtb	r3, r3
 3508 0b58 2B70     		strb	r3, [r5, #0]
 3509 0b5a 9B18     		adds	r3, r3, r2
 3510 0b5c 2370     		strb	r3, [r4, #0]
 3511 0b5e 3048     		ldr	r0, .L333+20
 3512 0b60 FFF7FEFF 		bl	uart_transmit
 3513              	.LVL328:
 3514              	.LBE879:
 3515              	.LBB880:
 3516 0b64 9AF80210 		ldrb	r1, [sl, #2]	@ zero_extendqisi2
 3517              	.LVL329:
 3518 0b68 2B78     		ldrb	r3, [r5, #0]	@ zero_extendqisi2
 3519 0b6a 2278     		ldrb	r2, [r4, #0]	@ zero_extendqisi2
 3520 0b6c CB18     		adds	r3, r1, r3
 3521 0b6e DBB2     		uxtb	r3, r3
 3522 0b70 2B70     		strb	r3, [r5, #0]
 3523 0b72 9B18     		adds	r3, r3, r2
 3524 0b74 2370     		strb	r3, [r4, #0]
 3525 0b76 2A48     		ldr	r0, .L333+20
 3526 0b78 FFF7FEFF 		bl	uart_transmit
 3527              	.LVL330:
 3528              	.LBE880:
 3529              	.LBB881:
 3530 0b7c 9AF80310 		ldrb	r1, [sl, #3]	@ zero_extendqisi2
 3531              	.LVL331:
 3532 0b80 2B78     		ldrb	r3, [r5, #0]	@ zero_extendqisi2
 3533 0b82 2278     		ldrb	r2, [r4, #0]	@ zero_extendqisi2
 3534 0b84 CB18     		adds	r3, r1, r3
 3535 0b86 DBB2     		uxtb	r3, r3
 3536 0b88 2B70     		strb	r3, [r5, #0]
 3537 0b8a 9B18     		adds	r3, r3, r2
 3538 0b8c 2370     		strb	r3, [r4, #0]
 3539 0b8e 2448     		ldr	r0, .L333+20
 3540 0b90 FFF7FEFF 		bl	uart_transmit
 3541              	.LVL332:
 3542              	.LBE881:
 3543              	.LBB882:
 3544 0b94 3B78     		ldrb	r3, [r7, #0]	@ zero_extendqisi2
 3545 0b96 2278     		ldrb	r2, [r4, #0]	@ zero_extendqisi2
 3546 0b98 08FB0363 		mla	r3, r8, r3, r6
 3547 0b9c 197A     		ldrb	r1, [r3, #8]	@ zero_extendqisi2
 3548              	.LVL333:
 3549 0b9e 2B78     		ldrb	r3, [r5, #0]	@ zero_extendqisi2
 3550 0ba0 1F48     		ldr	r0, .L333+20
 3551 0ba2 CB18     		adds	r3, r1, r3
 3552 0ba4 DBB2     		uxtb	r3, r3
 3553 0ba6 2B70     		strb	r3, [r5, #0]
 3554 0ba8 9B18     		adds	r3, r3, r2
 3555 0baa 2370     		strb	r3, [r4, #0]
 3556 0bac FFF7FEFF 		bl	uart_transmit
 3557              	.LVL334:
 3558              	.LBE882:
 3559              	.LBB883:
 3560 0bb0 3B78     		ldrb	r3, [r7, #0]	@ zero_extendqisi2
 3561 0bb2 2278     		ldrb	r2, [r4, #0]	@ zero_extendqisi2
 3562 0bb4 08FB0363 		mla	r3, r8, r3, r6
 3563 0bb8 597A     		ldrb	r1, [r3, #9]	@ zero_extendqisi2
 3564              	.LVL335:
 3565 0bba 2B78     		ldrb	r3, [r5, #0]	@ zero_extendqisi2
 3566 0bbc 1848     		ldr	r0, .L333+20
 3567 0bbe CB18     		adds	r3, r1, r3
 3568 0bc0 DBB2     		uxtb	r3, r3
 3569 0bc2 2B70     		strb	r3, [r5, #0]
 3570 0bc4 9B18     		adds	r3, r3, r2
 3571 0bc6 2370     		strb	r3, [r4, #0]
 3572 0bc8 FFF7FEFF 		bl	uart_transmit
 3573              	.LVL336:
 3574              	.LBE883:
 3575              	.LBB884:
 3576 0bcc 3B78     		ldrb	r3, [r7, #0]	@ zero_extendqisi2
 3577 0bce 2278     		ldrb	r2, [r4, #0]	@ zero_extendqisi2
 3578 0bd0 08FB0363 		mla	r3, r8, r3, r6
 3579 0bd4 997A     		ldrb	r1, [r3, #10]	@ zero_extendqisi2
 3580              	.LVL337:
 3581 0bd6 2B78     		ldrb	r3, [r5, #0]	@ zero_extendqisi2
 3582 0bd8 1148     		ldr	r0, .L333+20
 3583 0bda CB18     		adds	r3, r1, r3
 3584 0bdc DBB2     		uxtb	r3, r3
 3585 0bde 2B70     		strb	r3, [r5, #0]
 3586 0be0 9B18     		adds	r3, r3, r2
 3587 0be2 2370     		strb	r3, [r4, #0]
 3588 0be4 FFF7FEFF 		bl	uart_transmit
 3589              	.LVL338:
 3590              	.LBE884:
 3591              	.LBB885:
 3592 0be8 3B78     		ldrb	r3, [r7, #0]	@ zero_extendqisi2
 3593 0bea 2278     		ldrb	r2, [r4, #0]	@ zero_extendqisi2
 3594 0bec 08FB0366 		mla	r6, r8, r3, r6
 3595 0bf0 2B78     		ldrb	r3, [r5, #0]	@ zero_extendqisi2
 3596 0bf2 F17A     		ldrb	r1, [r6, #11]	@ zero_extendqisi2
 3597              	.LVL339:
 3598 0bf4 0A48     		ldr	r0, .L333+20
 3599 0bf6 CB18     		adds	r3, r1, r3
 3600 0bf8 DBB2     		uxtb	r3, r3
 3601 0bfa 2B70     		strb	r3, [r5, #0]
 3602 0bfc 9B18     		adds	r3, r3, r2
 3603 0bfe 2370     		strb	r3, [r4, #0]
 3604 0c00 FFF7FEFF 		bl	uart_transmit
 3605              	.LVL340:
 3606              	.LBE885:
 3607              	.LBB886:
 3608 0c04 0B4B     		ldr	r3, .L333+40
 3609 0c06 1978     		ldrb	r1, [r3, #0]	@ zero_extendqisi2
 3610              	.LVL341:
 3611 0c08 D6E6     		b	.L304
 3612              	.L334:
 3613 0c0a 00BF     		.align	2
 3614              	.L333:
 3615 0c0c 00000000 		.word	.LANCHOR37
 3616 0c10 00000000 		.word	nb_waypoint
 3617 0c14 00000000 		.word	nav_utm_east0
 3618 0c18 00000000 		.word	waypoints
 3619 0c1c 00000000 		.word	nav_utm_north0
 3620 0c20 00000000 		.word	uart2
 3621 0c24 00000000 		.word	downlink_nb_bytes
 3622 0c28 00000000 		.word	downlink_nb_msgs
 3623 0c2c 00000000 		.word	ck_a
 3624 0c30 00000000 		.word	ck_b
 3625 0c34 00000000 		.word	nav_utm_zone0
 3626              	.LVL342:
 3627              	.L137:
 3628              	.LBE886:
 3629 0c38 9B4B     		ldr	r3, .L335+8
 3630 0c3a 1A78     		ldrb	r2, [r3, #0]	@ zero_extendqisi2
 3631 0c3c 0132     		adds	r2, r2, #1
 3632 0c3e 1A70     		strb	r2, [r3, #0]
 3633              	.L133:
 3634              	.LBE867:
 3635              	.LBE866:
 3636 0c40 9A4B     		ldr	r3, .L335+12
 3637 0c42 1B78     		ldrb	r3, [r3, #0]	@ zero_extendqisi2
 3638 0c44 182B     		cmp	r3, #24
 3639 0c46 00F05181 		beq	.L138
 3640 0c4a 1E2B     		cmp	r3, #30
 3641 0c4c 40F04E81 		bne	.L138
 3642              	.LBB887:
 3643 0c50 974B     		ldr	r3, .L335+16
 3644 0c52 9848     		ldr	r0, .L335+20
 3645 0c54 1A21     		movs	r1, #26
 3646 0c56 1C68     		ldr	r4, [r3, #0]	@ float
 3647 0c58 FFF7FEFF 		bl	uart_check_free_space
 3648 0c5c 0028     		cmp	r0, #0
 3649 0c5e 00F04181 		beq	.L139
 3650 0c62 24F00040 		bic	r0, r4, #-2147483648
 3651 0c66 FFF7FEFF 		bl	__aeabi_f2d
 3652 0c6a 8DA3     		adr	r3, .L335
 3653 0c6c D3E90023 		ldrd	r2, [r3]
 3654 0c70 FFF7FEFF 		bl	__aeabi_ddiv
 3655 0c74 FFF7FEFF 		bl	__aeabi_d2uiz
 3656 0c78 8F4B     		ldr	r3, .L335+24
 3657 0c7a C7B2     		uxtb	r7, r0
 3658 0c7c 1A88     		ldrh	r2, [r3, #0]
 3659              	.LBB888:
 3660 0c7e 9921     		movs	r1, #153
 3661              	.LBE888:
 3662 0c80 1A32     		adds	r2, r2, #26
 3663 0c82 1A80     		strh	r2, [r3, #0]	@ movhi
 3664 0c84 8D4B     		ldr	r3, .L335+28
 3665              	.LBB889:
 3666 0c86 8B48     		ldr	r0, .L335+20
 3667              	.LBE889:
 3668 0c88 1A88     		ldrh	r2, [r3, #0]
 3669              	.LBB890:
 3670 0c8a 8D4D     		ldr	r5, .L335+32
 3671              	.LBE890:
 3672 0c8c 0132     		adds	r2, r2, #1
 3673 0c8e 1A80     		strh	r2, [r3, #0]	@ movhi
 3674              	.LBB891:
 3675 0c90 FFF7FEFF 		bl	uart_transmit
 3676 0c94 1A21     		movs	r1, #26
 3677 0c96 8748     		ldr	r0, .L335+20
 3678 0c98 8A4C     		ldr	r4, .L335+36
 3679 0c9a FFF7FEFF 		bl	uart_transmit
 3680              	.LBE891:
 3681 0c9e 1B23     		movs	r3, #27
 3682 0ca0 2B70     		strb	r3, [r5, #0]
 3683 0ca2 1A33     		adds	r3, r3, #26
 3684 0ca4 2370     		strb	r3, [r4, #0]
 3685 0ca6 0121     		movs	r1, #1
 3686 0ca8 8248     		ldr	r0, .L335+20
 3687 0caa FFF7FEFF 		bl	uart_transmit
 3688 0cae 2B78     		ldrb	r3, [r5, #0]	@ zero_extendqisi2
 3689 0cb0 2278     		ldrb	r2, [r4, #0]	@ zero_extendqisi2
 3690 0cb2 0A33     		adds	r3, r3, #10
 3691 0cb4 DBB2     		uxtb	r3, r3
 3692 0cb6 2B70     		strb	r3, [r5, #0]
 3693 0cb8 9B18     		adds	r3, r3, r2
 3694 0cba 2370     		strb	r3, [r4, #0]
 3695 0cbc 0A21     		movs	r1, #10
 3696 0cbe 7D48     		ldr	r0, .L335+20
 3697 0cc0 FFF7FEFF 		bl	uart_transmit
 3698              	.LBB892:
 3699 0cc4 804B     		ldr	r3, .L335+40
 3700 0cc6 2278     		ldrb	r2, [r4, #0]	@ zero_extendqisi2
 3701 0cc8 1978     		ldrb	r1, [r3, #0]	@ zero_extendqisi2
 3702              	.LVL343:
 3703 0cca 2B78     		ldrb	r3, [r5, #0]	@ zero_extendqisi2
 3704 0ccc 7948     		ldr	r0, .L335+20
 3705 0cce CB18     		adds	r3, r1, r3
 3706 0cd0 DBB2     		uxtb	r3, r3
 3707 0cd2 2B70     		strb	r3, [r5, #0]
 3708 0cd4 9B18     		adds	r3, r3, r2
 3709 0cd6 2370     		strb	r3, [r4, #0]
 3710 0cd8 FFF7FEFF 		bl	uart_transmit
 3711              	.LVL344:
 3712              	.LBE892:
 3713              	.LBB893:
 3714 0cdc 7B4B     		ldr	r3, .L335+44
 3715 0cde 2278     		ldrb	r2, [r4, #0]	@ zero_extendqisi2
 3716 0ce0 1978     		ldrb	r1, [r3, #0]	@ zero_extendqisi2
 3717              	.LVL345:
 3718 0ce2 2B78     		ldrb	r3, [r5, #0]	@ zero_extendqisi2
 3719              	.LBE893:
 3720              	.LBB894:
 3721 0ce4 7A4E     		ldr	r6, .L335+48
 3722              	.LBE894:
 3723              	.LBB895:
 3724 0ce6 CB18     		adds	r3, r1, r3
 3725 0ce8 DBB2     		uxtb	r3, r3
 3726 0cea 2B70     		strb	r3, [r5, #0]
 3727 0cec 9B18     		adds	r3, r3, r2
 3728 0cee 2370     		strb	r3, [r4, #0]
 3729 0cf0 7048     		ldr	r0, .L335+20
 3730 0cf2 FFF7FEFF 		bl	uart_transmit
 3731              	.LVL346:
 3732              	.LBE895:
 3733              	.LBB896:
 3734 0cf6 3178     		ldrb	r1, [r6, #0]	@ zero_extendqisi2
 3735              	.LVL347:
 3736 0cf8 2B78     		ldrb	r3, [r5, #0]	@ zero_extendqisi2
 3737 0cfa 2278     		ldrb	r2, [r4, #0]	@ zero_extendqisi2
 3738 0cfc CB18     		adds	r3, r1, r3
 3739 0cfe DBB2     		uxtb	r3, r3
 3740 0d00 2B70     		strb	r3, [r5, #0]
 3741 0d02 9B18     		adds	r3, r3, r2
 3742 0d04 2370     		strb	r3, [r4, #0]
 3743 0d06 6B48     		ldr	r0, .L335+20
 3744 0d08 FFF7FEFF 		bl	uart_transmit
 3745              	.LVL348:
 3746              	.LBE896:
 3747              	.LBB897:
 3748 0d0c 7178     		ldrb	r1, [r6, #1]	@ zero_extendqisi2
 3749              	.LVL349:
 3750 0d0e 2B78     		ldrb	r3, [r5, #0]	@ zero_extendqisi2
 3751 0d10 2278     		ldrb	r2, [r4, #0]	@ zero_extendqisi2
 3752 0d12 CB18     		adds	r3, r1, r3
 3753 0d14 DBB2     		uxtb	r3, r3
 3754 0d16 2B70     		strb	r3, [r5, #0]
 3755 0d18 9B18     		adds	r3, r3, r2
 3756 0d1a 2370     		strb	r3, [r4, #0]
 3757 0d1c 6548     		ldr	r0, .L335+20
 3758 0d1e FFF7FEFF 		bl	uart_transmit
 3759              	.LVL350:
 3760              	.LBE897:
 3761              	.LBB898:
 3762 0d22 B178     		ldrb	r1, [r6, #2]	@ zero_extendqisi2
 3763              	.LVL351:
 3764 0d24 2B78     		ldrb	r3, [r5, #0]	@ zero_extendqisi2
 3765 0d26 2278     		ldrb	r2, [r4, #0]	@ zero_extendqisi2
 3766 0d28 CB18     		adds	r3, r1, r3
 3767 0d2a DBB2     		uxtb	r3, r3
 3768 0d2c 2B70     		strb	r3, [r5, #0]
 3769 0d2e 9B18     		adds	r3, r3, r2
 3770 0d30 2370     		strb	r3, [r4, #0]
 3771 0d32 6048     		ldr	r0, .L335+20
 3772 0d34 FFF7FEFF 		bl	uart_transmit
 3773              	.LVL352:
 3774              	.LBE898:
 3775              	.LBB899:
 3776 0d38 F178     		ldrb	r1, [r6, #3]	@ zero_extendqisi2
 3777              	.LVL353:
 3778 0d3a 2B78     		ldrb	r3, [r5, #0]	@ zero_extendqisi2
 3779 0d3c 2278     		ldrb	r2, [r4, #0]	@ zero_extendqisi2
 3780 0d3e CB18     		adds	r3, r1, r3
 3781 0d40 DBB2     		uxtb	r3, r3
 3782              	.LBE899:
 3783              	.LBB900:
 3784 0d42 644E     		ldr	r6, .L335+52
 3785              	.LBE900:
 3786              	.LBB901:
 3787 0d44 2B70     		strb	r3, [r5, #0]
 3788 0d46 9B18     		adds	r3, r3, r2
 3789 0d48 2370     		strb	r3, [r4, #0]
 3790 0d4a 5A48     		ldr	r0, .L335+20
 3791 0d4c FFF7FEFF 		bl	uart_transmit
 3792              	.LVL354:
 3793              	.LBE901:
 3794              	.LBB902:
 3795 0d50 3178     		ldrb	r1, [r6, #0]	@ zero_extendqisi2
 3796              	.LVL355:
 3797 0d52 2B78     		ldrb	r3, [r5, #0]	@ zero_extendqisi2
 3798 0d54 2278     		ldrb	r2, [r4, #0]	@ zero_extendqisi2
 3799 0d56 CB18     		adds	r3, r1, r3
 3800 0d58 DBB2     		uxtb	r3, r3
 3801 0d5a 2B70     		strb	r3, [r5, #0]
 3802 0d5c 9B18     		adds	r3, r3, r2
 3803 0d5e 2370     		strb	r3, [r4, #0]
 3804 0d60 5448     		ldr	r0, .L335+20
 3805 0d62 FFF7FEFF 		bl	uart_transmit
 3806              	.LVL356:
 3807              	.LBE902:
 3808              	.LBB903:
 3809 0d66 7178     		ldrb	r1, [r6, #1]	@ zero_extendqisi2
 3810              	.LVL357:
 3811 0d68 2B78     		ldrb	r3, [r5, #0]	@ zero_extendqisi2
 3812 0d6a 2278     		ldrb	r2, [r4, #0]	@ zero_extendqisi2
 3813 0d6c CB18     		adds	r3, r1, r3
 3814 0d6e DBB2     		uxtb	r3, r3
 3815 0d70 2B70     		strb	r3, [r5, #0]
 3816 0d72 9B18     		adds	r3, r3, r2
 3817 0d74 2370     		strb	r3, [r4, #0]
 3818 0d76 4F48     		ldr	r0, .L335+20
 3819 0d78 FFF7FEFF 		bl	uart_transmit
 3820              	.LVL358:
 3821              	.LBE903:
 3822              	.LBB904:
 3823 0d7c B178     		ldrb	r1, [r6, #2]	@ zero_extendqisi2
 3824              	.LVL359:
 3825 0d7e 2B78     		ldrb	r3, [r5, #0]	@ zero_extendqisi2
 3826 0d80 2278     		ldrb	r2, [r4, #0]	@ zero_extendqisi2
 3827 0d82 CB18     		adds	r3, r1, r3
 3828 0d84 DBB2     		uxtb	r3, r3
 3829 0d86 2B70     		strb	r3, [r5, #0]
 3830 0d88 9B18     		adds	r3, r3, r2
 3831 0d8a 2370     		strb	r3, [r4, #0]
 3832 0d8c 4948     		ldr	r0, .L335+20
 3833 0d8e FFF7FEFF 		bl	uart_transmit
 3834              	.LVL360:
 3835              	.LBE904:
 3836              	.LBB905:
 3837 0d92 F178     		ldrb	r1, [r6, #3]	@ zero_extendqisi2
 3838              	.LVL361:
 3839 0d94 2B78     		ldrb	r3, [r5, #0]	@ zero_extendqisi2
 3840 0d96 2278     		ldrb	r2, [r4, #0]	@ zero_extendqisi2
 3841 0d98 CB18     		adds	r3, r1, r3
 3842 0d9a DBB2     		uxtb	r3, r3
 3843              	.LBE905:
 3844              	.LBB906:
 3845 0d9c 4E4E     		ldr	r6, .L335+56
 3846              	.LBE906:
 3847              	.LBB907:
 3848 0d9e 2B70     		strb	r3, [r5, #0]
 3849 0da0 9B18     		adds	r3, r3, r2
 3850 0da2 2370     		strb	r3, [r4, #0]
 3851 0da4 4348     		ldr	r0, .L335+20
 3852 0da6 FFF7FEFF 		bl	uart_transmit
 3853              	.LVL362:
 3854              	.LBE907:
 3855              	.LBB908:
 3856 0daa 3178     		ldrb	r1, [r6, #0]	@ zero_extendqisi2
 3857              	.LVL363:
 3858 0dac 2B78     		ldrb	r3, [r5, #0]	@ zero_extendqisi2
 3859 0dae 2278     		ldrb	r2, [r4, #0]	@ zero_extendqisi2
 3860 0db0 CB18     		adds	r3, r1, r3
 3861 0db2 DBB2     		uxtb	r3, r3
 3862 0db4 2B70     		strb	r3, [r5, #0]
 3863 0db6 9B18     		adds	r3, r3, r2
 3864 0db8 2370     		strb	r3, [r4, #0]
 3865 0dba 3E48     		ldr	r0, .L335+20
 3866 0dbc FFF7FEFF 		bl	uart_transmit
 3867              	.LVL364:
 3868              	.LBE908:
 3869              	.LBB909:
 3870 0dc0 7178     		ldrb	r1, [r6, #1]	@ zero_extendqisi2
 3871              	.LVL365:
 3872 0dc2 2B78     		ldrb	r3, [r5, #0]	@ zero_extendqisi2
 3873 0dc4 2278     		ldrb	r2, [r4, #0]	@ zero_extendqisi2
 3874 0dc6 CB18     		adds	r3, r1, r3
 3875 0dc8 DBB2     		uxtb	r3, r3
 3876 0dca 2B70     		strb	r3, [r5, #0]
 3877 0dcc 9B18     		adds	r3, r3, r2
 3878 0dce 2370     		strb	r3, [r4, #0]
 3879 0dd0 3848     		ldr	r0, .L335+20
 3880 0dd2 FFF7FEFF 		bl	uart_transmit
 3881              	.LVL366:
 3882              	.LBE909:
 3883              	.LBB910:
 3884 0dd6 B178     		ldrb	r1, [r6, #2]	@ zero_extendqisi2
 3885              	.LVL367:
 3886 0dd8 2B78     		ldrb	r3, [r5, #0]	@ zero_extendqisi2
 3887 0dda 2278     		ldrb	r2, [r4, #0]	@ zero_extendqisi2
 3888 0ddc CB18     		adds	r3, r1, r3
 3889 0dde DBB2     		uxtb	r3, r3
 3890 0de0 2B70     		strb	r3, [r5, #0]
 3891 0de2 9B18     		adds	r3, r3, r2
 3892 0de4 2370     		strb	r3, [r4, #0]
 3893 0de6 3348     		ldr	r0, .L335+20
 3894 0de8 FFF7FEFF 		bl	uart_transmit
 3895              	.LVL368:
 3896              	.LBE910:
 3897              	.LBB911:
 3898 0dec F178     		ldrb	r1, [r6, #3]	@ zero_extendqisi2
 3899              	.LVL369:
 3900 0dee 2B78     		ldrb	r3, [r5, #0]	@ zero_extendqisi2
 3901 0df0 2278     		ldrb	r2, [r4, #0]	@ zero_extendqisi2
 3902 0df2 CB18     		adds	r3, r1, r3
 3903 0df4 DBB2     		uxtb	r3, r3
 3904              	.LBE911:
 3905              	.LBB912:
 3906 0df6 394E     		ldr	r6, .L335+60
 3907              	.LBE912:
 3908              	.LBB913:
 3909 0df8 2B70     		strb	r3, [r5, #0]
 3910 0dfa 9B18     		adds	r3, r3, r2
 3911 0dfc 2370     		strb	r3, [r4, #0]
 3912 0dfe 2D48     		ldr	r0, .L335+20
 3913 0e00 FFF7FEFF 		bl	uart_transmit
 3914              	.LVL370:
 3915              	.LBE913:
 3916              	.LBB914:
 3917 0e04 3178     		ldrb	r1, [r6, #0]	@ zero_extendqisi2
 3918              	.LVL371:
 3919 0e06 2B78     		ldrb	r3, [r5, #0]	@ zero_extendqisi2
 3920 0e08 2278     		ldrb	r2, [r4, #0]	@ zero_extendqisi2
 3921 0e0a CB18     		adds	r3, r1, r3
 3922 0e0c DBB2     		uxtb	r3, r3
 3923 0e0e 2B70     		strb	r3, [r5, #0]
 3924 0e10 9B18     		adds	r3, r3, r2
 3925 0e12 2370     		strb	r3, [r4, #0]
 3926 0e14 2748     		ldr	r0, .L335+20
 3927 0e16 FFF7FEFF 		bl	uart_transmit
 3928              	.LVL372:
 3929              	.LBE914:
 3930              	.LBB915:
 3931 0e1a 7178     		ldrb	r1, [r6, #1]	@ zero_extendqisi2
 3932              	.LVL373:
 3933 0e1c 2B78     		ldrb	r3, [r5, #0]	@ zero_extendqisi2
 3934 0e1e 2278     		ldrb	r2, [r4, #0]	@ zero_extendqisi2
 3935 0e20 CB18     		adds	r3, r1, r3
 3936 0e22 DBB2     		uxtb	r3, r3
 3937 0e24 2B70     		strb	r3, [r5, #0]
 3938 0e26 9B18     		adds	r3, r3, r2
 3939 0e28 2370     		strb	r3, [r4, #0]
 3940 0e2a 2248     		ldr	r0, .L335+20
 3941 0e2c FFF7FEFF 		bl	uart_transmit
 3942              	.LVL374:
 3943              	.LBE915:
 3944              	.LBB916:
 3945 0e30 B178     		ldrb	r1, [r6, #2]	@ zero_extendqisi2
 3946              	.LVL375:
 3947 0e32 2B78     		ldrb	r3, [r5, #0]	@ zero_extendqisi2
 3948 0e34 2278     		ldrb	r2, [r4, #0]	@ zero_extendqisi2
 3949 0e36 CB18     		adds	r3, r1, r3
 3950 0e38 DBB2     		uxtb	r3, r3
 3951 0e3a 2B70     		strb	r3, [r5, #0]
 3952 0e3c 9B18     		adds	r3, r3, r2
 3953 0e3e 2370     		strb	r3, [r4, #0]
 3954 0e40 1C48     		ldr	r0, .L335+20
 3955 0e42 FFF7FEFF 		bl	uart_transmit
 3956              	.LVL376:
 3957              	.LBE916:
 3958              	.LBB917:
 3959 0e46 F178     		ldrb	r1, [r6, #3]	@ zero_extendqisi2
 3960              	.LVL377:
 3961 0e48 2B78     		ldrb	r3, [r5, #0]	@ zero_extendqisi2
 3962 0e4a 2278     		ldrb	r2, [r4, #0]	@ zero_extendqisi2
 3963 0e4c CB18     		adds	r3, r1, r3
 3964 0e4e DBB2     		uxtb	r3, r3
 3965 0e50 2B70     		strb	r3, [r5, #0]
 3966 0e52 9B18     		adds	r3, r3, r2
 3967 0e54 2370     		strb	r3, [r4, #0]
 3968 0e56 1748     		ldr	r0, .L335+20
 3969 0e58 FFF7FEFF 		bl	uart_transmit
 3970              	.LVL378:
 3971              	.LBE917:
 3972              	.LBB918:
 3973 0e5c 2B78     		ldrb	r3, [r5, #0]	@ zero_extendqisi2
 3974 0e5e 2278     		ldrb	r2, [r4, #0]	@ zero_extendqisi2
 3975 0e60 FB18     		adds	r3, r7, r3
 3976 0e62 DBB2     		uxtb	r3, r3
 3977 0e64 2B70     		strb	r3, [r5, #0]
 3978 0e66 9B18     		adds	r3, r3, r2
 3979 0e68 2370     		strb	r3, [r4, #0]
 3980 0e6a 3946     		mov	r1, r7
 3981 0e6c 1148     		ldr	r0, .L335+20
 3982 0e6e FFF7FEFF 		bl	uart_transmit
 3983              	.LBE918:
 3984              	.LBB919:
 3985 0e72 1B4B     		ldr	r3, .L335+64
 3986 0e74 2278     		ldrb	r2, [r4, #0]	@ zero_extendqisi2
 3987 0e76 1978     		ldrb	r1, [r3, #0]	@ zero_extendqisi2
 3988              	.LVL379:
 3989 0e78 2B78     		ldrb	r3, [r5, #0]	@ zero_extendqisi2
 3990 0e7a 0E48     		ldr	r0, .L335+20
 3991 0e7c CB18     		adds	r3, r1, r3
 3992 0e7e DBB2     		uxtb	r3, r3
 3993 0e80 2B70     		strb	r3, [r5, #0]
 3994 0e82 9B18     		adds	r3, r3, r2
 3995 0e84 2370     		strb	r3, [r4, #0]
 3996 0e86 FFF7FEFF 		bl	uart_transmit
 3997              	.LVL380:
 3998              	.LBE919:
 3999 0e8a 2978     		ldrb	r1, [r5, #0]	@ zero_extendqisi2
 4000 0e8c 0948     		ldr	r0, .L335+20
 4001 0e8e FFF7FEFF 		bl	uart_transmit
 4002 0e92 0848     		ldr	r0, .L335+20
 4003 0e94 2178     		ldrb	r1, [r4, #0]	@ zero_extendqisi2
 4004 0e96 FFF7FEFF 		bl	uart_transmit
 4005 0e9a 27E0     		b	.L138
 4006              	.L336:
 4007 0e9c AFF30080 		.align	3
 4008              	.L335:
 4009 0ea0 182D4454 		.word	1413754136
 4010 0ea4 FB211940 		.word	1075388923
 4011 0ea8 00000000 		.word	downlink_nb_ovrn
 4012 0eac 00000000 		.word	.LANCHOR25
 4013 0eb0 00000000 		.word	nav_circle_radians
 4014 0eb4 00000000 		.word	uart2
 4015 0eb8 00000000 		.word	downlink_nb_bytes
 4016 0ebc 00000000 		.word	downlink_nb_msgs
 4017 0ec0 00000000 		.word	ck_a
 4018 0ec4 00000000 		.word	ck_b
 4019 0ec8 00000000 		.word	nav_block
 4020 0ecc 00000000 		.word	nav_stage
 4021 0ed0 00000000 		.word	estimator_x
 4022 0ed4 00000000 		.word	estimator_y
 4023 0ed8 00000000 		.word	dist2_to_wp
 4024 0edc 00000000 		.word	dist2_to_home
 4025 0ee0 00000000 		.word	nav_oval_count
 4026              	.L139:
 4027 0ee4 4A4B     		ldr	r3, .L337
 4028 0ee6 1A78     		ldrb	r2, [r3, #0]	@ zero_extendqisi2
 4029 0ee8 0132     		adds	r2, r2, #1
 4030 0eea 1A70     		strb	r2, [r3, #0]
 4031              	.L138:
 4032              	.LBE887:
 4033 0eec 494B     		ldr	r3, .L337+4
 4034 0eee 1B78     		ldrb	r3, [r3, #0]	@ zero_extendqisi2
 4035 0ef0 302B     		cmp	r3, #48
 4036 0ef2 40F0A380 		bne	.L140
 4037 0ef6 484B     		ldr	r3, .L337+8
 4038 0ef8 1B78     		ldrb	r3, [r3, #0]	@ zero_extendqisi2
 4039 0efa 002B     		cmp	r3, #0
 4040 0efc 00F02D82 		beq	.L141
 4041 0f00 4648     		ldr	r0, .L337+12
 4042 0f02 1221     		movs	r1, #18
 4043 0f04 FFF7FEFF 		bl	uart_check_free_space
 4044 0f08 0028     		cmp	r0, #0
 4045 0f0a 00F02282 		beq	.L143
 4046 0f0e 444B     		ldr	r3, .L337+16
 4047              	.LBB920:
 4048 0f10 9921     		movs	r1, #153
 4049              	.LBE920:
 4050 0f12 1A88     		ldrh	r2, [r3, #0]
 4051              	.LBB921:
 4052 0f14 4148     		ldr	r0, .L337+12
 4053              	.LBE921:
 4054 0f16 1232     		adds	r2, r2, #18
 4055 0f18 1A80     		strh	r2, [r3, #0]	@ movhi
 4056 0f1a 424B     		ldr	r3, .L337+20
 4057              	.LBB922:
 4058 0f1c 424D     		ldr	r5, .L337+24
 4059              	.LBE922:
 4060 0f1e 1A88     		ldrh	r2, [r3, #0]
 4061              	.LBB923:
 4062 0f20 424C     		ldr	r4, .L337+28
 4063              	.LBE923:
 4064 0f22 0132     		adds	r2, r2, #1
 4065 0f24 1A80     		strh	r2, [r3, #0]	@ movhi
 4066              	.LBB924:
 4067 0f26 FFF7FEFF 		bl	uart_transmit
 4068 0f2a 1221     		movs	r1, #18
 4069 0f2c 3B48     		ldr	r0, .L337+12
 4070 0f2e FFF7FEFF 		bl	uart_transmit
 4071              	.LBE924:
 4072 0f32 1323     		movs	r3, #19
 4073 0f34 2B70     		strb	r3, [r5, #0]
 4074 0f36 1233     		adds	r3, r3, #18
 4075 0f38 0121     		movs	r1, #1
 4076 0f3a 2370     		strb	r3, [r4, #0]
 4077 0f3c 3748     		ldr	r0, .L337+12
 4078 0f3e FFF7FEFF 		bl	uart_transmit
 4079 0f42 2B78     		ldrb	r3, [r5, #0]	@ zero_extendqisi2
 4080 0f44 2278     		ldrb	r2, [r4, #0]	@ zero_extendqisi2
 4081 0f46 1533     		adds	r3, r3, #21
 4082 0f48 DBB2     		uxtb	r3, r3
 4083              	.LBB925:
 4084 0f4a 394E     		ldr	r6, .L337+32
 4085              	.LBE925:
 4086 0f4c 2B70     		strb	r3, [r5, #0]
 4087 0f4e 9B18     		adds	r3, r3, r2
 4088 0f50 1521     		movs	r1, #21
 4089 0f52 2370     		strb	r3, [r4, #0]
 4090 0f54 3148     		ldr	r0, .L337+12
 4091 0f56 FFF7FEFF 		bl	uart_transmit
 4092              	.LBB926:
 4093 0f5a 3178     		ldrb	r1, [r6, #0]	@ zero_extendqisi2
 4094              	.LVL381:
 4095 0f5c 2B78     		ldrb	r3, [r5, #0]	@ zero_extendqisi2
 4096 0f5e 2278     		ldrb	r2, [r4, #0]	@ zero_extendqisi2
 4097 0f60 CB18     		adds	r3, r1, r3
 4098 0f62 DBB2     		uxtb	r3, r3
 4099 0f64 2B70     		strb	r3, [r5, #0]
 4100 0f66 9B18     		adds	r3, r3, r2
 4101 0f68 2370     		strb	r3, [r4, #0]
 4102 0f6a 2C48     		ldr	r0, .L337+12
 4103 0f6c FFF7FEFF 		bl	uart_transmit
 4104              	.LVL382:
 4105              	.LBE926:
 4106              	.LBB927:
 4107 0f70 7178     		ldrb	r1, [r6, #1]	@ zero_extendqisi2
 4108              	.LVL383:
 4109 0f72 2B78     		ldrb	r3, [r5, #0]	@ zero_extendqisi2
 4110 0f74 2278     		ldrb	r2, [r4, #0]	@ zero_extendqisi2
 4111 0f76 CB18     		adds	r3, r1, r3
 4112 0f78 DBB2     		uxtb	r3, r3
 4113 0f7a 2B70     		strb	r3, [r5, #0]
 4114 0f7c 9B18     		adds	r3, r3, r2
 4115 0f7e 2370     		strb	r3, [r4, #0]
 4116 0f80 2648     		ldr	r0, .L337+12
 4117 0f82 FFF7FEFF 		bl	uart_transmit
 4118              	.LVL384:
 4119              	.LBE927:
 4120              	.LBB928:
 4121 0f86 B178     		ldrb	r1, [r6, #2]	@ zero_extendqisi2
 4122              	.LVL385:
 4123 0f88 2B78     		ldrb	r3, [r5, #0]	@ zero_extendqisi2
 4124 0f8a 2278     		ldrb	r2, [r4, #0]	@ zero_extendqisi2
 4125 0f8c CB18     		adds	r3, r1, r3
 4126 0f8e DBB2     		uxtb	r3, r3
 4127 0f90 2B70     		strb	r3, [r5, #0]
 4128 0f92 9B18     		adds	r3, r3, r2
 4129 0f94 2370     		strb	r3, [r4, #0]
 4130 0f96 2148     		ldr	r0, .L337+12
 4131 0f98 FFF7FEFF 		bl	uart_transmit
 4132              	.LVL386:
 4133              	.LBE928:
 4134              	.LBB929:
 4135 0f9c F178     		ldrb	r1, [r6, #3]	@ zero_extendqisi2
 4136              	.LVL387:
 4137 0f9e 2B78     		ldrb	r3, [r5, #0]	@ zero_extendqisi2
 4138 0fa0 2278     		ldrb	r2, [r4, #0]	@ zero_extendqisi2
 4139 0fa2 CB18     		adds	r3, r1, r3
 4140 0fa4 DBB2     		uxtb	r3, r3
 4141              	.LBE929:
 4142              	.LBB930:
 4143 0fa6 234E     		ldr	r6, .L337+36
 4144              	.LBE930:
 4145              	.LBB931:
 4146 0fa8 2B70     		strb	r3, [r5, #0]
 4147 0faa 9B18     		adds	r3, r3, r2
 4148 0fac 2370     		strb	r3, [r4, #0]
 4149 0fae 1B48     		ldr	r0, .L337+12
 4150 0fb0 FFF7FEFF 		bl	uart_transmit
 4151              	.LVL388:
 4152              	.LBE931:
 4153              	.LBB932:
 4154 0fb4 3178     		ldrb	r1, [r6, #0]	@ zero_extendqisi2
 4155              	.LVL389:
 4156 0fb6 2B78     		ldrb	r3, [r5, #0]	@ zero_extendqisi2
 4157 0fb8 2278     		ldrb	r2, [r4, #0]	@ zero_extendqisi2
 4158 0fba CB18     		adds	r3, r1, r3
 4159 0fbc DBB2     		uxtb	r3, r3
 4160 0fbe 2B70     		strb	r3, [r5, #0]
 4161 0fc0 9B18     		adds	r3, r3, r2
 4162 0fc2 2370     		strb	r3, [r4, #0]
 4163 0fc4 1548     		ldr	r0, .L337+12
 4164 0fc6 FFF7FEFF 		bl	uart_transmit
 4165              	.LVL390:
 4166              	.LBE932:
 4167              	.LBB933:
 4168 0fca 7178     		ldrb	r1, [r6, #1]	@ zero_extendqisi2
 4169              	.LVL391:
 4170 0fcc 2B78     		ldrb	r3, [r5, #0]	@ zero_extendqisi2
 4171 0fce 2278     		ldrb	r2, [r4, #0]	@ zero_extendqisi2
 4172 0fd0 CB18     		adds	r3, r1, r3
 4173 0fd2 DBB2     		uxtb	r3, r3
 4174 0fd4 2B70     		strb	r3, [r5, #0]
 4175 0fd6 9B18     		adds	r3, r3, r2
 4176 0fd8 2370     		strb	r3, [r4, #0]
 4177 0fda 1048     		ldr	r0, .L337+12
 4178 0fdc FFF7FEFF 		bl	uart_transmit
 4179              	.LVL392:
 4180              	.LBE933:
 4181              	.LBB934:
 4182 0fe0 B178     		ldrb	r1, [r6, #2]	@ zero_extendqisi2
 4183              	.LVL393:
 4184 0fe2 2B78     		ldrb	r3, [r5, #0]	@ zero_extendqisi2
 4185 0fe4 2278     		ldrb	r2, [r4, #0]	@ zero_extendqisi2
 4186 0fe6 CB18     		adds	r3, r1, r3
 4187 0fe8 DBB2     		uxtb	r3, r3
 4188 0fea 2B70     		strb	r3, [r5, #0]
 4189 0fec 9B18     		adds	r3, r3, r2
 4190 0fee 2370     		strb	r3, [r4, #0]
 4191 0ff0 0A48     		ldr	r0, .L337+12
 4192 0ff2 FFF7FEFF 		bl	uart_transmit
 4193              	.LVL394:
 4194              	.LBE934:
 4195              	.LBB935:
 4196 0ff6 F178     		ldrb	r1, [r6, #3]	@ zero_extendqisi2
 4197              	.LVL395:
 4198 0ff8 2B78     		ldrb	r3, [r5, #0]	@ zero_extendqisi2
 4199 0ffa 2278     		ldrb	r2, [r4, #0]	@ zero_extendqisi2
 4200 0ffc CB18     		adds	r3, r1, r3
 4201 0ffe DBB2     		uxtb	r3, r3
 4202 1000 2B70     		strb	r3, [r5, #0]
 4203 1002 9B18     		adds	r3, r3, r2
 4204 1004 2370     		strb	r3, [r4, #0]
 4205 1006 0548     		ldr	r0, .L337+12
 4206 1008 FFF7FEFF 		bl	uart_transmit
 4207              	.LVL396:
 4208              	.LBE935:
 4209              	.LBB936:
 4210 100c 0A4E     		ldr	r6, .L337+40
 4211 100e 6BE1     		b	.L305
 4212              	.L338:
 4213              		.align	2
 4214              	.L337:
 4215 1010 00000000 		.word	downlink_nb_ovrn
 4216 1014 00000000 		.word	.LANCHOR26
 4217 1018 00000000 		.word	nav_in_circle
 4218 101c 00000000 		.word	uart2
 4219 1020 00000000 		.word	downlink_nb_bytes
 4220 1024 00000000 		.word	downlink_nb_msgs
 4221 1028 00000000 		.word	ck_a
 4222 102c 00000000 		.word	ck_b
 4223 1030 00000000 		.word	nav_circle_x
 4224 1034 00000000 		.word	nav_circle_y
 4225 1038 00000000 		.word	nav_circle_radius
 4226              	.L140:
 4227              	.LBE936:
 4228 103c 362B     		cmp	r3, #54
 4229 103e 40F08C81 		bne	.L141
 4230 1042 9C48     		ldr	r0, .L339
 4231 1044 2221     		movs	r1, #34
 4232 1046 FFF7FEFF 		bl	uart_check_free_space
 4233 104a 0028     		cmp	r0, #0
 4234 104c 00F08181 		beq	.L143
 4235 1050 994B     		ldr	r3, .L339+4
 4236              	.LBB937:
 4237 1052 9921     		movs	r1, #153
 4238              	.LBE937:
 4239 1054 1A88     		ldrh	r2, [r3, #0]
 4240              	.LBB938:
 4241 1056 9748     		ldr	r0, .L339
 4242              	.LBE938:
 4243 1058 2232     		adds	r2, r2, #34
 4244 105a 1A80     		strh	r2, [r3, #0]	@ movhi
 4245 105c 974B     		ldr	r3, .L339+8
 4246              	.LBB939:
 4247 105e 984D     		ldr	r5, .L339+12
 4248              	.LBE939:
 4249 1060 1A88     		ldrh	r2, [r3, #0]
 4250              	.LBB940:
 4251 1062 984C     		ldr	r4, .L339+16
 4252              	.LBE940:
 4253 1064 0132     		adds	r2, r2, #1
 4254 1066 1A80     		strh	r2, [r3, #0]	@ movhi
 4255              	.LBB941:
 4256 1068 FFF7FEFF 		bl	uart_transmit
 4257 106c 2221     		movs	r1, #34
 4258 106e 9148     		ldr	r0, .L339
 4259 1070 FFF7FEFF 		bl	uart_transmit
 4260              	.LBE941:
 4261 1074 2323     		movs	r3, #35
 4262 1076 2B70     		strb	r3, [r5, #0]
 4263 1078 2233     		adds	r3, r3, #34
 4264 107a 0121     		movs	r1, #1
 4265 107c 2370     		strb	r3, [r4, #0]
 4266 107e 8D48     		ldr	r0, .L339
 4267 1080 FFF7FEFF 		bl	uart_transmit
 4268 1084 2B78     		ldrb	r3, [r5, #0]	@ zero_extendqisi2
 4269 1086 2278     		ldrb	r2, [r4, #0]	@ zero_extendqisi2
 4270 1088 1033     		adds	r3, r3, #16
 4271 108a DBB2     		uxtb	r3, r3
 4272              	.LBB942:
 4273 108c 8E4E     		ldr	r6, .L339+20
 4274              	.LBE942:
 4275 108e 2B70     		strb	r3, [r5, #0]
 4276 1090 9B18     		adds	r3, r3, r2
 4277 1092 1021     		movs	r1, #16
 4278 1094 2370     		strb	r3, [r4, #0]
 4279 1096 8748     		ldr	r0, .L339
 4280 1098 FFF7FEFF 		bl	uart_transmit
 4281              	.LBB943:
 4282 109c 3178     		ldrb	r1, [r6, #0]	@ zero_extendqisi2
 4283              	.LVL397:
 4284 109e 2B78     		ldrb	r3, [r5, #0]	@ zero_extendqisi2
 4285 10a0 2278     		ldrb	r2, [r4, #0]	@ zero_extendqisi2
 4286 10a2 CB18     		adds	r3, r1, r3
 4287 10a4 DBB2     		uxtb	r3, r3
 4288 10a6 2B70     		strb	r3, [r5, #0]
 4289 10a8 9B18     		adds	r3, r3, r2
 4290 10aa 2370     		strb	r3, [r4, #0]
 4291 10ac 8148     		ldr	r0, .L339
 4292 10ae FFF7FEFF 		bl	uart_transmit
 4293              	.LVL398:
 4294              	.LBE943:
 4295              	.LBB944:
 4296 10b2 7178     		ldrb	r1, [r6, #1]	@ zero_extendqisi2
 4297              	.LVL399:
 4298 10b4 2B78     		ldrb	r3, [r5, #0]	@ zero_extendqisi2
 4299 10b6 2278     		ldrb	r2, [r4, #0]	@ zero_extendqisi2
 4300 10b8 CB18     		adds	r3, r1, r3
 4301 10ba DBB2     		uxtb	r3, r3
 4302 10bc 2B70     		strb	r3, [r5, #0]
 4303 10be 9B18     		adds	r3, r3, r2
 4304 10c0 2370     		strb	r3, [r4, #0]
 4305 10c2 7C48     		ldr	r0, .L339
 4306 10c4 FFF7FEFF 		bl	uart_transmit
 4307              	.LVL400:
 4308              	.LBE944:
 4309              	.LBB945:
 4310 10c8 B178     		ldrb	r1, [r6, #2]	@ zero_extendqisi2
 4311              	.LVL401:
 4312 10ca 2B78     		ldrb	r3, [r5, #0]	@ zero_extendqisi2
 4313 10cc 2278     		ldrb	r2, [r4, #0]	@ zero_extendqisi2
 4314 10ce CB18     		adds	r3, r1, r3
 4315 10d0 DBB2     		uxtb	r3, r3
 4316 10d2 2B70     		strb	r3, [r5, #0]
 4317 10d4 9B18     		adds	r3, r3, r2
 4318 10d6 2370     		strb	r3, [r4, #0]
 4319 10d8 7648     		ldr	r0, .L339
 4320 10da FFF7FEFF 		bl	uart_transmit
 4321              	.LVL402:
 4322              	.LBE945:
 4323              	.LBB946:
 4324 10de F178     		ldrb	r1, [r6, #3]	@ zero_extendqisi2
 4325              	.LVL403:
 4326 10e0 2B78     		ldrb	r3, [r5, #0]	@ zero_extendqisi2
 4327 10e2 2278     		ldrb	r2, [r4, #0]	@ zero_extendqisi2
 4328 10e4 CB18     		adds	r3, r1, r3
 4329 10e6 DBB2     		uxtb	r3, r3
 4330              	.LBE946:
 4331              	.LBB947:
 4332 10e8 784E     		ldr	r6, .L339+24
 4333              	.LBE947:
 4334              	.LBB948:
 4335 10ea 2B70     		strb	r3, [r5, #0]
 4336 10ec 9B18     		adds	r3, r3, r2
 4337 10ee 2370     		strb	r3, [r4, #0]
 4338 10f0 7048     		ldr	r0, .L339
 4339 10f2 FFF7FEFF 		bl	uart_transmit
 4340              	.LVL404:
 4341              	.LBE948:
 4342              	.LBB949:
 4343 10f6 3178     		ldrb	r1, [r6, #0]	@ zero_extendqisi2
 4344              	.LVL405:
 4345 10f8 2B78     		ldrb	r3, [r5, #0]	@ zero_extendqisi2
 4346 10fa 2278     		ldrb	r2, [r4, #0]	@ zero_extendqisi2
 4347 10fc CB18     		adds	r3, r1, r3
 4348 10fe DBB2     		uxtb	r3, r3
 4349 1100 2B70     		strb	r3, [r5, #0]
 4350 1102 9B18     		adds	r3, r3, r2
 4351 1104 2370     		strb	r3, [r4, #0]
 4352 1106 6B48     		ldr	r0, .L339
 4353 1108 FFF7FEFF 		bl	uart_transmit
 4354              	.LVL406:
 4355              	.LBE949:
 4356              	.LBB950:
 4357 110c 7178     		ldrb	r1, [r6, #1]	@ zero_extendqisi2
 4358              	.LVL407:
 4359 110e 2B78     		ldrb	r3, [r5, #0]	@ zero_extendqisi2
 4360 1110 2278     		ldrb	r2, [r4, #0]	@ zero_extendqisi2
 4361 1112 CB18     		adds	r3, r1, r3
 4362 1114 DBB2     		uxtb	r3, r3
 4363 1116 2B70     		strb	r3, [r5, #0]
 4364 1118 9B18     		adds	r3, r3, r2
 4365 111a 2370     		strb	r3, [r4, #0]
 4366 111c 6548     		ldr	r0, .L339
 4367 111e FFF7FEFF 		bl	uart_transmit
 4368              	.LVL408:
 4369              	.LBE950:
 4370              	.LBB951:
 4371 1122 B178     		ldrb	r1, [r6, #2]	@ zero_extendqisi2
 4372              	.LVL409:
 4373 1124 2B78     		ldrb	r3, [r5, #0]	@ zero_extendqisi2
 4374 1126 2278     		ldrb	r2, [r4, #0]	@ zero_extendqisi2
 4375 1128 CB18     		adds	r3, r1, r3
 4376 112a DBB2     		uxtb	r3, r3
 4377 112c 2B70     		strb	r3, [r5, #0]
 4378 112e 9B18     		adds	r3, r3, r2
 4379 1130 2370     		strb	r3, [r4, #0]
 4380 1132 6048     		ldr	r0, .L339
 4381 1134 FFF7FEFF 		bl	uart_transmit
 4382              	.LVL410:
 4383              	.LBE951:
 4384              	.LBB952:
 4385 1138 F178     		ldrb	r1, [r6, #3]	@ zero_extendqisi2
 4386              	.LVL411:
 4387 113a 2B78     		ldrb	r3, [r5, #0]	@ zero_extendqisi2
 4388 113c 2278     		ldrb	r2, [r4, #0]	@ zero_extendqisi2
 4389 113e CB18     		adds	r3, r1, r3
 4390 1140 DBB2     		uxtb	r3, r3
 4391              	.LBE952:
 4392              	.LBB953:
 4393 1142 634E     		ldr	r6, .L339+28
 4394              	.LBE953:
 4395              	.LBB954:
 4396 1144 2B70     		strb	r3, [r5, #0]
 4397 1146 9B18     		adds	r3, r3, r2
 4398 1148 2370     		strb	r3, [r4, #0]
 4399 114a 5A48     		ldr	r0, .L339
 4400 114c FFF7FEFF 		bl	uart_transmit
 4401              	.LVL412:
 4402              	.LBE954:
 4403              	.LBB955:
 4404 1150 3178     		ldrb	r1, [r6, #0]	@ zero_extendqisi2
 4405              	.LVL413:
 4406 1152 2B78     		ldrb	r3, [r5, #0]	@ zero_extendqisi2
 4407 1154 2278     		ldrb	r2, [r4, #0]	@ zero_extendqisi2
 4408 1156 CB18     		adds	r3, r1, r3
 4409 1158 DBB2     		uxtb	r3, r3
 4410 115a 2B70     		strb	r3, [r5, #0]
 4411 115c 9B18     		adds	r3, r3, r2
 4412 115e 2370     		strb	r3, [r4, #0]
 4413 1160 5448     		ldr	r0, .L339
 4414 1162 FFF7FEFF 		bl	uart_transmit
 4415              	.LVL414:
 4416              	.LBE955:
 4417              	.LBB956:
 4418 1166 7178     		ldrb	r1, [r6, #1]	@ zero_extendqisi2
 4419              	.LVL415:
 4420 1168 2B78     		ldrb	r3, [r5, #0]	@ zero_extendqisi2
 4421 116a 2278     		ldrb	r2, [r4, #0]	@ zero_extendqisi2
 4422 116c CB18     		adds	r3, r1, r3
 4423 116e DBB2     		uxtb	r3, r3
 4424 1170 2B70     		strb	r3, [r5, #0]
 4425 1172 9B18     		adds	r3, r3, r2
 4426 1174 2370     		strb	r3, [r4, #0]
 4427 1176 4F48     		ldr	r0, .L339
 4428 1178 FFF7FEFF 		bl	uart_transmit
 4429              	.LVL416:
 4430              	.LBE956:
 4431              	.LBB957:
 4432 117c B178     		ldrb	r1, [r6, #2]	@ zero_extendqisi2
 4433              	.LVL417:
 4434 117e 2B78     		ldrb	r3, [r5, #0]	@ zero_extendqisi2
 4435 1180 2278     		ldrb	r2, [r4, #0]	@ zero_extendqisi2
 4436 1182 CB18     		adds	r3, r1, r3
 4437 1184 DBB2     		uxtb	r3, r3
 4438 1186 2B70     		strb	r3, [r5, #0]
 4439 1188 9B18     		adds	r3, r3, r2
 4440 118a 2370     		strb	r3, [r4, #0]
 4441 118c 4948     		ldr	r0, .L339
 4442 118e FFF7FEFF 		bl	uart_transmit
 4443              	.LVL418:
 4444              	.LBE957:
 4445              	.LBB958:
 4446 1192 F178     		ldrb	r1, [r6, #3]	@ zero_extendqisi2
 4447              	.LVL419:
 4448 1194 2B78     		ldrb	r3, [r5, #0]	@ zero_extendqisi2
 4449 1196 2278     		ldrb	r2, [r4, #0]	@ zero_extendqisi2
 4450 1198 CB18     		adds	r3, r1, r3
 4451 119a DBB2     		uxtb	r3, r3
 4452              	.LBE958:
 4453              	.LBB959:
 4454 119c 4D4E     		ldr	r6, .L339+32
 4455              	.LBE959:
 4456              	.LBB960:
 4457 119e 2B70     		strb	r3, [r5, #0]
 4458 11a0 9B18     		adds	r3, r3, r2
 4459 11a2 2370     		strb	r3, [r4, #0]
 4460 11a4 4348     		ldr	r0, .L339
 4461 11a6 FFF7FEFF 		bl	uart_transmit
 4462              	.LVL420:
 4463              	.LBE960:
 4464              	.LBB961:
 4465 11aa 3178     		ldrb	r1, [r6, #0]	@ zero_extendqisi2
 4466              	.LVL421:
 4467 11ac 2B78     		ldrb	r3, [r5, #0]	@ zero_extendqisi2
 4468 11ae 2278     		ldrb	r2, [r4, #0]	@ zero_extendqisi2
 4469 11b0 CB18     		adds	r3, r1, r3
 4470 11b2 DBB2     		uxtb	r3, r3
 4471 11b4 2B70     		strb	r3, [r5, #0]
 4472 11b6 9B18     		adds	r3, r3, r2
 4473 11b8 2370     		strb	r3, [r4, #0]
 4474 11ba 3E48     		ldr	r0, .L339
 4475 11bc FFF7FEFF 		bl	uart_transmit
 4476              	.LVL422:
 4477              	.LBE961:
 4478              	.LBB962:
 4479 11c0 7178     		ldrb	r1, [r6, #1]	@ zero_extendqisi2
 4480              	.LVL423:
 4481 11c2 2B78     		ldrb	r3, [r5, #0]	@ zero_extendqisi2
 4482 11c4 2278     		ldrb	r2, [r4, #0]	@ zero_extendqisi2
 4483 11c6 CB18     		adds	r3, r1, r3
 4484 11c8 DBB2     		uxtb	r3, r3
 4485 11ca 2B70     		strb	r3, [r5, #0]
 4486 11cc 9B18     		adds	r3, r3, r2
 4487 11ce 2370     		strb	r3, [r4, #0]
 4488 11d0 3848     		ldr	r0, .L339
 4489 11d2 FFF7FEFF 		bl	uart_transmit
 4490              	.LVL424:
 4491              	.LBE962:
 4492              	.LBB963:
 4493 11d6 B178     		ldrb	r1, [r6, #2]	@ zero_extendqisi2
 4494              	.LVL425:
 4495 11d8 2B78     		ldrb	r3, [r5, #0]	@ zero_extendqisi2
 4496 11da 2278     		ldrb	r2, [r4, #0]	@ zero_extendqisi2
 4497 11dc CB18     		adds	r3, r1, r3
 4498 11de DBB2     		uxtb	r3, r3
 4499 11e0 2B70     		strb	r3, [r5, #0]
 4500 11e2 9B18     		adds	r3, r3, r2
 4501 11e4 2370     		strb	r3, [r4, #0]
 4502 11e6 3348     		ldr	r0, .L339
 4503 11e8 FFF7FEFF 		bl	uart_transmit
 4504              	.LVL426:
 4505              	.LBE963:
 4506              	.LBB964:
 4507 11ec F178     		ldrb	r1, [r6, #3]	@ zero_extendqisi2
 4508              	.LVL427:
 4509 11ee 2B78     		ldrb	r3, [r5, #0]	@ zero_extendqisi2
 4510 11f0 2278     		ldrb	r2, [r4, #0]	@ zero_extendqisi2
 4511 11f2 CB18     		adds	r3, r1, r3
 4512 11f4 DBB2     		uxtb	r3, r3
 4513              	.LBE964:
 4514              	.LBB965:
 4515 11f6 384E     		ldr	r6, .L339+36
 4516              	.LBE965:
 4517              	.LBB966:
 4518 11f8 2B70     		strb	r3, [r5, #0]
 4519 11fa 9B18     		adds	r3, r3, r2
 4520 11fc 2370     		strb	r3, [r4, #0]
 4521 11fe 2D48     		ldr	r0, .L339
 4522 1200 FFF7FEFF 		bl	uart_transmit
 4523              	.LVL428:
 4524              	.LBE966:
 4525              	.LBB967:
 4526 1204 3178     		ldrb	r1, [r6, #0]	@ zero_extendqisi2
 4527              	.LVL429:
 4528 1206 2B78     		ldrb	r3, [r5, #0]	@ zero_extendqisi2
 4529 1208 2278     		ldrb	r2, [r4, #0]	@ zero_extendqisi2
 4530 120a CB18     		adds	r3, r1, r3
 4531 120c DBB2     		uxtb	r3, r3
 4532 120e 2B70     		strb	r3, [r5, #0]
 4533 1210 9B18     		adds	r3, r3, r2
 4534 1212 2370     		strb	r3, [r4, #0]
 4535 1214 2748     		ldr	r0, .L339
 4536 1216 FFF7FEFF 		bl	uart_transmit
 4537              	.LVL430:
 4538              	.LBE967:
 4539              	.LBB968:
 4540 121a 7178     		ldrb	r1, [r6, #1]	@ zero_extendqisi2
 4541              	.LVL431:
 4542 121c 2B78     		ldrb	r3, [r5, #0]	@ zero_extendqisi2
 4543 121e 2278     		ldrb	r2, [r4, #0]	@ zero_extendqisi2
 4544 1220 CB18     		adds	r3, r1, r3
 4545 1222 DBB2     		uxtb	r3, r3
 4546 1224 2B70     		strb	r3, [r5, #0]
 4547 1226 9B18     		adds	r3, r3, r2
 4548 1228 2370     		strb	r3, [r4, #0]
 4549 122a 2248     		ldr	r0, .L339
 4550 122c FFF7FEFF 		bl	uart_transmit
 4551              	.LVL432:
 4552              	.LBE968:
 4553              	.LBB969:
 4554 1230 B178     		ldrb	r1, [r6, #2]	@ zero_extendqisi2
 4555              	.LVL433:
 4556 1232 2B78     		ldrb	r3, [r5, #0]	@ zero_extendqisi2
 4557 1234 2278     		ldrb	r2, [r4, #0]	@ zero_extendqisi2
 4558 1236 CB18     		adds	r3, r1, r3
 4559 1238 DBB2     		uxtb	r3, r3
 4560 123a 2B70     		strb	r3, [r5, #0]
 4561 123c 9B18     		adds	r3, r3, r2
 4562 123e 2370     		strb	r3, [r4, #0]
 4563 1240 1C48     		ldr	r0, .L339
 4564 1242 FFF7FEFF 		bl	uart_transmit
 4565              	.LVL434:
 4566              	.LBE969:
 4567              	.LBB970:
 4568 1246 F178     		ldrb	r1, [r6, #3]	@ zero_extendqisi2
 4569              	.LVL435:
 4570 1248 2B78     		ldrb	r3, [r5, #0]	@ zero_extendqisi2
 4571 124a 2278     		ldrb	r2, [r4, #0]	@ zero_extendqisi2
 4572 124c CB18     		adds	r3, r1, r3
 4573 124e DBB2     		uxtb	r3, r3
 4574              	.LBE970:
 4575              	.LBB971:
 4576 1250 224E     		ldr	r6, .L339+40
 4577              	.LBE971:
 4578              	.LBB972:
 4579 1252 2B70     		strb	r3, [r5, #0]
 4580 1254 9B18     		adds	r3, r3, r2
 4581 1256 2370     		strb	r3, [r4, #0]
 4582 1258 1648     		ldr	r0, .L339
 4583 125a FFF7FEFF 		bl	uart_transmit
 4584              	.LVL436:
 4585              	.LBE972:
 4586              	.LBB973:
 4587 125e 3178     		ldrb	r1, [r6, #0]	@ zero_extendqisi2
 4588              	.LVL437:
 4589 1260 2B78     		ldrb	r3, [r5, #0]	@ zero_extendqisi2
 4590 1262 2278     		ldrb	r2, [r4, #0]	@ zero_extendqisi2
 4591 1264 CB18     		adds	r3, r1, r3
 4592 1266 DBB2     		uxtb	r3, r3
 4593 1268 2B70     		strb	r3, [r5, #0]
 4594 126a 9B18     		adds	r3, r3, r2
 4595 126c 2370     		strb	r3, [r4, #0]
 4596 126e 1148     		ldr	r0, .L339
 4597 1270 FFF7FEFF 		bl	uart_transmit
 4598              	.LVL438:
 4599              	.LBE973:
 4600              	.LBB974:
 4601 1274 7178     		ldrb	r1, [r6, #1]	@ zero_extendqisi2
 4602              	.LVL439:
 4603 1276 2B78     		ldrb	r3, [r5, #0]	@ zero_extendqisi2
 4604 1278 2278     		ldrb	r2, [r4, #0]	@ zero_extendqisi2
 4605 127a CB18     		adds	r3, r1, r3
 4606 127c DBB2     		uxtb	r3, r3
 4607 127e 2B70     		strb	r3, [r5, #0]
 4608 1280 9B18     		adds	r3, r3, r2
 4609 1282 2370     		strb	r3, [r4, #0]
 4610 1284 0B48     		ldr	r0, .L339
 4611 1286 FFF7FEFF 		bl	uart_transmit
 4612              	.LVL440:
 4613              	.LBE974:
 4614              	.LBB975:
 4615 128a B178     		ldrb	r1, [r6, #2]	@ zero_extendqisi2
 4616              	.LVL441:
 4617 128c 2B78     		ldrb	r3, [r5, #0]	@ zero_extendqisi2
 4618 128e 2278     		ldrb	r2, [r4, #0]	@ zero_extendqisi2
 4619 1290 CB18     		adds	r3, r1, r3
 4620 1292 DBB2     		uxtb	r3, r3
 4621 1294 2B70     		strb	r3, [r5, #0]
 4622 1296 9B18     		adds	r3, r3, r2
 4623 1298 2370     		strb	r3, [r4, #0]
 4624 129a 0648     		ldr	r0, .L339
 4625 129c FFF7FEFF 		bl	uart_transmit
 4626              	.LVL442:
 4627              	.LBE975:
 4628              	.LBB976:
 4629 12a0 F178     		ldrb	r1, [r6, #3]	@ zero_extendqisi2
 4630              	.LVL443:
 4631 12a2 2B78     		ldrb	r3, [r5, #0]	@ zero_extendqisi2
 4632 12a4 2278     		ldrb	r2, [r4, #0]	@ zero_extendqisi2
 4633 12a6 CB18     		adds	r3, r1, r3
 4634 12a8 DBB2     		uxtb	r3, r3
 4635 12aa 2B70     		strb	r3, [r5, #0]
 4636 12ac 9B18     		adds	r3, r3, r2
 4637 12ae 2370     		strb	r3, [r4, #0]
 4638 12b0 16E0     		b	.L340
 4639              	.L341:
 4640 12b2 00BF     		.align	2
 4641              	.L339:
 4642 12b4 00000000 		.word	uart2
 4643 12b8 00000000 		.word	downlink_nb_bytes
 4644 12bc 00000000 		.word	downlink_nb_msgs
 4645 12c0 00000000 		.word	ck_a
 4646 12c4 00000000 		.word	ck_b
 4647 12c8 00000000 		.word	h_ctl_roll_setpoint
 4648 12cc 00000000 		.word	h_ctl_pitch_loop_setpoint
 4649 12d0 00000000 		.word	h_ctl_course_setpoint
 4650 12d4 00000000 		.word	desired_x
 4651 12d8 00000000 		.word	desired_y
 4652 12dc 00000000 		.word	v_ctl_altitude_setpoint
 4653              	.L340:
 4654 12e0 9448     		ldr	r0, .L342
 4655 12e2 FFF7FEFF 		bl	uart_transmit
 4656              	.LVL444:
 4657              	.LBE976:
 4658              	.LBB977:
 4659 12e6 944E     		ldr	r6, .L342+4
 4660              	.L305:
 4661 12e8 3178     		ldrb	r1, [r6, #0]	@ zero_extendqisi2
 4662              	.LVL445:
 4663 12ea 2B78     		ldrb	r3, [r5, #0]	@ zero_extendqisi2
 4664 12ec 2278     		ldrb	r2, [r4, #0]	@ zero_extendqisi2
 4665 12ee CB18     		adds	r3, r1, r3
 4666 12f0 DBB2     		uxtb	r3, r3
 4667 12f2 2B70     		strb	r3, [r5, #0]
 4668 12f4 9B18     		adds	r3, r3, r2
 4669 12f6 2370     		strb	r3, [r4, #0]
 4670 12f8 8E48     		ldr	r0, .L342
 4671 12fa FFF7FEFF 		bl	uart_transmit
 4672              	.LVL446:
 4673              	.LBE977:
 4674              	.LBB978:
 4675 12fe 7178     		ldrb	r1, [r6, #1]	@ zero_extendqisi2
 4676              	.LVL447:
 4677 1300 2B78     		ldrb	r3, [r5, #0]	@ zero_extendqisi2
 4678 1302 2278     		ldrb	r2, [r4, #0]	@ zero_extendqisi2
 4679 1304 CB18     		adds	r3, r1, r3
 4680 1306 DBB2     		uxtb	r3, r3
 4681 1308 2B70     		strb	r3, [r5, #0]
 4682 130a 9B18     		adds	r3, r3, r2
 4683 130c 2370     		strb	r3, [r4, #0]
 4684 130e 8948     		ldr	r0, .L342
 4685 1310 FFF7FEFF 		bl	uart_transmit
 4686              	.LVL448:
 4687              	.LBE978:
 4688              	.LBB979:
 4689 1314 B178     		ldrb	r1, [r6, #2]	@ zero_extendqisi2
 4690              	.LVL449:
 4691 1316 2B78     		ldrb	r3, [r5, #0]	@ zero_extendqisi2
 4692 1318 2278     		ldrb	r2, [r4, #0]	@ zero_extendqisi2
 4693 131a CB18     		adds	r3, r1, r3
 4694 131c DBB2     		uxtb	r3, r3
 4695 131e 2B70     		strb	r3, [r5, #0]
 4696 1320 9B18     		adds	r3, r3, r2
 4697 1322 2370     		strb	r3, [r4, #0]
 4698 1324 8348     		ldr	r0, .L342
 4699 1326 FFF7FEFF 		bl	uart_transmit
 4700              	.LVL450:
 4701              	.LBE979:
 4702              	.LBB980:
 4703 132a F178     		ldrb	r1, [r6, #3]	@ zero_extendqisi2
 4704              	.LVL451:
