   1              		.syntax unified
   2              		.cpu cortex-m3
   3              		.fpu softvfp
   4              		.eabi_attribute 20, 1
   5              		.eabi_attribute 21, 1
   6              		.eabi_attribute 23, 3
   7              		.eabi_attribute 24, 1
   8              		.eabi_attribute 25, 1
   9              		.eabi_attribute 26, 1
  10              		.eabi_attribute 30, 4
  11              		.eabi_attribute 18, 4
  12              		.thumb
  13              		.file	"main_ap.c"
  21              	.Ltext0:
  22              		.cfi_sections	.debug_frame
  23              		.section	.text.on_accel_event,"ax",%progbits
  24              		.align	1
  25              		.thumb
  26              		.thumb_func
  28              	on_accel_event:
  29              	.LFB65:
  30              		.file 1 "firmwares/fixedwing/main_ap.c"
   1:firmwares/fixedwing/main_ap.c **** /*
   2:firmwares/fixedwing/main_ap.c ****  * $Id$
   3:firmwares/fixedwing/main_ap.c ****  *
   4:firmwares/fixedwing/main_ap.c ****  * Copyright (C) 2003-2010  The Paparazzi Team
   5:firmwares/fixedwing/main_ap.c ****  *
   6:firmwares/fixedwing/main_ap.c ****  * This file is part of paparazzi.
   7:firmwares/fixedwing/main_ap.c ****  *
   8:firmwares/fixedwing/main_ap.c ****  * paparazzi is free software; you can redistribute it and/or modify
   9:firmwares/fixedwing/main_ap.c ****  * it under the terms of the GNU General Public License as published by
  10:firmwares/fixedwing/main_ap.c ****  * the Free Software Foundation; either version 2, or (at your option)
  11:firmwares/fixedwing/main_ap.c ****  * any later version.
  12:firmwares/fixedwing/main_ap.c ****  *
  13:firmwares/fixedwing/main_ap.c ****  * paparazzi is distributed in the hope that it will be useful,
  14:firmwares/fixedwing/main_ap.c ****  * but WITHOUT ANY WARRANTY; without even the implied warranty of
  15:firmwares/fixedwing/main_ap.c ****  * MERCHANTABILITY or FITNESS FOR A PARTICULAR PURPOSE.  See the
  16:firmwares/fixedwing/main_ap.c ****  * GNU General Public License for more details.
  17:firmwares/fixedwing/main_ap.c ****  *
  18:firmwares/fixedwing/main_ap.c ****  * You should have received a copy of the GNU General Public License
  19:firmwares/fixedwing/main_ap.c ****  * along with paparazzi; see the file COPYING.  If not, write to
  20:firmwares/fixedwing/main_ap.c ****  * the Free Software Foundation, 59 Temple Place - Suite 330,
  21:firmwares/fixedwing/main_ap.c ****  * Boston, MA 02111-1307, USA.
  22:firmwares/fixedwing/main_ap.c ****  *
  23:firmwares/fixedwing/main_ap.c ****  */
  24:firmwares/fixedwing/main_ap.c **** 
  25:firmwares/fixedwing/main_ap.c **** /** \file main_ap.c
  26:firmwares/fixedwing/main_ap.c ****  *  \brief AP ( AutoPilot ) process
  27:firmwares/fixedwing/main_ap.c ****  *
  28:firmwares/fixedwing/main_ap.c ****  *   This process is reponsible for the collecting the different sensors data, fusing them to obtai
  29:firmwares/fixedwing/main_ap.c ****  * aircraft attitude and running the different control loops
  30:firmwares/fixedwing/main_ap.c ****  */
  31:firmwares/fixedwing/main_ap.c **** 
  32:firmwares/fixedwing/main_ap.c **** #define MODULES_C
  33:firmwares/fixedwing/main_ap.c **** 
  34:firmwares/fixedwing/main_ap.c **** #include <math.h>
  35:firmwares/fixedwing/main_ap.c **** 
  36:firmwares/fixedwing/main_ap.c **** #include "firmwares/fixedwing/main_ap.h"
  37:firmwares/fixedwing/main_ap.c **** #include "mcu.h"
  38:firmwares/fixedwing/main_ap.c **** 
  39:firmwares/fixedwing/main_ap.c **** #include "firmwares/fixedwing/stabilization/stabilization_attitude.h"
  40:firmwares/fixedwing/main_ap.c **** #include "firmwares/fixedwing/guidance/guidance_v.h"
  41:firmwares/fixedwing/main_ap.c **** #include "subsystems/gps.h"
  42:firmwares/fixedwing/main_ap.c **** #include "gyro.h"
  43:firmwares/fixedwing/main_ap.c **** #include "ap_downlink.h"
  44:firmwares/fixedwing/main_ap.c **** #include "subsystems/nav.h"
  45:firmwares/fixedwing/main_ap.c **** #include "firmwares/fixedwing/autopilot.h"
  46:firmwares/fixedwing/main_ap.c **** #include "estimator.h"
  47:firmwares/fixedwing/main_ap.c **** #include "generated/settings.h"
  48:firmwares/fixedwing/main_ap.c **** #include "link_mcu.h"
  49:firmwares/fixedwing/main_ap.c **** #include "sys_time.h"
  50:firmwares/fixedwing/main_ap.c **** #include "generated/flight_plan.h"
  51:firmwares/fixedwing/main_ap.c **** #include "datalink.h"
  52:firmwares/fixedwing/main_ap.c **** #include "subsystems/settings.h"
  53:firmwares/fixedwing/main_ap.c **** #include "xbee.h"
  54:firmwares/fixedwing/main_ap.c **** 
  55:firmwares/fixedwing/main_ap.c **** #include "gpio.h"
  56:firmwares/fixedwing/main_ap.c **** 
  57:firmwares/fixedwing/main_ap.c **** #if defined RADIO_CONTROL || defined RADIO_CONTROL_AUTO1
  58:firmwares/fixedwing/main_ap.c **** #include "rc_settings.h"
  59:firmwares/fixedwing/main_ap.c **** #endif
  60:firmwares/fixedwing/main_ap.c **** 
  61:firmwares/fixedwing/main_ap.c **** 
  62:firmwares/fixedwing/main_ap.c **** 
  63:firmwares/fixedwing/main_ap.c **** #ifdef TRAFFIC_INFO
  64:firmwares/fixedwing/main_ap.c **** #include "subsystems/navigation/traffic_info.h"
  65:firmwares/fixedwing/main_ap.c **** #endif
  66:firmwares/fixedwing/main_ap.c **** 
  67:firmwares/fixedwing/main_ap.c **** 
  68:firmwares/fixedwing/main_ap.c **** #ifdef USE_IMU
  69:firmwares/fixedwing/main_ap.c **** #include "subsystems/imu.h"
  70:firmwares/fixedwing/main_ap.c **** #endif
  71:firmwares/fixedwing/main_ap.c **** #ifdef USE_AHRS
  72:firmwares/fixedwing/main_ap.c **** #include "subsystems/ahrs.h"
  73:firmwares/fixedwing/main_ap.c **** #endif
  74:firmwares/fixedwing/main_ap.c **** #ifdef USE_AHRS_ALIGNER
  75:firmwares/fixedwing/main_ap.c **** #include "subsystems/ahrs/ahrs_aligner.h"
  76:firmwares/fixedwing/main_ap.c **** #endif
  77:firmwares/fixedwing/main_ap.c **** 
  78:firmwares/fixedwing/main_ap.c **** #ifdef USE_AHRS
  79:firmwares/fixedwing/main_ap.c **** #ifdef USE_IMU
  80:firmwares/fixedwing/main_ap.c **** static inline void on_gyro_event( void );
  81:firmwares/fixedwing/main_ap.c **** static inline void on_accel_event( void );
  82:firmwares/fixedwing/main_ap.c **** static inline void on_mag_event( void );
  83:firmwares/fixedwing/main_ap.c **** volatile uint8_t ahrs_timeout_counter = 0;
  84:firmwares/fixedwing/main_ap.c **** #else
  85:firmwares/fixedwing/main_ap.c **** static inline void on_ahrs_event(void);
  86:firmwares/fixedwing/main_ap.c **** #endif // USE_IMU
  87:firmwares/fixedwing/main_ap.c **** #endif // USE_AHRS
  88:firmwares/fixedwing/main_ap.c **** 
  89:firmwares/fixedwing/main_ap.c **** #ifdef USE_GPS
  90:firmwares/fixedwing/main_ap.c **** static inline void on_gps_solution( void );
  91:firmwares/fixedwing/main_ap.c **** #endif
  92:firmwares/fixedwing/main_ap.c **** 
  93:firmwares/fixedwing/main_ap.c **** #if ! defined CATASTROPHIC_BAT_LEVEL && defined LOW_BATTERY
  94:firmwares/fixedwing/main_ap.c **** #warning "LOW_BATTERY deprecated. Renamed into CATASTROPHIC_BAT_LEVEL (in airframe file)"
  95:firmwares/fixedwing/main_ap.c **** #define CATASTROPHIC_BAT_LEVEL LOW_BATTERY
  96:firmwares/fixedwing/main_ap.c **** #endif
  97:firmwares/fixedwing/main_ap.c **** 
  98:firmwares/fixedwing/main_ap.c **** #define LOW_BATTERY_DECIVOLT (CATASTROPHIC_BAT_LEVEL*10)
  99:firmwares/fixedwing/main_ap.c **** 
 100:firmwares/fixedwing/main_ap.c **** #include "generated/modules.h"
 101:firmwares/fixedwing/main_ap.c **** 
 102:firmwares/fixedwing/main_ap.c **** /** FIXME: should be in rc_settings but required by telemetry (ap_downlink.h)*/
 103:firmwares/fixedwing/main_ap.c **** uint8_t rc_settings_mode = 0;
 104:firmwares/fixedwing/main_ap.c **** 
 105:firmwares/fixedwing/main_ap.c **** /** Define minimal speed for takeoff in m/s */
 106:firmwares/fixedwing/main_ap.c **** #define MIN_SPEED_FOR_TAKEOFF 5.
 107:firmwares/fixedwing/main_ap.c **** 
 108:firmwares/fixedwing/main_ap.c **** bool_t power_switch;
 109:firmwares/fixedwing/main_ap.c **** uint8_t fatal_error_nb = 0;
 110:firmwares/fixedwing/main_ap.c **** static const uint16_t version = 1;
 111:firmwares/fixedwing/main_ap.c **** 
 112:firmwares/fixedwing/main_ap.c **** uint8_t pprz_mode = PPRZ_MODE_AUTO2;
 113:firmwares/fixedwing/main_ap.c **** uint8_t lateral_mode = LATERAL_MODE_MANUAL;
 114:firmwares/fixedwing/main_ap.c **** 
 115:firmwares/fixedwing/main_ap.c **** static uint8_t  mcu1_status;
 116:firmwares/fixedwing/main_ap.c **** 
 117:firmwares/fixedwing/main_ap.c **** #if defined RADIO_CONTROL || defined RADIO_CONTROL_AUTO1
 118:firmwares/fixedwing/main_ap.c **** static uint8_t  mcu1_ppm_cpt;
 119:firmwares/fixedwing/main_ap.c **** #endif
 120:firmwares/fixedwing/main_ap.c **** 
 121:firmwares/fixedwing/main_ap.c **** bool_t kill_throttle = FALSE;
 122:firmwares/fixedwing/main_ap.c **** 
 123:firmwares/fixedwing/main_ap.c **** float slider_1_val, slider_2_val;
 124:firmwares/fixedwing/main_ap.c **** 
 125:firmwares/fixedwing/main_ap.c **** bool_t launch = FALSE;
 126:firmwares/fixedwing/main_ap.c **** 
 127:firmwares/fixedwing/main_ap.c **** uint8_t vsupply;	// deciVolt
 128:firmwares/fixedwing/main_ap.c **** static int32_t current;	// milliAmpere
 129:firmwares/fixedwing/main_ap.c **** 
 130:firmwares/fixedwing/main_ap.c **** float energy;       // Fuel consumption (mAh)
 131:firmwares/fixedwing/main_ap.c **** 
 132:firmwares/fixedwing/main_ap.c **** bool_t gps_lost = FALSE;
 133:firmwares/fixedwing/main_ap.c **** 
 134:firmwares/fixedwing/main_ap.c **** 
 135:firmwares/fixedwing/main_ap.c **** #define Min(x, y) (x < y ? x : y)
 136:firmwares/fixedwing/main_ap.c **** #define Max(x, y) (x > y ? x : y)
 137:firmwares/fixedwing/main_ap.c **** 
 138:firmwares/fixedwing/main_ap.c **** /** \brief Update paparazzi mode
 139:firmwares/fixedwing/main_ap.c ****  */
 140:firmwares/fixedwing/main_ap.c **** #if defined RADIO_CONTROL || defined RADIO_CONTROL_AUTO1
 141:firmwares/fixedwing/main_ap.c **** static inline uint8_t pprz_mode_update( void ) {
 142:firmwares/fixedwing/main_ap.c ****   if ((pprz_mode != PPRZ_MODE_HOME &&
 143:firmwares/fixedwing/main_ap.c ****        pprz_mode != PPRZ_MODE_GPS_OUT_OF_ORDER)
 144:firmwares/fixedwing/main_ap.c **** #ifdef UNLOCKED_HOME_MODE
 145:firmwares/fixedwing/main_ap.c ****       || TRUE
 146:firmwares/fixedwing/main_ap.c **** #endif
 147:firmwares/fixedwing/main_ap.c ****       ) {
 148:firmwares/fixedwing/main_ap.c ****     return ModeUpdate(pprz_mode, PPRZ_MODE_OF_PULSE(fbw_state->channels[RADIO_MODE], fbw_state->sta
 149:firmwares/fixedwing/main_ap.c ****   } else
 150:firmwares/fixedwing/main_ap.c ****     return FALSE;
 151:firmwares/fixedwing/main_ap.c **** }
 152:firmwares/fixedwing/main_ap.c **** #else // not RADIO_CONTROL
 153:firmwares/fixedwing/main_ap.c **** static inline uint8_t pprz_mode_update( void ) {
 154:firmwares/fixedwing/main_ap.c ****   return FALSE;
 155:firmwares/fixedwing/main_ap.c **** }
 156:firmwares/fixedwing/main_ap.c **** #endif
 157:firmwares/fixedwing/main_ap.c **** 
 158:firmwares/fixedwing/main_ap.c **** static inline uint8_t mcu1_status_update( void ) {
 159:firmwares/fixedwing/main_ap.c ****   uint8_t new_status = fbw_state->status;
 160:firmwares/fixedwing/main_ap.c ****   if (mcu1_status != new_status) {
 161:firmwares/fixedwing/main_ap.c ****     bool_t changed = ((mcu1_status&MASK_FBW_CHANGED) != (new_status&MASK_FBW_CHANGED));
 162:firmwares/fixedwing/main_ap.c ****     mcu1_status = new_status;
 163:firmwares/fixedwing/main_ap.c ****     return changed;
 164:firmwares/fixedwing/main_ap.c ****   }
 165:firmwares/fixedwing/main_ap.c ****   return FALSE;
 166:firmwares/fixedwing/main_ap.c **** }
 167:firmwares/fixedwing/main_ap.c **** 
 168:firmwares/fixedwing/main_ap.c **** 
 169:firmwares/fixedwing/main_ap.c **** /** \brief Send back uncontrolled channels
 170:firmwares/fixedwing/main_ap.c ****  */
 171:firmwares/fixedwing/main_ap.c **** static inline void copy_from_to_fbw ( void ) {
 172:firmwares/fixedwing/main_ap.c **** #ifdef SetAutoCommandsFromRC
 173:firmwares/fixedwing/main_ap.c ****   SetAutoCommandsFromRC(ap_state->commands, fbw_state->channels);
 174:firmwares/fixedwing/main_ap.c **** #elif defined RADIO_YAW && defined COMMAND_YAW
 175:firmwares/fixedwing/main_ap.c ****   ap_state->commands[COMMAND_YAW] = fbw_state->channels[RADIO_YAW];
 176:firmwares/fixedwing/main_ap.c **** #endif
 177:firmwares/fixedwing/main_ap.c **** }
 178:firmwares/fixedwing/main_ap.c **** 
 179:firmwares/fixedwing/main_ap.c **** 
 180:firmwares/fixedwing/main_ap.c **** 
 181:firmwares/fixedwing/main_ap.c **** /*
 182:firmwares/fixedwing/main_ap.c ****    called at 20Hz.
 183:firmwares/fixedwing/main_ap.c ****    sends a serie of initialisation messages followed by a stream of periodic ones
 184:firmwares/fixedwing/main_ap.c **** */
 185:firmwares/fixedwing/main_ap.c **** 
 186:firmwares/fixedwing/main_ap.c **** /** Define number of message at initialisation */
 187:firmwares/fixedwing/main_ap.c **** #define INIT_MSG_NB 2
 188:firmwares/fixedwing/main_ap.c **** 
 189:firmwares/fixedwing/main_ap.c **** uint8_t ac_ident = AC_ID;
 190:firmwares/fixedwing/main_ap.c **** 
 191:firmwares/fixedwing/main_ap.c **** /** \brief Send a serie of initialisation messages followed by a stream of periodic ones
 192:firmwares/fixedwing/main_ap.c ****  *
 193:firmwares/fixedwing/main_ap.c ****  * Called at 60Hz.
 194:firmwares/fixedwing/main_ap.c ****  */
 195:firmwares/fixedwing/main_ap.c **** static inline void reporting_task( void ) {
 196:firmwares/fixedwing/main_ap.c ****   static uint8_t boot = TRUE;
 197:firmwares/fixedwing/main_ap.c **** 
 198:firmwares/fixedwing/main_ap.c ****   /** initialisation phase during boot */
 199:firmwares/fixedwing/main_ap.c ****   if (boot) {
 200:firmwares/fixedwing/main_ap.c ****     DOWNLINK_SEND_BOOT(DefaultChannel, &version);
 201:firmwares/fixedwing/main_ap.c ****     boot = FALSE;
 202:firmwares/fixedwing/main_ap.c ****   }
 203:firmwares/fixedwing/main_ap.c ****   /** then report periodicly */
 204:firmwares/fixedwing/main_ap.c ****   else {
 205:firmwares/fixedwing/main_ap.c ****     PeriodicSendAp(DefaultChannel);
 206:firmwares/fixedwing/main_ap.c ****   }
 207:firmwares/fixedwing/main_ap.c **** }
 208:firmwares/fixedwing/main_ap.c **** 
 209:firmwares/fixedwing/main_ap.c **** #ifndef RC_LOST_MODE
 210:firmwares/fixedwing/main_ap.c **** #define RC_LOST_MODE PPRZ_MODE_HOME
 211:firmwares/fixedwing/main_ap.c **** #endif
 212:firmwares/fixedwing/main_ap.c **** 
 213:firmwares/fixedwing/main_ap.c **** /** \brief Function to be called when a message from FBW is available */
 214:firmwares/fixedwing/main_ap.c **** static inline void telecommand_task( void ) {
 215:firmwares/fixedwing/main_ap.c ****   uint8_t mode_changed = FALSE;
 216:firmwares/fixedwing/main_ap.c ****   copy_from_to_fbw();
 217:firmwares/fixedwing/main_ap.c **** 
 218:firmwares/fixedwing/main_ap.c ****   uint8_t really_lost = bit_is_set(fbw_state->status, STATUS_RADIO_REALLY_LOST) && (pprz_mode == PP
 219:firmwares/fixedwing/main_ap.c ****   if (pprz_mode != PPRZ_MODE_HOME && pprz_mode != PPRZ_MODE_GPS_OUT_OF_ORDER && launch) {
 220:firmwares/fixedwing/main_ap.c ****     if  (too_far_from_home) {
 221:firmwares/fixedwing/main_ap.c ****       pprz_mode = PPRZ_MODE_HOME;
 222:firmwares/fixedwing/main_ap.c ****       mode_changed = TRUE;
 223:firmwares/fixedwing/main_ap.c ****     }
 224:firmwares/fixedwing/main_ap.c ****     if  (really_lost) {
 225:firmwares/fixedwing/main_ap.c ****       pprz_mode = RC_LOST_MODE;
 226:firmwares/fixedwing/main_ap.c ****       mode_changed = TRUE;
 227:firmwares/fixedwing/main_ap.c ****     }
 228:firmwares/fixedwing/main_ap.c ****   }
 229:firmwares/fixedwing/main_ap.c ****   if (bit_is_set(fbw_state->status, AVERAGED_CHANNELS_SENT)) {
 230:firmwares/fixedwing/main_ap.c ****     bool_t pprz_mode_changed = pprz_mode_update();
 231:firmwares/fixedwing/main_ap.c ****     mode_changed |= pprz_mode_changed;
 232:firmwares/fixedwing/main_ap.c **** #if defined RADIO_CALIB && defined RADIO_CONTROL_SETTINGS
 233:firmwares/fixedwing/main_ap.c ****     bool_t calib_mode_changed = RcSettingsModeUpdate(fbw_state->channels);
 234:firmwares/fixedwing/main_ap.c ****     rc_settings(calib_mode_changed || pprz_mode_changed);
 235:firmwares/fixedwing/main_ap.c ****     mode_changed |= calib_mode_changed;
 236:firmwares/fixedwing/main_ap.c **** #endif
 237:firmwares/fixedwing/main_ap.c ****   }
 238:firmwares/fixedwing/main_ap.c ****   mode_changed |= mcu1_status_update();
 239:firmwares/fixedwing/main_ap.c ****   if ( mode_changed )
 240:firmwares/fixedwing/main_ap.c ****     PERIODIC_SEND_PPRZ_MODE(DefaultChannel);
 241:firmwares/fixedwing/main_ap.c **** 
 242:firmwares/fixedwing/main_ap.c **** #if defined RADIO_CONTROL || defined RADIO_CONTROL_AUTO1
 243:firmwares/fixedwing/main_ap.c ****   /** In AUTO1 mode, compute roll setpoint and pitch setpoint from
 244:firmwares/fixedwing/main_ap.c ****    * \a RADIO_ROLL and \a RADIO_PITCH \n
 245:firmwares/fixedwing/main_ap.c ****    */
 246:firmwares/fixedwing/main_ap.c ****   if (pprz_mode == PPRZ_MODE_AUTO1) {
 247:firmwares/fixedwing/main_ap.c ****     /** Roll is bounded between [-AUTO1_MAX_ROLL;AUTO1_MAX_ROLL] */
 248:firmwares/fixedwing/main_ap.c ****     h_ctl_roll_setpoint = FLOAT_OF_PPRZ(fbw_state->channels[RADIO_ROLL], 0., -AUTO1_MAX_ROLL);
 249:firmwares/fixedwing/main_ap.c **** 
 250:firmwares/fixedwing/main_ap.c ****     /** Pitch is bounded between [-AUTO1_MAX_PITCH;AUTO1_MAX_PITCH] */
 251:firmwares/fixedwing/main_ap.c ****     h_ctl_pitch_setpoint = FLOAT_OF_PPRZ(fbw_state->channels[RADIO_PITCH], 0., AUTO1_MAX_PITCH);
 252:firmwares/fixedwing/main_ap.c ****   } /** Else asynchronously set by \a h_ctl_course_loop() */
 253:firmwares/fixedwing/main_ap.c **** 
 254:firmwares/fixedwing/main_ap.c ****   /** In AUTO1, throttle comes from RADIO_THROTTLE
 255:firmwares/fixedwing/main_ap.c ****       In MANUAL, the value is copied to get it in the telemetry */
 256:firmwares/fixedwing/main_ap.c ****   if (pprz_mode == PPRZ_MODE_MANUAL || pprz_mode == PPRZ_MODE_AUTO1) {
 257:firmwares/fixedwing/main_ap.c ****     v_ctl_throttle_setpoint = fbw_state->channels[RADIO_THROTTLE];
 258:firmwares/fixedwing/main_ap.c ****   }
 259:firmwares/fixedwing/main_ap.c ****   /** else asynchronously set by v_ctl_climb_loop(); */
 260:firmwares/fixedwing/main_ap.c **** 
 261:firmwares/fixedwing/main_ap.c ****   mcu1_ppm_cpt = fbw_state->ppm_cpt;
 262:firmwares/fixedwing/main_ap.c **** #endif // RADIO_CONTROL
 263:firmwares/fixedwing/main_ap.c **** 
 264:firmwares/fixedwing/main_ap.c **** 
 265:firmwares/fixedwing/main_ap.c ****   vsupply = fbw_state->vsupply;
 266:firmwares/fixedwing/main_ap.c ****   current = fbw_state->current;
 267:firmwares/fixedwing/main_ap.c **** 
 268:firmwares/fixedwing/main_ap.c **** #ifdef RADIO_CONTROL
 269:firmwares/fixedwing/main_ap.c ****   if (!estimator_flight_time) {
 270:firmwares/fixedwing/main_ap.c ****     if (pprz_mode == PPRZ_MODE_AUTO2 && fbw_state->channels[RADIO_THROTTLE] > THROTTLE_THRESHOLD_TA
 271:firmwares/fixedwing/main_ap.c ****       launch = TRUE;
 272:firmwares/fixedwing/main_ap.c ****     }
 273:firmwares/fixedwing/main_ap.c ****   }
 274:firmwares/fixedwing/main_ap.c **** #endif
 275:firmwares/fixedwing/main_ap.c **** }
 276:firmwares/fixedwing/main_ap.c **** 
 277:firmwares/fixedwing/main_ap.c **** 
 278:firmwares/fixedwing/main_ap.c **** #ifdef FAILSAFE_DELAY_WITHOUT_GPS
 279:firmwares/fixedwing/main_ap.c **** #define GpsTimeoutError (cpu_time_sec - gps.last_fix_time > FAILSAFE_DELAY_WITHOUT_GPS)
 280:firmwares/fixedwing/main_ap.c **** #endif
 281:firmwares/fixedwing/main_ap.c **** 
 282:firmwares/fixedwing/main_ap.c **** /** \fn void navigation_task( void )
 283:firmwares/fixedwing/main_ap.c ****  *  \brief Compute desired_course
 284:firmwares/fixedwing/main_ap.c ****  */
 285:firmwares/fixedwing/main_ap.c **** static void navigation_task( void ) {
 286:firmwares/fixedwing/main_ap.c **** #if defined FAILSAFE_DELAY_WITHOUT_GPS
 287:firmwares/fixedwing/main_ap.c ****   /** This section is used for the failsafe of GPS */
 288:firmwares/fixedwing/main_ap.c ****   static uint8_t last_pprz_mode;
 289:firmwares/fixedwing/main_ap.c **** 
 290:firmwares/fixedwing/main_ap.c ****   /** If aircraft is launched and is in autonomus mode, go into
 291:firmwares/fixedwing/main_ap.c ****       PPRZ_MODE_GPS_OUT_OF_ORDER mode (Failsafe) if we lost the GPS */
 292:firmwares/fixedwing/main_ap.c ****   if (launch) {
 293:firmwares/fixedwing/main_ap.c ****     if (GpsTimeoutError) {
 294:firmwares/fixedwing/main_ap.c ****       if (pprz_mode == PPRZ_MODE_AUTO2 || pprz_mode == PPRZ_MODE_HOME) {
 295:firmwares/fixedwing/main_ap.c ****         last_pprz_mode = pprz_mode;
 296:firmwares/fixedwing/main_ap.c ****         pprz_mode = PPRZ_MODE_GPS_OUT_OF_ORDER;
 297:firmwares/fixedwing/main_ap.c ****         PERIODIC_SEND_PPRZ_MODE(DefaultChannel);
 298:firmwares/fixedwing/main_ap.c ****         gps_lost = TRUE;
 299:firmwares/fixedwing/main_ap.c ****       }
 300:firmwares/fixedwing/main_ap.c ****     } else if (gps_lost) { /* GPS is ok */
 301:firmwares/fixedwing/main_ap.c ****       /** If aircraft was in failsafe mode, come back in previous mode */
 302:firmwares/fixedwing/main_ap.c ****       pprz_mode = last_pprz_mode;
 303:firmwares/fixedwing/main_ap.c ****       gps_lost = FALSE;
 304:firmwares/fixedwing/main_ap.c **** 
 305:firmwares/fixedwing/main_ap.c ****       PERIODIC_SEND_PPRZ_MODE(DefaultChannel);
 306:firmwares/fixedwing/main_ap.c ****     }
 307:firmwares/fixedwing/main_ap.c ****   }
 308:firmwares/fixedwing/main_ap.c **** #endif /* GPS && FAILSAFE_DELAY_WITHOUT_GPS */
 309:firmwares/fixedwing/main_ap.c **** 
 310:firmwares/fixedwing/main_ap.c ****   common_nav_periodic_task_4Hz();
 311:firmwares/fixedwing/main_ap.c ****   if (pprz_mode == PPRZ_MODE_HOME)
 312:firmwares/fixedwing/main_ap.c ****     nav_home();
 313:firmwares/fixedwing/main_ap.c ****   else if (pprz_mode == PPRZ_MODE_GPS_OUT_OF_ORDER)
 314:firmwares/fixedwing/main_ap.c ****     nav_without_gps();
 315:firmwares/fixedwing/main_ap.c ****   else
 316:firmwares/fixedwing/main_ap.c ****     nav_periodic_task();
 317:firmwares/fixedwing/main_ap.c **** 
 318:firmwares/fixedwing/main_ap.c **** #ifdef TCAS
 319:firmwares/fixedwing/main_ap.c ****   CallTCAS();
 320:firmwares/fixedwing/main_ap.c **** #endif
 321:firmwares/fixedwing/main_ap.c **** 
 322:firmwares/fixedwing/main_ap.c **** #ifndef PERIOD_NAVIGATION_DefaultChannel_0 // If not sent periodically (in default 0 mode)
 323:firmwares/fixedwing/main_ap.c ****   SEND_NAVIGATION(DefaultChannel);
 324:firmwares/fixedwing/main_ap.c **** #endif
 325:firmwares/fixedwing/main_ap.c **** 
 326:firmwares/fixedwing/main_ap.c ****   SEND_CAM(DefaultChannel);
 327:firmwares/fixedwing/main_ap.c **** 
 328:firmwares/fixedwing/main_ap.c ****   /* The nav task computes only nav_altitude. However, we are interested
 329:firmwares/fixedwing/main_ap.c ****      by desired_altitude (= nav_alt+alt_shift) in any case.
 330:firmwares/fixedwing/main_ap.c ****      So we always run the altitude control loop */
 331:firmwares/fixedwing/main_ap.c ****   if (v_ctl_mode == V_CTL_MODE_AUTO_ALT)
 332:firmwares/fixedwing/main_ap.c ****     v_ctl_altitude_loop();
 333:firmwares/fixedwing/main_ap.c **** 
 334:firmwares/fixedwing/main_ap.c ****   if (pprz_mode == PPRZ_MODE_AUTO2 || pprz_mode == PPRZ_MODE_HOME
 335:firmwares/fixedwing/main_ap.c ****             || pprz_mode == PPRZ_MODE_GPS_OUT_OF_ORDER) {
 336:firmwares/fixedwing/main_ap.c **** #ifdef H_CTL_RATE_LOOP
 337:firmwares/fixedwing/main_ap.c ****     /* Be sure to be in attitude mode, not roll */
 338:firmwares/fixedwing/main_ap.c ****     h_ctl_auto1_rate = FALSE;
 339:firmwares/fixedwing/main_ap.c **** #endif
 340:firmwares/fixedwing/main_ap.c ****     if (lateral_mode >=LATERAL_MODE_COURSE)
 341:firmwares/fixedwing/main_ap.c ****       h_ctl_course_loop(); /* aka compute nav_desired_roll */
 342:firmwares/fixedwing/main_ap.c ****     if (v_ctl_mode >= V_CTL_MODE_AUTO_CLIMB)
 343:firmwares/fixedwing/main_ap.c ****       v_ctl_climb_loop();
 344:firmwares/fixedwing/main_ap.c ****     if (v_ctl_mode == V_CTL_MODE_AUTO_THROTTLE)
 345:firmwares/fixedwing/main_ap.c ****       v_ctl_throttle_setpoint = nav_throttle_setpoint;
 346:firmwares/fixedwing/main_ap.c **** 
 347:firmwares/fixedwing/main_ap.c **** #if defined V_CTL_THROTTLE_IDLE
 348:firmwares/fixedwing/main_ap.c ****     Bound(v_ctl_throttle_setpoint, TRIM_PPRZ(V_CTL_THROTTLE_IDLE*MAX_PPRZ), MAX_PPRZ);
 349:firmwares/fixedwing/main_ap.c **** #endif
 350:firmwares/fixedwing/main_ap.c **** 
 351:firmwares/fixedwing/main_ap.c **** #ifdef V_CTL_POWER_CTL_BAT_NOMINAL
 352:firmwares/fixedwing/main_ap.c ****     if (vsupply > 0.) {
 353:firmwares/fixedwing/main_ap.c ****       v_ctl_throttle_setpoint *= 10. * V_CTL_POWER_CTL_BAT_NOMINAL / (float)vsupply;
 354:firmwares/fixedwing/main_ap.c ****       v_ctl_throttle_setpoint = TRIM_UPPRZ(v_ctl_throttle_setpoint);
 355:firmwares/fixedwing/main_ap.c ****     }
 356:firmwares/fixedwing/main_ap.c **** #endif
 357:firmwares/fixedwing/main_ap.c **** 
 358:firmwares/fixedwing/main_ap.c ****     h_ctl_pitch_setpoint = nav_pitch;
 359:firmwares/fixedwing/main_ap.c ****     Bound(h_ctl_pitch_setpoint, H_CTL_PITCH_MIN_SETPOINT, H_CTL_PITCH_MAX_SETPOINT);
 360:firmwares/fixedwing/main_ap.c ****     if (kill_throttle || (!estimator_flight_time && !launch))
 361:firmwares/fixedwing/main_ap.c ****       v_ctl_throttle_setpoint = 0;
 362:firmwares/fixedwing/main_ap.c ****   }
 363:firmwares/fixedwing/main_ap.c ****   energy += ((float)current) / 3600.0f * 0.25f;	// mAh = mA * dt (4Hz -> hours)
 364:firmwares/fixedwing/main_ap.c **** }
 365:firmwares/fixedwing/main_ap.c **** 
 366:firmwares/fixedwing/main_ap.c **** 
 367:firmwares/fixedwing/main_ap.c **** #ifndef KILL_MODE_DISTANCE
 368:firmwares/fixedwing/main_ap.c **** #define KILL_MODE_DISTANCE (1.5*MAX_DIST_FROM_HOME)
 369:firmwares/fixedwing/main_ap.c **** #endif
 370:firmwares/fixedwing/main_ap.c **** 
 371:firmwares/fixedwing/main_ap.c **** 
 372:firmwares/fixedwing/main_ap.c **** /** Maximum time allowed for low battery level */
 373:firmwares/fixedwing/main_ap.c **** #define LOW_BATTERY_DELAY 5
 374:firmwares/fixedwing/main_ap.c **** 
 375:firmwares/fixedwing/main_ap.c **** /** \fn inline void periodic_task( void )
 376:firmwares/fixedwing/main_ap.c ****  *  \brief Do periodic tasks at 60 Hz
 377:firmwares/fixedwing/main_ap.c ****  */
 378:firmwares/fixedwing/main_ap.c **** /**There are four @@@@@ boucles @@@@@:
 379:firmwares/fixedwing/main_ap.c ****  * - 20 Hz:
 380:firmwares/fixedwing/main_ap.c ****  *   - lets use \a reporting_task at 60 Hz
 381:firmwares/fixedwing/main_ap.c ****  *   - updates estimator of ir with \a ahrs_update_infrared
 382:firmwares/fixedwing/main_ap.c ****  *   - set \a desired_aileron and \a desired_elevator with \a pid_attitude_loop
 383:firmwares/fixedwing/main_ap.c ****  *   - sends to \a fbw \a desired_throttle, \a desired_aileron and
 384:firmwares/fixedwing/main_ap.c ****  *     \a desired_elevator \note \a desired_throttle is set upon GPS
 385:firmwares/fixedwing/main_ap.c ****  *     message reception
 386:firmwares/fixedwing/main_ap.c ****  * - 4 Hz:
 387:firmwares/fixedwing/main_ap.c ****  *   - calls \a estimator_propagate_state
 388:firmwares/fixedwing/main_ap.c ****  *   - do navigation with \a navigation_task
 389:firmwares/fixedwing/main_ap.c ****  *
 390:firmwares/fixedwing/main_ap.c ****  */
 391:firmwares/fixedwing/main_ap.c **** 
 392:firmwares/fixedwing/main_ap.c **** 
 393:firmwares/fixedwing/main_ap.c **** static inline void attitude_loop( void ) {
 394:firmwares/fixedwing/main_ap.c **** 
 395:firmwares/fixedwing/main_ap.c **** #ifdef USE_GYRO
 396:firmwares/fixedwing/main_ap.c ****   gyro_update();
 397:firmwares/fixedwing/main_ap.c **** #endif
 398:firmwares/fixedwing/main_ap.c **** 
 399:firmwares/fixedwing/main_ap.c **** #ifdef USE_INFRARED
 400:firmwares/fixedwing/main_ap.c ****   ahrs_update_infrared();
 401:firmwares/fixedwing/main_ap.c **** #endif /* USE_INFRARED */
 402:firmwares/fixedwing/main_ap.c **** 
 403:firmwares/fixedwing/main_ap.c ****   h_ctl_attitude_loop(); /* Set  h_ctl_aileron_setpoint & h_ctl_elevator_setpoint */
 404:firmwares/fixedwing/main_ap.c ****   v_ctl_throttle_slew();
 405:firmwares/fixedwing/main_ap.c ****   ap_state->commands[COMMAND_THROTTLE] = v_ctl_throttle_slewed;
 406:firmwares/fixedwing/main_ap.c ****   ap_state->commands[COMMAND_ROLL] = h_ctl_aileron_setpoint;
 407:firmwares/fixedwing/main_ap.c **** 
 408:firmwares/fixedwing/main_ap.c ****   ap_state->commands[COMMAND_PITCH] = h_ctl_elevator_setpoint;
 409:firmwares/fixedwing/main_ap.c **** 
 410:firmwares/fixedwing/main_ap.c **** #if defined MCU_SPI_LINK
 411:firmwares/fixedwing/main_ap.c ****   link_mcu_send();
 412:firmwares/fixedwing/main_ap.c **** #elif defined INTER_MCU && defined SINGLE_MCU
 413:firmwares/fixedwing/main_ap.c ****   /**Directly set the flag indicating to FBW that shared buffer is available*/
 414:firmwares/fixedwing/main_ap.c ****   inter_mcu_received_ap = TRUE;
 415:firmwares/fixedwing/main_ap.c **** #endif
 416:firmwares/fixedwing/main_ap.c **** 
 417:firmwares/fixedwing/main_ap.c **** }
 418:firmwares/fixedwing/main_ap.c **** 
 419:firmwares/fixedwing/main_ap.c **** #ifdef USE_AHRS
 420:firmwares/fixedwing/main_ap.c **** #ifdef AHRS_TRIGGERED_ATTITUDE_LOOP
 421:firmwares/fixedwing/main_ap.c **** volatile uint8_t new_ins_attitude = 0;
 422:firmwares/fixedwing/main_ap.c **** #endif
 423:firmwares/fixedwing/main_ap.c **** #endif
 424:firmwares/fixedwing/main_ap.c **** 
 425:firmwares/fixedwing/main_ap.c **** void periodic_task_ap( void ) {
 426:firmwares/fixedwing/main_ap.c **** 
 427:firmwares/fixedwing/main_ap.c ****   static uint8_t _60Hz = 0;
 428:firmwares/fixedwing/main_ap.c ****   static uint8_t _20Hz = 0;
 429:firmwares/fixedwing/main_ap.c ****   static uint8_t _10Hz = 0;
 430:firmwares/fixedwing/main_ap.c ****   static uint8_t _4Hz  = 0;
 431:firmwares/fixedwing/main_ap.c ****   static uint8_t _1Hz  = 0;
 432:firmwares/fixedwing/main_ap.c **** 
 433:firmwares/fixedwing/main_ap.c **** #ifdef USE_IMU
 434:firmwares/fixedwing/main_ap.c ****   // Run at PERIODIC_FREQUENCY (60Hz if not defined)
 435:firmwares/fixedwing/main_ap.c ****   imu_periodic();
 436:firmwares/fixedwing/main_ap.c **** 
 437:firmwares/fixedwing/main_ap.c **** #ifdef USE_AHRS
 438:firmwares/fixedwing/main_ap.c ****   if (ahrs_timeout_counter < 255)
 439:firmwares/fixedwing/main_ap.c ****     ahrs_timeout_counter ++;
 440:firmwares/fixedwing/main_ap.c **** #endif
 441:firmwares/fixedwing/main_ap.c **** 
 442:firmwares/fixedwing/main_ap.c **** #endif // USE_IMU
 443:firmwares/fixedwing/main_ap.c **** 
 444:firmwares/fixedwing/main_ap.c **** #define _check_periodic_freq_ PERIODIC_FREQUENCY % 60
 445:firmwares/fixedwing/main_ap.c **** #if _check_periodic_freq_
 446:firmwares/fixedwing/main_ap.c **** #error Using HighSpeed Periodic: PERIODIC_FREQUENCY has to be a multiple of 60!
 447:firmwares/fixedwing/main_ap.c **** #endif
 448:firmwares/fixedwing/main_ap.c ****   _60Hz++;
 449:firmwares/fixedwing/main_ap.c ****   if (_60Hz >= (PERIODIC_FREQUENCY / 60))
 450:firmwares/fixedwing/main_ap.c ****   {
 451:firmwares/fixedwing/main_ap.c ****     _60Hz = 0;
 452:firmwares/fixedwing/main_ap.c ****   }
 453:firmwares/fixedwing/main_ap.c ****   else
 454:firmwares/fixedwing/main_ap.c ****   {
 455:firmwares/fixedwing/main_ap.c ****     return;
 456:firmwares/fixedwing/main_ap.c ****   }
 457:firmwares/fixedwing/main_ap.c **** 
 458:firmwares/fixedwing/main_ap.c **** 
 459:firmwares/fixedwing/main_ap.c ****   // Rest of the periodic function still runs at 60Hz like always
 460:firmwares/fixedwing/main_ap.c ****   _20Hz++;
 461:firmwares/fixedwing/main_ap.c ****   if (_20Hz>=3) _20Hz=0;
 462:firmwares/fixedwing/main_ap.c ****   _10Hz++;
 463:firmwares/fixedwing/main_ap.c ****   if (_10Hz>=6) _10Hz=0;
 464:firmwares/fixedwing/main_ap.c ****   _4Hz++;
 465:firmwares/fixedwing/main_ap.c ****   if (_4Hz>=15) _4Hz=0;
 466:firmwares/fixedwing/main_ap.c ****   _1Hz++;
 467:firmwares/fixedwing/main_ap.c ****   if (_1Hz>=60) _1Hz=0;
 468:firmwares/fixedwing/main_ap.c **** 
 469:firmwares/fixedwing/main_ap.c ****   reporting_task();
 470:firmwares/fixedwing/main_ap.c **** 
 471:firmwares/fixedwing/main_ap.c ****   if (!_1Hz) {
 472:firmwares/fixedwing/main_ap.c ****     if (estimator_flight_time) estimator_flight_time++;
 473:firmwares/fixedwing/main_ap.c **** #if defined DATALINK || defined SITL
 474:firmwares/fixedwing/main_ap.c ****     datalink_time++;
 475:firmwares/fixedwing/main_ap.c **** #endif
 476:firmwares/fixedwing/main_ap.c **** 
 477:firmwares/fixedwing/main_ap.c ****     static uint8_t t = 0;
 478:firmwares/fixedwing/main_ap.c ****     if (vsupply < LOW_BATTERY_DECIVOLT) t++; else t = 0;
 479:firmwares/fixedwing/main_ap.c ****     kill_throttle |= (t >= LOW_BATTERY_DELAY);
 480:firmwares/fixedwing/main_ap.c ****     kill_throttle |= launch && (dist2_to_home > Square(KILL_MODE_DISTANCE));
 481:firmwares/fixedwing/main_ap.c ****   }
 482:firmwares/fixedwing/main_ap.c **** 
 483:firmwares/fixedwing/main_ap.c ****   switch(_4Hz) {
 484:firmwares/fixedwing/main_ap.c ****   case 0:
 485:firmwares/fixedwing/main_ap.c ****     estimator_propagate_state();
 486:firmwares/fixedwing/main_ap.c **** #ifdef EXTRA_DOWNLINK_DEVICE
 487:firmwares/fixedwing/main_ap.c ****     DOWNLINK_SEND_ATTITUDE(ExtraPprzTransport,&estimator_phi,&estimator_psi,&estimator_theta);
 488:firmwares/fixedwing/main_ap.c **** #endif
 489:firmwares/fixedwing/main_ap.c ****     navigation_task();
 490:firmwares/fixedwing/main_ap.c ****     break;
 491:firmwares/fixedwing/main_ap.c ****   case 1:
 492:firmwares/fixedwing/main_ap.c ****     if (!estimator_flight_time &&
 493:firmwares/fixedwing/main_ap.c ****         estimator_hspeed_mod > MIN_SPEED_FOR_TAKEOFF) {
 494:firmwares/fixedwing/main_ap.c ****       estimator_flight_time = 1;
 495:firmwares/fixedwing/main_ap.c ****       launch = TRUE; /* Not set in non auto launch */
 496:firmwares/fixedwing/main_ap.c ****       DOWNLINK_SEND_TAKEOFF(DefaultChannel, &cpu_time_sec);
 497:firmwares/fixedwing/main_ap.c ****   default:
 498:firmwares/fixedwing/main_ap.c ****     break;
 499:firmwares/fixedwing/main_ap.c ****     }
 500:firmwares/fixedwing/main_ap.c **** 
 501:firmwares/fixedwing/main_ap.c ****     break;
 502:firmwares/fixedwing/main_ap.c **** 
 503:firmwares/fixedwing/main_ap.c **** #ifdef USE_GPIO
 504:firmwares/fixedwing/main_ap.c ****   case 3:
 505:firmwares/fixedwing/main_ap.c ****     GpioUpdate1();
 506:firmwares/fixedwing/main_ap.c ****     break;
 507:firmwares/fixedwing/main_ap.c **** #endif
 508:firmwares/fixedwing/main_ap.c **** 
 509:firmwares/fixedwing/main_ap.c ****     /*  default: */
 510:firmwares/fixedwing/main_ap.c ****   }
 511:firmwares/fixedwing/main_ap.c **** 
 512:firmwares/fixedwing/main_ap.c **** #ifndef CONTROL_RATE
 513:firmwares/fixedwing/main_ap.c **** #define CONTROL_RATE 20
 514:firmwares/fixedwing/main_ap.c **** #endif
 515:firmwares/fixedwing/main_ap.c **** 
 516:firmwares/fixedwing/main_ap.c **** #if CONTROL_RATE != 60 && CONTROL_RATE != 20
 517:firmwares/fixedwing/main_ap.c **** #error "Only 20 and 60 allowed for CONTROL_RATE"
 518:firmwares/fixedwing/main_ap.c **** #endif
 519:firmwares/fixedwing/main_ap.c **** 
 520:firmwares/fixedwing/main_ap.c **** #if CONTROL_RATE == 20
 521:firmwares/fixedwing/main_ap.c ****   if (!_20Hz)
 522:firmwares/fixedwing/main_ap.c **** #endif
 523:firmwares/fixedwing/main_ap.c ****     {
 524:firmwares/fixedwing/main_ap.c **** 
 525:firmwares/fixedwing/main_ap.c **** #ifndef AHRS_TRIGGERED_ATTITUDE_LOOP
 526:firmwares/fixedwing/main_ap.c ****       attitude_loop();
 527:firmwares/fixedwing/main_ap.c **** #endif
 528:firmwares/fixedwing/main_ap.c **** 
 529:firmwares/fixedwing/main_ap.c ****     }
 530:firmwares/fixedwing/main_ap.c **** 
 531:firmwares/fixedwing/main_ap.c **** 
 532:firmwares/fixedwing/main_ap.c ****   modules_periodic_task();
 533:firmwares/fixedwing/main_ap.c **** }
 534:firmwares/fixedwing/main_ap.c **** 
 535:firmwares/fixedwing/main_ap.c **** 
 536:firmwares/fixedwing/main_ap.c **** void init_ap( void ) {
 537:firmwares/fixedwing/main_ap.c **** #ifndef SINGLE_MCU /** init done in main_fbw in single MCU */
 538:firmwares/fixedwing/main_ap.c ****   mcu_init();
 539:firmwares/fixedwing/main_ap.c ****   sys_time_init();
 540:firmwares/fixedwing/main_ap.c **** #endif /* SINGLE_MCU */
 541:firmwares/fixedwing/main_ap.c **** 
 542:firmwares/fixedwing/main_ap.c ****   /************* Sensors initialization ***************/
 543:firmwares/fixedwing/main_ap.c **** #ifdef USE_GYRO
 544:firmwares/fixedwing/main_ap.c ****   gyro_init();
 545:firmwares/fixedwing/main_ap.c **** #endif
 546:firmwares/fixedwing/main_ap.c **** #ifdef USE_GPS
 547:firmwares/fixedwing/main_ap.c ****   gps_init();
 548:firmwares/fixedwing/main_ap.c **** #endif
 549:firmwares/fixedwing/main_ap.c **** 
 550:firmwares/fixedwing/main_ap.c **** #ifdef USE_GPIO
 551:firmwares/fixedwing/main_ap.c ****   GpioInit();
 552:firmwares/fixedwing/main_ap.c **** #endif
 553:firmwares/fixedwing/main_ap.c **** 
 554:firmwares/fixedwing/main_ap.c **** #ifdef USE_IMU
 555:firmwares/fixedwing/main_ap.c ****   imu_init();
 556:firmwares/fixedwing/main_ap.c **** #endif
 557:firmwares/fixedwing/main_ap.c **** 
 558:firmwares/fixedwing/main_ap.c **** #ifdef USE_AHRS_ALIGNER
 559:firmwares/fixedwing/main_ap.c ****   ahrs_aligner_init();
 560:firmwares/fixedwing/main_ap.c **** #endif
 561:firmwares/fixedwing/main_ap.c **** 
 562:firmwares/fixedwing/main_ap.c **** #ifdef USE_AHRS
 563:firmwares/fixedwing/main_ap.c ****   ahrs_init();
 564:firmwares/fixedwing/main_ap.c **** #endif
 565:firmwares/fixedwing/main_ap.c **** 
 566:firmwares/fixedwing/main_ap.c ****   /************* Links initialization ***************/
 567:firmwares/fixedwing/main_ap.c **** #if defined MCU_SPI_LINK
 568:firmwares/fixedwing/main_ap.c ****   link_mcu_init();
 569:firmwares/fixedwing/main_ap.c **** #endif
 570:firmwares/fixedwing/main_ap.c **** #ifdef MODEM
 571:firmwares/fixedwing/main_ap.c ****   modem_init();
 572:firmwares/fixedwing/main_ap.c **** #endif
 573:firmwares/fixedwing/main_ap.c **** 
 574:firmwares/fixedwing/main_ap.c ****   /************ Internal status ***************/
 575:firmwares/fixedwing/main_ap.c ****   h_ctl_init();
 576:firmwares/fixedwing/main_ap.c ****   v_ctl_init();
 577:firmwares/fixedwing/main_ap.c ****   estimator_init();
 578:firmwares/fixedwing/main_ap.c **** #ifdef ALT_KALMAN
 579:firmwares/fixedwing/main_ap.c ****   alt_kalman_init();
 580:firmwares/fixedwing/main_ap.c **** #endif
 581:firmwares/fixedwing/main_ap.c ****   nav_init();
 582:firmwares/fixedwing/main_ap.c **** 
 583:firmwares/fixedwing/main_ap.c ****   modules_init();
 584:firmwares/fixedwing/main_ap.c **** 
 585:firmwares/fixedwing/main_ap.c ****   settings_init();
 586:firmwares/fixedwing/main_ap.c **** 
 587:firmwares/fixedwing/main_ap.c ****   /** - start interrupt task */
 588:firmwares/fixedwing/main_ap.c ****   mcu_int_enable();
 589:firmwares/fixedwing/main_ap.c **** 
 590:firmwares/fixedwing/main_ap.c ****   /** wait 0.5s (historical :-) */
 591:firmwares/fixedwing/main_ap.c ****   sys_time_usleep(500000);
 592:firmwares/fixedwing/main_ap.c **** 
 593:firmwares/fixedwing/main_ap.c **** #if defined DATALINK
 594:firmwares/fixedwing/main_ap.c **** 
 595:firmwares/fixedwing/main_ap.c **** #if DATALINK == XBEE
 596:firmwares/fixedwing/main_ap.c ****   xbee_init();
 597:firmwares/fixedwing/main_ap.c **** #endif
 598:firmwares/fixedwing/main_ap.c **** #endif /* DATALINK */
 599:firmwares/fixedwing/main_ap.c **** 
 600:firmwares/fixedwing/main_ap.c **** #if defined AEROCOMM_DATA_PIN
 601:firmwares/fixedwing/main_ap.c ****   IO0DIR |= _BV(AEROCOMM_DATA_PIN);
 602:firmwares/fixedwing/main_ap.c ****   IO0SET = _BV(AEROCOMM_DATA_PIN);
 603:firmwares/fixedwing/main_ap.c **** #endif
 604:firmwares/fixedwing/main_ap.c **** 
 605:firmwares/fixedwing/main_ap.c ****   power_switch = FALSE;
 606:firmwares/fixedwing/main_ap.c **** 
 607:firmwares/fixedwing/main_ap.c ****   /************ Multi-uavs status ***************/
 608:firmwares/fixedwing/main_ap.c **** 
 609:firmwares/fixedwing/main_ap.c **** #ifdef TRAFFIC_INFO
 610:firmwares/fixedwing/main_ap.c ****   traffic_info_init();
 611:firmwares/fixedwing/main_ap.c **** #endif
 612:firmwares/fixedwing/main_ap.c **** }
 613:firmwares/fixedwing/main_ap.c **** 
 614:firmwares/fixedwing/main_ap.c **** 
 615:firmwares/fixedwing/main_ap.c **** /*********** EVENT ***********************************************************/
 616:firmwares/fixedwing/main_ap.c **** void event_task_ap( void ) {
 617:firmwares/fixedwing/main_ap.c **** 
 618:firmwares/fixedwing/main_ap.c **** #if defined USE_AHRS
 619:firmwares/fixedwing/main_ap.c **** #ifdef USE_IMU
 620:firmwares/fixedwing/main_ap.c ****   ImuEvent(on_gyro_event, on_accel_event, on_mag_event);
 621:firmwares/fixedwing/main_ap.c **** #else
 622:firmwares/fixedwing/main_ap.c ****   AhrsEvent(on_ahrs_event);
 623:firmwares/fixedwing/main_ap.c **** #endif // USE_IMU
 624:firmwares/fixedwing/main_ap.c **** #endif // USE_AHRS
 625:firmwares/fixedwing/main_ap.c **** 
 626:firmwares/fixedwing/main_ap.c **** #ifdef USE_GPS
 627:firmwares/fixedwing/main_ap.c ****   GpsEvent(on_gps_solution);
 628:firmwares/fixedwing/main_ap.c **** #endif /** USE_GPS */
 629:firmwares/fixedwing/main_ap.c **** 
 630:firmwares/fixedwing/main_ap.c **** 
 631:firmwares/fixedwing/main_ap.c ****   DatalinkEvent();
 632:firmwares/fixedwing/main_ap.c **** 
 633:firmwares/fixedwing/main_ap.c **** 
 634:firmwares/fixedwing/main_ap.c **** #ifdef MCU_SPI_LINK
 635:firmwares/fixedwing/main_ap.c ****     link_mcu_event_task();
 636:firmwares/fixedwing/main_ap.c **** #endif
 637:firmwares/fixedwing/main_ap.c **** 
 638:firmwares/fixedwing/main_ap.c ****   if (inter_mcu_received_fbw) {
 639:firmwares/fixedwing/main_ap.c ****     /* receive radio control task from fbw */
 640:firmwares/fixedwing/main_ap.c ****     inter_mcu_received_fbw = FALSE;
 641:firmwares/fixedwing/main_ap.c ****     telecommand_task();
 642:firmwares/fixedwing/main_ap.c ****   }
 643:firmwares/fixedwing/main_ap.c **** 
 644:firmwares/fixedwing/main_ap.c ****   modules_event_task();
 645:firmwares/fixedwing/main_ap.c **** 
 646:firmwares/fixedwing/main_ap.c **** #ifdef AHRS_TRIGGERED_ATTITUDE_LOOP
 647:firmwares/fixedwing/main_ap.c ****   if (new_ins_attitude > 0)
 648:firmwares/fixedwing/main_ap.c ****   {
 649:firmwares/fixedwing/main_ap.c ****     attitude_loop();
 650:firmwares/fixedwing/main_ap.c ****     //LED_TOGGLE(3);
 651:firmwares/fixedwing/main_ap.c ****     new_ins_attitude = 0;
 652:firmwares/fixedwing/main_ap.c ****   }
 653:firmwares/fixedwing/main_ap.c **** #endif
 654:firmwares/fixedwing/main_ap.c **** 
 655:firmwares/fixedwing/main_ap.c **** } /* event_task_ap() */
 656:firmwares/fixedwing/main_ap.c **** 
 657:firmwares/fixedwing/main_ap.c **** 
 658:firmwares/fixedwing/main_ap.c **** #ifdef USE_GPS
 659:firmwares/fixedwing/main_ap.c **** static inline void on_gps_solution( void ) {
 660:firmwares/fixedwing/main_ap.c ****   estimator_update_state_gps();
 661:firmwares/fixedwing/main_ap.c **** #ifdef USE_INFRARED
 662:firmwares/fixedwing/main_ap.c ****   ahrs_update_gps();
 663:firmwares/fixedwing/main_ap.c **** #endif
 664:firmwares/fixedwing/main_ap.c **** #ifdef GPS_TRIGGERED_FUNCTION
 665:firmwares/fixedwing/main_ap.c ****   GPS_TRIGGERED_FUNCTION();
 666:firmwares/fixedwing/main_ap.c **** #endif
 667:firmwares/fixedwing/main_ap.c **** }
 668:firmwares/fixedwing/main_ap.c **** #endif
 669:firmwares/fixedwing/main_ap.c **** 
 670:firmwares/fixedwing/main_ap.c **** 
 671:firmwares/fixedwing/main_ap.c **** #ifdef USE_AHRS
 672:firmwares/fixedwing/main_ap.c **** #ifdef USE_IMU
 673:firmwares/fixedwing/main_ap.c **** static inline void on_accel_event( void ) {
  31              		.loc 1 673 0
  32              		.cfi_startproc
  33              		@ args = 0, pretend = 0, frame = 0
  34              		@ frame_needed = 0, uses_anonymous_args = 0
  35              		@ link register save eliminated.
 674:firmwares/fixedwing/main_ap.c **** }
  36              		.loc 1 674 0
  37 0000 7047     		bx	lr
  38              		.cfi_endproc
  39              	.LFE65:
  41              		.section	.text.gyro_read_i2c,"ax",%progbits
  42              		.align	1
  43              		.thumb
  44              		.thumb_func
  46              	gyro_read_i2c:
  47              	.LFB35:
  48              		.file 2 "./subsystems/imu/imu_aspirin.h"
   1:./subsystems/imu/imu_aspirin.h **** /*
   2:./subsystems/imu/imu_aspirin.h ****  * $Id$
   3:./subsystems/imu/imu_aspirin.h ****  *
   4:./subsystems/imu/imu_aspirin.h ****  * Copyright (C) 2010 Antoine Drouin <poinix@gmail.com>
   5:./subsystems/imu/imu_aspirin.h ****  *
   6:./subsystems/imu/imu_aspirin.h ****  * This file is part of paparazzi.
   7:./subsystems/imu/imu_aspirin.h ****  *
   8:./subsystems/imu/imu_aspirin.h ****  * paparazzi is free software; you can redistribute it and/or modify
   9:./subsystems/imu/imu_aspirin.h ****  * it under the terms of the GNU General Public License as published by
  10:./subsystems/imu/imu_aspirin.h ****  * the Free Software Foundation; either version 2, or (at your option)
  11:./subsystems/imu/imu_aspirin.h ****  * any later version.
  12:./subsystems/imu/imu_aspirin.h ****  *
  13:./subsystems/imu/imu_aspirin.h ****  * paparazzi is distributed in the hope that it will be useful,
  14:./subsystems/imu/imu_aspirin.h ****  * but WITHOUT ANY WARRANTY; without even the implied warranty of
  15:./subsystems/imu/imu_aspirin.h ****  * MERCHANTABILITY or FITNESS FOR A PARTICULAR PURPOSE.  See the
  16:./subsystems/imu/imu_aspirin.h ****  * GNU General Public License for more details.
  17:./subsystems/imu/imu_aspirin.h ****  *
  18:./subsystems/imu/imu_aspirin.h ****  * You should have received a copy of the GNU General Public License
  19:./subsystems/imu/imu_aspirin.h ****  * along with paparazzi; see the file COPYING.  If not, write to
  20:./subsystems/imu/imu_aspirin.h ****  * the Free Software Foundation, 59 Temple Place - Suite 330,
  21:./subsystems/imu/imu_aspirin.h ****  * Boston, MA 02111-1307, USA.
  22:./subsystems/imu/imu_aspirin.h ****  */
  23:./subsystems/imu/imu_aspirin.h **** 
  24:./subsystems/imu/imu_aspirin.h **** #ifndef IMU_ASPIRIN_H
  25:./subsystems/imu/imu_aspirin.h **** #define IMU_ASPIRIN_H
  26:./subsystems/imu/imu_aspirin.h **** 
  27:./subsystems/imu/imu_aspirin.h **** #include "generated/airframe.h"
  28:./subsystems/imu/imu_aspirin.h **** #include "subsystems/imu.h"
  29:./subsystems/imu/imu_aspirin.h **** 
  30:./subsystems/imu/imu_aspirin.h **** #include "mcu_periph/i2c.h"
  31:./subsystems/imu/imu_aspirin.h **** #include "peripherals/itg3200.h"
  32:./subsystems/imu/imu_aspirin.h **** #include "peripherals/hmc5843.h"
  33:./subsystems/imu/imu_aspirin.h **** #include "peripherals/adxl345.h"
  34:./subsystems/imu/imu_aspirin.h **** 
  35:./subsystems/imu/imu_aspirin.h **** #ifdef IMU_ASPIRIN_VERSION_1_0
  36:./subsystems/imu/imu_aspirin.h **** #define IMU_MAG_X_CHAN 0
  37:./subsystems/imu/imu_aspirin.h **** #define IMU_MAG_Y_CHAN 1
  38:./subsystems/imu/imu_aspirin.h **** #define IMU_MAG_Z_CHAN 2
  39:./subsystems/imu/imu_aspirin.h **** #if !defined IMU_MAG_X_SIGN & !defined IMU_MAG_Y_SIGN & !defined IMU_MAG_Z_SIGN
  40:./subsystems/imu/imu_aspirin.h **** #define IMU_MAG_X_SIGN 1
  41:./subsystems/imu/imu_aspirin.h **** #define IMU_MAG_Y_SIGN 1
  42:./subsystems/imu/imu_aspirin.h **** #define IMU_MAG_Z_SIGN 1
  43:./subsystems/imu/imu_aspirin.h **** #endif
  44:./subsystems/imu/imu_aspirin.h **** #endif
  45:./subsystems/imu/imu_aspirin.h **** 
  46:./subsystems/imu/imu_aspirin.h **** #ifdef IMU_ASPIRIN_VERSION_1_5
  47:./subsystems/imu/imu_aspirin.h **** #define IMU_MAG_X_CHAN 2
  48:./subsystems/imu/imu_aspirin.h **** #define IMU_MAG_Y_CHAN 0
  49:./subsystems/imu/imu_aspirin.h **** #define IMU_MAG_Z_CHAN 1
  50:./subsystems/imu/imu_aspirin.h **** #if !defined IMU_MAG_X_SIGN & !defined IMU_MAG_Y_SIGN & !defined IMU_MAG_Z_SIGN
  51:./subsystems/imu/imu_aspirin.h **** #define IMU_MAG_X_SIGN 1
  52:./subsystems/imu/imu_aspirin.h **** #define IMU_MAG_Y_SIGN -1
  53:./subsystems/imu/imu_aspirin.h **** #define IMU_MAG_Z_SIGN 1
  54:./subsystems/imu/imu_aspirin.h **** #endif
  55:./subsystems/imu/imu_aspirin.h **** #endif
  56:./subsystems/imu/imu_aspirin.h **** 
  57:./subsystems/imu/imu_aspirin.h **** #if !defined IMU_GYRO_P_SIGN & !defined IMU_GYRO_Q_SIGN & !defined IMU_GYRO_R_SIGN
  58:./subsystems/imu/imu_aspirin.h **** #define IMU_GYRO_P_SIGN   1
  59:./subsystems/imu/imu_aspirin.h **** #define IMU_GYRO_Q_SIGN   1
  60:./subsystems/imu/imu_aspirin.h **** #define IMU_GYRO_R_SIGN   1
  61:./subsystems/imu/imu_aspirin.h **** #endif
  62:./subsystems/imu/imu_aspirin.h **** #if !defined IMU_ACCEL_X_SIGN & !defined IMU_ACCEL_Y_SIGN & !defined IMU_ACCEL_Z_SIGN
  63:./subsystems/imu/imu_aspirin.h **** #define IMU_ACCEL_X_SIGN  1
  64:./subsystems/imu/imu_aspirin.h **** #define IMU_ACCEL_Y_SIGN  1
  65:./subsystems/imu/imu_aspirin.h **** #define IMU_ACCEL_Z_SIGN  1
  66:./subsystems/imu/imu_aspirin.h **** #endif
  67:./subsystems/imu/imu_aspirin.h **** 
  68:./subsystems/imu/imu_aspirin.h **** enum AspirinStatus
  69:./subsystems/imu/imu_aspirin.h ****   { AspirinStatusUninit,
  70:./subsystems/imu/imu_aspirin.h ****     AspirinStatusIdle,
  71:./subsystems/imu/imu_aspirin.h ****     AspirinStatusReadingGyro,
  72:./subsystems/imu/imu_aspirin.h ****     AspirinStatusReadingMag
  73:./subsystems/imu/imu_aspirin.h ****   };
  74:./subsystems/imu/imu_aspirin.h **** 
  75:./subsystems/imu/imu_aspirin.h **** struct ImuAspirin {
  76:./subsystems/imu/imu_aspirin.h ****   volatile enum AspirinStatus status;
  77:./subsystems/imu/imu_aspirin.h ****   struct i2c_transaction i2c_trans_gyro;
  78:./subsystems/imu/imu_aspirin.h ****   struct i2c_transaction i2c_trans_mag;
  79:./subsystems/imu/imu_aspirin.h ****   volatile uint8_t accel_available;
  80:./subsystems/imu/imu_aspirin.h ****   volatile uint8_t accel_tx_buf[7];
  81:./subsystems/imu/imu_aspirin.h ****   volatile uint8_t accel_rx_buf[7];
  82:./subsystems/imu/imu_aspirin.h ****   uint32_t time_since_last_reading;
  83:./subsystems/imu/imu_aspirin.h ****   uint32_t time_since_last_accel_reading;
  84:./subsystems/imu/imu_aspirin.h ****   uint8_t mag_available;
  85:./subsystems/imu/imu_aspirin.h ****   uint8_t reading_gyro;
  86:./subsystems/imu/imu_aspirin.h ****   uint8_t gyro_available_blaaa;
  87:./subsystems/imu/imu_aspirin.h **** };
  88:./subsystems/imu/imu_aspirin.h **** 
  89:./subsystems/imu/imu_aspirin.h **** extern struct ImuAspirin imu_aspirin;
  90:./subsystems/imu/imu_aspirin.h **** #define ASPIRIN_GYRO_TIMEOUT 3
  91:./subsystems/imu/imu_aspirin.h **** #define ASPIRIN_ACCEL_TIMEOUT 3
  92:./subsystems/imu/imu_aspirin.h **** 
  93:./subsystems/imu/imu_aspirin.h **** #define foo_handler() {}
  94:./subsystems/imu/imu_aspirin.h **** #define ImuMagEvent(_mag_handler) {					\
  95:./subsystems/imu/imu_aspirin.h ****       MagEvent(foo_handler); \
  96:./subsystems/imu/imu_aspirin.h ****     if (hmc5843.data_available) {			\
  97:./subsystems/imu/imu_aspirin.h ****       imu.mag_unscaled.x = hmc5843.data.value[IMU_MAG_X_CHAN];		\
  98:./subsystems/imu/imu_aspirin.h ****       imu.mag_unscaled.y = hmc5843.data.value[IMU_MAG_Y_CHAN];		\
  99:./subsystems/imu/imu_aspirin.h ****       imu.mag_unscaled.z = hmc5843.data.value[IMU_MAG_Z_CHAN];		\
 100:./subsystems/imu/imu_aspirin.h ****       _mag_handler();							\
 101:./subsystems/imu/imu_aspirin.h ****       hmc5843.data_available = FALSE;		\
 102:./subsystems/imu/imu_aspirin.h ****     }									\
 103:./subsystems/imu/imu_aspirin.h **** }
 104:./subsystems/imu/imu_aspirin.h **** 
 105:./subsystems/imu/imu_aspirin.h **** /* underlying architecture */
 106:./subsystems/imu/imu_aspirin.h **** #include "subsystems/imu/imu_aspirin_arch.h"
 107:./subsystems/imu/imu_aspirin.h **** /* must be implemented by underlying architecture */
 108:./subsystems/imu/imu_aspirin.h **** extern void imu_aspirin_arch_init(void);
 109:./subsystems/imu/imu_aspirin.h **** 
 110:./subsystems/imu/imu_aspirin.h **** static inline void gyro_read_i2c(void)
 111:./subsystems/imu/imu_aspirin.h **** {
  49              		.loc 2 111 0
  50              		.cfi_startproc
  51              		@ args = 0, pretend = 0, frame = 0
  52              		@ frame_needed = 0, uses_anonymous_args = 0
  53 0000 10B5     		push	{r4, lr}
  54              	.LCFI0:
  55              		.cfi_def_cfa_offset 8
 112:./subsystems/imu/imu_aspirin.h ****   imu_aspirin.i2c_trans_gyro.buf[0] = ITG3200_REG_GYRO_XOUT_H;
  56              		.loc 2 112 0
  57 0002 054C     		ldr	r4, .L5
  58              		.cfi_offset 14, -4
  59              		.cfi_offset 4, -8
  60 0004 1D23     		movs	r3, #29
 113:./subsystems/imu/imu_aspirin.h ****   i2c_submit(&i2c2,&imu_aspirin.i2c_trans_gyro);
  61              		.loc 2 113 0
  62 0006 0548     		ldr	r0, .L5+4
  63 0008 A11C     		adds	r1, r4, #2
 112:./subsystems/imu/imu_aspirin.h ****   imu_aspirin.i2c_trans_gyro.buf[0] = ITG3200_REG_GYRO_XOUT_H;
  64              		.loc 2 112 0
  65 000a E371     		strb	r3, [r4, #7]
  66              		.loc 2 113 0
  67 000c FFF7FEFF 		bl	i2c_submit
 114:./subsystems/imu/imu_aspirin.h ****   imu_aspirin.reading_gyro = 1;
  68              		.loc 2 114 0
  69 0010 0123     		movs	r3, #1
  70 0012 84F86930 		strb	r3, [r4, #105]
 115:./subsystems/imu/imu_aspirin.h **** }
  71              		.loc 2 115 0
  72 0016 10BD     		pop	{r4, pc}
  73              	.L6:
  74              		.align	2
  75              	.L5:
  76 0018 00000000 		.word	imu_aspirin
  77 001c 00000000 		.word	i2c2
  78              		.cfi_endproc
  79              	.LFE35:
  81              		.section	.text.on_mag_event,"ax",%progbits
  82              		.align	1
  83              		.thumb
  84              		.thumb_func
  86              	on_mag_event:
  87              	.LFB67:
 675:firmwares/fixedwing/main_ap.c **** 
 676:firmwares/fixedwing/main_ap.c **** static inline void on_gyro_event( void ) {
 677:firmwares/fixedwing/main_ap.c **** 
 678:firmwares/fixedwing/main_ap.c ****   ahrs_timeout_counter = 0;
 679:firmwares/fixedwing/main_ap.c **** 
 680:firmwares/fixedwing/main_ap.c **** #ifdef AHRS_CPU_LED
 681:firmwares/fixedwing/main_ap.c ****     LED_ON(AHRS_CPU_LED);
 682:firmwares/fixedwing/main_ap.c **** #endif
 683:firmwares/fixedwing/main_ap.c **** 
 684:firmwares/fixedwing/main_ap.c **** #ifdef USE_AHRS_ALIGNER
 685:firmwares/fixedwing/main_ap.c ****   // Run aligner on raw data as it also makes averages.
 686:firmwares/fixedwing/main_ap.c ****   if (ahrs.status == AHRS_UNINIT) {
 687:firmwares/fixedwing/main_ap.c ****     ImuScaleGyro(imu);
 688:firmwares/fixedwing/main_ap.c ****     ImuScaleAccel(imu);
 689:firmwares/fixedwing/main_ap.c ****     ahrs_aligner_run();
 690:firmwares/fixedwing/main_ap.c ****     if (ahrs_aligner.status == AHRS_ALIGNER_LOCKED)
 691:firmwares/fixedwing/main_ap.c ****       ahrs_align();
 692:firmwares/fixedwing/main_ap.c ****     return;
 693:firmwares/fixedwing/main_ap.c ****   }
 694:firmwares/fixedwing/main_ap.c **** #endif
 695:firmwares/fixedwing/main_ap.c **** 
 696:firmwares/fixedwing/main_ap.c **** #if PERIODIC_FREQUENCY == 60
 697:firmwares/fixedwing/main_ap.c ****   ImuScaleGyro(imu);
 698:firmwares/fixedwing/main_ap.c ****   ImuScaleAccel(imu);
 699:firmwares/fixedwing/main_ap.c **** 
 700:firmwares/fixedwing/main_ap.c ****   ahrs_propagate();
 701:firmwares/fixedwing/main_ap.c ****   ahrs_update_accel();
 702:firmwares/fixedwing/main_ap.c ****   ahrs_update_fw_estimator();
 703:firmwares/fixedwing/main_ap.c **** 
 704:firmwares/fixedwing/main_ap.c **** #ifdef AHRS_TRIGGERED_ATTITUDE_LOOP
 705:firmwares/fixedwing/main_ap.c ****   new_ins_attitude = 1;
 706:firmwares/fixedwing/main_ap.c **** #endif
 707:firmwares/fixedwing/main_ap.c **** 
 708:firmwares/fixedwing/main_ap.c **** #else //PERIODIC_FREQUENCY
 709:firmwares/fixedwing/main_ap.c ****   static uint8_t _reduced_propagation_rate = 0;
 710:firmwares/fixedwing/main_ap.c ****   static uint8_t _reduced_correction_rate = 0;
 711:firmwares/fixedwing/main_ap.c ****   static struct Int32Vect3 acc_avg;
 712:firmwares/fixedwing/main_ap.c ****   static struct Int32Rates gyr_avg;
 713:firmwares/fixedwing/main_ap.c **** 
 714:firmwares/fixedwing/main_ap.c ****   RATES_ADD(gyr_avg, imu.gyro_unscaled);
 715:firmwares/fixedwing/main_ap.c ****   VECT3_ADD(acc_avg, imu.accel_unscaled);
 716:firmwares/fixedwing/main_ap.c **** 
 717:firmwares/fixedwing/main_ap.c ****   _reduced_propagation_rate++;
 718:firmwares/fixedwing/main_ap.c ****   if (_reduced_propagation_rate < (PERIODIC_FREQUENCY / AHRS_PROPAGATE_FREQUENCY))
 719:firmwares/fixedwing/main_ap.c ****   {
 720:firmwares/fixedwing/main_ap.c ****   }
 721:firmwares/fixedwing/main_ap.c ****   else
 722:firmwares/fixedwing/main_ap.c ****   {
 723:firmwares/fixedwing/main_ap.c ****     _reduced_propagation_rate = 0;
 724:firmwares/fixedwing/main_ap.c **** 
 725:firmwares/fixedwing/main_ap.c ****     RATES_SDIV(imu.gyro_unscaled, gyr_avg, (PERIODIC_FREQUENCY / AHRS_PROPAGATE_FREQUENCY) );
 726:firmwares/fixedwing/main_ap.c ****     INT_RATES_ZERO(gyr_avg);
 727:firmwares/fixedwing/main_ap.c **** 
 728:firmwares/fixedwing/main_ap.c ****     ImuScaleGyro(imu);
 729:firmwares/fixedwing/main_ap.c **** 
 730:firmwares/fixedwing/main_ap.c ****     ahrs_propagate();
 731:firmwares/fixedwing/main_ap.c **** 
 732:firmwares/fixedwing/main_ap.c ****     _reduced_correction_rate++;
 733:firmwares/fixedwing/main_ap.c ****     if (_reduced_correction_rate >= (AHRS_PROPAGATE_FREQUENCY / AHRS_CORRECT_FREQUENCY))
 734:firmwares/fixedwing/main_ap.c ****     {
 735:firmwares/fixedwing/main_ap.c ****       _reduced_correction_rate = 0;
 736:firmwares/fixedwing/main_ap.c ****       VECT3_SDIV(imu.accel_unscaled, acc_avg, (PERIODIC_FREQUENCY / AHRS_CORRECT_FREQUENCY) );
 737:firmwares/fixedwing/main_ap.c ****       INT_VECT3_ZERO(acc_avg);
 738:firmwares/fixedwing/main_ap.c ****       ImuScaleAccel(imu);
 739:firmwares/fixedwing/main_ap.c ****       ahrs_update_accel();
 740:firmwares/fixedwing/main_ap.c ****     }
 741:firmwares/fixedwing/main_ap.c **** 
 742:firmwares/fixedwing/main_ap.c ****     ahrs_update_fw_estimator();
 743:firmwares/fixedwing/main_ap.c **** 
 744:firmwares/fixedwing/main_ap.c **** #ifdef AHRS_TRIGGERED_ATTITUDE_LOOP
 745:firmwares/fixedwing/main_ap.c ****     new_ins_attitude = 1;
 746:firmwares/fixedwing/main_ap.c **** #endif
 747:firmwares/fixedwing/main_ap.c ****   }
 748:firmwares/fixedwing/main_ap.c **** #endif //PERIODIC_FREQUENCY
 749:firmwares/fixedwing/main_ap.c **** 
 750:firmwares/fixedwing/main_ap.c **** #ifdef AHRS_CPU_LED
 751:firmwares/fixedwing/main_ap.c ****     LED_OFF(AHRS_CPU_LED);
 752:firmwares/fixedwing/main_ap.c **** #endif
 753:firmwares/fixedwing/main_ap.c **** 
 754:firmwares/fixedwing/main_ap.c **** }
 755:firmwares/fixedwing/main_ap.c **** 
 756:firmwares/fixedwing/main_ap.c **** static inline void on_mag_event(void)
 757:firmwares/fixedwing/main_ap.c **** {
  88              		.loc 1 757 0
  89              		.cfi_startproc
  90              		@ args = 0, pretend = 0, frame = 0
  91              		@ frame_needed = 0, uses_anonymous_args = 0
  92              		@ link register save eliminated.
 758:firmwares/fixedwing/main_ap.c **** #ifdef IMU_MAG_X_SIGN
 759:firmwares/fixedwing/main_ap.c ****   ImuScaleMag(imu);
  93              		.loc 1 759 0
  94 0000 154B     		ldr	r3, .L11
  95 0002 996F     		ldr	r1, [r3, #120]
  96 0004 5A6D     		ldr	r2, [r3, #84]
  97 0006 8A1A     		subs	r2, r1, r2
  98 0008 48F67A11 		movw	r1, #35194
  99 000c 4A43     		muls	r2, r1, r2
 100 000e 42F20D41 		movw	r1, #9229
 101 0012 92FBF1F2 		sdiv	r2, r2, r1
 102 0016 9A61     		str	r2, [r3, #24]
 103 0018 D96F     		ldr	r1, [r3, #124]
 104 001a 9A6D     		ldr	r2, [r3, #88]
 105 001c 8A1A     		subs	r2, r1, r2
 106 001e 4EF27371 		movw	r1, #59251
 107 0022 4A43     		muls	r2, r1, r2
 108 0024 43F2E231 		movw	r1, #13282
 109 0028 92FBF1F2 		sdiv	r2, r2, r1
 110 002c DA61     		str	r2, [r3, #28]
 111 002e D3F88010 		ldr	r1, [r3, #128]
 112 0032 DA6D     		ldr	r2, [r3, #92]
 113 0034 8A1A     		subs	r2, r1, r2
 114 0036 4FF63161 		movw	r1, #65073
 115 003a 4A43     		muls	r2, r1, r2
 116 003c 44F22101 		movw	r1, #16417
 117 0040 92FBF1F2 		sdiv	r2, r2, r1
 118 0044 1A62     		str	r2, [r3, #32]
 760:firmwares/fixedwing/main_ap.c ****   if (ahrs.status == AHRS_RUNNING) {
 119              		.loc 1 760 0
 120 0046 054B     		ldr	r3, .L11+4
 121 0048 93F89830 		ldrb	r3, [r3, #152]	@ zero_extendqisi2
 122 004c 012B     		cmp	r3, #1
 123 004e 01D1     		bne	.L9
 761:firmwares/fixedwing/main_ap.c ****     ahrs_update_mag();
 762:firmwares/fixedwing/main_ap.c **** //    ahrs_update_fw_estimator();
 763:firmwares/fixedwing/main_ap.c ****   }
 764:firmwares/fixedwing/main_ap.c **** #endif
 765:firmwares/fixedwing/main_ap.c **** }
 124              		.loc 1 765 0
 761:firmwares/fixedwing/main_ap.c ****     ahrs_update_mag();
 125              		.loc 1 761 0
 126 0050 FFF7FEBF 		b	ahrs_update_mag
 127              	.L9:
 128 0054 7047     		bx	lr
 129              	.L12:
 130 0056 00BF     		.align	2
 131              	.L11:
 132 0058 00000000 		.word	imu
 133 005c 00000000 		.word	ahrs
 134              		.cfi_endproc
 135              	.LFE67:
 137              		.section	.text.on_gyro_event,"ax",%progbits
 138              		.align	1
 139              		.thumb
 140              		.thumb_func
 142              	on_gyro_event:
 143              	.LFB66:
 676:firmwares/fixedwing/main_ap.c **** static inline void on_gyro_event( void ) {
 144              		.loc 1 676 0
 145              		.cfi_startproc
 146              		@ args = 0, pretend = 0, frame = 0
 147              		@ frame_needed = 0, uses_anonymous_args = 0
 148 0000 10B5     		push	{r4, lr}
 149              	.LCFI1:
 150              		.cfi_def_cfa_offset 8
 678:firmwares/fixedwing/main_ap.c ****   ahrs_timeout_counter = 0;
 151              		.loc 1 678 0
 152 0002 534B     		ldr	r3, .L17
 153 0004 0022     		movs	r2, #0
 154 0006 1A70     		strb	r2, [r3, #0]
 686:firmwares/fixedwing/main_ap.c ****   if (ahrs.status == AHRS_UNINIT) {
 155              		.loc 1 686 0
 156 0008 524B     		ldr	r3, .L17+4
 157 000a 93F89820 		ldrb	r2, [r3, #152]	@ zero_extendqisi2
 158 000e 524B     		ldr	r3, .L17+8
 159 0010 002A     		cmp	r2, #0
 160 0012 4FD1     		bne	.L14
 161              		.cfi_offset 14, -4
 162              		.cfi_offset 4, -8
 687:firmwares/fixedwing/main_ap.c ****     ImuScaleGyro(imu);
 163              		.loc 1 687 0
 164 0014 1A68     		ldr	r2, [r3, #0]
 165 0016 186E     		ldr	r0, [r3, #96]
 166 0018 5A62     		str	r2, [r3, #36]
 167 001a 5A68     		ldr	r2, [r3, #4]
 168 001c 40F24F41 		movw	r1, #1103
 169 0020 9A62     		str	r2, [r3, #40]
 170 0022 9A68     		ldr	r2, [r3, #8]
 171 0024 5C6E     		ldr	r4, [r3, #100]
 172 0026 DA62     		str	r2, [r3, #44]
 173 0028 DA6B     		ldr	r2, [r3, #60]
 174 002a 801A     		subs	r0, r0, r2
 175 002c 4843     		muls	r0, r1, r0
 176 002e FA22     		movs	r2, #250
 177 0030 90FBF2F0 		sdiv	r0, r0, r2
 178 0034 1860     		str	r0, [r3, #0]
 179 0036 186C     		ldr	r0, [r3, #64]
 180 0038 201A     		subs	r0, r4, r0
 181 003a 4843     		muls	r0, r1, r0
 182 003c 90FBF2F0 		sdiv	r0, r0, r2
 183 0040 5860     		str	r0, [r3, #4]
 184 0042 9C6E     		ldr	r4, [r3, #104]
 185 0044 586C     		ldr	r0, [r3, #68]
 186 0046 201A     		subs	r0, r4, r0
 187 0048 4143     		muls	r1, r0, r1
 188 004a 91FBF2F2 		sdiv	r2, r1, r2
 189 004e 9A60     		str	r2, [r3, #8]
 688:firmwares/fixedwing/main_ap.c ****     ImuScaleAccel(imu);
 190              		.loc 1 688 0
 191 0050 DA68     		ldr	r2, [r3, #12]
 192 0052 D96E     		ldr	r1, [r3, #108]
 193 0054 1A63     		str	r2, [r3, #48]
 194 0056 1A69     		ldr	r2, [r3, #16]
 195 0058 5A63     		str	r2, [r3, #52]
 196 005a 5A69     		ldr	r2, [r3, #20]
 197 005c 9A63     		str	r2, [r3, #56]
 198 005e 9A6C     		ldr	r2, [r3, #72]
 199 0060 8A1A     		subs	r2, r1, r2
 200 0062 4BF27621 		movw	r1, #45686
 201 0066 4A43     		muls	r2, r1, r2
 202 0068 40F2A941 		movw	r1, #1193
 203 006c 92FBF1F2 		sdiv	r2, r2, r1
 204 0070 DA60     		str	r2, [r3, #12]
 205 0072 196F     		ldr	r1, [r3, #112]
 206 0074 DA6C     		ldr	r2, [r3, #76]
 207 0076 8A1A     		subs	r2, r1, r2
 208 0078 47F2C961 		movw	r1, #30409
 209 007c 4A43     		muls	r2, r1, r2
 210 007e 4FF44C71 		mov	r1, #816
 211 0082 92FBF1F2 		sdiv	r2, r2, r1
 212 0086 1A61     		str	r2, [r3, #16]
 213 0088 596F     		ldr	r1, [r3, #116]
 214 008a 1A6D     		ldr	r2, [r3, #80]
 215 008c 8A1A     		subs	r2, r1, r2
 216 008e 47F65D41 		movw	r1, #31837
 217 0092 4A43     		muls	r2, r1, r2
 218 0094 40F22D31 		movw	r1, #813
 219 0098 92FBF1F2 		sdiv	r2, r2, r1
 220 009c 5A61     		str	r2, [r3, #20]
 689:firmwares/fixedwing/main_ap.c ****     ahrs_aligner_run();
 221              		.loc 1 689 0
 222 009e FFF7FEFF 		bl	ahrs_aligner_run
 690:firmwares/fixedwing/main_ap.c ****     if (ahrs_aligner.status == AHRS_ALIGNER_LOCKED)
 223              		.loc 1 690 0
 224 00a2 2E4B     		ldr	r3, .L17+12
 225 00a4 93F82C30 		ldrb	r3, [r3, #44]	@ zero_extendqisi2
 226 00a8 022B     		cmp	r3, #2
 227 00aa 50D1     		bne	.L16
 754:firmwares/fixedwing/main_ap.c **** }
 228              		.loc 1 754 0
 229 00ac BDE81040 		pop	{r4, lr}
 691:firmwares/fixedwing/main_ap.c ****       ahrs_align();
 230              		.loc 1 691 0
 231 00b0 FFF7FEBF 		b	ahrs_align
 232              	.L14:
 697:firmwares/fixedwing/main_ap.c ****   ImuScaleGyro(imu);
 233              		.loc 1 697 0
 234 00b4 1A68     		ldr	r2, [r3, #0]
 235 00b6 186E     		ldr	r0, [r3, #96]
 236 00b8 5A62     		str	r2, [r3, #36]
 237 00ba 5A68     		ldr	r2, [r3, #4]
 238 00bc 40F24F41 		movw	r1, #1103
 239 00c0 9A62     		str	r2, [r3, #40]
 240 00c2 9A68     		ldr	r2, [r3, #8]
 241 00c4 5C6E     		ldr	r4, [r3, #100]
 242 00c6 DA62     		str	r2, [r3, #44]
 243 00c8 DA6B     		ldr	r2, [r3, #60]
 244 00ca 801A     		subs	r0, r0, r2
 245 00cc 4843     		muls	r0, r1, r0
 246 00ce FA22     		movs	r2, #250
 247 00d0 90FBF2F0 		sdiv	r0, r0, r2
 248 00d4 1860     		str	r0, [r3, #0]
 249 00d6 186C     		ldr	r0, [r3, #64]
 250 00d8 201A     		subs	r0, r4, r0
 251 00da 4843     		muls	r0, r1, r0
 252 00dc 90FBF2F0 		sdiv	r0, r0, r2
 253 00e0 5860     		str	r0, [r3, #4]
 254 00e2 9C6E     		ldr	r4, [r3, #104]
 255 00e4 586C     		ldr	r0, [r3, #68]
 256 00e6 201A     		subs	r0, r4, r0
 257 00e8 4143     		muls	r1, r0, r1
 258 00ea 91FBF2F2 		sdiv	r2, r1, r2
 259 00ee 9A60     		str	r2, [r3, #8]
 698:firmwares/fixedwing/main_ap.c ****   ImuScaleAccel(imu);
 260              		.loc 1 698 0
 261 00f0 DA68     		ldr	r2, [r3, #12]
 262 00f2 D96E     		ldr	r1, [r3, #108]
 263 00f4 1A63     		str	r2, [r3, #48]
 264 00f6 1A69     		ldr	r2, [r3, #16]
 265 00f8 5A63     		str	r2, [r3, #52]
 266 00fa 5A69     		ldr	r2, [r3, #20]
 267 00fc 9A63     		str	r2, [r3, #56]
 268 00fe 9A6C     		ldr	r2, [r3, #72]
 269 0100 8A1A     		subs	r2, r1, r2
 270 0102 4BF27621 		movw	r1, #45686
 271 0106 4A43     		muls	r2, r1, r2
 272 0108 40F2A941 		movw	r1, #1193
 273 010c 92FBF1F2 		sdiv	r2, r2, r1
 274 0110 DA60     		str	r2, [r3, #12]
 275 0112 196F     		ldr	r1, [r3, #112]
 276 0114 DA6C     		ldr	r2, [r3, #76]
 277 0116 8A1A     		subs	r2, r1, r2
 278 0118 47F2C961 		movw	r1, #30409
 279 011c 4A43     		muls	r2, r1, r2
 280 011e 4FF44C71 		mov	r1, #816
 281 0122 92FBF1F2 		sdiv	r2, r2, r1
 282 0126 1A61     		str	r2, [r3, #16]
 283 0128 596F     		ldr	r1, [r3, #116]
 284 012a 1A6D     		ldr	r2, [r3, #80]
 285 012c 8A1A     		subs	r2, r1, r2
 286 012e 47F65D41 		movw	r1, #31837
 287 0132 4A43     		muls	r2, r1, r2
 288 0134 40F22D31 		movw	r1, #813
 289 0138 92FBF1F2 		sdiv	r2, r2, r1
 290 013c 5A61     		str	r2, [r3, #20]
 700:firmwares/fixedwing/main_ap.c ****   ahrs_propagate();
 291              		.loc 1 700 0
 292 013e FFF7FEFF 		bl	ahrs_propagate
 701:firmwares/fixedwing/main_ap.c ****   ahrs_update_accel();
 293              		.loc 1 701 0
 294 0142 FFF7FEFF 		bl	ahrs_update_accel
 754:firmwares/fixedwing/main_ap.c **** }
 295              		.loc 1 754 0
 296 0146 BDE81040 		pop	{r4, lr}
 702:firmwares/fixedwing/main_ap.c ****   ahrs_update_fw_estimator();
 297              		.loc 1 702 0
 298 014a FFF7FEBF 		b	ahrs_update_fw_estimator
 299              	.L16:
 300 014e 10BD     		pop	{r4, pc}
 301              	.L18:
 302              		.align	2
 303              	.L17:
 304 0150 00000000 		.word	.LANCHOR0
 305 0154 00000000 		.word	ahrs
 306 0158 00000000 		.word	imu
 307 015c 00000000 		.word	ahrs_aligner
 308              		.cfi_endproc
 309              	.LFE66:
 311              		.global	__aeabi_f2d
 312              		.global	__aeabi_ddiv
 313              		.global	__aeabi_d2uiz
 314              		.global	__aeabi_i2d
 315              		.global	__aeabi_dcmpgt
 316              		.global	__aeabi_ui2f
 317              		.global	__aeabi_dmul
 318              		.global	__aeabi_d2iz
 319              		.global	__aeabi_fcmpgt
 320              		.global	__aeabi_fcmplt
 321              		.global	__aeabi_i2f
 322              		.global	__aeabi_fdiv
 323              		.global	__aeabi_fmul
 324              		.global	__aeabi_fadd
 325              		.section	.text.navigation_task,"ax",%progbits
 326              		.align	1
 327              		.thumb
 328              		.thumb_func
 330              	navigation_task:
 331              	.LFB59:
 285:firmwares/fixedwing/main_ap.c **** static void navigation_task( void ) {
 332              		.loc 1 285 0
 333              		.cfi_startproc
 334              		@ args = 0, pretend = 0, frame = 0
 335              		@ frame_needed = 0, uses_anonymous_args = 0
 336 0000 F8B5     		push	{r3, r4, r5, r6, r7, lr}
 337              	.LCFI2:
 338              		.cfi_def_cfa_offset 24
 292:firmwares/fixedwing/main_ap.c ****   if (launch) {
 339              		.loc 1 292 0
 340 0002 994B     		ldr	r3, .L49
 341              		.cfi_offset 14, -4
 342              		.cfi_offset 7, -8
 343              		.cfi_offset 6, -12
 344              		.cfi_offset 5, -16
 345              		.cfi_offset 4, -20
 346              		.cfi_offset 3, -24
 347 0004 1B78     		ldrb	r3, [r3, #0]	@ zero_extendqisi2
 348 0006 002B     		cmp	r3, #0
 349 0008 00F02081 		beq	.L20
 293:firmwares/fixedwing/main_ap.c ****     if (GpsTimeoutError) {
 350              		.loc 1 293 0
 351 000c 974B     		ldr	r3, .L49+4
 352 000e 1A88     		ldrh	r2, [r3, #0]
 353 0010 974B     		ldr	r3, .L49+8
 354 0012 B3F8E830 		ldrh	r3, [r3, #232]
 355 0016 D31A     		subs	r3, r2, r3
 356 0018 012B     		cmp	r3, #1
 357 001a 40F38D80 		ble	.L21
 294:firmwares/fixedwing/main_ap.c ****       if (pprz_mode == PPRZ_MODE_AUTO2 || pprz_mode == PPRZ_MODE_HOME) {
 358              		.loc 1 294 0
 359 001e 954E     		ldr	r6, .L49+12
 360 0020 3378     		ldrb	r3, [r6, #0]	@ zero_extendqisi2
 361 0022 9A1E     		subs	r2, r3, #2
 362 0024 D2B2     		uxtb	r2, r2
 363 0026 012A     		cmp	r2, #1
 364 0028 00F21081 		bhi	.L20
 295:firmwares/fixedwing/main_ap.c ****         last_pprz_mode = pprz_mode;
 365              		.loc 1 295 0
 366 002c 924A     		ldr	r2, .L49+16
 297:firmwares/fixedwing/main_ap.c ****         PERIODIC_SEND_PPRZ_MODE(DefaultChannel);
 367              		.loc 1 297 0
 368 002e 9348     		ldr	r0, .L49+20
 295:firmwares/fixedwing/main_ap.c ****         last_pprz_mode = pprz_mode;
 369              		.loc 1 295 0
 370 0030 1370     		strb	r3, [r2, #0]
 296:firmwares/fixedwing/main_ap.c ****         pprz_mode = PPRZ_MODE_GPS_OUT_OF_ORDER;
 371              		.loc 1 296 0
 372 0032 0423     		movs	r3, #4
 373 0034 3370     		strb	r3, [r6, #0]
 297:firmwares/fixedwing/main_ap.c ****         PERIODIC_SEND_PPRZ_MODE(DefaultChannel);
 374              		.loc 1 297 0
 375 0036 0C21     		movs	r1, #12
 376 0038 FFF7FEFF 		bl	uart_check_free_space
 377 003c 0028     		cmp	r0, #0
 378 003e 74D0     		beq	.L22
 379 0040 8F4B     		ldr	r3, .L49+24
 380              	.LBB24:
 381 0042 8E48     		ldr	r0, .L49+20
 382              	.LBE24:
 383 0044 1A88     		ldrh	r2, [r3, #0]
 384              	.LBB25:
 385 0046 9921     		movs	r1, #153
 386              	.LBE25:
 387 0048 0C32     		adds	r2, r2, #12
 388 004a 1A80     		strh	r2, [r3, #0]	@ movhi
 389 004c 8D4B     		ldr	r3, .L49+28
 390 004e 8E4D     		ldr	r5, .L49+32
 391 0050 1A88     		ldrh	r2, [r3, #0]
 392 0052 8E4C     		ldr	r4, .L49+36
 393 0054 0132     		adds	r2, r2, #1
 394 0056 1A80     		strh	r2, [r3, #0]	@ movhi
 395              	.LBB26:
 396 0058 FFF7FEFF 		bl	uart_transmit
 397 005c 8748     		ldr	r0, .L49+20
 398 005e 0C21     		movs	r1, #12
 399 0060 FFF7FEFF 		bl	uart_transmit
 400              	.LBE26:
 401 0064 0D23     		movs	r3, #13
 402 0066 2B70     		strb	r3, [r5, #0]
 403 0068 0C33     		adds	r3, r3, #12
 404 006a 2370     		strb	r3, [r4, #0]
 405 006c 8348     		ldr	r0, .L49+20
 406 006e 0121     		movs	r1, #1
 407 0070 FFF7FEFF 		bl	uart_transmit
 408 0074 2B78     		ldrb	r3, [r5, #0]	@ zero_extendqisi2
 409 0076 2278     		ldrb	r2, [r4, #0]	@ zero_extendqisi2
 410 0078 0B33     		adds	r3, r3, #11
 411 007a DBB2     		uxtb	r3, r3
 412              	.LVL0:
 413 007c 2B70     		strb	r3, [r5, #0]
 414 007e 9B18     		adds	r3, r3, r2
 415              	.LVL1:
 416 0080 2370     		strb	r3, [r4, #0]
 417 0082 7E48     		ldr	r0, .L49+20
 418 0084 0B21     		movs	r1, #11
 419 0086 FFF7FEFF 		bl	uart_transmit
 420              	.LBB27:
 421 008a 3178     		ldrb	r1, [r6, #0]	@ zero_extendqisi2
 422              	.LVL2:
 423 008c 2B78     		ldrb	r3, [r5, #0]	@ zero_extendqisi2
 424 008e 2278     		ldrb	r2, [r4, #0]	@ zero_extendqisi2
 425 0090 CB18     		adds	r3, r1, r3
 426 0092 DBB2     		uxtb	r3, r3
 427              	.LVL3:
 428 0094 2B70     		strb	r3, [r5, #0]
 429 0096 9B18     		adds	r3, r3, r2
 430              	.LVL4:
 431 0098 2370     		strb	r3, [r4, #0]
 432 009a 7848     		ldr	r0, .L49+20
 433 009c FFF7FEFF 		bl	uart_transmit
 434              	.LVL5:
 435              	.LBE27:
 436              	.LBB28:
 437 00a0 7B4B     		ldr	r3, .L49+40
 438 00a2 2278     		ldrb	r2, [r4, #0]	@ zero_extendqisi2
 439 00a4 1978     		ldrb	r1, [r3, #0]	@ zero_extendqisi2
 440              	.LVL6:
 441 00a6 2B78     		ldrb	r3, [r5, #0]	@ zero_extendqisi2
 442 00a8 7448     		ldr	r0, .L49+20
 443 00aa CB18     		adds	r3, r1, r3
 444 00ac DBB2     		uxtb	r3, r3
 445              	.LVL7:
 446 00ae 2B70     		strb	r3, [r5, #0]
 447 00b0 9B18     		adds	r3, r3, r2
 448              	.LVL8:
 449 00b2 2370     		strb	r3, [r4, #0]
 450 00b4 FFF7FEFF 		bl	uart_transmit
 451              	.LVL9:
 452              	.LBE28:
 453              	.LBB29:
 454 00b8 764B     		ldr	r3, .L49+44
 455 00ba 2278     		ldrb	r2, [r4, #0]	@ zero_extendqisi2
 456 00bc 1978     		ldrb	r1, [r3, #0]	@ zero_extendqisi2
 457              	.LVL10:
 458 00be 2B78     		ldrb	r3, [r5, #0]	@ zero_extendqisi2
 459 00c0 6E48     		ldr	r0, .L49+20
 460 00c2 CB18     		adds	r3, r1, r3
 461 00c4 DBB2     		uxtb	r3, r3
 462              	.LVL11:
 463 00c6 2B70     		strb	r3, [r5, #0]
 464 00c8 9B18     		adds	r3, r3, r2
 465              	.LVL12:
 466 00ca 2370     		strb	r3, [r4, #0]
 467 00cc FFF7FEFF 		bl	uart_transmit
 468              	.LVL13:
 469              	.LBE29:
 470              	.LBB30:
 471 00d0 714B     		ldr	r3, .L49+48
 472 00d2 2278     		ldrb	r2, [r4, #0]	@ zero_extendqisi2
 473 00d4 1978     		ldrb	r1, [r3, #0]	@ zero_extendqisi2
 474              	.LVL14:
 475 00d6 2B78     		ldrb	r3, [r5, #0]	@ zero_extendqisi2
 476 00d8 6848     		ldr	r0, .L49+20
 477 00da CB18     		adds	r3, r1, r3
 478 00dc DBB2     		uxtb	r3, r3
 479              	.LVL15:
 480 00de 2B70     		strb	r3, [r5, #0]
 481 00e0 9B18     		adds	r3, r3, r2
 482              	.LVL16:
 483 00e2 2370     		strb	r3, [r4, #0]
 484 00e4 FFF7FEFF 		bl	uart_transmit
 485              	.LVL17:
 486              	.LBE30:
 487              	.LBB31:
 488 00e8 6C4B     		ldr	r3, .L49+52
 489 00ea 2278     		ldrb	r2, [r4, #0]	@ zero_extendqisi2
 490 00ec 1978     		ldrb	r1, [r3, #0]	@ zero_extendqisi2
 491              	.LVL18:
 492 00ee 2B78     		ldrb	r3, [r5, #0]	@ zero_extendqisi2
 493 00f0 6248     		ldr	r0, .L49+20
 494 00f2 CB18     		adds	r3, r1, r3
 495 00f4 DBB2     		uxtb	r3, r3
 496              	.LVL19:
 497 00f6 2B70     		strb	r3, [r5, #0]
 498 00f8 9B18     		adds	r3, r3, r2
 499              	.LVL20:
 500 00fa 2370     		strb	r3, [r4, #0]
 501 00fc FFF7FEFF 		bl	uart_transmit
 502              	.LVL21:
 503              	.LBE31:
 504              	.LBB32:
 505 0100 674B     		ldr	r3, .L49+56
 506 0102 2278     		ldrb	r2, [r4, #0]	@ zero_extendqisi2
 507 0104 1978     		ldrb	r1, [r3, #0]	@ zero_extendqisi2
 508              	.LVL22:
 509 0106 2B78     		ldrb	r3, [r5, #0]	@ zero_extendqisi2
 510 0108 5C48     		ldr	r0, .L49+20
 511 010a CB18     		adds	r3, r1, r3
 512 010c DBB2     		uxtb	r3, r3
 513              	.LVL23:
 514 010e 2B70     		strb	r3, [r5, #0]
 515 0110 9B18     		adds	r3, r3, r2
 516              	.LVL24:
 517 0112 2370     		strb	r3, [r4, #0]
 518 0114 FFF7FEFF 		bl	uart_transmit
 519              	.LVL25:
 520              	.LBE32:
 521 0118 2978     		ldrb	r1, [r5, #0]	@ zero_extendqisi2
 522 011a 5848     		ldr	r0, .L49+20
 523 011c FFF7FEFF 		bl	uart_transmit
 524 0120 5648     		ldr	r0, .L49+20
 525 0122 2178     		ldrb	r1, [r4, #0]	@ zero_extendqisi2
 526 0124 FFF7FEFF 		bl	uart_transmit
 527 0128 03E0     		b	.L23
 528              	.L22:
 529 012a 5E4B     		ldr	r3, .L49+60
 530 012c 1A78     		ldrb	r2, [r3, #0]	@ zero_extendqisi2
 531 012e 0132     		adds	r2, r2, #1
 532 0130 1A70     		strb	r2, [r3, #0]
 533              	.L23:
 298:firmwares/fixedwing/main_ap.c ****         gps_lost = TRUE;
 534              		.loc 1 298 0
 535 0132 0122     		movs	r2, #1
 536 0134 5C4B     		ldr	r3, .L49+64
 537 0136 88E0     		b	.L47
 538              	.L21:
 300:firmwares/fixedwing/main_ap.c ****     } else if (gps_lost) { /* GPS is ok */
 539              		.loc 1 300 0
 540 0138 5B4B     		ldr	r3, .L49+64
 541 013a 1A78     		ldrb	r2, [r3, #0]	@ zero_extendqisi2
 542 013c 002A     		cmp	r2, #0
 543 013e 00F08580 		beq	.L20
 302:firmwares/fixedwing/main_ap.c ****       pprz_mode = last_pprz_mode;
 544              		.loc 1 302 0
 545 0142 4D4A     		ldr	r2, .L49+16
 546 0144 4B4E     		ldr	r6, .L49+12
 547 0146 1278     		ldrb	r2, [r2, #0]	@ zero_extendqisi2
 305:firmwares/fixedwing/main_ap.c ****       PERIODIC_SEND_PPRZ_MODE(DefaultChannel);
 548              		.loc 1 305 0
 549 0148 4C48     		ldr	r0, .L49+20
 302:firmwares/fixedwing/main_ap.c ****       pprz_mode = last_pprz_mode;
 550              		.loc 1 302 0
 551 014a 3270     		strb	r2, [r6, #0]
 303:firmwares/fixedwing/main_ap.c ****       gps_lost = FALSE;
 552              		.loc 1 303 0
 553 014c 0022     		movs	r2, #0
 554 014e 1A70     		strb	r2, [r3, #0]
 305:firmwares/fixedwing/main_ap.c ****       PERIODIC_SEND_PPRZ_MODE(DefaultChannel);
 555              		.loc 1 305 0
 556 0150 0C21     		movs	r1, #12
 557 0152 FFF7FEFF 		bl	uart_check_free_space
 558 0156 0028     		cmp	r0, #0
 559 0158 74D0     		beq	.L24
 560 015a 494B     		ldr	r3, .L49+24
 561              	.LBB33:
 562 015c 4748     		ldr	r0, .L49+20
 563              	.LBE33:
 564 015e 1A88     		ldrh	r2, [r3, #0]
 565              	.LBB34:
 566 0160 9921     		movs	r1, #153
 567              	.LBE34:
 568 0162 0C32     		adds	r2, r2, #12
 569 0164 1A80     		strh	r2, [r3, #0]	@ movhi
 570 0166 474B     		ldr	r3, .L49+28
 571 0168 474D     		ldr	r5, .L49+32
 572 016a 1A88     		ldrh	r2, [r3, #0]
 573 016c 474C     		ldr	r4, .L49+36
 574 016e 0132     		adds	r2, r2, #1
 575 0170 1A80     		strh	r2, [r3, #0]	@ movhi
 576              	.LBB35:
 577 0172 FFF7FEFF 		bl	uart_transmit
 578 0176 4148     		ldr	r0, .L49+20
 579 0178 0C21     		movs	r1, #12
 580 017a FFF7FEFF 		bl	uart_transmit
 581              	.LBE35:
 582 017e 0D23     		movs	r3, #13
 583 0180 2B70     		strb	r3, [r5, #0]
 584 0182 0C33     		adds	r3, r3, #12
 585 0184 2370     		strb	r3, [r4, #0]
 586 0186 3D48     		ldr	r0, .L49+20
 587 0188 0121     		movs	r1, #1
 588 018a FFF7FEFF 		bl	uart_transmit
 589 018e 2B78     		ldrb	r3, [r5, #0]	@ zero_extendqisi2
 590 0190 2278     		ldrb	r2, [r4, #0]	@ zero_extendqisi2
 591 0192 0B33     		adds	r3, r3, #11
 592 0194 DBB2     		uxtb	r3, r3
 593              	.LVL26:
 594 0196 2B70     		strb	r3, [r5, #0]
 595 0198 9B18     		adds	r3, r3, r2
 596              	.LVL27:
 597 019a 2370     		strb	r3, [r4, #0]
 598 019c 3748     		ldr	r0, .L49+20
 599 019e 0B21     		movs	r1, #11
 600 01a0 FFF7FEFF 		bl	uart_transmit
 601              	.LBB36:
 602 01a4 3178     		ldrb	r1, [r6, #0]	@ zero_extendqisi2
 603              	.LVL28:
 604 01a6 2B78     		ldrb	r3, [r5, #0]	@ zero_extendqisi2
 605 01a8 2278     		ldrb	r2, [r4, #0]	@ zero_extendqisi2
 606 01aa CB18     		adds	r3, r1, r3
 607 01ac DBB2     		uxtb	r3, r3
 608              	.LVL29:
 609 01ae 2B70     		strb	r3, [r5, #0]
 610 01b0 9B18     		adds	r3, r3, r2
 611              	.LVL30:
 612 01b2 2370     		strb	r3, [r4, #0]
 613 01b4 3148     		ldr	r0, .L49+20
 614 01b6 FFF7FEFF 		bl	uart_transmit
 615              	.LVL31:
 616              	.LBE36:
 617              	.LBB37:
 618 01ba 354B     		ldr	r3, .L49+40
 619 01bc 2278     		ldrb	r2, [r4, #0]	@ zero_extendqisi2
 620 01be 1978     		ldrb	r1, [r3, #0]	@ zero_extendqisi2
 621              	.LVL32:
 622 01c0 2B78     		ldrb	r3, [r5, #0]	@ zero_extendqisi2
 623 01c2 2E48     		ldr	r0, .L49+20
 624 01c4 CB18     		adds	r3, r1, r3
 625 01c6 DBB2     		uxtb	r3, r3
 626              	.LVL33:
 627 01c8 2B70     		strb	r3, [r5, #0]
 628 01ca 9B18     		adds	r3, r3, r2
 629              	.LVL34:
 630 01cc 2370     		strb	r3, [r4, #0]
 631 01ce FFF7FEFF 		bl	uart_transmit
 632              	.LVL35:
 633              	.LBE37:
 634              	.LBB38:
 635 01d2 304B     		ldr	r3, .L49+44
 636 01d4 2278     		ldrb	r2, [r4, #0]	@ zero_extendqisi2
 637 01d6 1978     		ldrb	r1, [r3, #0]	@ zero_extendqisi2
 638              	.LVL36:
 639 01d8 2B78     		ldrb	r3, [r5, #0]	@ zero_extendqisi2
 640 01da 2848     		ldr	r0, .L49+20
 641 01dc CB18     		adds	r3, r1, r3
 642 01de DBB2     		uxtb	r3, r3
 643              	.LVL37:
 644 01e0 2B70     		strb	r3, [r5, #0]
 645 01e2 9B18     		adds	r3, r3, r2
 646              	.LVL38:
 647 01e4 2370     		strb	r3, [r4, #0]
 648 01e6 FFF7FEFF 		bl	uart_transmit
 649              	.LVL39:
 650              	.LBE38:
 651              	.LBB39:
 652 01ea 2B4B     		ldr	r3, .L49+48
 653 01ec 2278     		ldrb	r2, [r4, #0]	@ zero_extendqisi2
 654 01ee 1978     		ldrb	r1, [r3, #0]	@ zero_extendqisi2
 655              	.LVL40:
 656 01f0 2B78     		ldrb	r3, [r5, #0]	@ zero_extendqisi2
 657 01f2 2248     		ldr	r0, .L49+20
 658 01f4 CB18     		adds	r3, r1, r3
 659 01f6 DBB2     		uxtb	r3, r3
 660              	.LVL41:
 661 01f8 2B70     		strb	r3, [r5, #0]
 662 01fa 9B18     		adds	r3, r3, r2
 663              	.LVL42:
 664 01fc 2370     		strb	r3, [r4, #0]
 665 01fe FFF7FEFF 		bl	uart_transmit
 666              	.LVL43:
 667              	.LBE39:
 668              	.LBB40:
 669 0202 264B     		ldr	r3, .L49+52
 670 0204 2278     		ldrb	r2, [r4, #0]	@ zero_extendqisi2
 671 0206 1978     		ldrb	r1, [r3, #0]	@ zero_extendqisi2
 672              	.LVL44:
 673 0208 2B78     		ldrb	r3, [r5, #0]	@ zero_extendqisi2
 674 020a 1C48     		ldr	r0, .L49+20
 675 020c CB18     		adds	r3, r1, r3
 676 020e DBB2     		uxtb	r3, r3
 677              	.LVL45:
 678 0210 2B70     		strb	r3, [r5, #0]
 679 0212 9B18     		adds	r3, r3, r2
 680              	.LVL46:
 681 0214 2370     		strb	r3, [r4, #0]
 682 0216 FFF7FEFF 		bl	uart_transmit
 683              	.LVL47:
 684              	.LBE40:
 685              	.LBB41:
 686 021a 214B     		ldr	r3, .L49+56
 687 021c 2278     		ldrb	r2, [r4, #0]	@ zero_extendqisi2
 688 021e 1978     		ldrb	r1, [r3, #0]	@ zero_extendqisi2
 689              	.LVL48:
 690 0220 2B78     		ldrb	r3, [r5, #0]	@ zero_extendqisi2
 691 0222 1648     		ldr	r0, .L49+20
 692 0224 CB18     		adds	r3, r1, r3
 693 0226 DBB2     		uxtb	r3, r3
 694              	.LVL49:
 695 0228 2B70     		strb	r3, [r5, #0]
 696 022a 9B18     		adds	r3, r3, r2
 697              	.LVL50:
 698 022c 2370     		strb	r3, [r4, #0]
 699 022e FFF7FEFF 		bl	uart_transmit
 700              	.LVL51:
 701              	.LBE41:
 702 0232 2978     		ldrb	r1, [r5, #0]	@ zero_extendqisi2
 703 0234 1148     		ldr	r0, .L49+20
 704 0236 FFF7FEFF 		bl	uart_transmit
 705 023a 1048     		ldr	r0, .L49+20
 706 023c 2178     		ldrb	r1, [r4, #0]	@ zero_extendqisi2
 707 023e FFF7FEFF 		bl	uart_transmit
 708 0242 03E0     		b	.L20
 709              	.L24:
 710 0244 174B     		ldr	r3, .L49+60
 711 0246 1A78     		ldrb	r2, [r3, #0]	@ zero_extendqisi2
 712 0248 0132     		adds	r2, r2, #1
 713              	.L47:
 714 024a 1A70     		strb	r2, [r3, #0]
 715              	.L20:
 310:firmwares/fixedwing/main_ap.c ****   common_nav_periodic_task_4Hz();
 716              		.loc 1 310 0
 717 024c FFF7FEFF 		bl	common_nav_periodic_task_4Hz
 311:firmwares/fixedwing/main_ap.c ****   if (pprz_mode == PPRZ_MODE_HOME)
 718              		.loc 1 311 0
 719 0250 084B     		ldr	r3, .L49+12
 720 0252 1B78     		ldrb	r3, [r3, #0]	@ zero_extendqisi2
 721 0254 032B     		cmp	r3, #3
 722 0256 02D1     		bne	.L25
 312:firmwares/fixedwing/main_ap.c ****     nav_home();
 723              		.loc 1 312 0
 724 0258 FFF7FEFF 		bl	nav_home
 725 025c 28E0     		b	.L26
 726              	.L25:
 313:firmwares/fixedwing/main_ap.c ****   else if (pprz_mode == PPRZ_MODE_GPS_OUT_OF_ORDER)
 727              		.loc 1 313 0
 728 025e 042B     		cmp	r3, #4
 729 0260 24D1     		bne	.L27
 314:firmwares/fixedwing/main_ap.c ****     nav_without_gps();
 730              		.loc 1 314 0
 731 0262 FFF7FEFF 		bl	nav_without_gps
 732 0266 23E0     		b	.L26
 733              	.L50:
 734              		.align	2
 735              	.L49:
 736 0268 00000000 		.word	.LANCHOR1
 737 026c 00000000 		.word	cpu_time_sec
 738 0270 00000000 		.word	gps
 739 0274 00000000 		.word	.LANCHOR2
 740 0278 00000000 		.word	.LANCHOR3
 741 027c 00000000 		.word	uart2
 742 0280 00000000 		.word	downlink_nb_bytes
 743 0284 00000000 		.word	downlink_nb_msgs
 744 0288 00000000 		.word	ck_a
 745 028c 00000000 		.word	ck_b
 746 0290 00000000 		.word	v_ctl_mode
 747 0294 00000000 		.word	.LANCHOR4
 748 0298 00000000 		.word	horizontal_mode
 749 029c 00000000 		.word	.LANCHOR5
 750 02a0 00000000 		.word	.LANCHOR6
 751 02a4 00000000 		.word	downlink_nb_ovrn
 752 02a8 00000000 		.word	.LANCHOR7
 753              	.L27:
 316:firmwares/fixedwing/main_ap.c ****     nav_periodic_task();
 754              		.loc 1 316 0
 755 02ac FFF7FEFF 		bl	nav_periodic_task
 756              	.L26:
 757              	.LBB42:
 323:firmwares/fixedwing/main_ap.c ****   SEND_NAVIGATION(DefaultChannel);
 758              		.loc 1 323 0
 759 02b0 954B     		ldr	r3, .L51+8
 760 02b2 9648     		ldr	r0, .L51+12
 761 02b4 1A21     		movs	r1, #26
 762 02b6 1C68     		ldr	r4, [r3, #0]	@ float
 763 02b8 FFF7FEFF 		bl	uart_check_free_space
 764 02bc 0028     		cmp	r0, #0
 765 02be 00F03D81 		beq	.L28
 766 02c2 24F00040 		bic	r0, r4, #-2147483648
 767 02c6 FFF7FEFF 		bl	__aeabi_f2d
 768 02ca 8DA3     		adr	r3, .L51
 769 02cc D3E90023 		ldrd	r2, [r3]
 770 02d0 FFF7FEFF 		bl	__aeabi_ddiv
 771 02d4 FFF7FEFF 		bl	__aeabi_d2uiz
 772 02d8 8D4B     		ldr	r3, .L51+16
 773 02da C7B2     		uxtb	r7, r0
 774              	.LVL52:
 775 02dc 1A88     		ldrh	r2, [r3, #0]
 776              	.LBB43:
 777 02de 9921     		movs	r1, #153
 778              	.LBE43:
 779 02e0 1A32     		adds	r2, r2, #26
 780 02e2 1A80     		strh	r2, [r3, #0]	@ movhi
 781 02e4 8B4B     		ldr	r3, .L51+20
 782              	.LBB44:
 783 02e6 8948     		ldr	r0, .L51+12
 784              	.LBE44:
 785 02e8 1A88     		ldrh	r2, [r3, #0]
 786 02ea 8B4D     		ldr	r5, .L51+24
 787 02ec 0132     		adds	r2, r2, #1
 788 02ee 1A80     		strh	r2, [r3, #0]	@ movhi
 789              	.LBB45:
 790 02f0 FFF7FEFF 		bl	uart_transmit
 791 02f4 1A21     		movs	r1, #26
 792 02f6 8548     		ldr	r0, .L51+12
 793              	.LBE45:
 794 02f8 884C     		ldr	r4, .L51+28
 795              	.LBB46:
 796 02fa FFF7FEFF 		bl	uart_transmit
 797              	.LBE46:
 798 02fe 1B23     		movs	r3, #27
 799 0300 2B70     		strb	r3, [r5, #0]
 800 0302 1A33     		adds	r3, r3, #26
 801 0304 2370     		strb	r3, [r4, #0]
 802 0306 0121     		movs	r1, #1
 803 0308 8048     		ldr	r0, .L51+12
 804 030a FFF7FEFF 		bl	uart_transmit
 805 030e 2B78     		ldrb	r3, [r5, #0]	@ zero_extendqisi2
 806 0310 2278     		ldrb	r2, [r4, #0]	@ zero_extendqisi2
 807 0312 0A33     		adds	r3, r3, #10
 808 0314 DBB2     		uxtb	r3, r3
 809              	.LVL53:
 810 0316 2B70     		strb	r3, [r5, #0]
 811 0318 9B18     		adds	r3, r3, r2
 812              	.LVL54:
 813 031a 2370     		strb	r3, [r4, #0]
 814 031c 0A21     		movs	r1, #10
 815 031e 7B48     		ldr	r0, .L51+12
 816 0320 FFF7FEFF 		bl	uart_transmit
 817              	.LBB47:
 818 0324 7E4B     		ldr	r3, .L51+32
 819 0326 2278     		ldrb	r2, [r4, #0]	@ zero_extendqisi2
 820 0328 1978     		ldrb	r1, [r3, #0]	@ zero_extendqisi2
 821              	.LVL55:
 822 032a 2B78     		ldrb	r3, [r5, #0]	@ zero_extendqisi2
 823 032c 7748     		ldr	r0, .L51+12
 824 032e CB18     		adds	r3, r1, r3
 825 0330 DBB2     		uxtb	r3, r3
 826              	.LVL56:
 827 0332 2B70     		strb	r3, [r5, #0]
 828 0334 9B18     		adds	r3, r3, r2
 829              	.LVL57:
 830 0336 2370     		strb	r3, [r4, #0]
 831 0338 FFF7FEFF 		bl	uart_transmit
 832              	.LVL58:
 833              	.LBE47:
 834              	.LBB48:
 835 033c 794B     		ldr	r3, .L51+36
 836 033e 2278     		ldrb	r2, [r4, #0]	@ zero_extendqisi2
 837 0340 1978     		ldrb	r1, [r3, #0]	@ zero_extendqisi2
 838              	.LVL59:
 839 0342 2B78     		ldrb	r3, [r5, #0]	@ zero_extendqisi2
 840              	.LBE48:
 841              	.LBB49:
 842 0344 784E     		ldr	r6, .L51+40
 843              	.LBE49:
 844              	.LBB50:
 845 0346 CB18     		adds	r3, r1, r3
 846 0348 DBB2     		uxtb	r3, r3
 847              	.LVL60:
 848 034a 2B70     		strb	r3, [r5, #0]
 849 034c 9B18     		adds	r3, r3, r2
 850              	.LVL61:
 851 034e 2370     		strb	r3, [r4, #0]
 852 0350 6E48     		ldr	r0, .L51+12
 853 0352 FFF7FEFF 		bl	uart_transmit
 854              	.LVL62:
 855              	.LBE50:
 856              	.LBB51:
 857 0356 3178     		ldrb	r1, [r6, #0]	@ zero_extendqisi2
 858              	.LVL63:
 859 0358 2B78     		ldrb	r3, [r5, #0]	@ zero_extendqisi2
 860 035a 2278     		ldrb	r2, [r4, #0]	@ zero_extendqisi2
 861 035c CB18     		adds	r3, r1, r3
 862 035e DBB2     		uxtb	r3, r3
 863              	.LVL64:
 864 0360 2B70     		strb	r3, [r5, #0]
 865 0362 9B18     		adds	r3, r3, r2
 866              	.LVL65:
 867 0364 2370     		strb	r3, [r4, #0]
 868 0366 6948     		ldr	r0, .L51+12
 869 0368 FFF7FEFF 		bl	uart_transmit
 870              	.LVL66:
 871              	.LBE51:
 872              	.LBB52:
 873 036c 7178     		ldrb	r1, [r6, #1]	@ zero_extendqisi2
 874              	.LVL67:
 875 036e 2B78     		ldrb	r3, [r5, #0]	@ zero_extendqisi2
 876 0370 2278     		ldrb	r2, [r4, #0]	@ zero_extendqisi2
 877 0372 CB18     		adds	r3, r1, r3
 878 0374 DBB2     		uxtb	r3, r3
 879              	.LVL68:
 880 0376 2B70     		strb	r3, [r5, #0]
 881 0378 9B18     		adds	r3, r3, r2
 882              	.LVL69:
 883 037a 2370     		strb	r3, [r4, #0]
 884 037c 6348     		ldr	r0, .L51+12
 885 037e FFF7FEFF 		bl	uart_transmit
 886              	.LVL70:
 887              	.LBE52:
 888              	.LBB53:
 889 0382 B178     		ldrb	r1, [r6, #2]	@ zero_extendqisi2
 890              	.LVL71:
 891 0384 2B78     		ldrb	r3, [r5, #0]	@ zero_extendqisi2
 892 0386 2278     		ldrb	r2, [r4, #0]	@ zero_extendqisi2
 893 0388 CB18     		adds	r3, r1, r3
 894 038a DBB2     		uxtb	r3, r3
 895              	.LVL72:
 896 038c 2B70     		strb	r3, [r5, #0]
 897 038e 9B18     		adds	r3, r3, r2
 898              	.LVL73:
 899 0390 2370     		strb	r3, [r4, #0]
 900 0392 5E48     		ldr	r0, .L51+12
 901 0394 FFF7FEFF 		bl	uart_transmit
 902              	.LVL74:
 903              	.LBE53:
 904              	.LBB54:
 905 0398 F178     		ldrb	r1, [r6, #3]	@ zero_extendqisi2
 906              	.LVL75:
 907 039a 2B78     		ldrb	r3, [r5, #0]	@ zero_extendqisi2
 908 039c 2278     		ldrb	r2, [r4, #0]	@ zero_extendqisi2
 909 039e CB18     		adds	r3, r1, r3
 910 03a0 DBB2     		uxtb	r3, r3
 911              	.LVL76:
 912              	.LBE54:
 913              	.LBB55:
 914 03a2 624E     		ldr	r6, .L51+44
 915              	.LBE55:
 916              	.LBB56:
 917 03a4 2B70     		strb	r3, [r5, #0]
 918 03a6 9B18     		adds	r3, r3, r2
 919              	.LVL77:
 920 03a8 2370     		strb	r3, [r4, #0]
 921 03aa 5848     		ldr	r0, .L51+12
 922 03ac FFF7FEFF 		bl	uart_transmit
 923              	.LVL78:
 924              	.LBE56:
 925              	.LBB57:
 926 03b0 3178     		ldrb	r1, [r6, #0]	@ zero_extendqisi2
 927              	.LVL79:
 928 03b2 2B78     		ldrb	r3, [r5, #0]	@ zero_extendqisi2
 929 03b4 2278     		ldrb	r2, [r4, #0]	@ zero_extendqisi2
 930 03b6 CB18     		adds	r3, r1, r3
 931 03b8 DBB2     		uxtb	r3, r3
 932              	.LVL80:
 933 03ba 2B70     		strb	r3, [r5, #0]
 934 03bc 9B18     		adds	r3, r3, r2
 935              	.LVL81:
 936 03be 2370     		strb	r3, [r4, #0]
 937 03c0 5248     		ldr	r0, .L51+12
 938 03c2 FFF7FEFF 		bl	uart_transmit
 939              	.LVL82:
 940              	.LBE57:
 941              	.LBB58:
 942 03c6 7178     		ldrb	r1, [r6, #1]	@ zero_extendqisi2
 943              	.LVL83:
 944 03c8 2B78     		ldrb	r3, [r5, #0]	@ zero_extendqisi2
 945 03ca 2278     		ldrb	r2, [r4, #0]	@ zero_extendqisi2
 946 03cc CB18     		adds	r3, r1, r3
 947 03ce DBB2     		uxtb	r3, r3
 948              	.LVL84:
 949 03d0 2B70     		strb	r3, [r5, #0]
 950 03d2 9B18     		adds	r3, r3, r2
 951              	.LVL85:
 952 03d4 2370     		strb	r3, [r4, #0]
 953 03d6 4D48     		ldr	r0, .L51+12
 954 03d8 FFF7FEFF 		bl	uart_transmit
 955              	.LVL86:
 956              	.LBE58:
 957              	.LBB59:
 958 03dc B178     		ldrb	r1, [r6, #2]	@ zero_extendqisi2
 959              	.LVL87:
 960 03de 2B78     		ldrb	r3, [r5, #0]	@ zero_extendqisi2
 961 03e0 2278     		ldrb	r2, [r4, #0]	@ zero_extendqisi2
 962 03e2 CB18     		adds	r3, r1, r3
 963 03e4 DBB2     		uxtb	r3, r3
 964              	.LVL88:
 965 03e6 2B70     		strb	r3, [r5, #0]
 966 03e8 9B18     		adds	r3, r3, r2
 967              	.LVL89:
 968 03ea 2370     		strb	r3, [r4, #0]
 969 03ec 4748     		ldr	r0, .L51+12
 970 03ee FFF7FEFF 		bl	uart_transmit
 971              	.LVL90:
 972              	.LBE59:
 973              	.LBB60:
 974 03f2 F178     		ldrb	r1, [r6, #3]	@ zero_extendqisi2
 975              	.LVL91:
 976 03f4 2B78     		ldrb	r3, [r5, #0]	@ zero_extendqisi2
 977 03f6 2278     		ldrb	r2, [r4, #0]	@ zero_extendqisi2
 978 03f8 CB18     		adds	r3, r1, r3
 979 03fa DBB2     		uxtb	r3, r3
 980              	.LVL92:
 981              	.LBE60:
 982              	.LBB61:
 983 03fc 4C4E     		ldr	r6, .L51+48
 984              	.LBE61:
 985              	.LBB62:
 986 03fe 2B70     		strb	r3, [r5, #0]
 987 0400 9B18     		adds	r3, r3, r2
 988              	.LVL93:
 989 0402 2370     		strb	r3, [r4, #0]
 990 0404 4148     		ldr	r0, .L51+12
 991 0406 FFF7FEFF 		bl	uart_transmit
 992              	.LVL94:
 993              	.LBE62:
 994              	.LBB63:
 995 040a 3178     		ldrb	r1, [r6, #0]	@ zero_extendqisi2
 996              	.LVL95:
 997 040c 2B78     		ldrb	r3, [r5, #0]	@ zero_extendqisi2
 998 040e 2278     		ldrb	r2, [r4, #0]	@ zero_extendqisi2
 999 0410 CB18     		adds	r3, r1, r3
 1000 0412 DBB2     		uxtb	r3, r3
 1001              	.LVL96:
 1002 0414 2B70     		strb	r3, [r5, #0]
 1003 0416 9B18     		adds	r3, r3, r2
 1004              	.LVL97:
 1005 0418 2370     		strb	r3, [r4, #0]
 1006 041a 3C48     		ldr	r0, .L51+12
 1007 041c FFF7FEFF 		bl	uart_transmit
 1008              	.LVL98:
 1009              	.LBE63:
 1010              	.LBB64:
 1011 0420 7178     		ldrb	r1, [r6, #1]	@ zero_extendqisi2
 1012              	.LVL99:
 1013 0422 2B78     		ldrb	r3, [r5, #0]	@ zero_extendqisi2
 1014 0424 2278     		ldrb	r2, [r4, #0]	@ zero_extendqisi2
 1015 0426 CB18     		adds	r3, r1, r3
 1016 0428 DBB2     		uxtb	r3, r3
 1017              	.LVL100:
 1018 042a 2B70     		strb	r3, [r5, #0]
 1019 042c 9B18     		adds	r3, r3, r2
 1020              	.LVL101:
 1021 042e 2370     		strb	r3, [r4, #0]
 1022 0430 3648     		ldr	r0, .L51+12
 1023 0432 FFF7FEFF 		bl	uart_transmit
 1024              	.LVL102:
 1025              	.LBE64:
 1026              	.LBB65:
 1027 0436 B178     		ldrb	r1, [r6, #2]	@ zero_extendqisi2
 1028              	.LVL103:
 1029 0438 2B78     		ldrb	r3, [r5, #0]	@ zero_extendqisi2
 1030 043a 2278     		ldrb	r2, [r4, #0]	@ zero_extendqisi2
 1031 043c CB18     		adds	r3, r1, r3
 1032 043e DBB2     		uxtb	r3, r3
 1033              	.LVL104:
 1034 0440 2B70     		strb	r3, [r5, #0]
 1035 0442 9B18     		adds	r3, r3, r2
 1036              	.LVL105:
 1037 0444 2370     		strb	r3, [r4, #0]
 1038 0446 3148     		ldr	r0, .L51+12
 1039 0448 FFF7FEFF 		bl	uart_transmit
 1040              	.LVL106:
 1041              	.LBE65:
 1042              	.LBB66:
 1043 044c F178     		ldrb	r1, [r6, #3]	@ zero_extendqisi2
 1044              	.LVL107:
 1045 044e 2B78     		ldrb	r3, [r5, #0]	@ zero_extendqisi2
 1046 0450 2278     		ldrb	r2, [r4, #0]	@ zero_extendqisi2
 1047 0452 CB18     		adds	r3, r1, r3
 1048 0454 DBB2     		uxtb	r3, r3
 1049              	.LVL108:
 1050              	.LBE66:
 1051              	.LBB67:
 1052 0456 374E     		ldr	r6, .L51+52
 1053              	.LBE67:
 1054              	.LBB68:
 1055 0458 2B70     		strb	r3, [r5, #0]
 1056 045a 9B18     		adds	r3, r3, r2
 1057              	.LVL109:
 1058 045c 2370     		strb	r3, [r4, #0]
 1059 045e 2B48     		ldr	r0, .L51+12
 1060 0460 FFF7FEFF 		bl	uart_transmit
 1061              	.LVL110:
 1062              	.LBE68:
 1063              	.LBB69:
 1064 0464 3178     		ldrb	r1, [r6, #0]	@ zero_extendqisi2
 1065              	.LVL111:
 1066 0466 2B78     		ldrb	r3, [r5, #0]	@ zero_extendqisi2
 1067 0468 2278     		ldrb	r2, [r4, #0]	@ zero_extendqisi2
 1068 046a CB18     		adds	r3, r1, r3
 1069 046c DBB2     		uxtb	r3, r3
 1070              	.LVL112:
 1071 046e 2B70     		strb	r3, [r5, #0]
 1072 0470 9B18     		adds	r3, r3, r2
 1073              	.LVL113:
 1074 0472 2370     		strb	r3, [r4, #0]
 1075 0474 2548     		ldr	r0, .L51+12
 1076 0476 FFF7FEFF 		bl	uart_transmit
 1077              	.LVL114:
 1078              	.LBE69:
 1079              	.LBB70:
 1080 047a 7178     		ldrb	r1, [r6, #1]	@ zero_extendqisi2
 1081              	.LVL115:
 1082 047c 2B78     		ldrb	r3, [r5, #0]	@ zero_extendqisi2
 1083 047e 2278     		ldrb	r2, [r4, #0]	@ zero_extendqisi2
 1084 0480 CB18     		adds	r3, r1, r3
 1085 0482 DBB2     		uxtb	r3, r3
 1086              	.LVL116:
 1087 0484 2B70     		strb	r3, [r5, #0]
 1088 0486 9B18     		adds	r3, r3, r2
 1089              	.LVL117:
 1090 0488 2370     		strb	r3, [r4, #0]
 1091 048a 2048     		ldr	r0, .L51+12
 1092 048c FFF7FEFF 		bl	uart_transmit
 1093              	.LVL118:
 1094              	.LBE70:
 1095              	.LBB71:
 1096 0490 B178     		ldrb	r1, [r6, #2]	@ zero_extendqisi2
 1097              	.LVL119:
 1098 0492 2B78     		ldrb	r3, [r5, #0]	@ zero_extendqisi2
 1099 0494 2278     		ldrb	r2, [r4, #0]	@ zero_extendqisi2
 1100 0496 CB18     		adds	r3, r1, r3
 1101 0498 DBB2     		uxtb	r3, r3
 1102              	.LVL120:
 1103 049a 2B70     		strb	r3, [r5, #0]
 1104 049c 9B18     		adds	r3, r3, r2
 1105              	.LVL121:
 1106 049e 2370     		strb	r3, [r4, #0]
 1107 04a0 1A48     		ldr	r0, .L51+12
 1108 04a2 FFF7FEFF 		bl	uart_transmit
 1109              	.LVL122:
 1110              	.LBE71:
 1111              	.LBB72:
 1112 04a6 F178     		ldrb	r1, [r6, #3]	@ zero_extendqisi2
 1113              	.LVL123:
 1114 04a8 2B78     		ldrb	r3, [r5, #0]	@ zero_extendqisi2
 1115 04aa 2278     		ldrb	r2, [r4, #0]	@ zero_extendqisi2
 1116 04ac CB18     		adds	r3, r1, r3
 1117 04ae DBB2     		uxtb	r3, r3
 1118              	.LVL124:
 1119 04b0 2B70     		strb	r3, [r5, #0]
 1120 04b2 9B18     		adds	r3, r3, r2
 1121              	.LVL125:
 1122 04b4 2370     		strb	r3, [r4, #0]
 1123 04b6 1548     		ldr	r0, .L51+12
 1124 04b8 FFF7FEFF 		bl	uart_transmit
 1125              	.LVL126:
 1126              	.LBE72:
 1127              	.LBB73:
 1128 04bc 2B78     		ldrb	r3, [r5, #0]	@ zero_extendqisi2
 1129 04be 2278     		ldrb	r2, [r4, #0]	@ zero_extendqisi2
 1130 04c0 FB18     		adds	r3, r7, r3
 1131 04c2 DBB2     		uxtb	r3, r3
 1132              	.LVL127:
 1133 04c4 2B70     		strb	r3, [r5, #0]
 1134 04c6 9B18     		adds	r3, r3, r2
 1135              	.LVL128:
 1136 04c8 2370     		strb	r3, [r4, #0]
 1137 04ca 3946     		mov	r1, r7
 1138 04cc 0F48     		ldr	r0, .L51+12
 1139 04ce FFF7FEFF 		bl	uart_transmit
 1140              	.LBE73:
 1141              	.LBB74:
 1142 04d2 194B     		ldr	r3, .L51+56
 1143 04d4 2278     		ldrb	r2, [r4, #0]	@ zero_extendqisi2
 1144 04d6 1978     		ldrb	r1, [r3, #0]	@ zero_extendqisi2
 1145              	.LVL129:
 1146 04d8 2B78     		ldrb	r3, [r5, #0]	@ zero_extendqisi2
 1147 04da 0C48     		ldr	r0, .L51+12
 1148 04dc CB18     		adds	r3, r1, r3
 1149 04de DBB2     		uxtb	r3, r3
 1150              	.LVL130:
 1151 04e0 2B70     		strb	r3, [r5, #0]
 1152 04e2 9B18     		adds	r3, r3, r2
 1153              	.LVL131:
 1154 04e4 2370     		strb	r3, [r4, #0]
 1155 04e6 FFF7FEFF 		bl	uart_transmit
 1156              	.LVL132:
 1157              	.LBE74:
 1158 04ea 2978     		ldrb	r1, [r5, #0]	@ zero_extendqisi2
 1159 04ec 0748     		ldr	r0, .L51+12
 1160 04ee FFF7FEFF 		bl	uart_transmit
 1161 04f2 0648     		ldr	r0, .L51+12
 1162 04f4 2178     		ldrb	r1, [r4, #0]	@ zero_extendqisi2
 1163 04f6 FFF7FEFF 		bl	uart_transmit
 1164 04fa 23E0     		b	.L29
 1165              	.L52:
 1166 04fc AFF30080 		.align	3
 1167              	.L51:
 1168 0500 182D4454 		.word	1413754136
 1169 0504 FB211940 		.word	1075388923
 1170 0508 00000000 		.word	nav_circle_radians
 1171 050c 00000000 		.word	uart2
 1172 0510 00000000 		.word	downlink_nb_bytes
 1173 0514 00000000 		.word	downlink_nb_msgs
 1174 0518 00000000 		.word	ck_a
 1175 051c 00000000 		.word	ck_b
 1176 0520 00000000 		.word	nav_block
 1177 0524 00000000 		.word	nav_stage
 1178 0528 00000000 		.word	estimator_x
 1179 052c 00000000 		.word	estimator_y
 1180 0530 00000000 		.word	dist2_to_wp
 1181 0534 00000000 		.word	dist2_to_home
 1182 0538 00000000 		.word	nav_oval_count
 1183              	.LVL133:
 1184              	.L28:
 1185 053c 444B     		ldr	r3, .L53+8
 1186 053e 1A78     		ldrb	r2, [r3, #0]	@ zero_extendqisi2
 1187 0540 0132     		adds	r2, r2, #1
 1188 0542 1A70     		strb	r2, [r3, #0]
 1189              	.LVL134:
 1190              	.L29:
 1191              	.LBE42:
 331:firmwares/fixedwing/main_ap.c ****   if (v_ctl_mode == V_CTL_MODE_AUTO_ALT)
 1192              		.loc 1 331 0
 1193 0544 434B     		ldr	r3, .L53+12
 1194 0546 1B78     		ldrb	r3, [r3, #0]	@ zero_extendqisi2
 1195 0548 032B     		cmp	r3, #3
 1196 054a 01D1     		bne	.L30
 332:firmwares/fixedwing/main_ap.c ****     v_ctl_altitude_loop();
 1197              		.loc 1 332 0
 1198 054c FFF7FEFF 		bl	v_ctl_altitude_loop
 1199              	.L30:
 334:firmwares/fixedwing/main_ap.c ****   if (pprz_mode == PPRZ_MODE_AUTO2 || pprz_mode == PPRZ_MODE_HOME
 1200              		.loc 1 334 0
 1201 0550 414B     		ldr	r3, .L53+16
 1202 0552 1B78     		ldrb	r3, [r3, #0]	@ zero_extendqisi2
 1203 0554 023B     		subs	r3, r3, #2
 1204 0556 DBB2     		uxtb	r3, r3
 1205 0558 022B     		cmp	r3, #2
 1206 055a 61D8     		bhi	.L31
 340:firmwares/fixedwing/main_ap.c ****     if (lateral_mode >=LATERAL_MODE_COURSE)
 1207              		.loc 1 340 0
 1208 055c 3F4B     		ldr	r3, .L53+20
 1209 055e 1B78     		ldrb	r3, [r3, #0]	@ zero_extendqisi2
 1210 0560 022B     		cmp	r3, #2
 1211 0562 01D9     		bls	.L32
 341:firmwares/fixedwing/main_ap.c ****       h_ctl_course_loop(); /* aka compute nav_desired_roll */
 1212              		.loc 1 341 0
 1213 0564 FFF7FEFF 		bl	h_ctl_course_loop
 1214              	.L32:
 342:firmwares/fixedwing/main_ap.c ****     if (v_ctl_mode >= V_CTL_MODE_AUTO_CLIMB)
 1215              		.loc 1 342 0
 1216 0568 3A4B     		ldr	r3, .L53+12
 1217 056a 1B78     		ldrb	r3, [r3, #0]	@ zero_extendqisi2
 1218 056c 012B     		cmp	r3, #1
 1219 056e 01D9     		bls	.L33
 343:firmwares/fixedwing/main_ap.c ****       v_ctl_climb_loop();
 1220              		.loc 1 343 0
 1221 0570 FFF7FEFF 		bl	v_ctl_climb_loop
 1222              	.L33:
 344:firmwares/fixedwing/main_ap.c ****     if (v_ctl_mode == V_CTL_MODE_AUTO_THROTTLE)
 1223              		.loc 1 344 0
 1224 0574 374B     		ldr	r3, .L53+12
 1225 0576 1B78     		ldrb	r3, [r3, #0]	@ zero_extendqisi2
 1226 0578 012B     		cmp	r3, #1
 1227 057a 03D1     		bne	.L34
 345:firmwares/fixedwing/main_ap.c ****       v_ctl_throttle_setpoint = nav_throttle_setpoint;
 1228              		.loc 1 345 0
 1229 057c 384A     		ldr	r2, .L53+24
 1230 057e 394B     		ldr	r3, .L53+28
 1231 0580 1288     		ldrh	r2, [r2, #0]
 1232 0582 1A80     		strh	r2, [r3, #0]	@ movhi
 1233              	.L34:
 352:firmwares/fixedwing/main_ap.c ****     if (vsupply > 0.) {
 1234              		.loc 1 352 0
 1235 0584 384B     		ldr	r3, .L53+32
 1236 0586 1D78     		ldrb	r5, [r3, #0]	@ zero_extendqisi2
 1237 0588 2846     		mov	r0, r5
 1238 058a FFF7FEFF 		bl	__aeabi_i2d
 1239 058e 0022     		movs	r2, #0
 1240 0590 0023     		movs	r3, #0
 1241 0592 FFF7FEFF 		bl	__aeabi_dcmpgt
 1242 0596 18B3     		cbz	r0, .L35
 354:firmwares/fixedwing/main_ap.c ****       v_ctl_throttle_setpoint = TRIM_UPPRZ(v_ctl_throttle_setpoint);
 1243              		.loc 1 354 0
 1244 0598 324C     		ldr	r4, .L53+28
 1245 059a B4F90000 		ldrsh	r0, [r4, #0]
 1246 059e FFF7FEFF 		bl	__aeabi_i2d
 1247 05a2 0646     		mov	r6, r0
 1248 05a4 2846     		mov	r0, r5
 1249 05a6 0F46     		mov	r7, r1
 1250              	.LVL135:
 1251 05a8 FFF7FEFF 		bl	__aeabi_ui2f
 1252 05ac FFF7FEFF 		bl	__aeabi_f2d
 1253 05b0 0246     		mov	r2, r0
 1254 05b2 0B46     		mov	r3, r1
 1255 05b4 24A1     		adr	r1, .L53
 1256 05b6 D1E90001 		ldrd	r0, [r1]
 1257 05ba FFF7FEFF 		bl	__aeabi_ddiv
 1258 05be 0B46     		mov	r3, r1
 1259 05c0 0246     		mov	r2, r0
 1260 05c2 3946     		mov	r1, r7
 1261 05c4 3046     		mov	r0, r6
 1262 05c6 FFF7FEFF 		bl	__aeabi_dmul
 1263 05ca FFF7FEFF 		bl	__aeabi_d2iz
 1264 05ce 03B2     		sxth	r3, r0
 1265 05d0 B3F5165F 		cmp	r3, #9600
 1266 05d4 A8BF     		it	ge
 1267 05d6 4FF41653 		movge	r3, #9600
 1268              	.LVL136:
 1269 05da 23EAE373 		bic	r3, r3, r3, asr #31
 1270              	.LVL137:
 1271 05de 2380     		strh	r3, [r4, #0]	@ movhi
 1272              	.LVL138:
 1273              	.L35:
 358:firmwares/fixedwing/main_ap.c ****     h_ctl_pitch_setpoint = nav_pitch;
 1274              		.loc 1 358 0
 1275 05e0 224B     		ldr	r3, .L53+36
 1276 05e2 234C     		ldr	r4, .L53+40
 1277 05e4 1D68     		ldr	r5, [r3, #0]	@ float
 1278              	.LVL139:
 359:firmwares/fixedwing/main_ap.c ****     Bound(h_ctl_pitch_setpoint, H_CTL_PITCH_MIN_SETPOINT, H_CTL_PITCH_MAX_SETPOINT);
 1279              		.loc 1 359 0
 1280 05e6 4FF07C56 		mov	r6, #1056964608
 358:firmwares/fixedwing/main_ap.c ****     h_ctl_pitch_setpoint = nav_pitch;
 1281              		.loc 1 358 0
 1282 05ea 2560     		str	r5, [r4, #0]	@ float
 359:firmwares/fixedwing/main_ap.c ****     Bound(h_ctl_pitch_setpoint, H_CTL_PITCH_MIN_SETPOINT, H_CTL_PITCH_MAX_SETPOINT);
 1283              		.loc 1 359 0
 1284 05ec 2846     		mov	r0, r5
 1285 05ee 3146     		mov	r1, r6
 1286 05f0 FFF7FEFF 		bl	__aeabi_fcmpgt
 1287 05f4 30B9     		cbnz	r0, .L48
 1288 05f6 4FF03F46 		mov	r6, #-1090519040
 1289 05fa 2846     		mov	r0, r5
 1290 05fc 3146     		mov	r1, r6
 1291 05fe FFF7FEFF 		bl	__aeabi_fcmplt
 1292 0602 00B1     		cbz	r0, .L39
 1293              	.L48:
 1294 0604 2660     		str	r6, [r4, #0]	@ float
 1295              	.L39:
 360:firmwares/fixedwing/main_ap.c ****     if (kill_throttle || (!estimator_flight_time && !launch))
 1296              		.loc 1 360 0
 1297 0606 1B4B     		ldr	r3, .L53+44
 1298 0608 1B78     		ldrb	r3, [r3, #0]	@ zero_extendqisi2
 1299 060a 2BB9     		cbnz	r3, .L41
 1300 060c 1A4B     		ldr	r3, .L53+48
 1301 060e 1B88     		ldrh	r3, [r3, #0]
 1302 0610 33B9     		cbnz	r3, .L31
 1303 0612 1A4B     		ldr	r3, .L53+52
 1304 0614 1B78     		ldrb	r3, [r3, #0]	@ zero_extendqisi2
 1305 0616 1BB9     		cbnz	r3, .L31
 1306              	.L41:
 361:firmwares/fixedwing/main_ap.c ****       v_ctl_throttle_setpoint = 0;
 1307              		.loc 1 361 0
 1308 0618 124B     		ldr	r3, .L53+28
 1309 061a 4FF00002 		mov	r2, #0	@ movhi
 1310 061e 1A80     		strh	r2, [r3, #0]	@ movhi
 1311              	.L31:
 363:firmwares/fixedwing/main_ap.c ****   energy += ((float)current) / 3600.0f * 0.25f;	// mAh = mA * dt (4Hz -> hours)
 1312              		.loc 1 363 0
 1313 0620 174B     		ldr	r3, .L53+56
 1314 0622 184C     		ldr	r4, .L53+60
 1315 0624 1868     		ldr	r0, [r3, #0]
 1316 0626 FFF7FEFF 		bl	__aeabi_i2f
 1317 062a 1749     		ldr	r1, .L53+64
 1318 062c FFF7FEFF 		bl	__aeabi_fdiv
 1319 0630 4FF07A51 		mov	r1, #1048576000
 1320 0634 FFF7FEFF 		bl	__aeabi_fmul
 1321 0638 0146     		mov	r1, r0
 1322 063a 2068     		ldr	r0, [r4, #0]	@ float
 1323 063c FFF7FEFF 		bl	__aeabi_fadd
 1324 0640 2060     		str	r0, [r4, #0]	@ float
 364:firmwares/fixedwing/main_ap.c **** }
 1325              		.loc 1 364 0
 1326 0642 F8BD     		pop	{r3, r4, r5, r6, r7, pc}
 1327              	.L54:
 1328 0644 AFF30080 		.align	3
 1329              	.L53:
 1330 0648 00000000 		.word	0
 1331 064c 00C05B40 		.word	1079754752
 1332 0650 00000000 		.word	downlink_nb_ovrn
 1333 0654 00000000 		.word	v_ctl_mode
 1334 0658 00000000 		.word	.LANCHOR2
 1335 065c 00000000 		.word	.LANCHOR4
 1336 0660 00000000 		.word	nav_throttle_setpoint
 1337 0664 00000000 		.word	v_ctl_throttle_setpoint
 1338 0668 00000000 		.word	.LANCHOR8
 1339 066c 00000000 		.word	nav_pitch
 1340 0670 00000000 		.word	h_ctl_pitch_setpoint
 1341 0674 00000000 		.word	.LANCHOR9
 1342 0678 00000000 		.word	estimator_flight_time
 1343 067c 00000000 		.word	.LANCHOR1
 1344 0680 00000000 		.word	.LANCHOR11
 1345 0684 00000000 		.word	.LANCHOR10
 1346 0688 00006145 		.word	1163984896
 1347              		.cfi_endproc
 1348              	.LFE59:
 1350 068c AFF30080 		.section	.text.attitude_loop,"ax",%progbits
 1351              		.align	1
 1352              		.thumb
 1353              		.thumb_func
 1355              	attitude_loop:
 1356              	.LFB60:
 393:firmwares/fixedwing/main_ap.c **** static inline void attitude_loop( void ) {
 1357              		.loc 1 393 0
 1358              		.cfi_startproc
 1359              		@ args = 0, pretend = 0, frame = 0
 1360              		@ frame_needed = 0, uses_anonymous_args = 0
 1361 0000 08B5     		push	{r3, lr}
 1362              	.LCFI3:
 1363              		.cfi_def_cfa_offset 8
 403:firmwares/fixedwing/main_ap.c ****   h_ctl_attitude_loop(); /* Set  h_ctl_aileron_setpoint & h_ctl_elevator_setpoint */
 1364              		.loc 1 403 0
 1365              		.cfi_offset 14, -4
 1366              		.cfi_offset 3, -8
 1367 0002 FFF7FEFF 		bl	h_ctl_attitude_loop
 404:firmwares/fixedwing/main_ap.c ****   v_ctl_throttle_slew();
 1368              		.loc 1 404 0
 1369 0006 FFF7FEFF 		bl	v_ctl_throttle_slew
 405:firmwares/fixedwing/main_ap.c ****   ap_state->commands[COMMAND_THROTTLE] = v_ctl_throttle_slewed;
 1370              		.loc 1 405 0
 1371 000a 074B     		ldr	r3, .L57
 1372 000c 074A     		ldr	r2, .L57+4
 1373 000e 1B68     		ldr	r3, [r3, #0]
 1374 0010 1288     		ldrh	r2, [r2, #0]
 1375 0012 1A80     		strh	r2, [r3, #0]	@ movhi
 406:firmwares/fixedwing/main_ap.c ****   ap_state->commands[COMMAND_ROLL] = h_ctl_aileron_setpoint;
 1376              		.loc 1 406 0
 1377 0014 064A     		ldr	r2, .L57+8
 1378 0016 1288     		ldrh	r2, [r2, #0]
 1379 0018 5A80     		strh	r2, [r3, #2]	@ movhi
 408:firmwares/fixedwing/main_ap.c ****   ap_state->commands[COMMAND_PITCH] = h_ctl_elevator_setpoint;
 1380              		.loc 1 408 0
 1381 001a 064A     		ldr	r2, .L57+12
 1382 001c 1288     		ldrh	r2, [r2, #0]
 1383 001e 9A80     		strh	r2, [r3, #4]	@ movhi
 414:firmwares/fixedwing/main_ap.c ****   inter_mcu_received_ap = TRUE;
 1384              		.loc 1 414 0
 1385 0020 054B     		ldr	r3, .L57+16
 1386 0022 0122     		movs	r2, #1
 1387 0024 1A70     		strb	r2, [r3, #0]
 417:firmwares/fixedwing/main_ap.c **** }
 1388              		.loc 1 417 0
 1389 0026 08BD     		pop	{r3, pc}
 1390              	.L58:
 1391              		.align	2
 1392              	.L57:
 1393 0028 00000000 		.word	ap_state
 1394 002c 00000000 		.word	v_ctl_throttle_slewed
 1395 0030 00000000 		.word	h_ctl_aileron_setpoint
 1396 0034 00000000 		.word	h_ctl_elevator_setpoint
 1397 0038 00000000 		.word	inter_mcu_received_ap
 1398              		.cfi_endproc
 1399              	.LFE60:
 1401              		.global	__aeabi_f2iz
 1402              		.global	__aeabi_dcmplt
 1403              		.section	.text.periodic_task_ap,"ax",%progbits
 1404              		.align	1
 1405              		.global	periodic_task_ap
 1406              		.thumb
 1407              		.thumb_func
 1409              	periodic_task_ap:
 1410              	.LFB61:
 425:firmwares/fixedwing/main_ap.c **** void periodic_task_ap( void ) {
 1411              		.loc 1 425 0
 1412              		.cfi_startproc
 1413              		@ args = 0, pretend = 0, frame = 16
 1414              		@ frame_needed = 0, uses_anonymous_args = 0
 1415 0000 2DE9F045 		push	{r4, r5, r6, r7, r8, sl, lr}
 1416              	.LCFI4:
 1417              		.cfi_def_cfa_offset 28
 1418 0004 85B0     		sub	sp, sp, #20
 1419              	.LCFI5:
 1420              		.cfi_def_cfa_offset 48
 435:firmwares/fixedwing/main_ap.c ****   imu_periodic();
 1421              		.loc 1 435 0
 1422              		.cfi_offset 14, -4
 1423              		.cfi_offset 10, -8
 1424              		.cfi_offset 8, -12
 1425              		.cfi_offset 7, -16
 1426              		.cfi_offset 6, -20
 1427              		.cfi_offset 5, -24
 1428              		.cfi_offset 4, -28
 1429 0006 FFF7FEFF 		bl	imu_periodic
 438:firmwares/fixedwing/main_ap.c ****   if (ahrs_timeout_counter < 255)
 1430              		.loc 1 438 0
 1431 000a 464B     		ldr	r3, .L298
 1432 000c 1A78     		ldrb	r2, [r3, #0]	@ zero_extendqisi2
 1433 000e FF2A     		cmp	r2, #255
 1434 0010 03D0     		beq	.L60
 439:firmwares/fixedwing/main_ap.c ****     ahrs_timeout_counter ++;
 1435              		.loc 1 439 0
 1436 0012 1A78     		ldrb	r2, [r3, #0]	@ zero_extendqisi2
 1437 0014 0132     		adds	r2, r2, #1
 1438 0016 D2B2     		uxtb	r2, r2
 1439 0018 1A70     		strb	r2, [r3, #0]
 1440              	.L60:
 448:firmwares/fixedwing/main_ap.c ****   _60Hz++;
 1441              		.loc 1 448 0
 1442 001a 434B     		ldr	r3, .L298+4
 1443 001c 1A78     		ldrb	r2, [r3, #0]	@ zero_extendqisi2
 1444 001e 0132     		adds	r2, r2, #1
 1445 0020 D2B2     		uxtb	r2, r2
 1446 0022 1A70     		strb	r2, [r3, #0]
 449:firmwares/fixedwing/main_ap.c ****   if (_60Hz >= (PERIODIC_FREQUENCY / 60))
 1447              		.loc 1 449 0
 1448 0024 002A     		cmp	r2, #0
 1449 0026 05F07986 		beq	.L274
 451:firmwares/fixedwing/main_ap.c ****     _60Hz = 0;
 1450              		.loc 1 451 0
 1451 002a 0022     		movs	r2, #0
 1452 002c 1A70     		strb	r2, [r3, #0]
 460:firmwares/fixedwing/main_ap.c ****   _20Hz++;
 1453              		.loc 1 460 0
 1454 002e 3F4B     		ldr	r3, .L298+8
 1455 0030 1978     		ldrb	r1, [r3, #0]	@ zero_extendqisi2
 1456 0032 0131     		adds	r1, r1, #1
 1457 0034 C9B2     		uxtb	r1, r1
 461:firmwares/fixedwing/main_ap.c ****   if (_20Hz>=3) _20Hz=0;
 1458              		.loc 1 461 0
 1459 0036 0229     		cmp	r1, #2
 460:firmwares/fixedwing/main_ap.c ****   _20Hz++;
 1460              		.loc 1 460 0
 1461 0038 1970     		strb	r1, [r3, #0]
 461:firmwares/fixedwing/main_ap.c ****   if (_20Hz>=3) _20Hz=0;
 1462              		.loc 1 461 0
 1463 003a 88BF     		it	hi
 1464 003c 1A70     		strbhi	r2, [r3, #0]
 462:firmwares/fixedwing/main_ap.c ****   _10Hz++;
 1465              		.loc 1 462 0
 1466 003e 3C4B     		ldr	r3, .L298+12
 1467 0040 1A78     		ldrb	r2, [r3, #0]	@ zero_extendqisi2
 1468 0042 0132     		adds	r2, r2, #1
 1469 0044 D2B2     		uxtb	r2, r2
 463:firmwares/fixedwing/main_ap.c ****   if (_10Hz>=6) _10Hz=0;
 1470              		.loc 1 463 0
 1471 0046 052A     		cmp	r2, #5
 462:firmwares/fixedwing/main_ap.c ****   _10Hz++;
 1472              		.loc 1 462 0
 1473 0048 1A70     		strb	r2, [r3, #0]
 463:firmwares/fixedwing/main_ap.c ****   if (_10Hz>=6) _10Hz=0;
 1474              		.loc 1 463 0
 1475 004a 01D9     		bls	.L63
 1476 004c 0022     		movs	r2, #0
 1477 004e 1A70     		strb	r2, [r3, #0]
 1478              	.L63:
 464:firmwares/fixedwing/main_ap.c ****   _4Hz++;
 1479              		.loc 1 464 0
 1480 0050 384B     		ldr	r3, .L298+16
 1481 0052 1A78     		ldrb	r2, [r3, #0]	@ zero_extendqisi2
 1482 0054 0132     		adds	r2, r2, #1
 1483 0056 D2B2     		uxtb	r2, r2
 465:firmwares/fixedwing/main_ap.c ****   if (_4Hz>=15) _4Hz=0;
 1484              		.loc 1 465 0
 1485 0058 0E2A     		cmp	r2, #14
 464:firmwares/fixedwing/main_ap.c ****   _4Hz++;
 1486              		.loc 1 464 0
 1487 005a 1A70     		strb	r2, [r3, #0]
 465:firmwares/fixedwing/main_ap.c ****   if (_4Hz>=15) _4Hz=0;
 1488              		.loc 1 465 0
 1489 005c 01D9     		bls	.L64
 1490 005e 0022     		movs	r2, #0
 1491 0060 1A70     		strb	r2, [r3, #0]
 1492              	.L64:
 466:firmwares/fixedwing/main_ap.c ****   _1Hz++;
 1493              		.loc 1 466 0
 1494 0062 354B     		ldr	r3, .L298+20
 1495 0064 1A78     		ldrb	r2, [r3, #0]	@ zero_extendqisi2
 1496 0066 0132     		adds	r2, r2, #1
 1497 0068 D2B2     		uxtb	r2, r2
 467:firmwares/fixedwing/main_ap.c ****   if (_1Hz>=60) _1Hz=0;
 1498              		.loc 1 467 0
 1499 006a 3B2A     		cmp	r2, #59
 466:firmwares/fixedwing/main_ap.c ****   _1Hz++;
 1500              		.loc 1 466 0
 1501 006c 1A70     		strb	r2, [r3, #0]
 467:firmwares/fixedwing/main_ap.c ****   if (_1Hz>=60) _1Hz=0;
 1502              		.loc 1 467 0
 1503 006e 01D9     		bls	.L65
 1504 0070 0022     		movs	r2, #0
 1505 0072 1A70     		strb	r2, [r3, #0]
 1506              	.L65:
 1507              	.LBB738:
 1508              	.LBB739:
 199:firmwares/fixedwing/main_ap.c ****   if (boot) {
 1509              		.loc 1 199 0
 1510 0074 314B     		ldr	r3, .L298+24
 1511 0076 1B78     		ldrb	r3, [r3, #0]	@ zero_extendqisi2
 1512 0078 002B     		cmp	r3, #0
 1513 007a 6FD0     		beq	.L66
 200:firmwares/fixedwing/main_ap.c ****     DOWNLINK_SEND_BOOT(DefaultChannel, &version);
 1514              		.loc 1 200 0
 1515 007c 3048     		ldr	r0, .L298+28
 1516 007e 0821     		movs	r1, #8
 1517 0080 FFF7FEFF 		bl	uart_check_free_space
 1518 0084 0028     		cmp	r0, #0
 1519 0086 44D0     		beq	.L67
 1520 0088 2E4B     		ldr	r3, .L298+32
 1521              	.LBB740:
 1522 008a 9921     		movs	r1, #153
 1523              	.LBE740:
 1524 008c 1A88     		ldrh	r2, [r3, #0]
 1525              	.LBB741:
 1526 008e 2C48     		ldr	r0, .L298+28
 1527              	.LBE741:
 1528 0090 0832     		adds	r2, r2, #8
 1529 0092 1A80     		strh	r2, [r3, #0]	@ movhi
 1530 0094 2C4B     		ldr	r3, .L298+36
 1531              	.LBB742:
 1532 0096 2D4D     		ldr	r5, .L298+40
 1533              	.LBE742:
 1534 0098 1A88     		ldrh	r2, [r3, #0]
 1535              	.LBB743:
 1536 009a 2D4C     		ldr	r4, .L298+44
 1537              	.LBE743:
 1538 009c 0132     		adds	r2, r2, #1
 1539 009e 1A80     		strh	r2, [r3, #0]	@ movhi
 1540              	.LBB744:
 1541 00a0 FFF7FEFF 		bl	uart_transmit
 1542 00a4 0821     		movs	r1, #8
 1543 00a6 2648     		ldr	r0, .L298+28
 1544 00a8 FFF7FEFF 		bl	uart_transmit
 1545              	.LBE744:
 1546 00ac 0923     		movs	r3, #9
 1547 00ae 2B70     		strb	r3, [r5, #0]
 1548 00b0 0833     		adds	r3, r3, #8
 1549 00b2 2370     		strb	r3, [r4, #0]
 1550 00b4 0121     		movs	r1, #1
 1551 00b6 2248     		ldr	r0, .L298+28
 1552 00b8 FFF7FEFF 		bl	uart_transmit
 1553 00bc 2B78     		ldrb	r3, [r5, #0]	@ zero_extendqisi2
 1554 00be 2278     		ldrb	r2, [r4, #0]	@ zero_extendqisi2
 1555 00c0 0133     		adds	r3, r3, #1
 1556 00c2 DBB2     		uxtb	r3, r3
 1557 00c4 2B70     		strb	r3, [r5, #0]
 1558              	.LBB745:
 1559 00c6 234E     		ldr	r6, .L298+48
 1560              	.LBE745:
 1561 00c8 9B18     		adds	r3, r3, r2
 1562 00ca 2370     		strb	r3, [r4, #0]
 1563 00cc 0121     		movs	r1, #1
 1564 00ce 1C48     		ldr	r0, .L298+28
 1565 00d0 FFF7FEFF 		bl	uart_transmit
 1566              	.LBB746:
 1567 00d4 3178     		ldrb	r1, [r6, #0]	@ zero_extendqisi2
 1568              	.LVL140:
 1569 00d6 2B78     		ldrb	r3, [r5, #0]	@ zero_extendqisi2
 1570 00d8 2278     		ldrb	r2, [r4, #0]	@ zero_extendqisi2
 1571 00da CB18     		adds	r3, r1, r3
 1572 00dc DBB2     		uxtb	r3, r3
 1573 00de 2B70     		strb	r3, [r5, #0]
 1574 00e0 9B18     		adds	r3, r3, r2
 1575 00e2 2370     		strb	r3, [r4, #0]
 1576 00e4 1648     		ldr	r0, .L298+28
 1577 00e6 FFF7FEFF 		bl	uart_transmit
 1578              	.LVL141:
 1579              	.LBE746:
 1580              	.LBB747:
 1581 00ea 7178     		ldrb	r1, [r6, #1]	@ zero_extendqisi2
 1582              	.LVL142:
 1583 00ec 2B78     		ldrb	r3, [r5, #0]	@ zero_extendqisi2
 1584 00ee 2278     		ldrb	r2, [r4, #0]	@ zero_extendqisi2
 1585 00f0 CB18     		adds	r3, r1, r3
 1586 00f2 DBB2     		uxtb	r3, r3
 1587 00f4 2B70     		strb	r3, [r5, #0]
 1588 00f6 9B18     		adds	r3, r3, r2
 1589 00f8 2370     		strb	r3, [r4, #0]
 1590 00fa 1148     		ldr	r0, .L298+28
 1591 00fc FFF7FEFF 		bl	uart_transmit
 1592              	.LVL143:
 1593              	.LBE747:
 1594 0100 2978     		ldrb	r1, [r5, #0]	@ zero_extendqisi2
 1595 0102 0F48     		ldr	r0, .L298+28
 1596 0104 FFF7FEFF 		bl	uart_transmit
 1597 0108 0D48     		ldr	r0, .L298+28
 1598 010a 2178     		ldrb	r1, [r4, #0]	@ zero_extendqisi2
 1599 010c FFF7FEFF 		bl	uart_transmit
 1600 0110 03E0     		b	.L68
 1601              	.L67:
 1602 0112 114B     		ldr	r3, .L298+52
 1603 0114 1A78     		ldrb	r2, [r3, #0]	@ zero_extendqisi2
 1604 0116 0132     		adds	r2, r2, #1
 1605 0118 1A70     		strb	r2, [r3, #0]
 1606              	.L68:
 201:firmwares/fixedwing/main_ap.c ****     boot = FALSE;
 1607              		.loc 1 201 0
 1608 011a 0022     		movs	r2, #0
 1609 011c 074B     		ldr	r3, .L298+24
 1610 011e 05F05FBD 		b	.L289
 1611              	.L299:
 1612 0122 00BF     		.align	2
 1613              	.L298:
 1614 0124 00000000 		.word	.LANCHOR0
 1615 0128 00000000 		.word	.LANCHOR12
 1616 012c 00000000 		.word	.LANCHOR13
 1617 0130 00000000 		.word	.LANCHOR14
 1618 0134 00000000 		.word	.LANCHOR15
 1619 0138 00000000 		.word	.LANCHOR16
 1620 013c 00000000 		.word	.LANCHOR17
 1621 0140 00000000 		.word	uart2
 1622 0144 00000000 		.word	downlink_nb_bytes
 1623 0148 00000000 		.word	downlink_nb_msgs
 1624 014c 00000000 		.word	ck_a
 1625 0150 00000000 		.word	ck_b
 1626 0154 00000000 		.word	.LANCHOR18
 1627 0158 00000000 		.word	downlink_nb_ovrn
 1628              	.L66:
 205:firmwares/fixedwing/main_ap.c ****     PeriodicSendAp(DefaultChannel);
 1629              		.loc 1 205 0
 1630 015c 9E4B     		ldr	r3, .L300+16
 1631 015e 1A78     		ldrb	r2, [r3, #0]	@ zero_extendqisi2
 1632 0160 002A     		cmp	r2, #0
 1633 0162 42F0E581 		bne	.L70
 1634              	.LBB748:
 1635 0166 9D4B     		ldr	r3, .L300+20
 1636 0168 1978     		ldrb	r1, [r3, #0]	@ zero_extendqisi2
 1637 016a 0131     		adds	r1, r1, #1
 1638 016c C9B2     		uxtb	r1, r1
 1639 016e 0E29     		cmp	r1, #14
 1640 0170 1970     		strb	r1, [r3, #0]
 1641 0172 88BF     		it	hi
 1642 0174 1A70     		strbhi	r2, [r3, #0]
 1643 0176 9A4B     		ldr	r3, .L300+24
 1644 0178 1A78     		ldrb	r2, [r3, #0]	@ zero_extendqisi2
 1645 017a 0132     		adds	r2, r2, #1
 1646 017c D2B2     		uxtb	r2, r2
 1647 017e 1D2A     		cmp	r2, #29
 1648 0180 1A70     		strb	r2, [r3, #0]
 1649 0182 01D9     		bls	.L72
 1650 0184 0022     		movs	r2, #0
 1651 0186 1A70     		strb	r2, [r3, #0]
 1652              	.L72:
 1653 0188 964B     		ldr	r3, .L300+28
 1654 018a 1A78     		ldrb	r2, [r3, #0]	@ zero_extendqisi2
 1655 018c 0132     		adds	r2, r2, #1
 1656 018e D2B2     		uxtb	r2, r2
 1657 0190 3B2A     		cmp	r2, #59
 1658 0192 1A70     		strb	r2, [r3, #0]
 1659 0194 01D9     		bls	.L73
 1660 0196 0022     		movs	r2, #0
 1661 0198 1A70     		strb	r2, [r3, #0]
 1662              	.L73:
 1663 019a 934B     		ldr	r3, .L300+32
 1664 019c 1A78     		ldrb	r2, [r3, #0]	@ zero_extendqisi2
 1665 019e 0132     		adds	r2, r2, #1
 1666 01a0 D2B2     		uxtb	r2, r2
 1667 01a2 3E2A     		cmp	r2, #62
 1668 01a4 1A70     		strb	r2, [r3, #0]
 1669 01a6 01D9     		bls	.L74
 1670 01a8 0022     		movs	r2, #0
 1671 01aa 1A70     		strb	r2, [r3, #0]
 1672              	.L74:
 1673 01ac 8F4B     		ldr	r3, .L300+36
 1674 01ae 1A78     		ldrb	r2, [r3, #0]	@ zero_extendqisi2
 1675 01b0 0132     		adds	r2, r2, #1
 1676 01b2 D2B2     		uxtb	r2, r2
 1677 01b4 412A     		cmp	r2, #65
 1678 01b6 1A70     		strb	r2, [r3, #0]
 1679 01b8 01D9     		bls	.L75
 1680 01ba 0022     		movs	r2, #0
 1681 01bc 1A70     		strb	r2, [r3, #0]
 1682              	.L75:
 1683 01be 8C4B     		ldr	r3, .L300+40
 1684 01c0 1A78     		ldrb	r2, [r3, #0]	@ zero_extendqisi2
 1685 01c2 0132     		adds	r2, r2, #1
 1686 01c4 D2B2     		uxtb	r2, r2
 1687 01c6 472A     		cmp	r2, #71
 1688 01c8 1A70     		strb	r2, [r3, #0]
 1689 01ca 01D9     		bls	.L76
 1690 01cc 0022     		movs	r2, #0
 1691 01ce 1A70     		strb	r2, [r3, #0]
 1692              	.L76:
 1693 01d0 884B     		ldr	r3, .L300+44
 1694 01d2 1A78     		ldrb	r2, [r3, #0]	@ zero_extendqisi2
 1695 01d4 0132     		adds	r2, r2, #1
 1696 01d6 D2B2     		uxtb	r2, r2
 1697 01d8 592A     		cmp	r2, #89
 1698 01da 1A70     		strb	r2, [r3, #0]
 1699 01dc 01D9     		bls	.L77
 1700 01de 0022     		movs	r2, #0
 1701 01e0 1A70     		strb	r2, [r3, #0]
 1702              	.L77:
 1703 01e2 854B     		ldr	r3, .L300+48
 1704 01e4 1A78     		ldrb	r2, [r3, #0]	@ zero_extendqisi2
 1705 01e6 0132     		adds	r2, r2, #1
 1706 01e8 D2B2     		uxtb	r2, r2
 1707 01ea 772A     		cmp	r2, #119
 1708 01ec 1A70     		strb	r2, [r3, #0]
 1709 01ee 01D9     		bls	.L78
 1710 01f0 0022     		movs	r2, #0
 1711 01f2 1A70     		strb	r2, [r3, #0]
 1712              	.L78:
 1713 01f4 814B     		ldr	r3, .L300+52
 1714 01f6 1A78     		ldrb	r2, [r3, #0]	@ zero_extendqisi2
 1715 01f8 0132     		adds	r2, r2, #1
 1716 01fa D2B2     		uxtb	r2, r2
 1717 01fc 7D2A     		cmp	r2, #125
 1718 01fe 1A70     		strb	r2, [r3, #0]
 1719 0200 01D9     		bls	.L79
 1720 0202 0022     		movs	r2, #0
 1721 0204 1A70     		strb	r2, [r3, #0]
 1722              	.L79:
 1723 0206 7E4B     		ldr	r3, .L300+56
 1724 0208 1A78     		ldrb	r2, [r3, #0]	@ zero_extendqisi2
 1725 020a 0132     		adds	r2, r2, #1
 1726 020c D2B2     		uxtb	r2, r2
 1727 020e 952A     		cmp	r2, #149
 1728 0210 1A70     		strb	r2, [r3, #0]
 1729 0212 01D9     		bls	.L80
 1730 0214 0022     		movs	r2, #0
 1731 0216 1A70     		strb	r2, [r3, #0]
 1732              	.L80:
 1733 0218 7A4B     		ldr	r3, .L300+60
 1734 021a 1A88     		ldrh	r2, [r3, #0]
 1735 021c 0132     		adds	r2, r2, #1
 1736 021e 92B2     		uxth	r2, r2
 1737 0220 B2F5967F 		cmp	r2, #300
 1738 0224 1A80     		strh	r2, [r3, #0]	@ movhi
 1739 0226 24BF     		itt	cs
 1740 0228 0022     		movcs	r2, #0	@ movhi
 1741 022a 1A80     		strhcs	r2, [r3, #0]	@ movhi
 1742 022c 764B     		ldr	r3, .L300+64
 1743 022e 1A88     		ldrh	r2, [r3, #0]
 1744 0230 0132     		adds	r2, r2, #1
 1745 0232 92B2     		uxth	r2, r2
 1746 0234 B2F5997F 		cmp	r2, #306
 1747 0238 1A80     		strh	r2, [r3, #0]	@ movhi
 1748 023a 24BF     		itt	cs
 1749 023c 0022     		movcs	r2, #0	@ movhi
 1750 023e 1A80     		strhcs	r2, [r3, #0]	@ movhi
 1751 0240 724B     		ldr	r3, .L300+68
 1752 0242 1A88     		ldrh	r2, [r3, #0]
 1753 0244 0132     		adds	r2, r2, #1
 1754 0246 92B2     		uxth	r2, r2
 1755 0248 B2F5077F 		cmp	r2, #540
 1756 024c 1A80     		strh	r2, [r3, #0]	@ movhi
 1757 024e 24BF     		itt	cs
 1758 0250 0022     		movcs	r2, #0	@ movhi
 1759 0252 1A80     		strhcs	r2, [r3, #0]	@ movhi
 1760 0254 614B     		ldr	r3, .L300+20
 1761 0256 1B78     		ldrb	r3, [r3, #0]	@ zero_extendqisi2
 1762 0258 002B     		cmp	r3, #0
 1763 025a 40F0AD82 		bne	.L84
 1764              	.LBB749:
 1765 025e 6C4C     		ldr	r4, .L300+72
 1766 0260 236C     		ldr	r3, [r4, #64]
 1767 0262 A06C     		ldr	r0, [r4, #72]
 1768 0264 5B42     		negs	r3, r3
 1769 0266 ADF80C30 		strh	r3, [sp, #12]	@ movhi
 1770              	.LVL144:
 1771 026a FFF7FEFF 		bl	__aeabi_i2d
 1772 026e 56A3     		adr	r3, .L300
 1773 0270 D3E90023 		ldrd	r2, [r3]
 1774 0274 FFF7FEFF 		bl	__aeabi_dmul
 1775 0278 55A3     		adr	r3, .L300+8
 1776 027a D3E90023 		ldrd	r2, [r3]
 1777 027e FFF7FEFF 		bl	__aeabi_ddiv
 1778 0282 FFF7FEFF 		bl	__aeabi_d2iz
 1779 0286 2121     		movs	r1, #33
 1780 0288 ADF80E00 		strh	r0, [sp, #14]	@ movhi
 1781              	.LVL145:
 1782 028c 6148     		ldr	r0, .L300+76
 1783 028e FFF7FEFF 		bl	uart_check_free_space
 1784 0292 0028     		cmp	r0, #0
 1785 0294 00F0A681 		beq	.L85
 1786 0298 5F4B     		ldr	r3, .L300+80
 1787              	.LBB750:
 1788 029a 9921     		movs	r1, #153
 1789              	.LBE750:
 1790 029c 1A88     		ldrh	r2, [r3, #0]
 1791              	.LBB751:
 1792 029e 5D48     		ldr	r0, .L300+76
 1793              	.LBE751:
 1794 02a0 2132     		adds	r2, r2, #33
 1795 02a2 1A80     		strh	r2, [r3, #0]	@ movhi
 1796 02a4 5D4B     		ldr	r3, .L300+84
 1797              	.LBB752:
 1798 02a6 5E4E     		ldr	r6, .L300+88
 1799              	.LBE752:
 1800 02a8 1A88     		ldrh	r2, [r3, #0]
 1801              	.LBB753:
 1802 02aa 5E4D     		ldr	r5, .L300+92
 1803              	.LBE753:
 1804 02ac 0132     		adds	r2, r2, #1
 1805 02ae 1A80     		strh	r2, [r3, #0]	@ movhi
 1806              	.LBB754:
 1807 02b0 FFF7FEFF 		bl	uart_transmit
 1808 02b4 2121     		movs	r1, #33
 1809 02b6 5748     		ldr	r0, .L300+76
 1810 02b8 FFF7FEFF 		bl	uart_transmit
 1811              	.LBE754:
 1812 02bc 2223     		movs	r3, #34
 1813 02be 3370     		strb	r3, [r6, #0]
 1814 02c0 2133     		adds	r3, r3, #33
 1815 02c2 2B70     		strb	r3, [r5, #0]
 1816 02c4 0121     		movs	r1, #1
 1817 02c6 5348     		ldr	r0, .L300+76
 1818 02c8 FFF7FEFF 		bl	uart_transmit
 1819 02cc 3378     		ldrb	r3, [r6, #0]	@ zero_extendqisi2
 1820 02ce 2A78     		ldrb	r2, [r5, #0]	@ zero_extendqisi2
 1821 02d0 0833     		adds	r3, r3, #8
 1822 02d2 DBB2     		uxtb	r3, r3
 1823 02d4 3370     		strb	r3, [r6, #0]
 1824 02d6 9B18     		adds	r3, r3, r2
 1825 02d8 2B70     		strb	r3, [r5, #0]
 1826 02da 0821     		movs	r1, #8
 1827 02dc 4D48     		ldr	r0, .L300+76
 1828 02de FFF7FEFF 		bl	uart_transmit
 1829              	.LBB755:
 1830 02e2 94F85710 		ldrb	r1, [r4, #87]	@ zero_extendqisi2
 1831              	.LVL146:
 1832 02e6 3378     		ldrb	r3, [r6, #0]	@ zero_extendqisi2
 1833 02e8 2A78     		ldrb	r2, [r5, #0]	@ zero_extendqisi2
 1834 02ea CB18     		adds	r3, r1, r3
 1835 02ec DBB2     		uxtb	r3, r3
 1836 02ee 3370     		strb	r3, [r6, #0]
 1837 02f0 9B18     		adds	r3, r3, r2
 1838 02f2 2B70     		strb	r3, [r5, #0]
 1839 02f4 4748     		ldr	r0, .L300+76
 1840 02f6 FFF7FEFF 		bl	uart_transmit
 1841              	.LVL147:
 1842              	.LBE755:
 1843              	.LBB756:
 1844 02fa 217F     		ldrb	r1, [r4, #28]	@ zero_extendqisi2
 1845              	.LVL148:
 1846 02fc 3378     		ldrb	r3, [r6, #0]	@ zero_extendqisi2
 1847 02fe 2A78     		ldrb	r2, [r5, #0]	@ zero_extendqisi2
 1848 0300 CB18     		adds	r3, r1, r3
 1849 0302 DBB2     		uxtb	r3, r3
 1850 0304 3370     		strb	r3, [r6, #0]
 1851 0306 9B18     		adds	r3, r3, r2
 1852 0308 04F11C07 		add	r7, r4, #28
 1853 030c 2B70     		strb	r3, [r5, #0]
 1854 030e 4148     		ldr	r0, .L300+76
 1855 0310 FFF7FEFF 		bl	uart_transmit
 1856              	.LVL149:
 1857              	.LBE756:
 1858              	.LBB757:
 1859 0314 7978     		ldrb	r1, [r7, #1]	@ zero_extendqisi2
 1860              	.LVL150:
 1861 0316 3378     		ldrb	r3, [r6, #0]	@ zero_extendqisi2
 1862 0318 2A78     		ldrb	r2, [r5, #0]	@ zero_extendqisi2
 1863 031a CB18     		adds	r3, r1, r3
 1864 031c DBB2     		uxtb	r3, r3
 1865 031e 3370     		strb	r3, [r6, #0]
 1866 0320 9B18     		adds	r3, r3, r2
 1867 0322 2B70     		strb	r3, [r5, #0]
 1868 0324 3B48     		ldr	r0, .L300+76
 1869 0326 FFF7FEFF 		bl	uart_transmit
 1870              	.LVL151:
 1871              	.LBE757:
 1872              	.LBB758:
 1873 032a B978     		ldrb	r1, [r7, #2]	@ zero_extendqisi2
 1874              	.LVL152:
 1875 032c 3378     		ldrb	r3, [r6, #0]	@ zero_extendqisi2
 1876 032e 2A78     		ldrb	r2, [r5, #0]	@ zero_extendqisi2
 1877 0330 CB18     		adds	r3, r1, r3
 1878 0332 DBB2     		uxtb	r3, r3
 1879 0334 3370     		strb	r3, [r6, #0]
 1880 0336 9B18     		adds	r3, r3, r2
 1881 0338 2B70     		strb	r3, [r5, #0]
 1882 033a 3648     		ldr	r0, .L300+76
 1883 033c FFF7FEFF 		bl	uart_transmit
 1884              	.LVL153:
 1885              	.LBE758:
 1886              	.LBB759:
 1887 0340 F978     		ldrb	r1, [r7, #3]	@ zero_extendqisi2
 1888              	.LVL154:
 1889 0342 3378     		ldrb	r3, [r6, #0]	@ zero_extendqisi2
 1890 0344 2A78     		ldrb	r2, [r5, #0]	@ zero_extendqisi2
 1891 0346 CB18     		adds	r3, r1, r3
 1892 0348 DBB2     		uxtb	r3, r3
 1893 034a 3370     		strb	r3, [r6, #0]
 1894 034c 9B18     		adds	r3, r3, r2
 1895 034e 2B70     		strb	r3, [r5, #0]
 1896 0350 3048     		ldr	r0, .L300+76
 1897 0352 FFF7FEFF 		bl	uart_transmit
 1898              	.LVL155:
 1899              	.LBE759:
 1900              	.LBB760:
 1901 0356 217E     		ldrb	r1, [r4, #24]	@ zero_extendqisi2
 1902              	.LVL156:
 1903 0358 3378     		ldrb	r3, [r6, #0]	@ zero_extendqisi2
 1904 035a 2A78     		ldrb	r2, [r5, #0]	@ zero_extendqisi2
 1905 035c CB18     		adds	r3, r1, r3
 1906 035e DBB2     		uxtb	r3, r3
 1907 0360 3370     		strb	r3, [r6, #0]
 1908 0362 9B18     		adds	r3, r3, r2
 1909 0364 04F11807 		add	r7, r4, #24
 1910 0368 2B70     		strb	r3, [r5, #0]
 1911 036a 2A48     		ldr	r0, .L300+76
 1912 036c FFF7FEFF 		bl	uart_transmit
 1913              	.LVL157:
 1914              	.LBE760:
 1915              	.LBB761:
 1916 0370 7978     		ldrb	r1, [r7, #1]	@ zero_extendqisi2
 1917              	.LVL158:
 1918 0372 3378     		ldrb	r3, [r6, #0]	@ zero_extendqisi2
 1919 0374 2A78     		ldrb	r2, [r5, #0]	@ zero_extendqisi2
 1920 0376 CB18     		adds	r3, r1, r3
 1921 0378 DBB2     		uxtb	r3, r3
 1922 037a 3370     		strb	r3, [r6, #0]
 1923 037c 9B18     		adds	r3, r3, r2
 1924 037e 2B70     		strb	r3, [r5, #0]
 1925 0380 2448     		ldr	r0, .L300+76
 1926 0382 FFF7FEFF 		bl	uart_transmit
 1927              	.LVL159:
 1928              	.LBE761:
 1929              	.LBB762:
 1930 0386 B978     		ldrb	r1, [r7, #2]	@ zero_extendqisi2
 1931              	.LVL160:
 1932 0388 3378     		ldrb	r3, [r6, #0]	@ zero_extendqisi2
 1933 038a 2A78     		ldrb	r2, [r5, #0]	@ zero_extendqisi2
 1934 038c CB18     		adds	r3, r1, r3
 1935 038e DBB2     		uxtb	r3, r3
 1936 0390 3370     		strb	r3, [r6, #0]
 1937 0392 9B18     		adds	r3, r3, r2
 1938 0394 2B70     		strb	r3, [r5, #0]
 1939 0396 1F48     		ldr	r0, .L300+76
 1940 0398 FFF7FEFF 		bl	uart_transmit
 1941              	.LVL161:
 1942              	.LBE762:
 1943              	.LBB763:
 1944 039c F978     		ldrb	r1, [r7, #3]	@ zero_extendqisi2
 1945              	.LVL162:
 1946 039e 3378     		ldrb	r3, [r6, #0]	@ zero_extendqisi2
 1947 03a0 2A78     		ldrb	r2, [r5, #0]	@ zero_extendqisi2
 1948 03a2 CB18     		adds	r3, r1, r3
 1949 03a4 DBB2     		uxtb	r3, r3
 1950 03a6 3370     		strb	r3, [r6, #0]
 1951 03a8 9B18     		adds	r3, r3, r2
 1952 03aa 2B70     		strb	r3, [r5, #0]
 1953 03ac 1948     		ldr	r0, .L300+76
 1954 03ae FFF7FEFF 		bl	uart_transmit
 1955              	.LVL163:
 1956              	.LBE763:
 1957              	.LBB764:
 1958 03b2 9DF80E10 		ldrb	r1, [sp, #14]	@ zero_extendqisi2
 1959              	.LVL164:
 1960 03b6 3378     		ldrb	r3, [r6, #0]	@ zero_extendqisi2
 1961 03b8 2A78     		ldrb	r2, [r5, #0]	@ zero_extendqisi2
 1962 03ba CB18     		adds	r3, r1, r3
 1963 03bc DBB2     		uxtb	r3, r3
 1964 03be 3370     		strb	r3, [r6, #0]
 1965 03c0 9B18     		adds	r3, r3, r2
 1966 03c2 31E0     		b	.L301
 1967              	.L302:
 1968 03c4 AFF30080 		.align	3
 1969              	.L300:
 1970 03c8 F8C1631A 		.word	442745336
 1971 03cc DCA54C40 		.word	1078765020
 1972 03d0 00000000 		.word	0
 1973 03d4 80842E41 		.word	1093567616
 1974 03d8 00000000 		.word	telemetry_mode_Ap_DefaultChannel
 1975 03dc 00000000 		.word	.LANCHOR19
 1976 03e0 00000000 		.word	.LANCHOR20
 1977 03e4 00000000 		.word	.LANCHOR21
 1978 03e8 00000000 		.word	.LANCHOR22
 1979 03ec 00000000 		.word	.LANCHOR23
 1980 03f0 00000000 		.word	.LANCHOR24
 1981 03f4 00000000 		.word	.LANCHOR25
 1982 03f8 00000000 		.word	.LANCHOR26
 1983 03fc 00000000 		.word	.LANCHOR27
 1984 0400 00000000 		.word	.LANCHOR28
 1985 0404 00000000 		.word	.LANCHOR29
 1986 0408 00000000 		.word	.LANCHOR30
 1987 040c 00000000 		.word	.LANCHOR31
 1988 0410 00000000 		.word	gps
 1989 0414 00000000 		.word	uart2
 1990 0418 00000000 		.word	downlink_nb_bytes
 1991 041c 00000000 		.word	downlink_nb_msgs
 1992 0420 00000000 		.word	ck_a
 1993 0424 00000000 		.word	ck_b
 1994              	.L301:
 1995 0428 2B70     		strb	r3, [r5, #0]
 1996 042a 6C48     		ldr	r0, .L303
 1997 042c FFF7FEFF 		bl	uart_transmit
 1998              	.LVL165:
 1999              	.LBE764:
 2000              	.LBB765:
 2001 0430 0DF10E03 		add	r3, sp, #14
 2002 0434 5978     		ldrb	r1, [r3, #1]	@ zero_extendqisi2
 2003              	.LVL166:
 2004 0436 3378     		ldrb	r3, [r6, #0]	@ zero_extendqisi2
 2005 0438 2A78     		ldrb	r2, [r5, #0]	@ zero_extendqisi2
 2006 043a CB18     		adds	r3, r1, r3
 2007 043c DBB2     		uxtb	r3, r3
 2008 043e 3370     		strb	r3, [r6, #0]
 2009 0440 9B18     		adds	r3, r3, r2
 2010 0442 2B70     		strb	r3, [r5, #0]
 2011 0444 6548     		ldr	r0, .L303
 2012 0446 FFF7FEFF 		bl	uart_transmit
 2013              	.LVL167:
 2014              	.LBE765:
 2015              	.LBB766:
 2016 044a 94F82810 		ldrb	r1, [r4, #40]	@ zero_extendqisi2
 2017              	.LVL168:
 2018 044e 3378     		ldrb	r3, [r6, #0]	@ zero_extendqisi2
 2019 0450 2A78     		ldrb	r2, [r5, #0]	@ zero_extendqisi2
 2020 0452 CB18     		adds	r3, r1, r3
 2021 0454 DBB2     		uxtb	r3, r3
 2022 0456 3370     		strb	r3, [r6, #0]
 2023 0458 9B18     		adds	r3, r3, r2
 2024 045a 04F12807 		add	r7, r4, #40
 2025 045e 2B70     		strb	r3, [r5, #0]
 2026 0460 5E48     		ldr	r0, .L303
 2027 0462 FFF7FEFF 		bl	uart_transmit
 2028              	.LVL169:
 2029              	.LBE766:
 2030              	.LBB767:
 2031 0466 7978     		ldrb	r1, [r7, #1]	@ zero_extendqisi2
 2032              	.LVL170:
 2033 0468 3378     		ldrb	r3, [r6, #0]	@ zero_extendqisi2
 2034 046a 2A78     		ldrb	r2, [r5, #0]	@ zero_extendqisi2
 2035 046c CB18     		adds	r3, r1, r3
 2036 046e DBB2     		uxtb	r3, r3
 2037 0470 3370     		strb	r3, [r6, #0]
 2038 0472 9B18     		adds	r3, r3, r2
 2039 0474 2B70     		strb	r3, [r5, #0]
 2040 0476 5948     		ldr	r0, .L303
 2041 0478 FFF7FEFF 		bl	uart_transmit
 2042              	.LVL171:
 2043              	.LBE767:
 2044              	.LBB768:
 2045 047c B978     		ldrb	r1, [r7, #2]	@ zero_extendqisi2
 2046              	.LVL172:
 2047 047e 3378     		ldrb	r3, [r6, #0]	@ zero_extendqisi2
 2048 0480 2A78     		ldrb	r2, [r5, #0]	@ zero_extendqisi2
 2049 0482 CB18     		adds	r3, r1, r3
 2050 0484 DBB2     		uxtb	r3, r3
 2051 0486 3370     		strb	r3, [r6, #0]
 2052 0488 9B18     		adds	r3, r3, r2
 2053 048a 2B70     		strb	r3, [r5, #0]
 2054 048c 5348     		ldr	r0, .L303
 2055 048e FFF7FEFF 		bl	uart_transmit
 2056              	.LVL173:
 2057              	.LBE768:
 2058              	.LBB769:
 2059 0492 F978     		ldrb	r1, [r7, #3]	@ zero_extendqisi2
 2060              	.LVL174:
 2061 0494 3378     		ldrb	r3, [r6, #0]	@ zero_extendqisi2
 2062 0496 2A78     		ldrb	r2, [r5, #0]	@ zero_extendqisi2
 2063 0498 CB18     		adds	r3, r1, r3
 2064 049a DBB2     		uxtb	r3, r3
 2065 049c 3370     		strb	r3, [r6, #0]
 2066 049e 9B18     		adds	r3, r3, r2
 2067 04a0 2B70     		strb	r3, [r5, #0]
 2068 04a2 4E48     		ldr	r0, .L303
 2069 04a4 FFF7FEFF 		bl	uart_transmit
 2070              	.LVL175:
 2071              	.LBE769:
 2072              	.LBB770:
 2073 04a8 94F84410 		ldrb	r1, [r4, #68]	@ zero_extendqisi2
 2074              	.LVL176:
 2075 04ac 3378     		ldrb	r3, [r6, #0]	@ zero_extendqisi2
 2076 04ae 2A78     		ldrb	r2, [r5, #0]	@ zero_extendqisi2
 2077 04b0 CB18     		adds	r3, r1, r3
 2078 04b2 DBB2     		uxtb	r3, r3
 2079 04b4 3370     		strb	r3, [r6, #0]
 2080 04b6 9B18     		adds	r3, r3, r2
 2081 04b8 04F14407 		add	r7, r4, #68
 2082 04bc 2B70     		strb	r3, [r5, #0]
 2083 04be 4748     		ldr	r0, .L303
 2084 04c0 FFF7FEFF 		bl	uart_transmit
 2085              	.LVL177:
 2086              	.LBE770:
 2087              	.LBB771:
 2088 04c4 7978     		ldrb	r1, [r7, #1]	@ zero_extendqisi2
 2089              	.LVL178:
 2090 04c6 3378     		ldrb	r3, [r6, #0]	@ zero_extendqisi2
 2091 04c8 2A78     		ldrb	r2, [r5, #0]	@ zero_extendqisi2
 2092 04ca CB18     		adds	r3, r1, r3
 2093 04cc DBB2     		uxtb	r3, r3
 2094 04ce 3370     		strb	r3, [r6, #0]
 2095 04d0 9B18     		adds	r3, r3, r2
 2096 04d2 2B70     		strb	r3, [r5, #0]
 2097 04d4 4148     		ldr	r0, .L303
 2098 04d6 FFF7FEFF 		bl	uart_transmit
 2099              	.LVL179:
 2100              	.LBE771:
 2101              	.LBB772:
 2102 04da 9DF80C10 		ldrb	r1, [sp, #12]	@ zero_extendqisi2
 2103              	.LVL180:
 2104 04de 3378     		ldrb	r3, [r6, #0]	@ zero_extendqisi2
 2105 04e0 2A78     		ldrb	r2, [r5, #0]	@ zero_extendqisi2
 2106 04e2 CB18     		adds	r3, r1, r3
 2107 04e4 DBB2     		uxtb	r3, r3
 2108 04e6 3370     		strb	r3, [r6, #0]
 2109 04e8 9B18     		adds	r3, r3, r2
 2110 04ea 2B70     		strb	r3, [r5, #0]
 2111 04ec 3B48     		ldr	r0, .L303
 2112 04ee FFF7FEFF 		bl	uart_transmit
 2113              	.LVL181:
 2114              	.LBE772:
 2115              	.LBB773:
 2116 04f2 03AB     		add	r3, sp, #12
 2117 04f4 5978     		ldrb	r1, [r3, #1]	@ zero_extendqisi2
 2118              	.LVL182:
 2119 04f6 3378     		ldrb	r3, [r6, #0]	@ zero_extendqisi2
 2120 04f8 2A78     		ldrb	r2, [r5, #0]	@ zero_extendqisi2
 2121 04fa CB18     		adds	r3, r1, r3
 2122 04fc DBB2     		uxtb	r3, r3
 2123 04fe 3370     		strb	r3, [r6, #0]
 2124 0500 9B18     		adds	r3, r3, r2
 2125 0502 2B70     		strb	r3, [r5, #0]
 2126 0504 3548     		ldr	r0, .L303
 2127 0506 FFF7FEFF 		bl	uart_transmit
 2128              	.LVL183:
 2129              	.LBE773:
 2130              	.LBB774:
 2131 050a 94F85810 		ldrb	r1, [r4, #88]	@ zero_extendqisi2
 2132              	.LVL184:
 2133 050e 3378     		ldrb	r3, [r6, #0]	@ zero_extendqisi2
 2134 0510 2A78     		ldrb	r2, [r5, #0]	@ zero_extendqisi2
 2135 0512 CB18     		adds	r3, r1, r3
 2136 0514 DBB2     		uxtb	r3, r3
 2137 0516 3370     		strb	r3, [r6, #0]
 2138 0518 9B18     		adds	r3, r3, r2
 2139 051a 04F15807 		add	r7, r4, #88
 2140 051e 2B70     		strb	r3, [r5, #0]
 2141 0520 2E48     		ldr	r0, .L303
 2142 0522 FFF7FEFF 		bl	uart_transmit
 2143              	.LVL185:
 2144              	.LBE774:
 2145              	.LBB775:
 2146 0526 7978     		ldrb	r1, [r7, #1]	@ zero_extendqisi2
 2147              	.LVL186:
 2148 0528 3378     		ldrb	r3, [r6, #0]	@ zero_extendqisi2
 2149 052a 2A78     		ldrb	r2, [r5, #0]	@ zero_extendqisi2
 2150 052c CB18     		adds	r3, r1, r3
 2151 052e DBB2     		uxtb	r3, r3
 2152 0530 3370     		strb	r3, [r6, #0]
 2153 0532 9B18     		adds	r3, r3, r2
 2154 0534 2B70     		strb	r3, [r5, #0]
 2155 0536 2948     		ldr	r0, .L303
 2156 0538 FFF7FEFF 		bl	uart_transmit
 2157              	.LVL187:
 2158              	.LBE775:
 2159              	.LBB776:
 2160 053c 94F85C10 		ldrb	r1, [r4, #92]	@ zero_extendqisi2
 2161              	.LVL188:
 2162 0540 3378     		ldrb	r3, [r6, #0]	@ zero_extendqisi2
 2163 0542 2A78     		ldrb	r2, [r5, #0]	@ zero_extendqisi2
 2164 0544 CB18     		adds	r3, r1, r3
 2165 0546 DBB2     		uxtb	r3, r3
 2166 0548 3370     		strb	r3, [r6, #0]
 2167 054a 9B18     		adds	r3, r3, r2
 2168 054c 04F15C07 		add	r7, r4, #92
 2169 0550 2B70     		strb	r3, [r5, #0]
 2170 0552 2248     		ldr	r0, .L303
 2171 0554 FFF7FEFF 		bl	uart_transmit
 2172              	.LVL189:
 2173              	.LBE776:
 2174              	.LBB777:
 2175 0558 7978     		ldrb	r1, [r7, #1]	@ zero_extendqisi2
 2176              	.LVL190:
 2177 055a 3378     		ldrb	r3, [r6, #0]	@ zero_extendqisi2
 2178 055c 2A78     		ldrb	r2, [r5, #0]	@ zero_extendqisi2
 2179 055e CB18     		adds	r3, r1, r3
 2180 0560 DBB2     		uxtb	r3, r3
 2181 0562 3370     		strb	r3, [r6, #0]
 2182 0564 9B18     		adds	r3, r3, r2
 2183 0566 2B70     		strb	r3, [r5, #0]
 2184 0568 1C48     		ldr	r0, .L303
 2185 056a FFF7FEFF 		bl	uart_transmit
 2186              	.LVL191:
 2187              	.LBE777:
 2188              	.LBB778:
 2189 056e B978     		ldrb	r1, [r7, #2]	@ zero_extendqisi2
 2190              	.LVL192:
 2191 0570 3378     		ldrb	r3, [r6, #0]	@ zero_extendqisi2
 2192 0572 2A78     		ldrb	r2, [r5, #0]	@ zero_extendqisi2
 2193 0574 CB18     		adds	r3, r1, r3
 2194 0576 DBB2     		uxtb	r3, r3
 2195 0578 3370     		strb	r3, [r6, #0]
 2196 057a 9B18     		adds	r3, r3, r2
 2197 057c 2B70     		strb	r3, [r5, #0]
 2198 057e 1748     		ldr	r0, .L303
 2199 0580 FFF7FEFF 		bl	uart_transmit
 2200              	.LVL193:
 2201              	.LBE778:
 2202              	.LBB779:
 2203 0584 F978     		ldrb	r1, [r7, #3]	@ zero_extendqisi2
 2204              	.LVL194:
 2205 0586 3378     		ldrb	r3, [r6, #0]	@ zero_extendqisi2
 2206 0588 2A78     		ldrb	r2, [r5, #0]	@ zero_extendqisi2
 2207 058a CB18     		adds	r3, r1, r3
 2208 058c DBB2     		uxtb	r3, r3
 2209 058e 3370     		strb	r3, [r6, #0]
 2210 0590 9B18     		adds	r3, r3, r2
 2211 0592 2B70     		strb	r3, [r5, #0]
 2212 0594 1148     		ldr	r0, .L303
 2213 0596 FFF7FEFF 		bl	uart_transmit
 2214              	.LVL195:
 2215              	.LBE779:
 2216              	.LBB780:
 2217 059a 94F82410 		ldrb	r1, [r4, #36]	@ zero_extendqisi2
 2218              	.LVL196:
 2219 059e 3378     		ldrb	r3, [r6, #0]	@ zero_extendqisi2
 2220 05a0 2A78     		ldrb	r2, [r5, #0]	@ zero_extendqisi2
 2221 05a2 CB18     		adds	r3, r1, r3
 2222 05a4 DBB2     		uxtb	r3, r3
 2223 05a6 3370     		strb	r3, [r6, #0]
 2224 05a8 9B18     		adds	r3, r3, r2
 2225 05aa 2B70     		strb	r3, [r5, #0]
 2226 05ac 0B48     		ldr	r0, .L303
 2227 05ae FFF7FEFF 		bl	uart_transmit
 2228              	.LVL197:
 2229              	.LBE780:
 2230              	.LBB781:
 2231 05b2 0B4B     		ldr	r3, .L303+4
 2232 05b4 2A78     		ldrb	r2, [r5, #0]	@ zero_extendqisi2
 2233 05b6 1978     		ldrb	r1, [r3, #0]	@ zero_extendqisi2
 2234              	.LVL198:
 2235 05b8 3378     		ldrb	r3, [r6, #0]	@ zero_extendqisi2
 2236 05ba 0848     		ldr	r0, .L303
 2237 05bc CB18     		adds	r3, r1, r3
 2238 05be DBB2     		uxtb	r3, r3
 2239 05c0 3370     		strb	r3, [r6, #0]
 2240 05c2 9B18     		adds	r3, r3, r2
 2241 05c4 2B70     		strb	r3, [r5, #0]
 2242 05c6 FFF7FEFF 		bl	uart_transmit
 2243              	.LVL199:
 2244              	.LBE781:
 2245 05ca 3178     		ldrb	r1, [r6, #0]	@ zero_extendqisi2
 2246 05cc 0348     		ldr	r0, .L303
 2247 05ce FFF7FEFF 		bl	uart_transmit
 2248 05d2 0248     		ldr	r0, .L303
 2249 05d4 2978     		ldrb	r1, [r5, #0]	@ zero_extendqisi2
 2250 05d6 FFF7FEFF 		bl	uart_transmit
 2251 05da 07E0     		b	.L86
 2252              	.L304:
 2253              		.align	2
 2254              	.L303:
 2255 05dc 00000000 		.word	uart2
 2256 05e0 00000000 		.word	.LANCHOR32
 2257              	.L85:
 2258 05e4 684B     		ldr	r3, .L305
 2259 05e6 1A78     		ldrb	r2, [r3, #0]	@ zero_extendqisi2
 2260 05e8 0132     		adds	r2, r2, #1
 2261 05ea 1A70     		strb	r2, [r3, #0]
 2262              	.L86:
 2263 05ec 674A     		ldr	r2, .L305+4
 2264 05ee 92F85730 		ldrb	r3, [r2, #87]	@ zero_extendqisi2
 2265 05f2 032B     		cmp	r3, #3
 2266 05f4 07D0     		beq	.L87
 2267 05f6 664B     		ldr	r3, .L305+8
 2268 05f8 92F86020 		ldrb	r2, [r2, #96]	@ zero_extendqisi2
 2269 05fc 1978     		ldrb	r1, [r3, #0]	@ zero_extendqisi2
 2270 05fe 9142     		cmp	r1, r2
 2271 0600 01D3     		bcc	.L87
 2272 0602 0022     		movs	r2, #0
 2273 0604 1A70     		strb	r2, [r3, #0]
 2274              	.L87:
 2275 0606 614B     		ldr	r3, .L305+4
 2276 0608 93F86020 		ldrb	r2, [r3, #96]	@ zero_extendqisi2
 2277 060c 604B     		ldr	r3, .L305+8
 2278 060e 1978     		ldrb	r1, [r3, #0]	@ zero_extendqisi2
 2279 0610 B1EB420F 		cmp	r1, r2, lsl #1
 2280 0614 01DB     		blt	.L88
 2281 0616 0021     		movs	r1, #0
 2282 0618 1970     		strb	r1, [r3, #0]
 2283              	.L88:
 2284 061a 5D4E     		ldr	r6, .L305+8
 2285 061c 3378     		ldrb	r3, [r6, #0]	@ zero_extendqisi2
 2286 061e 9342     		cmp	r3, r2
 2287 0620 80F0C680 		bcs	.L89
 2288 0624 594F     		ldr	r7, .L305+4
 2289 0626 07EBC303 		add	r3, r7, r3, lsl #3
 2290 062a 93F86530 		ldrb	r3, [r3, #101]	@ zero_extendqisi2
 2291 062e 002B     		cmp	r3, #0
 2292 0630 00F0BE80 		beq	.L89
 2293 0634 5748     		ldr	r0, .L305+12
 2294 0636 0E21     		movs	r1, #14
 2295 0638 FFF7FEFF 		bl	uart_check_free_space
 2296 063c 0028     		cmp	r0, #0
 2297 063e 00F0B380 		beq	.L90
 2298 0642 554B     		ldr	r3, .L305+16
 2299              	.LBB782:
 2300 0644 9921     		movs	r1, #153
 2301              	.LBE782:
 2302 0646 1A88     		ldrh	r2, [r3, #0]
 2303              	.LBB783:
 2304 0648 5248     		ldr	r0, .L305+12
 2305              	.LBE783:
 2306 064a 0E32     		adds	r2, r2, #14
 2307 064c 1A80     		strh	r2, [r3, #0]	@ movhi
 2308 064e 534B     		ldr	r3, .L305+20
 2309              	.LBB784:
 2310 0650 534D     		ldr	r5, .L305+24
 2311              	.LBE784:
 2312 0652 1A88     		ldrh	r2, [r3, #0]
 2313              	.LBB785:
 2314 0654 534C     		ldr	r4, .L305+28
 2315              	.LBE785:
 2316 0656 0132     		adds	r2, r2, #1
 2317 0658 1A80     		strh	r2, [r3, #0]	@ movhi
 2318              	.LBB786:
 2319 065a FFF7FEFF 		bl	uart_transmit
 2320 065e 0E21     		movs	r1, #14
 2321 0660 4C48     		ldr	r0, .L305+12
 2322 0662 FFF7FEFF 		bl	uart_transmit
 2323              	.LBE786:
 2324 0666 0F23     		movs	r3, #15
 2325 0668 2B70     		strb	r3, [r5, #0]
 2326 066a 0E33     		adds	r3, r3, #14
 2327 066c 2370     		strb	r3, [r4, #0]
 2328 066e 0121     		movs	r1, #1
 2329 0670 4848     		ldr	r0, .L305+12
 2330 0672 FFF7FEFF 		bl	uart_transmit
 2331 0676 2B78     		ldrb	r3, [r5, #0]	@ zero_extendqisi2
 2332 0678 2278     		ldrb	r2, [r4, #0]	@ zero_extendqisi2
 2333 067a 1933     		adds	r3, r3, #25
 2334 067c DBB2     		uxtb	r3, r3
 2335 067e 2B70     		strb	r3, [r5, #0]
 2336 0680 9B18     		adds	r3, r3, r2
 2337 0682 2370     		strb	r3, [r4, #0]
 2338 0684 1921     		movs	r1, #25
 2339 0686 4348     		ldr	r0, .L305+12
 2340 0688 FFF7FEFF 		bl	uart_transmit
 2341              	.LBB787:
 2342 068c 3178     		ldrb	r1, [r6, #0]	@ zero_extendqisi2
 2343              	.LVL200:
 2344 068e 2B78     		ldrb	r3, [r5, #0]	@ zero_extendqisi2
 2345 0690 2278     		ldrb	r2, [r4, #0]	@ zero_extendqisi2
 2346 0692 CB18     		adds	r3, r1, r3
 2347 0694 DBB2     		uxtb	r3, r3
 2348 0696 2B70     		strb	r3, [r5, #0]
 2349 0698 9B18     		adds	r3, r3, r2
 2350 069a 2370     		strb	r3, [r4, #0]
 2351 069c 3D48     		ldr	r0, .L305+12
 2352 069e FFF7FEFF 		bl	uart_transmit
 2353              	.LVL201:
 2354              	.LBE787:
 2355              	.LBB788:
 2356 06a2 3378     		ldrb	r3, [r6, #0]	@ zero_extendqisi2
 2357 06a4 2278     		ldrb	r2, [r4, #0]	@ zero_extendqisi2
 2358 06a6 07EBC303 		add	r3, r7, r3, lsl #3
 2359 06aa 93F86210 		ldrb	r1, [r3, #98]	@ zero_extendqisi2
 2360              	.LVL202:
 2361 06ae 2B78     		ldrb	r3, [r5, #0]	@ zero_extendqisi2
 2362 06b0 3848     		ldr	r0, .L305+12
 2363 06b2 CB18     		adds	r3, r1, r3
 2364 06b4 DBB2     		uxtb	r3, r3
 2365 06b6 2B70     		strb	r3, [r5, #0]
 2366 06b8 9B18     		adds	r3, r3, r2
 2367 06ba 2370     		strb	r3, [r4, #0]
 2368 06bc FFF7FEFF 		bl	uart_transmit
 2369              	.LVL203:
 2370              	.LBE788:
 2371              	.LBB789:
 2372 06c0 3378     		ldrb	r3, [r6, #0]	@ zero_extendqisi2
 2373 06c2 2278     		ldrb	r2, [r4, #0]	@ zero_extendqisi2
 2374 06c4 07EBC303 		add	r3, r7, r3, lsl #3
 2375 06c8 93F86310 		ldrb	r1, [r3, #99]	@ zero_extendqisi2
 2376              	.LVL204:
 2377 06cc 2B78     		ldrb	r3, [r5, #0]	@ zero_extendqisi2
 2378 06ce 3148     		ldr	r0, .L305+12
 2379 06d0 CB18     		adds	r3, r1, r3
 2380 06d2 DBB2     		uxtb	r3, r3
 2381 06d4 2B70     		strb	r3, [r5, #0]
 2382 06d6 9B18     		adds	r3, r3, r2
 2383 06d8 2370     		strb	r3, [r4, #0]
 2384 06da FFF7FEFF 		bl	uart_transmit
 2385              	.LVL205:
 2386              	.LBE789:
 2387              	.LBB790:
 2388 06de 3378     		ldrb	r3, [r6, #0]	@ zero_extendqisi2
 2389 06e0 2278     		ldrb	r2, [r4, #0]	@ zero_extendqisi2
 2390 06e2 07EBC303 		add	r3, r7, r3, lsl #3
 2391 06e6 93F86410 		ldrb	r1, [r3, #100]	@ zero_extendqisi2
 2392              	.LVL206:
 2393 06ea 2B78     		ldrb	r3, [r5, #0]	@ zero_extendqisi2
 2394 06ec 2948     		ldr	r0, .L305+12
 2395 06ee CB18     		adds	r3, r1, r3
 2396 06f0 DBB2     		uxtb	r3, r3
 2397 06f2 2B70     		strb	r3, [r5, #0]
 2398 06f4 9B18     		adds	r3, r3, r2
 2399 06f6 2370     		strb	r3, [r4, #0]
 2400 06f8 FFF7FEFF 		bl	uart_transmit
 2401              	.LVL207:
 2402              	.LBE790:
 2403              	.LBB791:
 2404 06fc 3378     		ldrb	r3, [r6, #0]	@ zero_extendqisi2
 2405 06fe 2278     		ldrb	r2, [r4, #0]	@ zero_extendqisi2
 2406 0700 07EBC303 		add	r3, r7, r3, lsl #3
 2407 0704 93F86510 		ldrb	r1, [r3, #101]	@ zero_extendqisi2
 2408              	.LVL208:
 2409 0708 2B78     		ldrb	r3, [r5, #0]	@ zero_extendqisi2
 2410 070a 2248     		ldr	r0, .L305+12
 2411 070c CB18     		adds	r3, r1, r3
 2412 070e DBB2     		uxtb	r3, r3
 2413 0710 2B70     		strb	r3, [r5, #0]
 2414 0712 9B18     		adds	r3, r3, r2
 2415 0714 2370     		strb	r3, [r4, #0]
 2416 0716 FFF7FEFF 		bl	uart_transmit
 2417              	.LVL209:
 2418              	.LBE791:
 2419              	.LBB792:
 2420 071a 3378     		ldrb	r3, [r6, #0]	@ zero_extendqisi2
 2421 071c 2278     		ldrb	r2, [r4, #0]	@ zero_extendqisi2
 2422 071e 07EBC303 		add	r3, r7, r3, lsl #3
 2423 0722 93F86610 		ldrb	r1, [r3, #102]	@ zero_extendqisi2
 2424              	.LVL210:
 2425 0726 2B78     		ldrb	r3, [r5, #0]	@ zero_extendqisi2
 2426 0728 1A48     		ldr	r0, .L305+12
 2427 072a CB18     		adds	r3, r1, r3
 2428 072c DBB2     		uxtb	r3, r3
 2429 072e 2B70     		strb	r3, [r5, #0]
 2430 0730 9B18     		adds	r3, r3, r2
 2431 0732 2370     		strb	r3, [r4, #0]
 2432 0734 FFF7FEFF 		bl	uart_transmit
 2433              	.LVL211:
 2434              	.LBE792:
 2435              	.LBB793:
 2436 0738 3378     		ldrb	r3, [r6, #0]	@ zero_extendqisi2
 2437 073a 2278     		ldrb	r2, [r4, #0]	@ zero_extendqisi2
 2438 073c 07EBC303 		add	r3, r7, r3, lsl #3
 2439 0740 93F86810 		ldrb	r1, [r3, #104]	@ zero_extendqisi2
 2440              	.LVL212:
 2441 0744 2B78     		ldrb	r3, [r5, #0]	@ zero_extendqisi2
 2442 0746 1348     		ldr	r0, .L305+12
 2443 0748 CB18     		adds	r3, r1, r3
 2444 074a DBB2     		uxtb	r3, r3
 2445 074c 2B70     		strb	r3, [r5, #0]
 2446 074e 9B18     		adds	r3, r3, r2
 2447 0750 2370     		strb	r3, [r4, #0]
 2448 0752 FFF7FEFF 		bl	uart_transmit
 2449              	.LVL213:
 2450              	.LBE793:
 2451              	.LBB794:
 2452 0756 3378     		ldrb	r3, [r6, #0]	@ zero_extendqisi2
 2453 0758 2278     		ldrb	r2, [r4, #0]	@ zero_extendqisi2
 2454 075a 07EBC307 		add	r7, r7, r3, lsl #3
 2455 075e 97F86910 		ldrb	r1, [r7, #105]	@ zero_extendqisi2
 2456              	.LVL214:
 2457 0762 2B78     		ldrb	r3, [r5, #0]	@ zero_extendqisi2
 2458 0764 0B48     		ldr	r0, .L305+12
 2459 0766 CB18     		adds	r3, r1, r3
 2460 0768 DBB2     		uxtb	r3, r3
 2461 076a 2B70     		strb	r3, [r5, #0]
 2462 076c 9B18     		adds	r3, r3, r2
 2463 076e 2370     		strb	r3, [r4, #0]
 2464 0770 FFF7FEFF 		bl	uart_transmit
 2465              	.LVL215:
 2466              	.LBE794:
 2467 0774 2978     		ldrb	r1, [r5, #0]	@ zero_extendqisi2
 2468 0776 0748     		ldr	r0, .L305+12
 2469 0778 FFF7FEFF 		bl	uart_transmit
 2470 077c 0548     		ldr	r0, .L305+12
 2471 077e 2178     		ldrb	r1, [r4, #0]	@ zero_extendqisi2
 2472 0780 FFF7FEFF 		bl	uart_transmit
 2473 0784 14E0     		b	.L89
 2474              	.L306:
 2475 0786 00BF     		.align	2
 2476              	.L305:
 2477 0788 00000000 		.word	downlink_nb_ovrn
 2478 078c 00000000 		.word	gps
 2479 0790 00000000 		.word	.LANCHOR32
 2480 0794 00000000 		.word	uart2
 2481 0798 00000000 		.word	downlink_nb_bytes
 2482 079c 00000000 		.word	downlink_nb_msgs
 2483 07a0 00000000 		.word	ck_a
 2484 07a4 00000000 		.word	ck_b
 2485              	.L90:
 2486 07a8 934B     		ldr	r3, .L307
 2487 07aa 1A78     		ldrb	r2, [r3, #0]	@ zero_extendqisi2
 2488 07ac 0132     		adds	r2, r2, #1
 2489 07ae 1A70     		strb	r2, [r3, #0]
 2490              	.L89:
 2491 07b0 924B     		ldr	r3, .L307+4
 2492 07b2 1A78     		ldrb	r2, [r3, #0]	@ zero_extendqisi2
 2493 07b4 0132     		adds	r2, r2, #1
 2494 07b6 1A70     		strb	r2, [r3, #0]
 2495              	.L84:
 2496              	.LBE749:
 2497 07b8 914B     		ldr	r3, .L307+8
 2498 07ba 1E78     		ldrb	r6, [r3, #0]	@ zero_extendqisi2
 2499 07bc 062E     		cmp	r6, #6
 2500 07be 40F08880 		bne	.L91
 2501 07c2 9048     		ldr	r0, .L307+12
 2502 07c4 1221     		movs	r1, #18
 2503 07c6 FFF7FEFF 		bl	uart_check_free_space
 2504 07ca 0028     		cmp	r0, #0
 2505 07cc 00F04082 		beq	.L97
 2506 07d0 8D4B     		ldr	r3, .L307+16
 2507              	.LBB795:
 2508 07d2 9921     		movs	r1, #153
 2509              	.LBE795:
 2510 07d4 1A88     		ldrh	r2, [r3, #0]
 2511              	.LBB796:
 2512 07d6 8B48     		ldr	r0, .L307+12
 2513              	.LBE796:
 2514 07d8 1232     		adds	r2, r2, #18
 2515 07da 1A80     		strh	r2, [r3, #0]	@ movhi
 2516 07dc 8B4B     		ldr	r3, .L307+20
 2517              	.LBB797:
 2518 07de 8C4D     		ldr	r5, .L307+24
 2519              	.LBE797:
 2520 07e0 1A88     		ldrh	r2, [r3, #0]
 2521              	.LBB798:
 2522 07e2 8C4C     		ldr	r4, .L307+28
 2523              	.LBE798:
 2524 07e4 0132     		adds	r2, r2, #1
 2525 07e6 1A80     		strh	r2, [r3, #0]	@ movhi
 2526              	.LBB799:
 2527 07e8 FFF7FEFF 		bl	uart_transmit
 2528 07ec 1221     		movs	r1, #18
 2529 07ee 8548     		ldr	r0, .L307+12
 2530 07f0 FFF7FEFF 		bl	uart_transmit
 2531              	.LBE799:
 2532 07f4 1323     		movs	r3, #19
 2533 07f6 2B70     		strb	r3, [r5, #0]
 2534 07f8 1233     		adds	r3, r3, #18
 2535 07fa 0121     		movs	r1, #1
 2536 07fc 2370     		strb	r3, [r4, #0]
 2537 07fe 8148     		ldr	r0, .L307+12
 2538 0800 FFF7FEFF 		bl	uart_transmit
 2539 0804 2B78     		ldrb	r3, [r5, #0]	@ zero_extendqisi2
 2540 0806 2278     		ldrb	r2, [r4, #0]	@ zero_extendqisi2
 2541 0808 0633     		adds	r3, r3, #6
 2542 080a DBB2     		uxtb	r3, r3
 2543 080c 3146     		mov	r1, r6
 2544 080e 2B70     		strb	r3, [r5, #0]
 2545              	.LBB800:
 2546 0810 814E     		ldr	r6, .L307+32
 2547              	.LBE800:
 2548 0812 9B18     		adds	r3, r3, r2
 2549 0814 2370     		strb	r3, [r4, #0]
 2550 0816 7B48     		ldr	r0, .L307+12
 2551 0818 FFF7FEFF 		bl	uart_transmit
 2552              	.LBB801:
 2553 081c 3178     		ldrb	r1, [r6, #0]	@ zero_extendqisi2
 2554              	.LVL216:
 2555 081e 2B78     		ldrb	r3, [r5, #0]	@ zero_extendqisi2
 2556 0820 2278     		ldrb	r2, [r4, #0]	@ zero_extendqisi2
 2557 0822 CB18     		adds	r3, r1, r3
 2558 0824 DBB2     		uxtb	r3, r3
 2559 0826 2B70     		strb	r3, [r5, #0]
 2560 0828 9B18     		adds	r3, r3, r2
 2561 082a 2370     		strb	r3, [r4, #0]
 2562 082c 7548     		ldr	r0, .L307+12
 2563 082e FFF7FEFF 		bl	uart_transmit
 2564              	.LVL217:
 2565              	.LBE801:
 2566              	.LBB802:
 2567 0832 7178     		ldrb	r1, [r6, #1]	@ zero_extendqisi2
 2568              	.LVL218:
 2569 0834 2B78     		ldrb	r3, [r5, #0]	@ zero_extendqisi2
 2570 0836 2278     		ldrb	r2, [r4, #0]	@ zero_extendqisi2
 2571 0838 CB18     		adds	r3, r1, r3
 2572 083a DBB2     		uxtb	r3, r3
 2573 083c 2B70     		strb	r3, [r5, #0]
 2574 083e 9B18     		adds	r3, r3, r2
 2575 0840 2370     		strb	r3, [r4, #0]
 2576 0842 7048     		ldr	r0, .L307+12
 2577 0844 FFF7FEFF 		bl	uart_transmit
 2578              	.LVL219:
 2579              	.LBE802:
 2580              	.LBB803:
 2581 0848 B178     		ldrb	r1, [r6, #2]	@ zero_extendqisi2
 2582              	.LVL220:
 2583 084a 2B78     		ldrb	r3, [r5, #0]	@ zero_extendqisi2
 2584 084c 2278     		ldrb	r2, [r4, #0]	@ zero_extendqisi2
 2585 084e CB18     		adds	r3, r1, r3
 2586 0850 DBB2     		uxtb	r3, r3
 2587 0852 2B70     		strb	r3, [r5, #0]
 2588 0854 9B18     		adds	r3, r3, r2
 2589 0856 2370     		strb	r3, [r4, #0]
 2590 0858 6A48     		ldr	r0, .L307+12
 2591 085a FFF7FEFF 		bl	uart_transmit
 2592              	.LVL221:
 2593              	.LBE803:
 2594              	.LBB804:
 2595 085e F178     		ldrb	r1, [r6, #3]	@ zero_extendqisi2
 2596              	.LVL222:
 2597 0860 2B78     		ldrb	r3, [r5, #0]	@ zero_extendqisi2
 2598 0862 2278     		ldrb	r2, [r4, #0]	@ zero_extendqisi2
 2599 0864 CB18     		adds	r3, r1, r3
 2600 0866 DBB2     		uxtb	r3, r3
 2601              	.LBE804:
 2602              	.LBB805:
 2603 0868 6C4E     		ldr	r6, .L307+36
 2604              	.LBE805:
 2605              	.LBB806:
 2606 086a 2B70     		strb	r3, [r5, #0]
 2607 086c 9B18     		adds	r3, r3, r2
 2608 086e 2370     		strb	r3, [r4, #0]
 2609 0870 6448     		ldr	r0, .L307+12
 2610 0872 FFF7FEFF 		bl	uart_transmit
 2611              	.LVL223:
 2612              	.LBE806:
 2613              	.LBB807:
 2614 0876 3178     		ldrb	r1, [r6, #0]	@ zero_extendqisi2
 2615              	.LVL224:
 2616 0878 2B78     		ldrb	r3, [r5, #0]	@ zero_extendqisi2
 2617 087a 2278     		ldrb	r2, [r4, #0]	@ zero_extendqisi2
 2618 087c CB18     		adds	r3, r1, r3
 2619 087e DBB2     		uxtb	r3, r3
 2620 0880 2B70     		strb	r3, [r5, #0]
 2621 0882 9B18     		adds	r3, r3, r2
 2622 0884 2370     		strb	r3, [r4, #0]
 2623 0886 5F48     		ldr	r0, .L307+12
 2624 0888 FFF7FEFF 		bl	uart_transmit
 2625              	.LVL225:
 2626              	.LBE807:
 2627              	.LBB808:
 2628 088c 7178     		ldrb	r1, [r6, #1]	@ zero_extendqisi2
 2629              	.LVL226:
 2630 088e 2B78     		ldrb	r3, [r5, #0]	@ zero_extendqisi2
 2631 0890 2278     		ldrb	r2, [r4, #0]	@ zero_extendqisi2
 2632 0892 CB18     		adds	r3, r1, r3
 2633 0894 DBB2     		uxtb	r3, r3
 2634 0896 2B70     		strb	r3, [r5, #0]
 2635 0898 9B18     		adds	r3, r3, r2
 2636 089a 2370     		strb	r3, [r4, #0]
 2637 089c 5948     		ldr	r0, .L307+12
 2638 089e FFF7FEFF 		bl	uart_transmit
 2639              	.LVL227:
 2640              	.LBE808:
 2641              	.LBB809:
 2642 08a2 B178     		ldrb	r1, [r6, #2]	@ zero_extendqisi2
 2643              	.LVL228:
 2644 08a4 2B78     		ldrb	r3, [r5, #0]	@ zero_extendqisi2
 2645 08a6 2278     		ldrb	r2, [r4, #0]	@ zero_extendqisi2
 2646 08a8 CB18     		adds	r3, r1, r3
 2647 08aa DBB2     		uxtb	r3, r3
 2648 08ac 2B70     		strb	r3, [r5, #0]
 2649 08ae 9B18     		adds	r3, r3, r2
 2650 08b0 2370     		strb	r3, [r4, #0]
 2651 08b2 5448     		ldr	r0, .L307+12
 2652 08b4 FFF7FEFF 		bl	uart_transmit
 2653              	.LVL229:
 2654              	.LBE809:
 2655              	.LBB810:
 2656 08b8 F178     		ldrb	r1, [r6, #3]	@ zero_extendqisi2
 2657              	.LVL230:
 2658 08ba 2B78     		ldrb	r3, [r5, #0]	@ zero_extendqisi2
 2659 08bc 2278     		ldrb	r2, [r4, #0]	@ zero_extendqisi2
 2660 08be CB18     		adds	r3, r1, r3
 2661 08c0 DBB2     		uxtb	r3, r3
 2662 08c2 2B70     		strb	r3, [r5, #0]
 2663 08c4 9B18     		adds	r3, r3, r2
 2664 08c6 2370     		strb	r3, [r4, #0]
 2665 08c8 4E48     		ldr	r0, .L307+12
 2666 08ca FFF7FEFF 		bl	uart_transmit
 2667              	.LVL231:
 2668              	.LBE810:
 2669              	.LBB811:
 2670 08ce 544E     		ldr	r6, .L307+40
 2671 08d0 5CE0     		b	.L278
 2672              	.L91:
 2673              	.LBE811:
 2674 08d2 0C2E     		cmp	r6, #12
 2675 08d4 40F0AA80 		bne	.L94
 2676 08d8 4A48     		ldr	r0, .L307+12
 2677 08da 0E21     		movs	r1, #14
 2678 08dc FFF7FEFF 		bl	uart_check_free_space
 2679 08e0 0028     		cmp	r0, #0
 2680 08e2 00F0B581 		beq	.L97
 2681 08e6 484B     		ldr	r3, .L307+16
 2682              	.LBB812:
 2683 08e8 4648     		ldr	r0, .L307+12
 2684              	.LBE812:
 2685 08ea 1A88     		ldrh	r2, [r3, #0]
 2686              	.LBB813:
 2687 08ec 9921     		movs	r1, #153
 2688              	.LBE813:
 2689 08ee 0E32     		adds	r2, r2, #14
 2690 08f0 1A80     		strh	r2, [r3, #0]	@ movhi
 2691 08f2 464B     		ldr	r3, .L307+20
 2692              	.LBB814:
 2693 08f4 464D     		ldr	r5, .L307+24
 2694              	.LBE814:
 2695 08f6 1A88     		ldrh	r2, [r3, #0]
 2696              	.LBB815:
 2697 08f8 464C     		ldr	r4, .L307+28
 2698              	.LBE815:
 2699 08fa 0132     		adds	r2, r2, #1
 2700 08fc 1A80     		strh	r2, [r3, #0]	@ movhi
 2701              	.LBB816:
 2702 08fe FFF7FEFF 		bl	uart_transmit
 2703 0902 4048     		ldr	r0, .L307+12
 2704 0904 0E21     		movs	r1, #14
 2705 0906 FFF7FEFF 		bl	uart_transmit
 2706              	.LBE816:
 2707 090a 0F23     		movs	r3, #15
 2708 090c 2B70     		strb	r3, [r5, #0]
 2709 090e 0E33     		adds	r3, r3, #14
 2710 0910 2370     		strb	r3, [r4, #0]
 2711 0912 3C48     		ldr	r0, .L307+12
 2712 0914 0121     		movs	r1, #1
 2713 0916 FFF7FEFF 		bl	uart_transmit
 2714 091a 2B78     		ldrb	r3, [r5, #0]	@ zero_extendqisi2
 2715 091c 2278     		ldrb	r2, [r4, #0]	@ zero_extendqisi2
 2716 091e 2A33     		adds	r3, r3, #42
 2717 0920 DBB2     		uxtb	r3, r3
 2718              	.LBB817:
 2719 0922 404E     		ldr	r6, .L307+44
 2720              	.LBE817:
 2721 0924 2B70     		strb	r3, [r5, #0]
 2722 0926 9B18     		adds	r3, r3, r2
 2723 0928 2370     		strb	r3, [r4, #0]
 2724 092a 3648     		ldr	r0, .L307+12
 2725 092c 2A21     		movs	r1, #42
 2726 092e FFF7FEFF 		bl	uart_transmit
 2727              	.LBB818:
 2728 0932 3178     		ldrb	r1, [r6, #0]	@ zero_extendqisi2
 2729              	.LVL232:
 2730 0934 2B78     		ldrb	r3, [r5, #0]	@ zero_extendqisi2
 2731 0936 2278     		ldrb	r2, [r4, #0]	@ zero_extendqisi2
 2732 0938 CB18     		adds	r3, r1, r3
 2733 093a DBB2     		uxtb	r3, r3
 2734 093c 2B70     		strb	r3, [r5, #0]
 2735 093e 9B18     		adds	r3, r3, r2
 2736 0940 2370     		strb	r3, [r4, #0]
 2737 0942 3048     		ldr	r0, .L307+12
 2738 0944 FFF7FEFF 		bl	uart_transmit
 2739              	.LVL233:
 2740              	.LBE818:
 2741              	.LBB819:
 2742 0948 7178     		ldrb	r1, [r6, #1]	@ zero_extendqisi2
 2743              	.LVL234:
 2744 094a 2B78     		ldrb	r3, [r5, #0]	@ zero_extendqisi2
 2745 094c 2278     		ldrb	r2, [r4, #0]	@ zero_extendqisi2
 2746 094e CB18     		adds	r3, r1, r3
 2747 0950 DBB2     		uxtb	r3, r3
 2748 0952 2B70     		strb	r3, [r5, #0]
 2749 0954 9B18     		adds	r3, r3, r2
 2750 0956 2370     		strb	r3, [r4, #0]
 2751 0958 2A48     		ldr	r0, .L307+12
 2752 095a FFF7FEFF 		bl	uart_transmit
 2753              	.LVL235:
 2754              	.LBE819:
 2755              	.LBB820:
 2756 095e B178     		ldrb	r1, [r6, #2]	@ zero_extendqisi2
 2757              	.LVL236:
 2758 0960 2B78     		ldrb	r3, [r5, #0]	@ zero_extendqisi2
 2759 0962 2278     		ldrb	r2, [r4, #0]	@ zero_extendqisi2
 2760 0964 CB18     		adds	r3, r1, r3
 2761 0966 DBB2     		uxtb	r3, r3
 2762 0968 2B70     		strb	r3, [r5, #0]
 2763 096a 9B18     		adds	r3, r3, r2
 2764 096c 2370     		strb	r3, [r4, #0]
 2765 096e 2548     		ldr	r0, .L307+12
 2766 0970 FFF7FEFF 		bl	uart_transmit
 2767              	.LVL237:
 2768              	.LBE820:
 2769              	.LBB821:
 2770 0974 F178     		ldrb	r1, [r6, #3]	@ zero_extendqisi2
 2771              	.LVL238:
 2772 0976 2B78     		ldrb	r3, [r5, #0]	@ zero_extendqisi2
 2773 0978 2278     		ldrb	r2, [r4, #0]	@ zero_extendqisi2
 2774 097a CB18     		adds	r3, r1, r3
 2775 097c DBB2     		uxtb	r3, r3
 2776 097e 2B70     		strb	r3, [r5, #0]
 2777 0980 9B18     		adds	r3, r3, r2
 2778 0982 2370     		strb	r3, [r4, #0]
 2779 0984 1F48     		ldr	r0, .L307+12
 2780 0986 FFF7FEFF 		bl	uart_transmit
 2781              	.LVL239:
 2782              	.LBE821:
 2783              	.LBB822:
 2784 098a 274E     		ldr	r6, .L307+48
 2785              	.L278:
 2786 098c 3178     		ldrb	r1, [r6, #0]	@ zero_extendqisi2
 2787              	.LVL240:
 2788 098e 2B78     		ldrb	r3, [r5, #0]	@ zero_extendqisi2
 2789 0990 2278     		ldrb	r2, [r4, #0]	@ zero_extendqisi2
 2790 0992 CB18     		adds	r3, r1, r3
 2791 0994 DBB2     		uxtb	r3, r3
 2792 0996 2B70     		strb	r3, [r5, #0]
 2793 0998 9B18     		adds	r3, r3, r2
 2794 099a 2370     		strb	r3, [r4, #0]
 2795 099c 1948     		ldr	r0, .L307+12
 2796 099e FFF7FEFF 		bl	uart_transmit
 2797              	.LVL241:
 2798              	.LBE822:
 2799              	.LBB823:
 2800 09a2 7178     		ldrb	r1, [r6, #1]	@ zero_extendqisi2
 2801              	.LVL242:
 2802 09a4 2B78     		ldrb	r3, [r5, #0]	@ zero_extendqisi2
 2803 09a6 2278     		ldrb	r2, [r4, #0]	@ zero_extendqisi2
 2804 09a8 CB18     		adds	r3, r1, r3
 2805 09aa DBB2     		uxtb	r3, r3
 2806 09ac 2B70     		strb	r3, [r5, #0]
 2807 09ae 9B18     		adds	r3, r3, r2
 2808 09b0 2370     		strb	r3, [r4, #0]
 2809 09b2 1448     		ldr	r0, .L307+12
 2810 09b4 FFF7FEFF 		bl	uart_transmit
 2811              	.LVL243:
 2812              	.LBE823:
 2813              	.LBB824:
 2814 09b8 B178     		ldrb	r1, [r6, #2]	@ zero_extendqisi2
 2815              	.LVL244:
 2816 09ba 2B78     		ldrb	r3, [r5, #0]	@ zero_extendqisi2
 2817 09bc 2278     		ldrb	r2, [r4, #0]	@ zero_extendqisi2
 2818 09be CB18     		adds	r3, r1, r3
 2819 09c0 DBB2     		uxtb	r3, r3
 2820 09c2 2B70     		strb	r3, [r5, #0]
 2821 09c4 9B18     		adds	r3, r3, r2
 2822 09c6 2370     		strb	r3, [r4, #0]
 2823 09c8 0E48     		ldr	r0, .L307+12
 2824 09ca FFF7FEFF 		bl	uart_transmit
 2825              	.LVL245:
 2826              	.LBE824:
 2827              	.LBB825:
 2828 09ce F178     		ldrb	r1, [r6, #3]	@ zero_extendqisi2
 2829              	.LVL246:
 2830              	.L279:
 2831 09d0 2B78     		ldrb	r3, [r5, #0]	@ zero_extendqisi2
 2832 09d2 2278     		ldrb	r2, [r4, #0]	@ zero_extendqisi2
 2833 09d4 CB18     		adds	r3, r1, r3
 2834 09d6 DBB2     		uxtb	r3, r3
 2835 09d8 2B70     		strb	r3, [r5, #0]
 2836 09da 9B18     		adds	r3, r3, r2
 2837 09dc 2370     		strb	r3, [r4, #0]
 2838 09de 0948     		ldr	r0, .L307+12
 2839 09e0 FFF7FEFF 		bl	uart_transmit
 2840              	.LVL247:
 2841              	.LBE825:
 2842 09e4 2978     		ldrb	r1, [r5, #0]	@ zero_extendqisi2
 2843 09e6 0748     		ldr	r0, .L307+12
 2844 09e8 FFF7FEFF 		bl	uart_transmit
 2845 09ec 0548     		ldr	r0, .L307+12
 2846 09ee 2178     		ldrb	r1, [r4, #0]	@ zero_extendqisi2
 2847 09f0 FFF7FEFF 		bl	uart_transmit
 2848 09f4 30E1     		b	.L93
 2849              	.L308:
 2850 09f6 00BF     		.align	2
 2851              	.L307:
 2852 09f8 00000000 		.word	downlink_nb_ovrn
 2853 09fc 00000000 		.word	.LANCHOR32
 2854 0a00 00000000 		.word	.LANCHOR20
 2855 0a04 00000000 		.word	uart2
 2856 0a08 00000000 		.word	downlink_nb_bytes
 2857 0a0c 00000000 		.word	downlink_nb_msgs
 2858 0a10 00000000 		.word	ck_a
 2859 0a14 00000000 		.word	ck_b
 2860 0a18 00000000 		.word	estimator_phi
 2861 0a1c 00000000 		.word	estimator_psi
 2862 0a20 00000000 		.word	estimator_theta
 2863 0a24 00000000 		.word	estimator_z
 2864 0a28 00000000 		.word	estimator_z_dot
 2865              	.LVL248:
 2866              	.L94:
 2867 0a2c 122E     		cmp	r6, #18
 2868 0a2e 40F01381 		bne	.L93
 2869              	.LBB826:
 2870 0a32 7C4B     		ldr	r3, .L309
 2871 0a34 7C49     		ldr	r1, .L309+4
 2872 0a36 1A78     		ldrb	r2, [r3, #0]	@ zero_extendqisi2
 2873 0a38 0978     		ldrb	r1, [r1, #0]	@ zero_extendqisi2
 2874 0a3a 0132     		adds	r2, r2, #1
 2875 0a3c D2B2     		uxtb	r2, r2
 2876 0a3e 9142     		cmp	r1, r2
 2877 0a40 1A70     		strb	r2, [r3, #0]
 2878 0a42 01D8     		bhi	.L96
 2879 0a44 0022     		movs	r2, #0
 2880 0a46 1A70     		strb	r2, [r3, #0]
 2881              	.L96:
 2882              	.LBB827:
 2883 0a48 784B     		ldr	r3, .L309+8
 2884 0a4a 764F     		ldr	r7, .L309
 2885 0a4c 1868     		ldr	r0, [r3, #0]
 2886 0a4e FFF7FEFF 		bl	__aeabi_i2f
 2887 0a52 3B78     		ldrb	r3, [r7, #0]	@ zero_extendqisi2
 2888 0a54 4FF00C08 		mov	r8, #12
 2889 0a58 08FB03F3 		mul	r3, r8, r3
 2890 0a5c 744E     		ldr	r6, .L309+12
 2891 0a5e 9959     		ldr	r1, [r3, r6]	@ float
 2892 0a60 9C19     		adds	r4, r3, r6
 2893 0a62 FFF7FEFF 		bl	__aeabi_fadd
 2894 0a66 734B     		ldr	r3, .L309+16
 2895 0a68 0090     		str	r0, [sp, #0]	@ float
 2896              	.LVL249:
 2897 0a6a 1868     		ldr	r0, [r3, #0]
 2898 0a6c FFF7FEFF 		bl	__aeabi_i2f
 2899 0a70 6168     		ldr	r1, [r4, #4]	@ float
 2900 0a72 FFF7FEFF 		bl	__aeabi_fadd
 2901 0a76 1421     		movs	r1, #20
 2902 0a78 0290     		str	r0, [sp, #8]	@ float
 2903              	.LVL250:
 2904 0a7a 6F48     		ldr	r0, .L309+20
 2905 0a7c FFF7FEFF 		bl	uart_check_free_space
 2906 0a80 0028     		cmp	r0, #0
 2907 0a82 00F0E580 		beq	.L97
 2908 0a86 6D4B     		ldr	r3, .L309+24
 2909              	.LBB828:
 2910 0a88 9921     		movs	r1, #153
 2911              	.LBE828:
 2912 0a8a 1A88     		ldrh	r2, [r3, #0]
 2913              	.LBB829:
 2914 0a8c 6A48     		ldr	r0, .L309+20
 2915              	.LBE829:
 2916 0a8e 1432     		adds	r2, r2, #20
 2917 0a90 1A80     		strh	r2, [r3, #0]	@ movhi
 2918 0a92 6B4B     		ldr	r3, .L309+28
 2919              	.LBB830:
 2920 0a94 6B4D     		ldr	r5, .L309+32
 2921              	.LBE830:
 2922 0a96 1A88     		ldrh	r2, [r3, #0]
 2923              	.LBB831:
 2924 0a98 6B4C     		ldr	r4, .L309+36
 2925              	.LBE831:
 2926 0a9a 0132     		adds	r2, r2, #1
 2927 0a9c 1A80     		strh	r2, [r3, #0]	@ movhi
 2928              	.LBB832:
 2929 0a9e FFF7FEFF 		bl	uart_transmit
 2930 0aa2 1421     		movs	r1, #20
 2931 0aa4 6448     		ldr	r0, .L309+20
 2932 0aa6 FFF7FEFF 		bl	uart_transmit
 2933              	.LBE832:
 2934 0aaa 1523     		movs	r3, #21
 2935 0aac 2B70     		strb	r3, [r5, #0]
 2936 0aae 1433     		adds	r3, r3, #20
 2937 0ab0 0121     		movs	r1, #1
 2938 0ab2 2370     		strb	r3, [r4, #0]
 2939 0ab4 6048     		ldr	r0, .L309+20
 2940 0ab6 FFF7FEFF 		bl	uart_transmit
 2941 0aba 2B78     		ldrb	r3, [r5, #0]	@ zero_extendqisi2
 2942 0abc 2278     		ldrb	r2, [r4, #0]	@ zero_extendqisi2
 2943 0abe 2333     		adds	r3, r3, #35
 2944 0ac0 DBB2     		uxtb	r3, r3
 2945 0ac2 2B70     		strb	r3, [r5, #0]
 2946 0ac4 9B18     		adds	r3, r3, r2
 2947 0ac6 2321     		movs	r1, #35
 2948 0ac8 2370     		strb	r3, [r4, #0]
 2949 0aca 5B48     		ldr	r0, .L309+20
 2950 0acc FFF7FEFF 		bl	uart_transmit
 2951              	.LBB833:
 2952 0ad0 3978     		ldrb	r1, [r7, #0]	@ zero_extendqisi2
 2953              	.LVL251:
 2954 0ad2 2B78     		ldrb	r3, [r5, #0]	@ zero_extendqisi2
 2955 0ad4 2278     		ldrb	r2, [r4, #0]	@ zero_extendqisi2
 2956 0ad6 CB18     		adds	r3, r1, r3
 2957 0ad8 DBB2     		uxtb	r3, r3
 2958 0ada 2B70     		strb	r3, [r5, #0]
 2959 0adc 9B18     		adds	r3, r3, r2
 2960 0ade 2370     		strb	r3, [r4, #0]
 2961 0ae0 5548     		ldr	r0, .L309+20
 2962 0ae2 FFF7FEFF 		bl	uart_transmit
 2963              	.LVL252:
 2964              	.LBE833:
 2965              	.LBB834:
 2966 0ae6 9DF80010 		ldrb	r1, [sp, #0]	@ zero_extendqisi2
 2967              	.LVL253:
 2968 0aea 2B78     		ldrb	r3, [r5, #0]	@ zero_extendqisi2
 2969 0aec 2278     		ldrb	r2, [r4, #0]	@ zero_extendqisi2
 2970 0aee CB18     		adds	r3, r1, r3
 2971 0af0 DBB2     		uxtb	r3, r3
 2972 0af2 2B70     		strb	r3, [r5, #0]
 2973 0af4 9B18     		adds	r3, r3, r2
 2974 0af6 EA46     		mov	sl, sp
 2975 0af8 2370     		strb	r3, [r4, #0]
 2976 0afa 4F48     		ldr	r0, .L309+20
 2977 0afc FFF7FEFF 		bl	uart_transmit
 2978              	.LVL254:
 2979              	.LBE834:
 2980              	.LBB835:
 2981 0b00 9AF80110 		ldrb	r1, [sl, #1]	@ zero_extendqisi2
 2982              	.LVL255:
 2983 0b04 2B78     		ldrb	r3, [r5, #0]	@ zero_extendqisi2
 2984 0b06 2278     		ldrb	r2, [r4, #0]	@ zero_extendqisi2
 2985 0b08 CB18     		adds	r3, r1, r3
 2986 0b0a DBB2     		uxtb	r3, r3
 2987 0b0c 2B70     		strb	r3, [r5, #0]
 2988 0b0e 9B18     		adds	r3, r3, r2
 2989 0b10 2370     		strb	r3, [r4, #0]
 2990 0b12 4948     		ldr	r0, .L309+20
 2991 0b14 FFF7FEFF 		bl	uart_transmit
 2992              	.LVL256:
 2993              	.LBE835:
 2994              	.LBB836:
 2995 0b18 9AF80210 		ldrb	r1, [sl, #2]	@ zero_extendqisi2
 2996              	.LVL257:
 2997 0b1c 2B78     		ldrb	r3, [r5, #0]	@ zero_extendqisi2
 2998 0b1e 2278     		ldrb	r2, [r4, #0]	@ zero_extendqisi2
 2999 0b20 CB18     		adds	r3, r1, r3
 3000 0b22 DBB2     		uxtb	r3, r3
 3001 0b24 2B70     		strb	r3, [r5, #0]
 3002 0b26 9B18     		adds	r3, r3, r2
 3003 0b28 2370     		strb	r3, [r4, #0]
 3004 0b2a 4348     		ldr	r0, .L309+20
 3005 0b2c FFF7FEFF 		bl	uart_transmit
 3006              	.LVL258:
 3007              	.LBE836:
 3008              	.LBB837:
 3009 0b30 9AF80310 		ldrb	r1, [sl, #3]	@ zero_extendqisi2
 3010              	.LVL259:
 3011 0b34 2B78     		ldrb	r3, [r5, #0]	@ zero_extendqisi2
 3012 0b36 2278     		ldrb	r2, [r4, #0]	@ zero_extendqisi2
 3013 0b38 CB18     		adds	r3, r1, r3
 3014 0b3a DBB2     		uxtb	r3, r3
 3015 0b3c 2B70     		strb	r3, [r5, #0]
 3016 0b3e 9B18     		adds	r3, r3, r2
 3017 0b40 2370     		strb	r3, [r4, #0]
 3018 0b42 3D48     		ldr	r0, .L309+20
 3019 0b44 FFF7FEFF 		bl	uart_transmit
 3020              	.LVL260:
 3021              	.LBE837:
 3022              	.LBB838:
 3023 0b48 9DF80810 		ldrb	r1, [sp, #8]	@ zero_extendqisi2
 3024              	.LVL261:
 3025 0b4c 2B78     		ldrb	r3, [r5, #0]	@ zero_extendqisi2
 3026 0b4e 2278     		ldrb	r2, [r4, #0]	@ zero_extendqisi2
 3027 0b50 CB18     		adds	r3, r1, r3
 3028 0b52 DBB2     		uxtb	r3, r3
 3029 0b54 2B70     		strb	r3, [r5, #0]
 3030 0b56 9B18     		adds	r3, r3, r2
 3031 0b58 0DF1080A 		add	sl, sp, #8
 3032 0b5c 2370     		strb	r3, [r4, #0]
 3033 0b5e 3648     		ldr	r0, .L309+20
 3034 0b60 FFF7FEFF 		bl	uart_transmit
 3035              	.LVL262:
 3036              	.LBE838:
 3037              	.LBB839:
 3038 0b64 9AF80110 		ldrb	r1, [sl, #1]	@ zero_extendqisi2
 3039              	.LVL263:
 3040 0b68 2B78     		ldrb	r3, [r5, #0]	@ zero_extendqisi2
 3041 0b6a 2278     		ldrb	r2, [r4, #0]	@ zero_extendqisi2
 3042 0b6c CB18     		adds	r3, r1, r3
 3043 0b6e DBB2     		uxtb	r3, r3
 3044 0b70 2B70     		strb	r3, [r5, #0]
 3045 0b72 9B18     		adds	r3, r3, r2
 3046 0b74 2370     		strb	r3, [r4, #0]
 3047 0b76 3048     		ldr	r0, .L309+20
 3048 0b78 FFF7FEFF 		bl	uart_transmit
 3049              	.LVL264:
 3050              	.LBE839:
 3051              	.LBB840:
 3052 0b7c 9AF80210 		ldrb	r1, [sl, #2]	@ zero_extendqisi2
 3053              	.LVL265:
 3054 0b80 2B78     		ldrb	r3, [r5, #0]	@ zero_extendqisi2
 3055 0b82 2278     		ldrb	r2, [r4, #0]	@ zero_extendqisi2
 3056 0b84 CB18     		adds	r3, r1, r3
 3057 0b86 DBB2     		uxtb	r3, r3
 3058 0b88 2B70     		strb	r3, [r5, #0]
 3059 0b8a 9B18     		adds	r3, r3, r2
 3060 0b8c 2370     		strb	r3, [r4, #0]
 3061 0b8e 2A48     		ldr	r0, .L309+20
 3062 0b90 FFF7FEFF 		bl	uart_transmit
 3063              	.LVL266:
 3064              	.LBE840:
 3065              	.LBB841:
 3066 0b94 9AF80310 		ldrb	r1, [sl, #3]	@ zero_extendqisi2
 3067              	.LVL267:
 3068 0b98 2B78     		ldrb	r3, [r5, #0]	@ zero_extendqisi2
 3069 0b9a 2278     		ldrb	r2, [r4, #0]	@ zero_extendqisi2
 3070 0b9c CB18     		adds	r3, r1, r3
 3071 0b9e DBB2     		uxtb	r3, r3
 3072 0ba0 2B70     		strb	r3, [r5, #0]
 3073 0ba2 9B18     		adds	r3, r3, r2
 3074 0ba4 2370     		strb	r3, [r4, #0]
 3075 0ba6 2448     		ldr	r0, .L309+20
 3076 0ba8 FFF7FEFF 		bl	uart_transmit
 3077              	.LVL268:
 3078              	.LBE841:
 3079              	.LBB842:
 3080 0bac 3B78     		ldrb	r3, [r7, #0]	@ zero_extendqisi2
 3081 0bae 2278     		ldrb	r2, [r4, #0]	@ zero_extendqisi2
 3082 0bb0 08FB0363 		mla	r3, r8, r3, r6
 3083 0bb4 197A     		ldrb	r1, [r3, #8]	@ zero_extendqisi2
 3084              	.LVL269:
 3085 0bb6 2B78     		ldrb	r3, [r5, #0]	@ zero_extendqisi2
 3086 0bb8 1F48     		ldr	r0, .L309+20
 3087 0bba CB18     		adds	r3, r1, r3
 3088 0bbc DBB2     		uxtb	r3, r3
 3089 0bbe 2B70     		strb	r3, [r5, #0]
 3090 0bc0 9B18     		adds	r3, r3, r2
 3091 0bc2 2370     		strb	r3, [r4, #0]
 3092 0bc4 FFF7FEFF 		bl	uart_transmit
 3093              	.LVL270:
 3094              	.LBE842:
 3095              	.LBB843:
 3096 0bc8 3B78     		ldrb	r3, [r7, #0]	@ zero_extendqisi2
 3097 0bca 2278     		ldrb	r2, [r4, #0]	@ zero_extendqisi2
 3098 0bcc 08FB0363 		mla	r3, r8, r3, r6
 3099 0bd0 597A     		ldrb	r1, [r3, #9]	@ zero_extendqisi2
 3100              	.LVL271:
 3101 0bd2 2B78     		ldrb	r3, [r5, #0]	@ zero_extendqisi2
 3102 0bd4 1848     		ldr	r0, .L309+20
 3103 0bd6 CB18     		adds	r3, r1, r3
 3104 0bd8 DBB2     		uxtb	r3, r3
 3105 0bda 2B70     		strb	r3, [r5, #0]
 3106 0bdc 9B18     		adds	r3, r3, r2
 3107 0bde 2370     		strb	r3, [r4, #0]
 3108 0be0 FFF7FEFF 		bl	uart_transmit
 3109              	.LVL272:
 3110              	.LBE843:
 3111              	.LBB844:
 3112 0be4 3B78     		ldrb	r3, [r7, #0]	@ zero_extendqisi2
 3113 0be6 2278     		ldrb	r2, [r4, #0]	@ zero_extendqisi2
 3114 0be8 08FB0363 		mla	r3, r8, r3, r6
 3115 0bec 997A     		ldrb	r1, [r3, #10]	@ zero_extendqisi2
 3116              	.LVL273:
 3117 0bee 2B78     		ldrb	r3, [r5, #0]	@ zero_extendqisi2
 3118 0bf0 1148     		ldr	r0, .L309+20
 3119 0bf2 CB18     		adds	r3, r1, r3
 3120 0bf4 DBB2     		uxtb	r3, r3
 3121 0bf6 2B70     		strb	r3, [r5, #0]
 3122 0bf8 9B18     		adds	r3, r3, r2
 3123 0bfa 2370     		strb	r3, [r4, #0]
 3124 0bfc FFF7FEFF 		bl	uart_transmit
 3125              	.LVL274:
 3126              	.LBE844:
 3127              	.LBB845:
 3128 0c00 3B78     		ldrb	r3, [r7, #0]	@ zero_extendqisi2
 3129 0c02 2278     		ldrb	r2, [r4, #0]	@ zero_extendqisi2
 3130 0c04 08FB0366 		mla	r6, r8, r3, r6
 3131 0c08 2B78     		ldrb	r3, [r5, #0]	@ zero_extendqisi2
 3132 0c0a F17A     		ldrb	r1, [r6, #11]	@ zero_extendqisi2
 3133              	.LVL275:
 3134 0c0c 0A48     		ldr	r0, .L309+20
 3135 0c0e CB18     		adds	r3, r1, r3
 3136 0c10 DBB2     		uxtb	r3, r3
 3137 0c12 2B70     		strb	r3, [r5, #0]
 3138 0c14 9B18     		adds	r3, r3, r2
 3139 0c16 2370     		strb	r3, [r4, #0]
 3140 0c18 FFF7FEFF 		bl	uart_transmit
 3141              	.LVL276:
 3142              	.LBE845:
 3143              	.LBB846:
 3144 0c1c 0B4B     		ldr	r3, .L309+40
 3145 0c1e 1978     		ldrb	r1, [r3, #0]	@ zero_extendqisi2
 3146              	.LVL277:
 3147 0c20 D6E6     		b	.L279
 3148              	.L310:
 3149 0c22 00BF     		.align	2
 3150              	.L309:
 3151 0c24 00000000 		.word	.LANCHOR33
 3152 0c28 00000000 		.word	nb_waypoint
 3153 0c2c 00000000 		.word	nav_utm_east0
 3154 0c30 00000000 		.word	waypoints
 3155 0c34 00000000 		.word	nav_utm_north0
 3156 0c38 00000000 		.word	uart2
 3157 0c3c 00000000 		.word	downlink_nb_bytes
 3158 0c40 00000000 		.word	downlink_nb_msgs
 3159 0c44 00000000 		.word	ck_a
 3160 0c48 00000000 		.word	ck_b
 3161 0c4c 00000000 		.word	nav_utm_zone0
 3162              	.LVL278:
 3163              	.L97:
 3164              	.LBE846:
 3165 0c50 9B4B     		ldr	r3, .L311+8
 3166 0c52 1A78     		ldrb	r2, [r3, #0]	@ zero_extendqisi2
 3167 0c54 0132     		adds	r2, r2, #1
 3168 0c56 1A70     		strb	r2, [r3, #0]
 3169              	.L93:
 3170              	.LBE827:
 3171              	.LBE826:
 3172 0c58 9A4B     		ldr	r3, .L311+12
 3173 0c5a 1B78     		ldrb	r3, [r3, #0]	@ zero_extendqisi2
 3174 0c5c 182B     		cmp	r3, #24
 3175 0c5e 00F05181 		beq	.L98
 3176 0c62 1E2B     		cmp	r3, #30
 3177 0c64 40F04E81 		bne	.L98
 3178              	.LBB847:
 3179 0c68 974B     		ldr	r3, .L311+16
 3180 0c6a 9848     		ldr	r0, .L311+20
 3181 0c6c 1A21     		movs	r1, #26
 3182 0c6e 1C68     		ldr	r4, [r3, #0]	@ float
 3183 0c70 FFF7FEFF 		bl	uart_check_free_space
 3184 0c74 0028     		cmp	r0, #0
 3185 0c76 00F04181 		beq	.L99
 3186 0c7a 24F00040 		bic	r0, r4, #-2147483648
 3187 0c7e FFF7FEFF 		bl	__aeabi_f2d
 3188 0c82 8DA3     		adr	r3, .L311
 3189 0c84 D3E90023 		ldrd	r2, [r3]
 3190 0c88 FFF7FEFF 		bl	__aeabi_ddiv
 3191 0c8c FFF7FEFF 		bl	__aeabi_d2uiz
 3192 0c90 8F4B     		ldr	r3, .L311+24
 3193 0c92 C7B2     		uxtb	r7, r0
 3194 0c94 1A88     		ldrh	r2, [r3, #0]
 3195              	.LBB848:
 3196 0c96 9921     		movs	r1, #153
 3197              	.LBE848:
 3198 0c98 1A32     		adds	r2, r2, #26
 3199 0c9a 1A80     		strh	r2, [r3, #0]	@ movhi
 3200 0c9c 8D4B     		ldr	r3, .L311+28
 3201              	.LBB849:
 3202 0c9e 8B48     		ldr	r0, .L311+20
 3203              	.LBE849:
 3204 0ca0 1A88     		ldrh	r2, [r3, #0]
 3205              	.LBB850:
 3206 0ca2 8D4D     		ldr	r5, .L311+32
 3207              	.LBE850:
 3208 0ca4 0132     		adds	r2, r2, #1
 3209 0ca6 1A80     		strh	r2, [r3, #0]	@ movhi
 3210              	.LBB851:
 3211 0ca8 FFF7FEFF 		bl	uart_transmit
 3212 0cac 1A21     		movs	r1, #26
 3213 0cae 8748     		ldr	r0, .L311+20
 3214 0cb0 8A4C     		ldr	r4, .L311+36
 3215 0cb2 FFF7FEFF 		bl	uart_transmit
 3216              	.LBE851:
 3217 0cb6 1B23     		movs	r3, #27
 3218 0cb8 2B70     		strb	r3, [r5, #0]
 3219 0cba 1A33     		adds	r3, r3, #26
 3220 0cbc 2370     		strb	r3, [r4, #0]
 3221 0cbe 0121     		movs	r1, #1
 3222 0cc0 8248     		ldr	r0, .L311+20
 3223 0cc2 FFF7FEFF 		bl	uart_transmit
 3224 0cc6 2B78     		ldrb	r3, [r5, #0]	@ zero_extendqisi2
 3225 0cc8 2278     		ldrb	r2, [r4, #0]	@ zero_extendqisi2
 3226 0cca 0A33     		adds	r3, r3, #10
 3227 0ccc DBB2     		uxtb	r3, r3
 3228 0cce 2B70     		strb	r3, [r5, #0]
 3229 0cd0 9B18     		adds	r3, r3, r2
 3230 0cd2 2370     		strb	r3, [r4, #0]
 3231 0cd4 0A21     		movs	r1, #10
 3232 0cd6 7D48     		ldr	r0, .L311+20
 3233 0cd8 FFF7FEFF 		bl	uart_transmit
 3234              	.LBB852:
 3235 0cdc 804B     		ldr	r3, .L311+40
 3236 0cde 2278     		ldrb	r2, [r4, #0]	@ zero_extendqisi2
 3237 0ce0 1978     		ldrb	r1, [r3, #0]	@ zero_extendqisi2
 3238              	.LVL279:
 3239 0ce2 2B78     		ldrb	r3, [r5, #0]	@ zero_extendqisi2
 3240 0ce4 7948     		ldr	r0, .L311+20
 3241 0ce6 CB18     		adds	r3, r1, r3
 3242 0ce8 DBB2     		uxtb	r3, r3
 3243 0cea 2B70     		strb	r3, [r5, #0]
 3244 0cec 9B18     		adds	r3, r3, r2
 3245 0cee 2370     		strb	r3, [r4, #0]
 3246 0cf0 FFF7FEFF 		bl	uart_transmit
 3247              	.LVL280:
 3248              	.LBE852:
 3249              	.LBB853:
 3250 0cf4 7B4B     		ldr	r3, .L311+44
 3251 0cf6 2278     		ldrb	r2, [r4, #0]	@ zero_extendqisi2
 3252 0cf8 1978     		ldrb	r1, [r3, #0]	@ zero_extendqisi2
 3253              	.LVL281:
 3254 0cfa 2B78     		ldrb	r3, [r5, #0]	@ zero_extendqisi2
 3255              	.LBE853:
 3256              	.LBB854:
 3257 0cfc 7A4E     		ldr	r6, .L311+48
 3258              	.LBE854:
 3259              	.LBB855:
 3260 0cfe CB18     		adds	r3, r1, r3
 3261 0d00 DBB2     		uxtb	r3, r3
 3262 0d02 2B70     		strb	r3, [r5, #0]
 3263 0d04 9B18     		adds	r3, r3, r2
 3264 0d06 2370     		strb	r3, [r4, #0]
 3265 0d08 7048     		ldr	r0, .L311+20
 3266 0d0a FFF7FEFF 		bl	uart_transmit
 3267              	.LVL282:
 3268              	.LBE855:
 3269              	.LBB856:
 3270 0d0e 3178     		ldrb	r1, [r6, #0]	@ zero_extendqisi2
 3271              	.LVL283:
 3272 0d10 2B78     		ldrb	r3, [r5, #0]	@ zero_extendqisi2
 3273 0d12 2278     		ldrb	r2, [r4, #0]	@ zero_extendqisi2
 3274 0d14 CB18     		adds	r3, r1, r3
 3275 0d16 DBB2     		uxtb	r3, r3
 3276 0d18 2B70     		strb	r3, [r5, #0]
 3277 0d1a 9B18     		adds	r3, r3, r2
 3278 0d1c 2370     		strb	r3, [r4, #0]
 3279 0d1e 6B48     		ldr	r0, .L311+20
 3280 0d20 FFF7FEFF 		bl	uart_transmit
 3281              	.LVL284:
 3282              	.LBE856:
 3283              	.LBB857:
 3284 0d24 7178     		ldrb	r1, [r6, #1]	@ zero_extendqisi2
 3285              	.LVL285:
 3286 0d26 2B78     		ldrb	r3, [r5, #0]	@ zero_extendqisi2
 3287 0d28 2278     		ldrb	r2, [r4, #0]	@ zero_extendqisi2
 3288 0d2a CB18     		adds	r3, r1, r3
 3289 0d2c DBB2     		uxtb	r3, r3
 3290 0d2e 2B70     		strb	r3, [r5, #0]
 3291 0d30 9B18     		adds	r3, r3, r2
 3292 0d32 2370     		strb	r3, [r4, #0]
 3293 0d34 6548     		ldr	r0, .L311+20
 3294 0d36 FFF7FEFF 		bl	uart_transmit
 3295              	.LVL286:
 3296              	.LBE857:
 3297              	.LBB858:
 3298 0d3a B178     		ldrb	r1, [r6, #2]	@ zero_extendqisi2
 3299              	.LVL287:
 3300 0d3c 2B78     		ldrb	r3, [r5, #0]	@ zero_extendqisi2
 3301 0d3e 2278     		ldrb	r2, [r4, #0]	@ zero_extendqisi2
 3302 0d40 CB18     		adds	r3, r1, r3
 3303 0d42 DBB2     		uxtb	r3, r3
 3304 0d44 2B70     		strb	r3, [r5, #0]
 3305 0d46 9B18     		adds	r3, r3, r2
 3306 0d48 2370     		strb	r3, [r4, #0]
 3307 0d4a 6048     		ldr	r0, .L311+20
 3308 0d4c FFF7FEFF 		bl	uart_transmit
 3309              	.LVL288:
 3310              	.LBE858:
 3311              	.LBB859:
 3312 0d50 F178     		ldrb	r1, [r6, #3]	@ zero_extendqisi2
 3313              	.LVL289:
 3314 0d52 2B78     		ldrb	r3, [r5, #0]	@ zero_extendqisi2
 3315 0d54 2278     		ldrb	r2, [r4, #0]	@ zero_extendqisi2
 3316 0d56 CB18     		adds	r3, r1, r3
 3317 0d58 DBB2     		uxtb	r3, r3
 3318              	.LBE859:
 3319              	.LBB860:
 3320 0d5a 644E     		ldr	r6, .L311+52
 3321              	.LBE860:
 3322              	.LBB861:
 3323 0d5c 2B70     		strb	r3, [r5, #0]
 3324 0d5e 9B18     		adds	r3, r3, r2
 3325 0d60 2370     		strb	r3, [r4, #0]
 3326 0d62 5A48     		ldr	r0, .L311+20
 3327 0d64 FFF7FEFF 		bl	uart_transmit
 3328              	.LVL290:
 3329              	.LBE861:
 3330              	.LBB862:
 3331 0d68 3178     		ldrb	r1, [r6, #0]	@ zero_extendqisi2
 3332              	.LVL291:
 3333 0d6a 2B78     		ldrb	r3, [r5, #0]	@ zero_extendqisi2
 3334 0d6c 2278     		ldrb	r2, [r4, #0]	@ zero_extendqisi2
 3335 0d6e CB18     		adds	r3, r1, r3
 3336 0d70 DBB2     		uxtb	r3, r3
 3337 0d72 2B70     		strb	r3, [r5, #0]
 3338 0d74 9B18     		adds	r3, r3, r2
 3339 0d76 2370     		strb	r3, [r4, #0]
 3340 0d78 5448     		ldr	r0, .L311+20
 3341 0d7a FFF7FEFF 		bl	uart_transmit
 3342              	.LVL292:
 3343              	.LBE862:
 3344              	.LBB863:
 3345 0d7e 7178     		ldrb	r1, [r6, #1]	@ zero_extendqisi2
 3346              	.LVL293:
 3347 0d80 2B78     		ldrb	r3, [r5, #0]	@ zero_extendqisi2
 3348 0d82 2278     		ldrb	r2, [r4, #0]	@ zero_extendqisi2
 3349 0d84 CB18     		adds	r3, r1, r3
 3350 0d86 DBB2     		uxtb	r3, r3
 3351 0d88 2B70     		strb	r3, [r5, #0]
 3352 0d8a 9B18     		adds	r3, r3, r2
 3353 0d8c 2370     		strb	r3, [r4, #0]
 3354 0d8e 4F48     		ldr	r0, .L311+20
 3355 0d90 FFF7FEFF 		bl	uart_transmit
 3356              	.LVL294:
 3357              	.LBE863:
 3358              	.LBB864:
 3359 0d94 B178     		ldrb	r1, [r6, #2]	@ zero_extendqisi2
 3360              	.LVL295:
 3361 0d96 2B78     		ldrb	r3, [r5, #0]	@ zero_extendqisi2
 3362 0d98 2278     		ldrb	r2, [r4, #0]	@ zero_extendqisi2
 3363 0d9a CB18     		adds	r3, r1, r3
 3364 0d9c DBB2     		uxtb	r3, r3
 3365 0d9e 2B70     		strb	r3, [r5, #0]
 3366 0da0 9B18     		adds	r3, r3, r2
 3367 0da2 2370     		strb	r3, [r4, #0]
 3368 0da4 4948     		ldr	r0, .L311+20
 3369 0da6 FFF7FEFF 		bl	uart_transmit
 3370              	.LVL296:
 3371              	.LBE864:
 3372              	.LBB865:
 3373 0daa F178     		ldrb	r1, [r6, #3]	@ zero_extendqisi2
 3374              	.LVL297:
 3375 0dac 2B78     		ldrb	r3, [r5, #0]	@ zero_extendqisi2
 3376 0dae 2278     		ldrb	r2, [r4, #0]	@ zero_extendqisi2
 3377 0db0 CB18     		adds	r3, r1, r3
 3378 0db2 DBB2     		uxtb	r3, r3
 3379              	.LBE865:
 3380              	.LBB866:
 3381 0db4 4E4E     		ldr	r6, .L311+56
 3382              	.LBE866:
 3383              	.LBB867:
 3384 0db6 2B70     		strb	r3, [r5, #0]
 3385 0db8 9B18     		adds	r3, r3, r2
 3386 0dba 2370     		strb	r3, [r4, #0]
 3387 0dbc 4348     		ldr	r0, .L311+20
 3388 0dbe FFF7FEFF 		bl	uart_transmit
 3389              	.LVL298:
 3390              	.LBE867:
 3391              	.LBB868:
 3392 0dc2 3178     		ldrb	r1, [r6, #0]	@ zero_extendqisi2
 3393              	.LVL299:
 3394 0dc4 2B78     		ldrb	r3, [r5, #0]	@ zero_extendqisi2
 3395 0dc6 2278     		ldrb	r2, [r4, #0]	@ zero_extendqisi2
 3396 0dc8 CB18     		adds	r3, r1, r3
 3397 0dca DBB2     		uxtb	r3, r3
 3398 0dcc 2B70     		strb	r3, [r5, #0]
 3399 0dce 9B18     		adds	r3, r3, r2
 3400 0dd0 2370     		strb	r3, [r4, #0]
 3401 0dd2 3E48     		ldr	r0, .L311+20
 3402 0dd4 FFF7FEFF 		bl	uart_transmit
 3403              	.LVL300:
 3404              	.LBE868:
 3405              	.LBB869:
 3406 0dd8 7178     		ldrb	r1, [r6, #1]	@ zero_extendqisi2
 3407              	.LVL301:
 3408 0dda 2B78     		ldrb	r3, [r5, #0]	@ zero_extendqisi2
 3409 0ddc 2278     		ldrb	r2, [r4, #0]	@ zero_extendqisi2
 3410 0dde CB18     		adds	r3, r1, r3
 3411 0de0 DBB2     		uxtb	r3, r3
 3412 0de2 2B70     		strb	r3, [r5, #0]
 3413 0de4 9B18     		adds	r3, r3, r2
 3414 0de6 2370     		strb	r3, [r4, #0]
 3415 0de8 3848     		ldr	r0, .L311+20
 3416 0dea FFF7FEFF 		bl	uart_transmit
 3417              	.LVL302:
 3418              	.LBE869:
 3419              	.LBB870:
 3420 0dee B178     		ldrb	r1, [r6, #2]	@ zero_extendqisi2
 3421              	.LVL303:
 3422 0df0 2B78     		ldrb	r3, [r5, #0]	@ zero_extendqisi2
 3423 0df2 2278     		ldrb	r2, [r4, #0]	@ zero_extendqisi2
 3424 0df4 CB18     		adds	r3, r1, r3
 3425 0df6 DBB2     		uxtb	r3, r3
 3426 0df8 2B70     		strb	r3, [r5, #0]
 3427 0dfa 9B18     		adds	r3, r3, r2
 3428 0dfc 2370     		strb	r3, [r4, #0]
 3429 0dfe 3348     		ldr	r0, .L311+20
 3430 0e00 FFF7FEFF 		bl	uart_transmit
 3431              	.LVL304:
 3432              	.LBE870:
 3433              	.LBB871:
 3434 0e04 F178     		ldrb	r1, [r6, #3]	@ zero_extendqisi2
 3435              	.LVL305:
 3436 0e06 2B78     		ldrb	r3, [r5, #0]	@ zero_extendqisi2
 3437 0e08 2278     		ldrb	r2, [r4, #0]	@ zero_extendqisi2
 3438 0e0a CB18     		adds	r3, r1, r3
 3439 0e0c DBB2     		uxtb	r3, r3
 3440              	.LBE871:
 3441              	.LBB872:
 3442 0e0e 394E     		ldr	r6, .L311+60
 3443              	.LBE872:
 3444              	.LBB873:
 3445 0e10 2B70     		strb	r3, [r5, #0]
 3446 0e12 9B18     		adds	r3, r3, r2
 3447 0e14 2370     		strb	r3, [r4, #0]
 3448 0e16 2D48     		ldr	r0, .L311+20
 3449 0e18 FFF7FEFF 		bl	uart_transmit
 3450              	.LVL306:
 3451              	.LBE873:
 3452              	.LBB874:
 3453 0e1c 3178     		ldrb	r1, [r6, #0]	@ zero_extendqisi2
 3454              	.LVL307:
 3455 0e1e 2B78     		ldrb	r3, [r5, #0]	@ zero_extendqisi2
 3456 0e20 2278     		ldrb	r2, [r4, #0]	@ zero_extendqisi2
 3457 0e22 CB18     		adds	r3, r1, r3
 3458 0e24 DBB2     		uxtb	r3, r3
 3459 0e26 2B70     		strb	r3, [r5, #0]
 3460 0e28 9B18     		adds	r3, r3, r2
 3461 0e2a 2370     		strb	r3, [r4, #0]
 3462 0e2c 2748     		ldr	r0, .L311+20
 3463 0e2e FFF7FEFF 		bl	uart_transmit
 3464              	.LVL308:
 3465              	.LBE874:
 3466              	.LBB875:
 3467 0e32 7178     		ldrb	r1, [r6, #1]	@ zero_extendqisi2
 3468              	.LVL309:
 3469 0e34 2B78     		ldrb	r3, [r5, #0]	@ zero_extendqisi2
 3470 0e36 2278     		ldrb	r2, [r4, #0]	@ zero_extendqisi2
 3471 0e38 CB18     		adds	r3, r1, r3
 3472 0e3a DBB2     		uxtb	r3, r3
 3473 0e3c 2B70     		strb	r3, [r5, #0]
 3474 0e3e 9B18     		adds	r3, r3, r2
 3475 0e40 2370     		strb	r3, [r4, #0]
 3476 0e42 2248     		ldr	r0, .L311+20
 3477 0e44 FFF7FEFF 		bl	uart_transmit
 3478              	.LVL310:
 3479              	.LBE875:
 3480              	.LBB876:
 3481 0e48 B178     		ldrb	r1, [r6, #2]	@ zero_extendqisi2
 3482              	.LVL311:
 3483 0e4a 2B78     		ldrb	r3, [r5, #0]	@ zero_extendqisi2
 3484 0e4c 2278     		ldrb	r2, [r4, #0]	@ zero_extendqisi2
 3485 0e4e CB18     		adds	r3, r1, r3
 3486 0e50 DBB2     		uxtb	r3, r3
 3487 0e52 2B70     		strb	r3, [r5, #0]
 3488 0e54 9B18     		adds	r3, r3, r2
 3489 0e56 2370     		strb	r3, [r4, #0]
 3490 0e58 1C48     		ldr	r0, .L311+20
 3491 0e5a FFF7FEFF 		bl	uart_transmit
 3492              	.LVL312:
 3493              	.LBE876:
 3494              	.LBB877:
 3495 0e5e F178     		ldrb	r1, [r6, #3]	@ zero_extendqisi2
 3496              	.LVL313:
 3497 0e60 2B78     		ldrb	r3, [r5, #0]	@ zero_extendqisi2
 3498 0e62 2278     		ldrb	r2, [r4, #0]	@ zero_extendqisi2
 3499 0e64 CB18     		adds	r3, r1, r3
 3500 0e66 DBB2     		uxtb	r3, r3
 3501 0e68 2B70     		strb	r3, [r5, #0]
 3502 0e6a 9B18     		adds	r3, r3, r2
 3503 0e6c 2370     		strb	r3, [r4, #0]
 3504 0e6e 1748     		ldr	r0, .L311+20
 3505 0e70 FFF7FEFF 		bl	uart_transmit
 3506              	.LVL314:
 3507              	.LBE877:
 3508              	.LBB878:
 3509 0e74 2B78     		ldrb	r3, [r5, #0]	@ zero_extendqisi2
 3510 0e76 2278     		ldrb	r2, [r4, #0]	@ zero_extendqisi2
 3511 0e78 FB18     		adds	r3, r7, r3
 3512 0e7a DBB2     		uxtb	r3, r3
 3513 0e7c 2B70     		strb	r3, [r5, #0]
 3514 0e7e 9B18     		adds	r3, r3, r2
 3515 0e80 2370     		strb	r3, [r4, #0]
 3516 0e82 3946     		mov	r1, r7
 3517 0e84 1148     		ldr	r0, .L311+20
 3518 0e86 FFF7FEFF 		bl	uart_transmit
 3519              	.LBE878:
 3520              	.LBB879:
 3521 0e8a 1B4B     		ldr	r3, .L311+64
 3522 0e8c 2278     		ldrb	r2, [r4, #0]	@ zero_extendqisi2
 3523 0e8e 1978     		ldrb	r1, [r3, #0]	@ zero_extendqisi2
 3524              	.LVL315:
 3525 0e90 2B78     		ldrb	r3, [r5, #0]	@ zero_extendqisi2
 3526 0e92 0E48     		ldr	r0, .L311+20
 3527 0e94 CB18     		adds	r3, r1, r3
 3528 0e96 DBB2     		uxtb	r3, r3
 3529 0e98 2B70     		strb	r3, [r5, #0]
 3530 0e9a 9B18     		adds	r3, r3, r2
 3531 0e9c 2370     		strb	r3, [r4, #0]
 3532 0e9e FFF7FEFF 		bl	uart_transmit
 3533              	.LVL316:
 3534              	.LBE879:
 3535 0ea2 2978     		ldrb	r1, [r5, #0]	@ zero_extendqisi2
 3536 0ea4 0948     		ldr	r0, .L311+20
 3537 0ea6 FFF7FEFF 		bl	uart_transmit
 3538 0eaa 0848     		ldr	r0, .L311+20
 3539 0eac 2178     		ldrb	r1, [r4, #0]	@ zero_extendqisi2
 3540 0eae FFF7FEFF 		bl	uart_transmit
 3541 0eb2 27E0     		b	.L98
 3542              	.L312:
 3543 0eb4 AFF30080 		.align	3
 3544              	.L311:
 3545 0eb8 182D4454 		.word	1413754136
 3546 0ebc FB211940 		.word	1075388923
 3547 0ec0 00000000 		.word	downlink_nb_ovrn
 3548 0ec4 00000000 		.word	.LANCHOR21
 3549 0ec8 00000000 		.word	nav_circle_radians
 3550 0ecc 00000000 		.word	uart2
 3551 0ed0 00000000 		.word	downlink_nb_bytes
 3552 0ed4 00000000 		.word	downlink_nb_msgs
 3553 0ed8 00000000 		.word	ck_a
 3554 0edc 00000000 		.word	ck_b
 3555 0ee0 00000000 		.word	nav_block
 3556 0ee4 00000000 		.word	nav_stage
 3557 0ee8 00000000 		.word	estimator_x
 3558 0eec 00000000 		.word	estimator_y
 3559 0ef0 00000000 		.word	dist2_to_wp
 3560 0ef4 00000000 		.word	dist2_to_home
 3561 0ef8 00000000 		.word	nav_oval_count
 3562              	.L99:
 3563 0efc 4A4B     		ldr	r3, .L313
 3564 0efe 1A78     		ldrb	r2, [r3, #0]	@ zero_extendqisi2
 3565 0f00 0132     		adds	r2, r2, #1
 3566 0f02 1A70     		strb	r2, [r3, #0]
 3567              	.L98:
 3568              	.LBE847:
 3569 0f04 494B     		ldr	r3, .L313+4
 3570 0f06 1B78     		ldrb	r3, [r3, #0]	@ zero_extendqisi2
 3571 0f08 302B     		cmp	r3, #48
 3572 0f0a 40F0A380 		bne	.L100
 3573 0f0e 484B     		ldr	r3, .L313+8
 3574 0f10 1B78     		ldrb	r3, [r3, #0]	@ zero_extendqisi2
 3575 0f12 002B     		cmp	r3, #0
 3576 0f14 00F02D82 		beq	.L101
 3577 0f18 4648     		ldr	r0, .L313+12
 3578 0f1a 1221     		movs	r1, #18
 3579 0f1c FFF7FEFF 		bl	uart_check_free_space
 3580 0f20 0028     		cmp	r0, #0
 3581 0f22 00F02282 		beq	.L103
 3582 0f26 444B     		ldr	r3, .L313+16
 3583              	.LBB880:
 3584 0f28 9921     		movs	r1, #153
 3585              	.LBE880:
 3586 0f2a 1A88     		ldrh	r2, [r3, #0]
 3587              	.LBB881:
 3588 0f2c 4148     		ldr	r0, .L313+12
 3589              	.LBE881:
 3590 0f2e 1232     		adds	r2, r2, #18
 3591 0f30 1A80     		strh	r2, [r3, #0]	@ movhi
 3592 0f32 424B     		ldr	r3, .L313+20
 3593              	.LBB882:
 3594 0f34 424D     		ldr	r5, .L313+24
 3595              	.LBE882:
 3596 0f36 1A88     		ldrh	r2, [r3, #0]
 3597              	.LBB883:
 3598 0f38 424C     		ldr	r4, .L313+28
 3599              	.LBE883:
 3600 0f3a 0132     		adds	r2, r2, #1
 3601 0f3c 1A80     		strh	r2, [r3, #0]	@ movhi
 3602              	.LBB884:
 3603 0f3e FFF7FEFF 		bl	uart_transmit
 3604 0f42 1221     		movs	r1, #18
 3605 0f44 3B48     		ldr	r0, .L313+12
 3606 0f46 FFF7FEFF 		bl	uart_transmit
 3607              	.LBE884:
 3608 0f4a 1323     		movs	r3, #19
 3609 0f4c 2B70     		strb	r3, [r5, #0]
 3610 0f4e 1233     		adds	r3, r3, #18
 3611 0f50 0121     		movs	r1, #1
 3612 0f52 2370     		strb	r3, [r4, #0]
 3613 0f54 3748     		ldr	r0, .L313+12
 3614 0f56 FFF7FEFF 		bl	uart_transmit
 3615 0f5a 2B78     		ldrb	r3, [r5, #0]	@ zero_extendqisi2
 3616 0f5c 2278     		ldrb	r2, [r4, #0]	@ zero_extendqisi2
 3617 0f5e 1533     		adds	r3, r3, #21
 3618 0f60 DBB2     		uxtb	r3, r3
 3619              	.LBB885:
 3620 0f62 394E     		ldr	r6, .L313+32
 3621              	.LBE885:
 3622 0f64 2B70     		strb	r3, [r5, #0]
 3623 0f66 9B18     		adds	r3, r3, r2
 3624 0f68 1521     		movs	r1, #21
 3625 0f6a 2370     		strb	r3, [r4, #0]
 3626 0f6c 3148     		ldr	r0, .L313+12
 3627 0f6e FFF7FEFF 		bl	uart_transmit
 3628              	.LBB886:
 3629 0f72 3178     		ldrb	r1, [r6, #0]	@ zero_extendqisi2
 3630              	.LVL317:
 3631 0f74 2B78     		ldrb	r3, [r5, #0]	@ zero_extendqisi2
 3632 0f76 2278     		ldrb	r2, [r4, #0]	@ zero_extendqisi2
 3633 0f78 CB18     		adds	r3, r1, r3
 3634 0f7a DBB2     		uxtb	r3, r3
 3635 0f7c 2B70     		strb	r3, [r5, #0]
 3636 0f7e 9B18     		adds	r3, r3, r2
 3637 0f80 2370     		strb	r3, [r4, #0]
 3638 0f82 2C48     		ldr	r0, .L313+12
 3639 0f84 FFF7FEFF 		bl	uart_transmit
 3640              	.LVL318:
 3641              	.LBE886:
 3642              	.LBB887:
 3643 0f88 7178     		ldrb	r1, [r6, #1]	@ zero_extendqisi2
 3644              	.LVL319:
 3645 0f8a 2B78     		ldrb	r3, [r5, #0]	@ zero_extendqisi2
 3646 0f8c 2278     		ldrb	r2, [r4, #0]	@ zero_extendqisi2
 3647 0f8e CB18     		adds	r3, r1, r3
 3648 0f90 DBB2     		uxtb	r3, r3
 3649 0f92 2B70     		strb	r3, [r5, #0]
 3650 0f94 9B18     		adds	r3, r3, r2
 3651 0f96 2370     		strb	r3, [r4, #0]
 3652 0f98 2648     		ldr	r0, .L313+12
 3653 0f9a FFF7FEFF 		bl	uart_transmit
 3654              	.LVL320:
 3655              	.LBE887:
 3656              	.LBB888:
 3657 0f9e B178     		ldrb	r1, [r6, #2]	@ zero_extendqisi2
 3658              	.LVL321:
 3659 0fa0 2B78     		ldrb	r3, [r5, #0]	@ zero_extendqisi2
 3660 0fa2 2278     		ldrb	r2, [r4, #0]	@ zero_extendqisi2
 3661 0fa4 CB18     		adds	r3, r1, r3
 3662 0fa6 DBB2     		uxtb	r3, r3
 3663 0fa8 2B70     		strb	r3, [r5, #0]
 3664 0faa 9B18     		adds	r3, r3, r2
 3665 0fac 2370     		strb	r3, [r4, #0]
 3666 0fae 2148     		ldr	r0, .L313+12
 3667 0fb0 FFF7FEFF 		bl	uart_transmit
 3668              	.LVL322:
 3669              	.LBE888:
 3670              	.LBB889:
 3671 0fb4 F178     		ldrb	r1, [r6, #3]	@ zero_extendqisi2
 3672              	.LVL323:
 3673 0fb6 2B78     		ldrb	r3, [r5, #0]	@ zero_extendqisi2
 3674 0fb8 2278     		ldrb	r2, [r4, #0]	@ zero_extendqisi2
 3675 0fba CB18     		adds	r3, r1, r3
 3676 0fbc DBB2     		uxtb	r3, r3
 3677              	.LBE889:
 3678              	.LBB890:
 3679 0fbe 234E     		ldr	r6, .L313+36
 3680              	.LBE890:
 3681              	.LBB891:
 3682 0fc0 2B70     		strb	r3, [r5, #0]
 3683 0fc2 9B18     		adds	r3, r3, r2
 3684 0fc4 2370     		strb	r3, [r4, #0]
 3685 0fc6 1B48     		ldr	r0, .L313+12
 3686 0fc8 FFF7FEFF 		bl	uart_transmit
 3687              	.LVL324:
 3688              	.LBE891:
 3689              	.LBB892:
 3690 0fcc 3178     		ldrb	r1, [r6, #0]	@ zero_extendqisi2
 3691              	.LVL325:
 3692 0fce 2B78     		ldrb	r3, [r5, #0]	@ zero_extendqisi2
 3693 0fd0 2278     		ldrb	r2, [r4, #0]	@ zero_extendqisi2
 3694 0fd2 CB18     		adds	r3, r1, r3
 3695 0fd4 DBB2     		uxtb	r3, r3
 3696 0fd6 2B70     		strb	r3, [r5, #0]
 3697 0fd8 9B18     		adds	r3, r3, r2
 3698 0fda 2370     		strb	r3, [r4, #0]
 3699 0fdc 1548     		ldr	r0, .L313+12
 3700 0fde FFF7FEFF 		bl	uart_transmit
 3701              	.LVL326:
 3702              	.LBE892:
 3703              	.LBB893:
 3704 0fe2 7178     		ldrb	r1, [r6, #1]	@ zero_extendqisi2
 3705              	.LVL327:
 3706 0fe4 2B78     		ldrb	r3, [r5, #0]	@ zero_extendqisi2
 3707 0fe6 2278     		ldrb	r2, [r4, #0]	@ zero_extendqisi2
 3708 0fe8 CB18     		adds	r3, r1, r3
 3709 0fea DBB2     		uxtb	r3, r3
 3710 0fec 2B70     		strb	r3, [r5, #0]
 3711 0fee 9B18     		adds	r3, r3, r2
 3712 0ff0 2370     		strb	r3, [r4, #0]
 3713 0ff2 1048     		ldr	r0, .L313+12
 3714 0ff4 FFF7FEFF 		bl	uart_transmit
 3715              	.LVL328:
 3716              	.LBE893:
 3717              	.LBB894:
 3718 0ff8 B178     		ldrb	r1, [r6, #2]	@ zero_extendqisi2
 3719              	.LVL329:
 3720 0ffa 2B78     		ldrb	r3, [r5, #0]	@ zero_extendqisi2
 3721 0ffc 2278     		ldrb	r2, [r4, #0]	@ zero_extendqisi2
 3722 0ffe CB18     		adds	r3, r1, r3
 3723 1000 DBB2     		uxtb	r3, r3
 3724 1002 2B70     		strb	r3, [r5, #0]
 3725 1004 9B18     		adds	r3, r3, r2
 3726 1006 2370     		strb	r3, [r4, #0]
 3727 1008 0A48     		ldr	r0, .L313+12
 3728 100a FFF7FEFF 		bl	uart_transmit
 3729              	.LVL330:
 3730              	.LBE894:
 3731              	.LBB895:
 3732 100e F178     		ldrb	r1, [r6, #3]	@ zero_extendqisi2
 3733              	.LVL331:
 3734 1010 2B78     		ldrb	r3, [r5, #0]	@ zero_extendqisi2
 3735 1012 2278     		ldrb	r2, [r4, #0]	@ zero_extendqisi2
 3736 1014 CB18     		adds	r3, r1, r3
 3737 1016 DBB2     		uxtb	r3, r3
 3738 1018 2B70     		strb	r3, [r5, #0]
 3739 101a 9B18     		adds	r3, r3, r2
 3740 101c 2370     		strb	r3, [r4, #0]
 3741 101e 0548     		ldr	r0, .L313+12
 3742 1020 FFF7FEFF 		bl	uart_transmit
 3743              	.LVL332:
 3744              	.LBE895:
 3745              	.LBB896:
 3746 1024 0A4E     		ldr	r6, .L313+40
 3747 1026 6BE1     		b	.L280
 3748              	.L314:
 3749              		.align	2
 3750              	.L313:
 3751 1028 00000000 		.word	downlink_nb_ovrn
 3752 102c 00000000 		.word	.LANCHOR22
 3753 1030 00000000 		.word	nav_in_circle
 3754 1034 00000000 		.word	uart2
 3755 1038 00000000 		.word	downlink_nb_bytes
 3756 103c 00000000 		.word	downlink_nb_msgs
 3757 1040 00000000 		.word	ck_a
 3758 1044 00000000 		.word	ck_b
 3759 1048 00000000 		.word	nav_circle_x
 3760 104c 00000000 		.word	nav_circle_y
 3761 1050 00000000 		.word	nav_circle_radius
 3762              	.L100:
 3763              	.LBE896:
 3764 1054 362B     		cmp	r3, #54
 3765 1056 40F08C81 		bne	.L101
 3766 105a 9C48     		ldr	r0, .L315
 3767 105c 2221     		movs	r1, #34
 3768 105e FFF7FEFF 		bl	uart_check_free_space
 3769 1062 0028     		cmp	r0, #0
 3770 1064 00F08181 		beq	.L103
 3771 1068 994B     		ldr	r3, .L315+4
 3772              	.LBB897:
 3773 106a 9921     		movs	r1, #153
 3774              	.LBE897:
 3775 106c 1A88     		ldrh	r2, [r3, #0]
 3776              	.LBB898:
 3777 106e 9748     		ldr	r0, .L315
 3778              	.LBE898:
 3779 1070 2232     		adds	r2, r2, #34
 3780 1072 1A80     		strh	r2, [r3, #0]	@ movhi
 3781 1074 974B     		ldr	r3, .L315+8
 3782              	.LBB899:
 3783 1076 984D     		ldr	r5, .L315+12
 3784              	.LBE899:
 3785 1078 1A88     		ldrh	r2, [r3, #0]
 3786              	.LBB900:
 3787 107a 984C     		ldr	r4, .L315+16
 3788              	.LBE900:
 3789 107c 0132     		adds	r2, r2, #1
 3790 107e 1A80     		strh	r2, [r3, #0]	@ movhi
 3791              	.LBB901:
 3792 1080 FFF7FEFF 		bl	uart_transmit
 3793 1084 2221     		movs	r1, #34
 3794 1086 9148     		ldr	r0, .L315
 3795 1088 FFF7FEFF 		bl	uart_transmit
 3796              	.LBE901:
 3797 108c 2323     		movs	r3, #35
 3798 108e 2B70     		strb	r3, [r5, #0]
 3799 1090 2233     		adds	r3, r3, #34
 3800 1092 0121     		movs	r1, #1
 3801 1094 2370     		strb	r3, [r4, #0]
 3802 1096 8D48     		ldr	r0, .L315
 3803 1098 FFF7FEFF 		bl	uart_transmit
 3804 109c 2B78     		ldrb	r3, [r5, #0]	@ zero_extendqisi2
 3805 109e 2278     		ldrb	r2, [r4, #0]	@ zero_extendqisi2
 3806 10a0 1033     		adds	r3, r3, #16
 3807 10a2 DBB2     		uxtb	r3, r3
 3808              	.LBB902:
 3809 10a4 8E4E     		ldr	r6, .L315+20
 3810              	.LBE902:
 3811 10a6 2B70     		strb	r3, [r5, #0]
 3812 10a8 9B18     		adds	r3, r3, r2
 3813 10aa 1021     		movs	r1, #16
 3814 10ac 2370     		strb	r3, [r4, #0]
 3815 10ae 8748     		ldr	r0, .L315
 3816 10b0 FFF7FEFF 		bl	uart_transmit
 3817              	.LBB903:
 3818 10b4 3178     		ldrb	r1, [r6, #0]	@ zero_extendqisi2
 3819              	.LVL333:
 3820 10b6 2B78     		ldrb	r3, [r5, #0]	@ zero_extendqisi2
 3821 10b8 2278     		ldrb	r2, [r4, #0]	@ zero_extendqisi2
 3822 10ba CB18     		adds	r3, r1, r3
 3823 10bc DBB2     		uxtb	r3, r3
 3824 10be 2B70     		strb	r3, [r5, #0]
 3825 10c0 9B18     		adds	r3, r3, r2
 3826 10c2 2370     		strb	r3, [r4, #0]
 3827 10c4 8148     		ldr	r0, .L315
 3828 10c6 FFF7FEFF 		bl	uart_transmit
 3829              	.LVL334:
 3830              	.LBE903:
 3831              	.LBB904:
 3832 10ca 7178     		ldrb	r1, [r6, #1]	@ zero_extendqisi2
 3833              	.LVL335:
 3834 10cc 2B78     		ldrb	r3, [r5, #0]	@ zero_extendqisi2
 3835 10ce 2278     		ldrb	r2, [r4, #0]	@ zero_extendqisi2
 3836 10d0 CB18     		adds	r3, r1, r3
 3837 10d2 DBB2     		uxtb	r3, r3
 3838 10d4 2B70     		strb	r3, [r5, #0]
 3839 10d6 9B18     		adds	r3, r3, r2
 3840 10d8 2370     		strb	r3, [r4, #0]
 3841 10da 7C48     		ldr	r0, .L315
 3842 10dc FFF7FEFF 		bl	uart_transmit
 3843              	.LVL336:
 3844              	.LBE904:
 3845              	.LBB905:
 3846 10e0 B178     		ldrb	r1, [r6, #2]	@ zero_extendqisi2
 3847              	.LVL337:
 3848 10e2 2B78     		ldrb	r3, [r5, #0]	@ zero_extendqisi2
 3849 10e4 2278     		ldrb	r2, [r4, #0]	@ zero_extendqisi2
 3850 10e6 CB18     		adds	r3, r1, r3
 3851 10e8 DBB2     		uxtb	r3, r3
 3852 10ea 2B70     		strb	r3, [r5, #0]
 3853 10ec 9B18     		adds	r3, r3, r2
 3854 10ee 2370     		strb	r3, [r4, #0]
 3855 10f0 7648     		ldr	r0, .L315
 3856 10f2 FFF7FEFF 		bl	uart_transmit
 3857              	.LVL338:
 3858              	.LBE905:
 3859              	.LBB906:
 3860 10f6 F178     		ldrb	r1, [r6, #3]	@ zero_extendqisi2
 3861              	.LVL339:
 3862 10f8 2B78     		ldrb	r3, [r5, #0]	@ zero_extendqisi2
 3863 10fa 2278     		ldrb	r2, [r4, #0]	@ zero_extendqisi2
 3864 10fc CB18     		adds	r3, r1, r3
 3865 10fe DBB2     		uxtb	r3, r3
 3866              	.LBE906:
 3867              	.LBB907:
 3868 1100 784E     		ldr	r6, .L315+24
 3869              	.LBE907:
 3870              	.LBB908:
 3871 1102 2B70     		strb	r3, [r5, #0]
 3872 1104 9B18     		adds	r3, r3, r2
 3873 1106 2370     		strb	r3, [r4, #0]
 3874 1108 7048     		ldr	r0, .L315
 3875 110a FFF7FEFF 		bl	uart_transmit
 3876              	.LVL340:
 3877              	.LBE908:
 3878              	.LBB909:
 3879 110e 3178     		ldrb	r1, [r6, #0]	@ zero_extendqisi2
 3880              	.LVL341:
 3881 1110 2B78     		ldrb	r3, [r5, #0]	@ zero_extendqisi2
 3882 1112 2278     		ldrb	r2, [r4, #0]	@ zero_extendqisi2
 3883 1114 CB18     		adds	r3, r1, r3
 3884 1116 DBB2     		uxtb	r3, r3
 3885 1118 2B70     		strb	r3, [r5, #0]
 3886 111a 9B18     		adds	r3, r3, r2
 3887 111c 2370     		strb	r3, [r4, #0]
 3888 111e 6B48     		ldr	r0, .L315
 3889 1120 FFF7FEFF 		bl	uart_transmit
 3890              	.LVL342:
 3891              	.LBE909:
 3892              	.LBB910:
 3893 1124 7178     		ldrb	r1, [r6, #1]	@ zero_extendqisi2
 3894              	.LVL343:
 3895 1126 2B78     		ldrb	r3, [r5, #0]	@ zero_extendqisi2
 3896 1128 2278     		ldrb	r2, [r4, #0]	@ zero_extendqisi2
 3897 112a CB18     		adds	r3, r1, r3
 3898 112c DBB2     		uxtb	r3, r3
 3899 112e 2B70     		strb	r3, [r5, #0]
 3900 1130 9B18     		adds	r3, r3, r2
 3901 1132 2370     		strb	r3, [r4, #0]
 3902 1134 6548     		ldr	r0, .L315
 3903 1136 FFF7FEFF 		bl	uart_transmit
 3904              	.LVL344:
 3905              	.LBE910:
 3906              	.LBB911:
 3907 113a B178     		ldrb	r1, [r6, #2]	@ zero_extendqisi2
 3908              	.LVL345:
 3909 113c 2B78     		ldrb	r3, [r5, #0]	@ zero_extendqisi2
 3910 113e 2278     		ldrb	r2, [r4, #0]	@ zero_extendqisi2
 3911 1140 CB18     		adds	r3, r1, r3
 3912 1142 DBB2     		uxtb	r3, r3
 3913 1144 2B70     		strb	r3, [r5, #0]
 3914 1146 9B18     		adds	r3, r3, r2
 3915 1148 2370     		strb	r3, [r4, #0]
 3916 114a 6048     		ldr	r0, .L315
 3917 114c FFF7FEFF 		bl	uart_transmit
 3918              	.LVL346:
 3919              	.LBE911:
 3920              	.LBB912:
 3921 1150 F178     		ldrb	r1, [r6, #3]	@ zero_extendqisi2
 3922              	.LVL347:
 3923 1152 2B78     		ldrb	r3, [r5, #0]	@ zero_extendqisi2
 3924 1154 2278     		ldrb	r2, [r4, #0]	@ zero_extendqisi2
 3925 1156 CB18     		adds	r3, r1, r3
 3926 1158 DBB2     		uxtb	r3, r3
 3927              	.LBE912:
 3928              	.LBB913:
 3929 115a 634E     		ldr	r6, .L315+28
 3930              	.LBE913:
 3931              	.LBB914:
 3932 115c 2B70     		strb	r3, [r5, #0]
 3933 115e 9B18     		adds	r3, r3, r2
 3934 1160 2370     		strb	r3, [r4, #0]
 3935 1162 5A48     		ldr	r0, .L315
 3936 1164 FFF7FEFF 		bl	uart_transmit
 3937              	.LVL348:
 3938              	.LBE914:
 3939              	.LBB915:
 3940 1168 3178     		ldrb	r1, [r6, #0]	@ zero_extendqisi2
 3941              	.LVL349:
 3942 116a 2B78     		ldrb	r3, [r5, #0]	@ zero_extendqisi2
 3943 116c 2278     		ldrb	r2, [r4, #0]	@ zero_extendqisi2
 3944 116e CB18     		adds	r3, r1, r3
 3945 1170 DBB2     		uxtb	r3, r3
 3946 1172 2B70     		strb	r3, [r5, #0]
 3947 1174 9B18     		adds	r3, r3, r2
 3948 1176 2370     		strb	r3, [r4, #0]
 3949 1178 5448     		ldr	r0, .L315
 3950 117a FFF7FEFF 		bl	uart_transmit
 3951              	.LVL350:
 3952              	.LBE915:
 3953              	.LBB916:
 3954 117e 7178     		ldrb	r1, [r6, #1]	@ zero_extendqisi2
 3955              	.LVL351:
 3956 1180 2B78     		ldrb	r3, [r5, #0]	@ zero_extendqisi2
 3957 1182 2278     		ldrb	r2, [r4, #0]	@ zero_extendqisi2
 3958 1184 CB18     		adds	r3, r1, r3
 3959 1186 DBB2     		uxtb	r3, r3
 3960 1188 2B70     		strb	r3, [r5, #0]
 3961 118a 9B18     		adds	r3, r3, r2
 3962 118c 2370     		strb	r3, [r4, #0]
 3963 118e 4F48     		ldr	r0, .L315
 3964 1190 FFF7FEFF 		bl	uart_transmit
 3965              	.LVL352:
 3966              	.LBE916:
 3967              	.LBB917:
 3968 1194 B178     		ldrb	r1, [r6, #2]	@ zero_extendqisi2
 3969              	.LVL353:
 3970 1196 2B78     		ldrb	r3, [r5, #0]	@ zero_extendqisi2
 3971 1198 2278     		ldrb	r2, [r4, #0]	@ zero_extendqisi2
 3972 119a CB18     		adds	r3, r1, r3
 3973 119c DBB2     		uxtb	r3, r3
 3974 119e 2B70     		strb	r3, [r5, #0]
 3975 11a0 9B18     		adds	r3, r3, r2
 3976 11a2 2370     		strb	r3, [r4, #0]
 3977 11a4 4948     		ldr	r0, .L315
 3978 11a6 FFF7FEFF 		bl	uart_transmit
 3979              	.LVL354:
 3980              	.LBE917:
 3981              	.LBB918:
 3982 11aa F178     		ldrb	r1, [r6, #3]	@ zero_extendqisi2
 3983              	.LVL355:
 3984 11ac 2B78     		ldrb	r3, [r5, #0]	@ zero_extendqisi2
 3985 11ae 2278     		ldrb	r2, [r4, #0]	@ zero_extendqisi2
 3986 11b0 CB18     		adds	r3, r1, r3
 3987 11b2 DBB2     		uxtb	r3, r3
 3988              	.LBE918:
 3989              	.LBB919:
 3990 11b4 4D4E     		ldr	r6, .L315+32
 3991              	.LBE919:
 3992              	.LBB920:
 3993 11b6 2B70     		strb	r3, [r5, #0]
 3994 11b8 9B18     		adds	r3, r3, r2
 3995 11ba 2370     		strb	r3, [r4, #0]
 3996 11bc 4348     		ldr	r0, .L315
 3997 11be FFF7FEFF 		bl	uart_transmit
 3998              	.LVL356:
 3999              	.LBE920:
 4000              	.LBB921:
 4001 11c2 3178     		ldrb	r1, [r6, #0]	@ zero_extendqisi2
 4002              	.LVL357:
 4003 11c4 2B78     		ldrb	r3, [r5, #0]	@ zero_extendqisi2
 4004 11c6 2278     		ldrb	r2, [r4, #0]	@ zero_extendqisi2
 4005 11c8 CB18     		adds	r3, r1, r3
 4006 11ca DBB2     		uxtb	r3, r3
 4007 11cc 2B70     		strb	r3, [r5, #0]
 4008 11ce 9B18     		adds	r3, r3, r2
 4009 11d0 2370     		strb	r3, [r4, #0]
 4010 11d2 3E48     		ldr	r0, .L315
 4011 11d4 FFF7FEFF 		bl	uart_transmit
 4012              	.LVL358:
 4013              	.LBE921:
 4014              	.LBB922:
 4015 11d8 7178     		ldrb	r1, [r6, #1]	@ zero_extendqisi2
 4016              	.LVL359:
 4017 11da 2B78     		ldrb	r3, [r5, #0]	@ zero_extendqisi2
 4018 11dc 2278     		ldrb	r2, [r4, #0]	@ zero_extendqisi2
 4019 11de CB18     		adds	r3, r1, r3
 4020 11e0 DBB2     		uxtb	r3, r3
 4021 11e2 2B70     		strb	r3, [r5, #0]
 4022 11e4 9B18     		adds	r3, r3, r2
 4023 11e6 2370     		strb	r3, [r4, #0]
 4024 11e8 3848     		ldr	r0, .L315
 4025 11ea FFF7FEFF 		bl	uart_transmit
 4026              	.LVL360:
 4027              	.LBE922:
 4028              	.LBB923:
 4029 11ee B178     		ldrb	r1, [r6, #2]	@ zero_extendqisi2
 4030              	.LVL361:
 4031 11f0 2B78     		ldrb	r3, [r5, #0]	@ zero_extendqisi2
 4032 11f2 2278     		ldrb	r2, [r4, #0]	@ zero_extendqisi2
 4033 11f4 CB18     		adds	r3, r1, r3
 4034 11f6 DBB2     		uxtb	r3, r3
 4035 11f8 2B70     		strb	r3, [r5, #0]
 4036 11fa 9B18     		adds	r3, r3, r2
 4037 11fc 2370     		strb	r3, [r4, #0]
 4038 11fe 3348     		ldr	r0, .L315
 4039 1200 FFF7FEFF 		bl	uart_transmit
 4040              	.LVL362:
 4041              	.LBE923:
 4042              	.LBB924:
 4043 1204 F178     		ldrb	r1, [r6, #3]	@ zero_extendqisi2
 4044              	.LVL363:
 4045 1206 2B78     		ldrb	r3, [r5, #0]	@ zero_extendqisi2
 4046 1208 2278     		ldrb	r2, [r4, #0]	@ zero_extendqisi2
 4047 120a CB18     		adds	r3, r1, r3
 4048 120c DBB2     		uxtb	r3, r3
 4049              	.LBE924:
 4050              	.LBB925:
 4051 120e 384E     		ldr	r6, .L315+36
 4052              	.LBE925:
 4053              	.LBB926:
 4054 1210 2B70     		strb	r3, [r5, #0]
 4055 1212 9B18     		adds	r3, r3, r2
 4056 1214 2370     		strb	r3, [r4, #0]
 4057 1216 2D48     		ldr	r0, .L315
 4058 1218 FFF7FEFF 		bl	uart_transmit
 4059              	.LVL364:
 4060              	.LBE926:
 4061              	.LBB927:
 4062 121c 3178     		ldrb	r1, [r6, #0]	@ zero_extendqisi2
 4063              	.LVL365:
 4064 121e 2B78     		ldrb	r3, [r5, #0]	@ zero_extendqisi2
 4065 1220 2278     		ldrb	r2, [r4, #0]	@ zero_extendqisi2
 4066 1222 CB18     		adds	r3, r1, r3
 4067 1224 DBB2     		uxtb	r3, r3
 4068 1226 2B70     		strb	r3, [r5, #0]
 4069 1228 9B18     		adds	r3, r3, r2
 4070 122a 2370     		strb	r3, [r4, #0]
 4071 122c 2748     		ldr	r0, .L315
 4072 122e FFF7FEFF 		bl	uart_transmit
 4073              	.LVL366:
 4074              	.LBE927:
 4075              	.LBB928:
 4076 1232 7178     		ldrb	r1, [r6, #1]	@ zero_extendqisi2
 4077              	.LVL367:
 4078 1234 2B78     		ldrb	r3, [r5, #0]	@ zero_extendqisi2
 4079 1236 2278     		ldrb	r2, [r4, #0]	@ zero_extendqisi2
 4080 1238 CB18     		adds	r3, r1, r3
 4081 123a DBB2     		uxtb	r3, r3
 4082 123c 2B70     		strb	r3, [r5, #0]
 4083 123e 9B18     		adds	r3, r3, r2
 4084 1240 2370     		strb	r3, [r4, #0]
 4085 1242 2248     		ldr	r0, .L315
 4086 1244 FFF7FEFF 		bl	uart_transmit
 4087              	.LVL368:
 4088              	.LBE928:
 4089              	.LBB929:
 4090 1248 B178     		ldrb	r1, [r6, #2]	@ zero_extendqisi2
 4091              	.LVL369:
 4092 124a 2B78     		ldrb	r3, [r5, #0]	@ zero_extendqisi2
 4093 124c 2278     		ldrb	r2, [r4, #0]	@ zero_extendqisi2
 4094 124e CB18     		adds	r3, r1, r3
 4095 1250 DBB2     		uxtb	r3, r3
 4096 1252 2B70     		strb	r3, [r5, #0]
 4097 1254 9B18     		adds	r3, r3, r2
 4098 1256 2370     		strb	r3, [r4, #0]
 4099 1258 1C48     		ldr	r0, .L315
 4100 125a FFF7FEFF 		bl	uart_transmit
 4101              	.LVL370:
 4102              	.LBE929:
 4103              	.LBB930:
 4104 125e F178     		ldrb	r1, [r6, #3]	@ zero_extendqisi2
 4105              	.LVL371:
 4106 1260 2B78     		ldrb	r3, [r5, #0]	@ zero_extendqisi2
 4107 1262 2278     		ldrb	r2, [r4, #0]	@ zero_extendqisi2
 4108 1264 CB18     		adds	r3, r1, r3
 4109 1266 DBB2     		uxtb	r3, r3
 4110              	.LBE930:
 4111              	.LBB931:
 4112 1268 224E     		ldr	r6, .L315+40
 4113              	.LBE931:
 4114              	.LBB932:
 4115 126a 2B70     		strb	r3, [r5, #0]
 4116 126c 9B18     		adds	r3, r3, r2
 4117 126e 2370     		strb	r3, [r4, #0]
 4118 1270 1648     		ldr	r0, .L315
 4119 1272 FFF7FEFF 		bl	uart_transmit
 4120              	.LVL372:
 4121              	.LBE932:
 4122              	.LBB933:
 4123 1276 3178     		ldrb	r1, [r6, #0]	@ zero_extendqisi2
 4124              	.LVL373:
 4125 1278 2B78     		ldrb	r3, [r5, #0]	@ zero_extendqisi2
 4126 127a 2278     		ldrb	r2, [r4, #0]	@ zero_extendqisi2
 4127 127c CB18     		adds	r3, r1, r3
 4128 127e DBB2     		uxtb	r3, r3
 4129 1280 2B70     		strb	r3, [r5, #0]
 4130 1282 9B18     		adds	r3, r3, r2
 4131 1284 2370     		strb	r3, [r4, #0]
 4132 1286 1148     		ldr	r0, .L315
 4133 1288 FFF7FEFF 		bl	uart_transmit
 4134              	.LVL374:
 4135              	.LBE933:
 4136              	.LBB934:
 4137 128c 7178     		ldrb	r1, [r6, #1]	@ zero_extendqisi2
 4138              	.LVL375:
 4139 128e 2B78     		ldrb	r3, [r5, #0]	@ zero_extendqisi2
 4140 1290 2278     		ldrb	r2, [r4, #0]	@ zero_extendqisi2
 4141 1292 CB18     		adds	r3, r1, r3
 4142 1294 DBB2     		uxtb	r3, r3
 4143 1296 2B70     		strb	r3, [r5, #0]
 4144 1298 9B18     		adds	r3, r3, r2
 4145 129a 2370     		strb	r3, [r4, #0]
 4146 129c 0B48     		ldr	r0, .L315
 4147 129e FFF7FEFF 		bl	uart_transmit
 4148              	.LVL376:
 4149              	.LBE934:
 4150              	.LBB935:
 4151 12a2 B178     		ldrb	r1, [r6, #2]	@ zero_extendqisi2
 4152              	.LVL377:
 4153 12a4 2B78     		ldrb	r3, [r5, #0]	@ zero_extendqisi2
 4154 12a6 2278     		ldrb	r2, [r4, #0]	@ zero_extendqisi2
 4155 12a8 CB18     		adds	r3, r1, r3
 4156 12aa DBB2     		uxtb	r3, r3
 4157 12ac 2B70     		strb	r3, [r5, #0]
 4158 12ae 9B18     		adds	r3, r3, r2
 4159 12b0 2370     		strb	r3, [r4, #0]
 4160 12b2 0648     		ldr	r0, .L315
 4161 12b4 FFF7FEFF 		bl	uart_transmit
 4162              	.LVL378:
 4163              	.LBE935:
 4164              	.LBB936:
 4165 12b8 F178     		ldrb	r1, [r6, #3]	@ zero_extendqisi2
 4166              	.LVL379:
 4167 12ba 2B78     		ldrb	r3, [r5, #0]	@ zero_extendqisi2
 4168 12bc 2278     		ldrb	r2, [r4, #0]	@ zero_extendqisi2
 4169 12be CB18     		adds	r3, r1, r3
 4170 12c0 DBB2     		uxtb	r3, r3
 4171 12c2 2B70     		strb	r3, [r5, #0]
 4172 12c4 9B18     		adds	r3, r3, r2
 4173 12c6 2370     		strb	r3, [r4, #0]
 4174 12c8 16E0     		b	.L316
 4175              	.L317:
 4176 12ca 00BF     		.align	2
 4177              	.L315:
 4178 12cc 00000000 		.word	uart2
 4179 12d0 00000000 		.word	downlink_nb_bytes
 4180 12d4 00000000 		.word	downlink_nb_msgs
 4181 12d8 00000000 		.word	ck_a
 4182 12dc 00000000 		.word	ck_b
 4183 12e0 00000000 		.word	h_ctl_roll_setpoint
 4184 12e4 00000000 		.word	h_ctl_pitch_loop_setpoint
 4185 12e8 00000000 		.word	h_ctl_course_setpoint
 4186 12ec 00000000 		.word	desired_x
 4187 12f0 00000000 		.word	desired_y
 4188 12f4 00000000 		.word	v_ctl_altitude_setpoint
 4189              	.L316:
 4190 12f8 9448     		ldr	r0, .L318
 4191 12fa FFF7FEFF 		bl	uart_transmit
 4192              	.LVL380:
 4193              	.LBE936:
 4194              	.LBB937:
 4195 12fe 944E     		ldr	r6, .L318+4
 4196              	.L280:
 4197 1300 3178     		ldrb	r1, [r6, #0]	@ zero_extendqisi2
 4198              	.LVL381:
 4199 1302 2B78     		ldrb	r3, [r5, #0]	@ zero_extendqisi2
 4200 1304 2278     		ldrb	r2, [r4, #0]	@ zero_extendqisi2
 4201 1306 CB18     		adds	r3, r1, r3
 4202 1308 DBB2     		uxtb	r3, r3
 4203 130a 2B70     		strb	r3, [r5, #0]
 4204 130c 9B18     		adds	r3, r3, r2
 4205 130e 2370     		strb	r3, [r4, #0]
 4206 1310 8E48     		ldr	r0, .L318
 4207 1312 FFF7FEFF 		bl	uart_transmit
 4208              	.LVL382:
 4209              	.LBE937:
 4210              	.LBB938:
 4211 1316 7178     		ldrb	r1, [r6, #1]	@ zero_extendqisi2
 4212              	.LVL383:
 4213 1318 2B78     		ldrb	r3, [r5, #0]	@ zero_extendqisi2
 4214 131a 2278     		ldrb	r2, [r4, #0]	@ zero_extendqisi2
 4215 131c CB18     		adds	r3, r1, r3
 4216 131e DBB2     		uxtb	r3, r3
 4217 1320 2B70     		strb	r3, [r5, #0]
 4218 1322 9B18     		adds	r3, r3, r2
 4219 1324 2370     		strb	r3, [r4, #0]
 4220 1326 8948     		ldr	r0, .L318
 4221 1328 FFF7FEFF 		bl	uart_transmit
 4222              	.LVL384:
 4223              	.LBE938:
 4224              	.LBB939:
 4225 132c B178     		ldrb	r1, [r6, #2]	@ zero_extendqisi2
 4226              	.LVL385:
 4227 132e 2B78     		ldrb	r3, [r5, #0]	@ zero_extendqisi2
 4228 1330 2278     		ldrb	r2, [r4, #0]	@ zero_extendqisi2
 4229 1332 CB18     		adds	r3, r1, r3
 4230 1334 DBB2     		uxtb	r3, r3
 4231 1336 2B70     		strb	r3, [r5, #0]
 4232 1338 9B18     		adds	r3, r3, r2
 4233 133a 2370     		strb	r3, [r4, #0]
 4234 133c 8348     		ldr	r0, .L318
 4235 133e FFF7FEFF 		bl	uart_transmit
 4236              	.LVL386:
 4237              	.LBE939:
 4238              	.LBB940:
 4239 1342 F178     		ldrb	r1, [r6, #3]	@ zero_extendqisi2
 4240              	.LVL387:
 4241 1344 2B78     		ldrb	r3, [r5, #0]	@ zero_extendqisi2
 4242 1346 2278     		ldrb	r2, [r4, #0]	@ zero_extendqisi2
 4243 1348 CB18     		adds	r3, r1, r3
 4244 134a DBB2     		uxtb	r3, r3
 4245 134c 2B70     		strb	r3, [r5, #0]
 4246 134e 9B18     		adds	r3, r3, r2
 4247 1350 2370     		strb	r3, [r4, #0]
 4248 1352 7E48     		ldr	r0, .L318
 4249 1354 FFF7FEFF 		bl	uart_transmit
 4250              	.LVL388:
 4251              	.LBE940:
 4252 1358 2978     		ldrb	r1, [r5, #0]	@ zero_extendqisi2
 4253 135a 7C48     		ldr	r0, .L318
 4254 135c FFF7FEFF 		bl	uart_transmit
 4255 1360 7A48     		ldr	r0, .L318
 4256 1362 2178     		ldrb	r1, [r4, #0]	@ zero_extendqisi2
 4257 1364 FFF7FEFF 		bl	uart_transmit
 4258 1368 03E0     		b	.L101
 4259              	.L103:
 4260 136a 7A4B     		ldr	r3, .L318+8
 4261 136c 1A78     		ldrb	r2, [r3, #0]	@ zero_extendqisi2
 4262 136e 0132     		adds	r2, r2, #1
 4263 1370 1A70     		strb	r2, [r3, #0]
 4264              	.L101:
 4265 1372 794B     		ldr	r3, .L318+12
 4266 1374 1B78     		ldrb	r3, [r3, #0]	@ zero_extendqisi2
 4267 1376 3C2B     		cmp	r3, #60
 4268 1378 40F00C81 		bne	.L104
 4269              	.LBB941:
 4270 137c 774B     		ldr	r3, .L318+16
 4271 137e 1A68     		ldr	r2, [r3, #0]
 4272 1380 0A23     		movs	r3, #10
 4273 1382 92FBF3F3 		sdiv	r3, r2, r3
 4274 1386 ADF80E30 		strh	r3, [sp, #14]	@ movhi
 4275              	.LVL389:
 4276              	.LBB942:
 4277 138a 754B     		ldr	r3, .L318+20
 4278 138c 1868     		ldr	r0, [r3, #0]	@ float
 4279 138e FFF7FEFF 		bl	__aeabi_f2iz
 4280 1392 1421     		movs	r1, #20
 4281 1394 ADF80C00 		strh	r0, [sp, #12]	@ movhi
 4282              	.LVL390:
 4283 1398 6C48     		ldr	r0, .L318
 4284 139a FFF7FEFF 		bl	uart_check_free_space
 4285 139e 0028     		cmp	r0, #0
 4286 13a0 00F0F480 		beq	.L105
 4287 13a4 6F4B     		ldr	r3, .L318+24
 4288              	.LBB943:
 4289 13a6 9921     		movs	r1, #153
 4290              	.LBE943:
 4291 13a8 1A88     		ldrh	r2, [r3, #0]
 4292              	.LBB944:
 4293 13aa 6848     		ldr	r0, .L318
 4294              	.LBE944:
 4295 13ac 1432     		adds	r2, r2, #20
 4296 13ae 1A80     		strh	r2, [r3, #0]	@ movhi
 4297 13b0 6D4B     		ldr	r3, .L318+28
 4298              	.LBB945:
 4299 13b2 6E4D     		ldr	r5, .L318+32
 4300              	.LBE945:
 4301 13b4 1A88     		ldrh	r2, [r3, #0]
 4302              	.LBB946:
 4303 13b6 6E4C     		ldr	r4, .L318+36
 4304              	.LBE946:
 4305 13b8 0132     		adds	r2, r2, #1
 4306 13ba 1A80     		strh	r2, [r3, #0]	@ movhi
 4307              	.LBB947:
 4308 13bc FFF7FEFF 		bl	uart_transmit
 4309 13c0 1421     		movs	r1, #20
 4310 13c2 6248     		ldr	r0, .L318
 4311 13c4 FFF7FEFF 		bl	uart_transmit
 4312              	.LBE947:
 4313 13c8 1523     		movs	r3, #21
 4314 13ca 2B70     		strb	r3, [r5, #0]
 4315 13cc 1433     		adds	r3, r3, #20
 4316 13ce 2370     		strb	r3, [r4, #0]
 4317 13d0 0121     		movs	r1, #1
 4318 13d2 5E48     		ldr	r0, .L318
 4319 13d4 FFF7FEFF 		bl	uart_transmit
 4320 13d8 2B78     		ldrb	r3, [r5, #0]	@ zero_extendqisi2
 4321 13da 2278     		ldrb	r2, [r4, #0]	@ zero_extendqisi2
 4322 13dc 0C33     		adds	r3, r3, #12
 4323 13de DBB2     		uxtb	r3, r3
 4324 13e0 2B70     		strb	r3, [r5, #0]
 4325              	.LBB948:
 4326 13e2 644E     		ldr	r6, .L318+40
 4327              	.LBE948:
 4328 13e4 9B18     		adds	r3, r3, r2
 4329 13e6 2370     		strb	r3, [r4, #0]
 4330 13e8 0C21     		movs	r1, #12
 4331 13ea 5848     		ldr	r0, .L318
 4332 13ec FFF7FEFF 		bl	uart_transmit
 4333              	.LBB949:
 4334 13f0 3178     		ldrb	r1, [r6, #0]	@ zero_extendqisi2
 4335              	.LVL391:
 4336 13f2 2B78     		ldrb	r3, [r5, #0]	@ zero_extendqisi2
 4337 13f4 2278     		ldrb	r2, [r4, #0]	@ zero_extendqisi2
 4338 13f6 CB18     		adds	r3, r1, r3
 4339 13f8 DBB2     		uxtb	r3, r3
 4340 13fa 2B70     		strb	r3, [r5, #0]
 4341 13fc 9B18     		adds	r3, r3, r2
 4342 13fe 2370     		strb	r3, [r4, #0]
 4343 1400 5248     		ldr	r0, .L318
 4344 1402 FFF7FEFF 		bl	uart_transmit
 4345              	.LVL392:
 4346              	.LBE949:
 4347              	.LBB950:
 4348 1406 7178     		ldrb	r1, [r6, #1]	@ zero_extendqisi2
 4349              	.LVL393:
 4350 1408 2B78     		ldrb	r3, [r5, #0]	@ zero_extendqisi2
 4351 140a 2278     		ldrb	r2, [r4, #0]	@ zero_extendqisi2
 4352 140c CB18     		adds	r3, r1, r3
 4353 140e DBB2     		uxtb	r3, r3
 4354 1410 2B70     		strb	r3, [r5, #0]
 4355 1412 9B18     		adds	r3, r3, r2
 4356 1414 2370     		strb	r3, [r4, #0]
 4357 1416 4D48     		ldr	r0, .L318
 4358 1418 FFF7FEFF 		bl	uart_transmit
 4359              	.LVL394:
 4360              	.LBE950:
 4361              	.LBB951:
 4362 141c 564B     		ldr	r3, .L318+44
 4363 141e 2278     		ldrb	r2, [r4, #0]	@ zero_extendqisi2
 4364 1420 1978     		ldrb	r1, [r3, #0]	@ zero_extendqisi2
 4365              	.LVL395:
 4366 1422 2B78     		ldrb	r3, [r5, #0]	@ zero_extendqisi2
 4367 1424 4948     		ldr	r0, .L318
 4368 1426 CB18     		adds	r3, r1, r3
 4369 1428 DBB2     		uxtb	r3, r3
 4370 142a 2B70     		strb	r3, [r5, #0]
 4371 142c 9B18     		adds	r3, r3, r2
 4372 142e 2370     		strb	r3, [r4, #0]
 4373 1430 FFF7FEFF 		bl	uart_transmit
 4374              	.LVL396:
 4375              	.LBE951:
 4376              	.LBB952:
 4377 1434 9DF80E10 		ldrb	r1, [sp, #14]	@ zero_extendqisi2
 4378              	.LVL397:
 4379 1438 2B78     		ldrb	r3, [r5, #0]	@ zero_extendqisi2
 4380 143a 2278     		ldrb	r2, [r4, #0]	@ zero_extendqisi2
 4381 143c CB18     		adds	r3, r1, r3
 4382 143e DBB2     		uxtb	r3, r3
 4383 1440 2B70     		strb	r3, [r5, #0]
 4384 1442 9B18     		adds	r3, r3, r2
 4385 1444 2370     		strb	r3, [r4, #0]
 4386 1446 4148     		ldr	r0, .L318
 4387 1448 FFF7FEFF 		bl	uart_transmit
 4388              	.LVL398:
 4389              	.LBE952:
 4390              	.LBB953:
 4391 144c 0DF10E03 		add	r3, sp, #14
 4392 1450 5978     		ldrb	r1, [r3, #1]	@ zero_extendqisi2
 4393              	.LVL399:
 4394 1452 2B78     		ldrb	r3, [r5, #0]	@ zero_extendqisi2
 4395 1454 2278     		ldrb	r2, [r4, #0]	@ zero_extendqisi2
 4396 1456 CB18     		adds	r3, r1, r3
 4397 1458 DBB2     		uxtb	r3, r3
 4398 145a 2B70     		strb	r3, [r5, #0]
 4399              	.LBE953:
 4400              	.LBB954:
 4401 145c 474E     		ldr	r6, .L318+48
 4402              	.LBE954:
 4403              	.LBB955:
 4404 145e 9B18     		adds	r3, r3, r2
 4405 1460 2370     		strb	r3, [r4, #0]
 4406 1462 3A48     		ldr	r0, .L318
 4407 1464 FFF7FEFF 		bl	uart_transmit
 4408              	.LVL400:
 4409              	.LBE955:
 4410              	.LBB956:
 4411 1468 3178     		ldrb	r1, [r6, #0]	@ zero_extendqisi2
 4412              	.LVL401:
 4413 146a 2B78     		ldrb	r3, [r5, #0]	@ zero_extendqisi2
 4414 146c 2278     		ldrb	r2, [r4, #0]	@ zero_extendqisi2
 4415 146e CB18     		adds	r3, r1, r3
 4416 1470 DBB2     		uxtb	r3, r3
 4417 1472 2B70     		strb	r3, [r5, #0]
 4418 1474 9B18     		adds	r3, r3, r2
 4419 1476 2370     		strb	r3, [r4, #0]
 4420 1478 3448     		ldr	r0, .L318
 4421 147a FFF7FEFF 		bl	uart_transmit
 4422              	.LVL402:
 4423              	.LBE956:
 4424              	.LBB957:
 4425 147e 7178     		ldrb	r1, [r6, #1]	@ zero_extendqisi2
 4426              	.LVL403:
 4427 1480 2B78     		ldrb	r3, [r5, #0]	@ zero_extendqisi2
 4428 1482 2278     		ldrb	r2, [r4, #0]	@ zero_extendqisi2
 4429 1484 CB18     		adds	r3, r1, r3
 4430 1486 DBB2     		uxtb	r3, r3
 4431 1488 2B70     		strb	r3, [r5, #0]
 4432 148a 9B18     		adds	r3, r3, r2
 4433 148c 2370     		strb	r3, [r4, #0]
 4434 148e 2F48     		ldr	r0, .L318
 4435 1490 FFF7FEFF 		bl	uart_transmit
 4436              	.LVL404:
 4437              	.LBE957:
 4438              	.LBB958:
 4439 1494 3A4B     		ldr	r3, .L318+52
 4440 1496 2278     		ldrb	r2, [r4, #0]	@ zero_extendqisi2
 4441 1498 1978     		ldrb	r1, [r3, #0]	@ zero_extendqisi2
 4442              	.LVL405:
 4443 149a 2B78     		ldrb	r3, [r5, #0]	@ zero_extendqisi2
 4444              	.LBE958:
 4445              	.LBB959:
 4446 149c 394E     		ldr	r6, .L318+56
 4447              	.LBE959:
 4448              	.LBB960:
 4449 149e CB18     		adds	r3, r1, r3
 4450 14a0 DBB2     		uxtb	r3, r3
 4451 14a2 2B70     		strb	r3, [r5, #0]
 4452 14a4 9B18     		adds	r3, r3, r2
 4453 14a6 2370     		strb	r3, [r4, #0]
 4454 14a8 2848     		ldr	r0, .L318
 4455 14aa FFF7FEFF 		bl	uart_transmit
 4456              	.LVL406:
 4457              	.LBE960:
 4458              	.LBB961:
 4459 14ae 3178     		ldrb	r1, [r6, #0]	@ zero_extendqisi2
 4460              	.LVL407:
 4461 14b0 2B78     		ldrb	r3, [r5, #0]	@ zero_extendqisi2
 4462 14b2 2278     		ldrb	r2, [r4, #0]	@ zero_extendqisi2
 4463 14b4 CB18     		adds	r3, r1, r3
 4464 14b6 DBB2     		uxtb	r3, r3
 4465 14b8 2B70     		strb	r3, [r5, #0]
 4466 14ba 9B18     		adds	r3, r3, r2
 4467 14bc 2370     		strb	r3, [r4, #0]
 4468 14be 2348     		ldr	r0, .L318
 4469 14c0 FFF7FEFF 		bl	uart_transmit
 4470              	.LVL408:
 4471              	.LBE961:
 4472              	.LBB962:
 4473 14c4 7178     		ldrb	r1, [r6, #1]	@ zero_extendqisi2
 4474              	.LVL409:
 4475 14c6 2B78     		ldrb	r3, [r5, #0]	@ zero_extendqisi2
 4476 14c8 2278     		ldrb	r2, [r4, #0]	@ zero_extendqisi2
 4477 14ca CB18     		adds	r3, r1, r3
 4478 14cc DBB2     		uxtb	r3, r3
 4479 14ce 2B70     		strb	r3, [r5, #0]
 4480              	.LBE962:
 4481              	.LBB963:
 4482 14d0 2D4E     		ldr	r6, .L318+60
 4483              	.LBE963:
 4484              	.LBB964:
 4485 14d2 9B18     		adds	r3, r3, r2
 4486 14d4 2370     		strb	r3, [r4, #0]
 4487 14d6 1D48     		ldr	r0, .L318
 4488 14d8 FFF7FEFF 		bl	uart_transmit
 4489              	.LVL410:
 4490              	.LBE964:
 4491              	.LBB965:
 4492 14dc 3178     		ldrb	r1, [r6, #0]	@ zero_extendqisi2
 4493              	.LVL411:
 4494 14de 2B78     		ldrb	r3, [r5, #0]	@ zero_extendqisi2
 4495 14e0 2278     		ldrb	r2, [r4, #0]	@ zero_extendqisi2
 4496 14e2 CB18     		adds	r3, r1, r3
 4497 14e4 DBB2     		uxtb	r3, r3
 4498 14e6 2B70     		strb	r3, [r5, #0]
 4499 14e8 9B18     		adds	r3, r3, r2
 4500 14ea 2370     		strb	r3, [r4, #0]
 4501 14ec 1748     		ldr	r0, .L318
 4502 14ee FFF7FEFF 		bl	uart_transmit
 4503              	.LVL412:
 4504              	.LBE965:
 4505              	.LBB966:
 4506 14f2 7178     		ldrb	r1, [r6, #1]	@ zero_extendqisi2
 4507              	.LVL413:
 4508 14f4 2B78     		ldrb	r3, [r5, #0]	@ zero_extendqisi2
 4509 14f6 2278     		ldrb	r2, [r4, #0]	@ zero_extendqisi2
 4510 14f8 CB18     		adds	r3, r1, r3
 4511 14fa DBB2     		uxtb	r3, r3
 4512 14fc 2B70     		strb	r3, [r5, #0]
 4513 14fe 9B18     		adds	r3, r3, r2
 4514 1500 2370     		strb	r3, [r4, #0]
 4515 1502 1248     		ldr	r0, .L318
 4516 1504 FFF7FEFF 		bl	uart_transmit
 4517              	.LVL414:
 4518              	.LBE966:
 4519              	.LBB967:
 4520 1508 9DF80C10 		ldrb	r1, [sp, #12]	@ zero_extendqisi2
 4521              	.LVL415:
 4522 150c 2B78     		ldrb	r3, [r5, #0]	@ zero_extendqisi2
 4523 150e 2278     		ldrb	r2, [r4, #0]	@ zero_extendqisi2
 4524 1510 CB18     		adds	r3, r1, r3
 4525 1512 DBB2     		uxtb	r3, r3
 4526 1514 2B70     		strb	r3, [r5, #0]
 4527 1516 9B18     		adds	r3, r3, r2
 4528 1518 2370     		strb	r3, [r4, #0]
 4529 151a 0C48     		ldr	r0, .L318
 4530 151c FFF7FEFF 		bl	uart_transmit
 4531              	.LVL416:
 4532              	.LBE967:
 4533              	.LBB968:
 4534 1520 03AB     		add	r3, sp, #12
 4535 1522 5978     		ldrb	r1, [r3, #1]	@ zero_extendqisi2
 4536              	.LVL417:
 4537 1524 2B78     		ldrb	r3, [r5, #0]	@ zero_extendqisi2
 4538 1526 2278     		ldrb	r2, [r4, #0]	@ zero_extendqisi2
 4539 1528 CB18     		adds	r3, r1, r3
 4540 152a DBB2     		uxtb	r3, r3
 4541 152c 2B70     		strb	r3, [r5, #0]
 4542 152e 9B18     		adds	r3, r3, r2
 4543 1530 2370     		strb	r3, [r4, #0]
 4544 1532 0648     		ldr	r0, .L318
 4545 1534 FFF7FEFF 		bl	uart_transmit
 4546              	.LVL418:
 4547              	.LBE968:
 4548 1538 2978     		ldrb	r1, [r5, #0]	@ zero_extendqisi2
 4549 153a 0448     		ldr	r0, .L318
 4550 153c FFF7FEFF 		bl	uart_transmit
 4551 1540 0248     		ldr	r0, .L318
 4552 1542 2178     		ldrb	r1, [r4, #0]	@ zero_extendqisi2
 4553 1544 FFF7FEFF 		bl	uart_transmit
 4554 1548 24E0     		b	.L104
 4555              	.L319:
 4556 154a 00BF     		.align	2
 4557              	.L318:
 4558 154c 00000000 		.word	uart2
 4559 1550 00000000 		.word	v_ctl_climb_setpoint
 4560 1554 00000000 		.word	downlink_nb_ovrn
 4561 1558 00000000 		.word	.LANCHOR23
 4562 155c 00000000 		.word	.LANCHOR11
 4563 1560 00000000 		.word	.LANCHOR10
 4564 1564 00000000 		.word	downlink_nb_bytes
 4565 1568 00000000 		.word	downlink_nb_msgs
 4566 156c 00000000 		.word	ck_a
 4567 1570 00000000 		.word	ck_b
 4568 1574 00000000 		.word	v_ctl_throttle_slewed
 4569 1578 00000000 		.word	.LANCHOR8
 4570 157c 00000000 		.word	estimator_flight_time
 4571 1580 00000000 		.word	.LANCHOR9
 4572 1584 00000000 		.word	block_time
 4573 1588 00000000 		.word	stage_time
 4574              	.L105:
 4575 158c 924B     		ldr	r3, .L320
 4576 158e 1A78     		ldrb	r2, [r3, #0]	@ zero_extendqisi2
 4577 1590 0132     		adds	r2, r2, #1
 4578 1592 1A70     		strb	r2, [r3, #0]
 4579              	.L104:
 4580              	.LBE942:
 4581              	.LBE941:
 4582 1594 914B     		ldr	r3, .L320+4
 4583 1596 1B78     		ldrb	r3, [r3, #0]	@ zero_extendqisi2
 4584 1598 062B     		cmp	r3, #6
 4585 159a 40F0F280 		bne	.L106
 4586 159e 904B     		ldr	r3, .L320+8
 4587 15a0 1B78     		ldrb	r3, [r3, #0]	@ zero_extendqisi2
 4588 15a2 002B     		cmp	r3, #0
 4589 15a4 00F0ED80 		beq	.L106
 4590 15a8 8E48     		ldr	r0, .L320+12
 4591 15aa 1621     		movs	r1, #22
 4592 15ac FFF7FEFF 		bl	uart_check_free_space
 4593 15b0 0028     		cmp	r0, #0
 4594 15b2 00F0E280 		beq	.L107
 4595 15b6 8C4B     		ldr	r3, .L320+16
 4596              	.LBB969:
 4597 15b8 9921     		movs	r1, #153
 4598              	.LBE969:
 4599 15ba 1A88     		ldrh	r2, [r3, #0]
 4600              	.LBB970:
 4601 15bc 8948     		ldr	r0, .L320+12
 4602              	.LBE970:
 4603 15be 1632     		adds	r2, r2, #22
 4604 15c0 1A80     		strh	r2, [r3, #0]	@ movhi
 4605 15c2 8A4B     		ldr	r3, .L320+20
 4606              	.LBB971:
 4607 15c4 8A4D     		ldr	r5, .L320+24
 4608              	.LBE971:
 4609 15c6 1A88     		ldrh	r2, [r3, #0]
 4610              	.LBB972:
 4611 15c8 8A4C     		ldr	r4, .L320+28
 4612              	.LBE972:
 4613 15ca 0132     		adds	r2, r2, #1
 4614 15cc 1A80     		strh	r2, [r3, #0]	@ movhi
 4615              	.LBB973:
 4616 15ce FFF7FEFF 		bl	uart_transmit
 4617 15d2 1621     		movs	r1, #22
 4618 15d4 8348     		ldr	r0, .L320+12
 4619 15d6 FFF7FEFF 		bl	uart_transmit
 4620              	.LBE973:
 4621 15da 1723     		movs	r3, #23
 4622 15dc 2B70     		strb	r3, [r5, #0]
 4623 15de 1633     		adds	r3, r3, #22
 4624 15e0 2370     		strb	r3, [r4, #0]
 4625 15e2 0121     		movs	r1, #1
 4626 15e4 7F48     		ldr	r0, .L320+12
 4627 15e6 FFF7FEFF 		bl	uart_transmit
 4628 15ea 2B78     		ldrb	r3, [r5, #0]	@ zero_extendqisi2
 4629 15ec 2278     		ldrb	r2, [r4, #0]	@ zero_extendqisi2
 4630 15ee 1633     		adds	r3, r3, #22
 4631 15f0 DBB2     		uxtb	r3, r3
 4632              	.LBB974:
 4633 15f2 814E     		ldr	r6, .L320+32
 4634              	.LBE974:
 4635 15f4 2B70     		strb	r3, [r5, #0]
 4636 15f6 9B18     		adds	r3, r3, r2
 4637 15f8 2370     		strb	r3, [r4, #0]
 4638 15fa 1621     		movs	r1, #22
 4639 15fc 7948     		ldr	r0, .L320+12
 4640 15fe FFF7FEFF 		bl	uart_transmit
 4641              	.LBB975:
 4642 1602 3178     		ldrb	r1, [r6, #0]	@ zero_extendqisi2
 4643              	.LVL419:
 4644 1604 2B78     		ldrb	r3, [r5, #0]	@ zero_extendqisi2
 4645 1606 2278     		ldrb	r2, [r4, #0]	@ zero_extendqisi2
 4646 1608 CB18     		adds	r3, r1, r3
 4647 160a DBB2     		uxtb	r3, r3
 4648 160c 2B70     		strb	r3, [r5, #0]
 4649 160e 9B18     		adds	r3, r3, r2
 4650 1610 2370     		strb	r3, [r4, #0]
 4651 1612 7448     		ldr	r0, .L320+12
 4652 1614 FFF7FEFF 		bl	uart_transmit
 4653              	.LVL420:
 4654              	.LBE975:
 4655              	.LBB976:
 4656 1618 7178     		ldrb	r1, [r6, #1]	@ zero_extendqisi2
 4657              	.LVL421:
 4658 161a 2B78     		ldrb	r3, [r5, #0]	@ zero_extendqisi2
 4659 161c 2278     		ldrb	r2, [r4, #0]	@ zero_extendqisi2
 4660 161e CB18     		adds	r3, r1, r3
 4661 1620 DBB2     		uxtb	r3, r3
 4662 1622 2B70     		strb	r3, [r5, #0]
 4663 1624 9B18     		adds	r3, r3, r2
 4664 1626 2370     		strb	r3, [r4, #0]
 4665 1628 6E48     		ldr	r0, .L320+12
 4666 162a FFF7FEFF 		bl	uart_transmit
 4667              	.LVL422:
 4668              	.LBE976:
 4669              	.LBB977:
 4670 162e B178     		ldrb	r1, [r6, #2]	@ zero_extendqisi2
 4671              	.LVL423:
 4672 1630 2B78     		ldrb	r3, [r5, #0]	@ zero_extendqisi2
 4673 1632 2278     		ldrb	r2, [r4, #0]	@ zero_extendqisi2
 4674 1634 CB18     		adds	r3, r1, r3
 4675 1636 DBB2     		uxtb	r3, r3
 4676 1638 2B70     		strb	r3, [r5, #0]
 4677 163a 9B18     		adds	r3, r3, r2
 4678 163c 2370     		strb	r3, [r4, #0]
 4679 163e 6948     		ldr	r0, .L320+12
 4680 1640 FFF7FEFF 		bl	uart_transmit
 4681              	.LVL424:
 4682              	.LBE977:
 4683              	.LBB978:
 4684 1644 F178     		ldrb	r1, [r6, #3]	@ zero_extendqisi2
 4685              	.LVL425:
 4686 1646 2B78     		ldrb	r3, [r5, #0]	@ zero_extendqisi2
 4687 1648 2278     		ldrb	r2, [r4, #0]	@ zero_extendqisi2
 4688 164a CB18     		adds	r3, r1, r3
 4689 164c DBB2     		uxtb	r3, r3
 4690              	.LBE978:
 4691              	.LBB979:
 4692 164e 6B4E     		ldr	r6, .L320+36
 4693              	.LBE979:
 4694              	.LBB980:
 4695 1650 2B70     		strb	r3, [r5, #0]
 4696 1652 9B18     		adds	r3, r3, r2
 4697 1654 2370     		strb	r3, [r4, #0]
 4698 1656 6348     		ldr	r0, .L320+12
 4699 1658 FFF7FEFF 		bl	uart_transmit
 4700              	.LVL426:
 4701              	.LBE980:
 4702              	.LBB981:
 4703 165c 3178     		ldrb	r1, [r6, #0]	@ zero_extendqisi2
 4704              	.LVL427:
 4705 165e 2B78     		ldrb	r3, [r5, #0]	@ zero_extendqisi2
 4706 1660 2278     		ldrb	r2, [r4, #0]	@ zero_extendqisi2
 4707 1662 CB18     		adds	r3, r1, r3
 4708 1664 DBB2     		uxtb	r3, r3
 4709 1666 2B70     		strb	r3, [r5, #0]
 4710 1668 9B18     		adds	r3, r3, r2
 4711 166a 2370     		strb	r3, [r4, #0]
 4712 166c 5D48     		ldr	r0, .L320+12
 4713 166e FFF7FEFF 		bl	uart_transmit
 4714              	.LVL428:
 4715              	.LBE981:
 4716              	.LBB982:
 4717 1672 7178     		ldrb	r1, [r6, #1]	@ zero_extendqisi2
 4718              	.LVL429:
 4719 1674 2B78     		ldrb	r3, [r5, #0]	@ zero_extendqisi2
 4720 1676 2278     		ldrb	r2, [r4, #0]	@ zero_extendqisi2
 4721 1678 CB18     		adds	r3, r1, r3
 4722 167a DBB2     		uxtb	r3, r3
 4723 167c 2B70     		strb	r3, [r5, #0]
 4724 167e 9B18     		adds	r3, r3, r2
 4725 1680 2370     		strb	r3, [r4, #0]
 4726 1682 5848     		ldr	r0, .L320+12
 4727 1684 FFF7FEFF 		bl	uart_transmit
 4728              	.LVL430:
 4729              	.LBE982:
 4730              	.LBB983:
 4731 1688 B178     		ldrb	r1, [r6, #2]	@ zero_extendqisi2
 4732              	.LVL431:
 4733 168a 2B78     		ldrb	r3, [r5, #0]	@ zero_extendqisi2
 4734 168c 2278     		ldrb	r2, [r4, #0]	@ zero_extendqisi2
 4735 168e CB18     		adds	r3, r1, r3
 4736 1690 DBB2     		uxtb	r3, r3
 4737 1692 2B70     		strb	r3, [r5, #0]
 4738 1694 9B18     		adds	r3, r3, r2
 4739 1696 2370     		strb	r3, [r4, #0]
 4740 1698 5248     		ldr	r0, .L320+12
 4741 169a FFF7FEFF 		bl	uart_transmit
 4742              	.LVL432:
 4743              	.LBE983:
 4744              	.LBB984:
 4745 169e F178     		ldrb	r1, [r6, #3]	@ zero_extendqisi2
 4746              	.LVL433:
 4747 16a0 2B78     		ldrb	r3, [r5, #0]	@ zero_extendqisi2
 4748 16a2 2278     		ldrb	r2, [r4, #0]	@ zero_extendqisi2
 4749 16a4 CB18     		adds	r3, r1, r3
 4750 16a6 DBB2     		uxtb	r3, r3
 4751              	.LBE984:
 4752              	.LBB985:
 4753 16a8 554E     		ldr	r6, .L320+40
 4754              	.LBE985:
 4755              	.LBB986:
 4756 16aa 2B70     		strb	r3, [r5, #0]
 4757 16ac 9B18     		adds	r3, r3, r2
 4758 16ae 2370     		strb	r3, [r4, #0]
 4759 16b0 4C48     		ldr	r0, .L320+12
 4760 16b2 FFF7FEFF 		bl	uart_transmit
 4761              	.LVL434:
 4762              	.LBE986:
 4763              	.LBB987:
 4764 16b6 3178     		ldrb	r1, [r6, #0]	@ zero_extendqisi2
 4765              	.LVL435:
 4766 16b8 2B78     		ldrb	r3, [r5, #0]	@ zero_extendqisi2
 4767 16ba 2278     		ldrb	r2, [r4, #0]	@ zero_extendqisi2
 4768 16bc CB18     		adds	r3, r1, r3
 4769 16be DBB2     		uxtb	r3, r3
 4770 16c0 2B70     		strb	r3, [r5, #0]
 4771 16c2 9B18     		adds	r3, r3, r2
 4772 16c4 2370     		strb	r3, [r4, #0]
 4773 16c6 4748     		ldr	r0, .L320+12
 4774 16c8 FFF7FEFF 		bl	uart_transmit
 4775              	.LVL436:
 4776              	.LBE987:
 4777              	.LBB988:
 4778 16cc 7178     		ldrb	r1, [r6, #1]	@ zero_extendqisi2
 4779              	.LVL437:
 4780 16ce 2B78     		ldrb	r3, [r5, #0]	@ zero_extendqisi2
 4781 16d0 2278     		ldrb	r2, [r4, #0]	@ zero_extendqisi2
 4782 16d2 CB18     		adds	r3, r1, r3
 4783 16d4 DBB2     		uxtb	r3, r3
 4784 16d6 2B70     		strb	r3, [r5, #0]
 4785 16d8 9B18     		adds	r3, r3, r2
 4786 16da 2370     		strb	r3, [r4, #0]
 4787 16dc 4148     		ldr	r0, .L320+12
 4788 16de FFF7FEFF 		bl	uart_transmit
 4789              	.LVL438:
 4790              	.LBE988:
 4791              	.LBB989:
 4792 16e2 B178     		ldrb	r1, [r6, #2]	@ zero_extendqisi2
 4793              	.LVL439:
 4794 16e4 2B78     		ldrb	r3, [r5, #0]	@ zero_extendqisi2
 4795 16e6 2278     		ldrb	r2, [r4, #0]	@ zero_extendqisi2
 4796 16e8 CB18     		adds	r3, r1, r3
 4797 16ea DBB2     		uxtb	r3, r3
 4798 16ec 2B70     		strb	r3, [r5, #0]
 4799 16ee 9B18     		adds	r3, r3, r2
 4800 16f0 2370     		strb	r3, [r4, #0]
 4801 16f2 3C48     		ldr	r0, .L320+12
 4802 16f4 FFF7FEFF 		bl	uart_transmit
 4803              	.LVL440:
 4804              	.LBE989:
 4805              	.LBB990:
 4806 16f8 F178     		ldrb	r1, [r6, #3]	@ zero_extendqisi2
 4807              	.LVL441:
 4808 16fa 2B78     		ldrb	r3, [r5, #0]	@ zero_extendqisi2
 4809 16fc 2278     		ldrb	r2, [r4, #0]	@ zero_extendqisi2
 4810 16fe CB18     		adds	r3, r1, r3
 4811 1700 DBB2     		uxtb	r3, r3
 4812              	.LBE990:
 4813              	.LBB991:
 4814 1702 404E     		ldr	r6, .L320+44
 4815              	.LBE991:
 4816              	.LBB992:
 4817 1704 2B70     		strb	r3, [r5, #0]
 4818 1706 9B18     		adds	r3, r3, r2
 4819 1708 2370     		strb	r3, [r4, #0]
 4820 170a 3648     		ldr	r0, .L320+12
 4821 170c FFF7FEFF 		bl	uart_transmit
 4822              	.LVL442:
 4823              	.LBE992:
 4824              	.LBB993:
 4825 1710 3178     		ldrb	r1, [r6, #0]	@ zero_extendqisi2
 4826              	.LVL443:
 4827 1712 2B78     		ldrb	r3, [r5, #0]	@ zero_extendqisi2
 4828 1714 2278     		ldrb	r2, [r4, #0]	@ zero_extendqisi2
 4829 1716 CB18     		adds	r3, r1, r3
 4830 1718 DBB2     		uxtb	r3, r3
 4831 171a 2B70     		strb	r3, [r5, #0]
 4832 171c 9B18     		adds	r3, r3, r2
 4833 171e 2370     		strb	r3, [r4, #0]
 4834 1720 3048     		ldr	r0, .L320+12
 4835 1722 FFF7FEFF 		bl	uart_transmit
 4836              	.LVL444:
 4837              	.LBE993:
 4838              	.LBB994:
 4839 1726 7178     		ldrb	r1, [r6, #1]	@ zero_extendqisi2
 4840              	.LVL445:
 4841 1728 2B78     		ldrb	r3, [r5, #0]	@ zero_extendqisi2
 4842 172a 2278     		ldrb	r2, [r4, #0]	@ zero_extendqisi2
 4843 172c CB18     		adds	r3, r1, r3
 4844 172e DBB2     		uxtb	r3, r3
 4845 1730 2B70     		strb	r3, [r5, #0]
 4846 1732 9B18     		adds	r3, r3, r2
 4847 1734 2370     		strb	r3, [r4, #0]
 4848 1736 2B48     		ldr	r0, .L320+12
 4849 1738 FFF7FEFF 		bl	uart_transmit
 4850              	.LVL446:
 4851              	.LBE994:
 4852              	.LBB995:
 4853 173c B178     		ldrb	r1, [r6, #2]	@ zero_extendqisi2
 4854              	.LVL447:
 4855 173e 2B78     		ldrb	r3, [r5, #0]	@ zero_extendqisi2
 4856 1740 2278     		ldrb	r2, [r4, #0]	@ zero_extendqisi2
 4857 1742 CB18     		adds	r3, r1, r3
 4858 1744 DBB2     		uxtb	r3, r3
 4859 1746 2B70     		strb	r3, [r5, #0]
 4860 1748 9B18     		adds	r3, r3, r2
 4861 174a 2370     		strb	r3, [r4, #0]
 4862 174c 2548     		ldr	r0, .L320+12
 4863 174e FFF7FEFF 		bl	uart_transmit
 4864              	.LVL448:
 4865              	.LBE995:
 4866              	.LBB996:
 4867 1752 F178     		ldrb	r1, [r6, #3]	@ zero_extendqisi2
 4868              	.LVL449:
 4869 1754 2B78     		ldrb	r3, [r5, #0]	@ zero_extendqisi2
 4870 1756 2278     		ldrb	r2, [r4, #0]	@ zero_extendqisi2
 4871 1758 CB18     		adds	r3, r1, r3
 4872 175a DBB2     		uxtb	r3, r3
 4873 175c 2B70     		strb	r3, [r5, #0]
 4874 175e 9B18     		adds	r3, r3, r2
 4875 1760 2370     		strb	r3, [r4, #0]
 4876 1762 2048     		ldr	r0, .L320+12
 4877 1764 FFF7FEFF 		bl	uart_transmit
 4878              	.LVL450:
 4879              	.LBE996:
 4880 1768 2978     		ldrb	r1, [r5, #0]	@ zero_extendqisi2
 4881 176a 1E48     		ldr	r0, .L320+12
 4882 176c FFF7FEFF 		bl	uart_transmit
 4883 1770 1C48     		ldr	r0, .L320+12
 4884 1772 2178     		ldrb	r1, [r4, #0]	@ zero_extendqisi2
 4885 1774 FFF7FEFF 		bl	uart_transmit
 4886 1778 03E0     		b	.L106
 4887              	.L107:
 4888 177a 174B     		ldr	r3, .L320
 4889 177c 1A78     		ldrb	r2, [r3, #0]	@ zero_extendqisi2
 4890 177e 0132     		adds	r2, r2, #1
 4891 1780 1A70     		strb	r2, [r3, #0]
 4892              	.L106:
 4893 1782 214B     		ldr	r3, .L320+48
 4894 1784 1B78     		ldrb	r3, [r3, #0]	@ zero_extendqisi2
 4895 1786 122B     		cmp	r3, #18
 4896 1788 40F0D680 		bne	.L108
 4897              	.LBB997:
 4898 178c 1F4B     		ldr	r3, .L320+52
 4899 178e 1A78     		ldrb	r2, [r3, #0]	@ zero_extendqisi2
 4900 1790 0A2A     		cmp	r2, #10
 4901 1792 01D9     		bls	.L109
 4902 1794 0022     		movs	r2, #0
 4903 1796 1A70     		strb	r2, [r3, #0]
 4904              	.L109:
 4905 1798 1C4B     		ldr	r3, .L320+52
 4906 179a 1B78     		ldrb	r3, [r3, #0]	@ zero_extendqisi2
 4907 179c 0A2B     		cmp	r3, #10
 4908 179e 53D8     		bhi	.L110
 4909 17a0 DFE803F0 		tbb	[pc, r3]
 4910              	.L122:
 4911 17a4 06       		.byte	(.L111-.L122)/2
 4912 17a5 08       		.byte	(.L112-.L122)/2
 4913 17a6 0B       		.byte	(.L113-.L122)/2
 4914 17a7 0D       		.byte	(.L114-.L122)/2
 4915 17a8 10       		.byte	(.L115-.L122)/2
 4916 17a9 12       		.byte	(.L116-.L122)/2
 4917 17aa 14       		.byte	(.L117-.L122)/2
 4918 17ab 16       		.byte	(.L118-.L122)/2
 4919 17ac 18       		.byte	(.L119-.L122)/2
 4920 17ad 48       		.byte	(.L120-.L122)/2
 4921 17ae 4B       		.byte	(.L121-.L122)/2
 4922 17af 00       		.align	1
 4923              	.L111:
 4924 17b0 174B     		ldr	r3, .L320+56
 4925 17b2 00E0     		b	.L291
 4926              	.L112:
 4927 17b4 174B     		ldr	r3, .L320+60
 4928              	.L291:
 4929 17b6 1B68     		ldr	r3, [r3, #0]	@ float
 4930 17b8 47E0     		b	.L281
 4931              	.L113:
 4932 17ba 174B     		ldr	r3, .L320+64
 4933 17bc FBE7     		b	.L291
 4934              	.L114:
 4935 17be 174B     		ldr	r3, .L320+68
 4936 17c0 1888     		ldrh	r0, [r3, #0]
 4937 17c2 3DE0     		b	.L282
 4938              	.L115:
 4939 17c4 164B     		ldr	r3, .L320+72
 4940 17c6 F6E7     		b	.L291
 4941              	.L116:
 4942 17c8 164B     		ldr	r3, .L320+76
 4943 17ca 34E0     		b	.L290
 4944              	.L117:
 4945 17cc 164B     		ldr	r3, .L320+80
 4946 17ce 32E0     		b	.L290
 4947              	.L118:
 4948 17d0 164B     		ldr	r3, .L320+84
 4949 17d2 30E0     		b	.L290
 4950              	.L119:
 4951 17d4 164B     		ldr	r3, .L320+88
 4952 17d6 2EE0     		b	.L290
 4953              	.L321:
 4954              		.align	2
 4955              	.L320:
 4956 17d8 00000000 		.word	downlink_nb_ovrn
 4957 17dc 00000000 		.word	.LANCHOR24
 4958 17e0 00000000 		.word	nav_in_segment
 4959 17e4 00000000 		.word	uart2
 4960 17e8 00000000 		.word	downlink_nb_bytes
 4961 17ec 00000000 		.word	downlink_nb_msgs
 4962 17f0 00000000 		.word	ck_a
 4963 17f4 00000000 		.word	ck_b
 4964 17f8 00000000 		.word	nav_segment_x_1
 4965 17fc 00000000 		.word	nav_segment_y_1
 4966 1800 00000000 		.word	nav_segment_x_2
 4967 1804 00000000 		.word	nav_segment_y_2
 4968 1808 00000000 		.word	.LANCHOR25
 4969 180c 00000000 		.word	.LANCHOR34
 4970 1810 00000000 		.word	flight_altitude
 4971 1814 00000000 		.word	nav_course
 4972 1818 00000000 		.word	nav_shift
 4973 181c 00000000 		.word	estimator_flight_time
 4974 1820 00000000 		.word	nav_radius
 4975 1824 00000000 		.word	.LANCHOR2
 4976 1828 00000000 		.word	.LANCHOR1
 4977 182c 00000000 		.word	.LANCHOR9
 4978 1830 00000000 		.word	telemetry_mode_Ap_DefaultChannel
 4979              	.L120:
 4980 1834 9C4B     		ldr	r3, .L322
 4981              	.L290:
 4982 1836 1878     		ldrb	r0, [r3, #0]	@ zero_extendqisi2
 4983 1838 02E0     		b	.L282
 4984              	.L121:
 4985 183a 9C4B     		ldr	r3, .L322+4
 4986 183c B3F8EA00 		ldrh	r0, [r3, #234]
 4987              	.L282:
 4988 1840 FFF7FEFF 		bl	__aeabi_ui2f
 4989 1844 0290     		str	r0, [sp, #8]	@ float
 4990              	.LVL451:
 4991 1846 01E0     		b	.L123
 4992              	.LVL452:
 4993              	.L110:
 4994 1848 0023     		movs	r3, #0
 4995              	.L281:
 4996 184a 0293     		str	r3, [sp, #8]	@ float
 4997              	.LVL453:
 4998              	.L123:
 4999 184c 9848     		ldr	r0, .L322+8
 5000 184e 0B21     		movs	r1, #11
 5001 1850 FFF7FEFF 		bl	uart_check_free_space
 5002 1854 0028     		cmp	r0, #0
 5003 1856 67D0     		beq	.L124
 5004 1858 964B     		ldr	r3, .L322+12
 5005              	.LBB998:
 5006 185a 9921     		movs	r1, #153
 5007              	.LBE998:
 5008 185c 1A88     		ldrh	r2, [r3, #0]
 5009              	.LBB999:
 5010 185e 9448     		ldr	r0, .L322+8
 5011              	.LBE999:
 5012 1860 0B32     		adds	r2, r2, #11
 5013 1862 1A80     		strh	r2, [r3, #0]	@ movhi
 5014 1864 944B     		ldr	r3, .L322+16
 5015              	.LBB1000:
 5016 1866 954D     		ldr	r5, .L322+20
 5017              	.LBE1000:
 5018 1868 1A88     		ldrh	r2, [r3, #0]
 5019              	.LBB1001:
 5020 186a 954C     		ldr	r4, .L322+24
 5021              	.LBE1001:
 5022 186c 0132     		adds	r2, r2, #1
 5023 186e 1A80     		strh	r2, [r3, #0]	@ movhi
 5024              	.LBB1002:
 5025 1870 FFF7FEFF 		bl	uart_transmit
 5026 1874 0B21     		movs	r1, #11
 5027 1876 8E48     		ldr	r0, .L322+8
 5028 1878 FFF7FEFF 		bl	uart_transmit
 5029              	.LBE1002:
 5030 187c 0C23     		movs	r3, #12
 5031 187e 2B70     		strb	r3, [r5, #0]
 5032 1880 0B33     		adds	r3, r3, #11
 5033 1882 2370     		strb	r3, [r4, #0]
 5034 1884 0121     		movs	r1, #1
 5035 1886 8A48     		ldr	r0, .L322+8
 5036 1888 FFF7FEFF 		bl	uart_transmit
 5037 188c 2B78     		ldrb	r3, [r5, #0]	@ zero_extendqisi2
 5038 188e 2278     		ldrb	r2, [r4, #0]	@ zero_extendqisi2
 5039 1890 1F33     		adds	r3, r3, #31
 5040 1892 DBB2     		uxtb	r3, r3
 5041 1894 2B70     		strb	r3, [r5, #0]
 5042 1896 9B18     		adds	r3, r3, r2
 5043 1898 2370     		strb	r3, [r4, #0]
 5044 189a 1F21     		movs	r1, #31
 5045 189c 8448     		ldr	r0, .L322+8
 5046 189e FFF7FEFF 		bl	uart_transmit
 5047              	.LBB1003:
 5048 18a2 884B     		ldr	r3, .L322+28
 5049 18a4 2278     		ldrb	r2, [r4, #0]	@ zero_extendqisi2
 5050 18a6 1978     		ldrb	r1, [r3, #0]	@ zero_extendqisi2
 5051              	.LVL454:
 5052 18a8 2B78     		ldrb	r3, [r5, #0]	@ zero_extendqisi2
 5053 18aa 8148     		ldr	r0, .L322+8
 5054 18ac CB18     		adds	r3, r1, r3
 5055 18ae DBB2     		uxtb	r3, r3
 5056 18b0 2B70     		strb	r3, [r5, #0]
 5057 18b2 9B18     		adds	r3, r3, r2
 5058 18b4 2370     		strb	r3, [r4, #0]
 5059 18b6 FFF7FEFF 		bl	uart_transmit
 5060              	.LVL455:
 5061              	.LBE1003:
 5062              	.LBB1004:
 5063 18ba 9DF80810 		ldrb	r1, [sp, #8]	@ zero_extendqisi2
 5064              	.LVL456:
 5065 18be 2B78     		ldrb	r3, [r5, #0]	@ zero_extendqisi2
 5066 18c0 2278     		ldrb	r2, [r4, #0]	@ zero_extendqisi2
 5067 18c2 CB18     		adds	r3, r1, r3
 5068 18c4 DBB2     		uxtb	r3, r3
 5069 18c6 2B70     		strb	r3, [r5, #0]
 5070 18c8 9B18     		adds	r3, r3, r2
 5071 18ca 02AE     		add	r6, sp, #8
 5072 18cc 2370     		strb	r3, [r4, #0]
 5073 18ce 7848     		ldr	r0, .L322+8
 5074 18d0 FFF7FEFF 		bl	uart_transmit
 5075              	.LVL457:
 5076              	.LBE1004:
 5077              	.LBB1005:
 5078 18d4 7178     		ldrb	r1, [r6, #1]	@ zero_extendqisi2
 5079              	.LVL458:
 5080 18d6 2B78     		ldrb	r3, [r5, #0]	@ zero_extendqisi2
 5081 18d8 2278     		ldrb	r2, [r4, #0]	@ zero_extendqisi2
 5082 18da CB18     		adds	r3, r1, r3
 5083 18dc DBB2     		uxtb	r3, r3
 5084 18de 2B70     		strb	r3, [r5, #0]
 5085 18e0 9B18     		adds	r3, r3, r2
 5086 18e2 2370     		strb	r3, [r4, #0]
 5087 18e4 7248     		ldr	r0, .L322+8
 5088 18e6 FFF7FEFF 		bl	uart_transmit
 5089              	.LVL459:
 5090              	.LBE1005:
 5091              	.LBB1006:
 5092 18ea B178     		ldrb	r1, [r6, #2]	@ zero_extendqisi2
 5093              	.LVL460:
 5094 18ec 2B78     		ldrb	r3, [r5, #0]	@ zero_extendqisi2
 5095 18ee 2278     		ldrb	r2, [r4, #0]	@ zero_extendqisi2
 5096 18f0 CB18     		adds	r3, r1, r3
 5097 18f2 DBB2     		uxtb	r3, r3
 5098 18f4 2B70     		strb	r3, [r5, #0]
 5099 18f6 9B18     		adds	r3, r3, r2
 5100 18f8 2370     		strb	r3, [r4, #0]
 5101 18fa 6D48     		ldr	r0, .L322+8
 5102 18fc FFF7FEFF 		bl	uart_transmit
 5103              	.LVL461:
 5104              	.LBE1006:
 5105              	.LBB1007:
 5106 1900 F178     		ldrb	r1, [r6, #3]	@ zero_extendqisi2
 5107              	.LVL462:
 5108 1902 2B78     		ldrb	r3, [r5, #0]	@ zero_extendqisi2
 5109 1904 2278     		ldrb	r2, [r4, #0]	@ zero_extendqisi2
 5110 1906 CB18     		adds	r3, r1, r3
 5111 1908 DBB2     		uxtb	r3, r3
 5112 190a 2B70     		strb	r3, [r5, #0]
 5113 190c 9B18     		adds	r3, r3, r2
 5114 190e 2370     		strb	r3, [r4, #0]
 5115 1910 6748     		ldr	r0, .L322+8
 5116 1912 FFF7FEFF 		bl	uart_transmit
 5117              	.LVL463:
 5118              	.LBE1007:
 5119 1916 2978     		ldrb	r1, [r5, #0]	@ zero_extendqisi2
 5120 1918 6548     		ldr	r0, .L322+8
 5121 191a FFF7FEFF 		bl	uart_transmit
 5122 191e 6448     		ldr	r0, .L322+8
 5123 1920 2178     		ldrb	r1, [r4, #0]	@ zero_extendqisi2
 5124 1922 FFF7FEFF 		bl	uart_transmit
 5125 1926 03E0     		b	.L125
 5126              	.L124:
 5127 1928 674B     		ldr	r3, .L322+32
 5128 192a 1A78     		ldrb	r2, [r3, #0]	@ zero_extendqisi2
 5129 192c 0132     		adds	r2, r2, #1
 5130 192e 1A70     		strb	r2, [r3, #0]
 5131              	.L125:
 5132 1930 644B     		ldr	r3, .L322+28
 5133 1932 1A78     		ldrb	r2, [r3, #0]	@ zero_extendqisi2
 5134 1934 0132     		adds	r2, r2, #1
 5135 1936 1A70     		strb	r2, [r3, #0]
 5136              	.L108:
 5137              	.LBE997:
 5138 1938 644B     		ldr	r3, .L322+36
 5139 193a 1B78     		ldrb	r3, [r3, #0]	@ zero_extendqisi2
 5140 193c 182B     		cmp	r3, #24
 5141 193e 40F0CD80 		bne	.L126
 5142 1942 5B48     		ldr	r0, .L322+8
 5143 1944 1121     		movs	r1, #17
 5144 1946 FFF7FEFF 		bl	uart_check_free_space
 5145 194a 0028     		cmp	r0, #0
 5146 194c 00F0C280 		beq	.L127
 5147 1950 584B     		ldr	r3, .L322+12
 5148              	.LBB1008:
 5149 1952 9921     		movs	r1, #153
 5150              	.LBE1008:
 5151 1954 1A88     		ldrh	r2, [r3, #0]
 5152              	.LBB1009:
 5153 1956 5648     		ldr	r0, .L322+8
 5154              	.LBE1009:
 5155 1958 1132     		adds	r2, r2, #17
 5156 195a 1A80     		strh	r2, [r3, #0]	@ movhi
 5157 195c 564B     		ldr	r3, .L322+16
 5158              	.LBB1010:
 5159 195e 574D     		ldr	r5, .L322+20
 5160              	.LBE1010:
 5161 1960 1A88     		ldrh	r2, [r3, #0]
 5162              	.LBB1011:
 5163 1962 574C     		ldr	r4, .L322+24
 5164              	.LBE1011:
 5165 1964 0132     		adds	r2, r2, #1
 5166 1966 1A80     		strh	r2, [r3, #0]	@ movhi
 5167              	.LBB1012:
 5168 1968 FFF7FEFF 		bl	uart_transmit
 5169 196c 1121     		movs	r1, #17
 5170 196e 5048     		ldr	r0, .L322+8
 5171 1970 FFF7FEFF 		bl	uart_transmit
 5172              	.LBE1012:
 5173 1974 1223     		movs	r3, #18
 5174 1976 2B70     		strb	r3, [r5, #0]
 5175 1978 1133     		adds	r3, r3, #17
 5176 197a 2370     		strb	r3, [r4, #0]
 5177 197c 0121     		movs	r1, #1
 5178 197e 4C48     		ldr	r0, .L322+8
 5179 1980 FFF7FEFF 		bl	uart_transmit
 5180 1984 2B78     		ldrb	r3, [r5, #0]	@ zero_extendqisi2
 5181 1986 2278     		ldrb	r2, [r4, #0]	@ zero_extendqisi2
 5182 1988 1133     		adds	r3, r3, #17
 5183 198a DBB2     		uxtb	r3, r3
 5184              	.LBB1013:
 5185 198c 504E     		ldr	r6, .L322+40
 5186              	.LBE1013:
 5187 198e 2B70     		strb	r3, [r5, #0]
 5188 1990 9B18     		adds	r3, r3, r2
 5189 1992 2370     		strb	r3, [r4, #0]
 5190 1994 1121     		movs	r1, #17
 5191 1996 4648     		ldr	r0, .L322+8
 5192 1998 FFF7FEFF 		bl	uart_transmit
 5193              	.LBB1014:
 5194 199c 3178     		ldrb	r1, [r6, #0]	@ zero_extendqisi2
 5195              	.LVL464:
 5196 199e 2B78     		ldrb	r3, [r5, #0]	@ zero_extendqisi2
 5197 19a0 2278     		ldrb	r2, [r4, #0]	@ zero_extendqisi2
 5198 19a2 CB18     		adds	r3, r1, r3
 5199 19a4 DBB2     		uxtb	r3, r3
 5200 19a6 2B70     		strb	r3, [r5, #0]
 5201 19a8 9B18     		adds	r3, r3, r2
 5202 19aa 2370     		strb	r3, [r4, #0]
 5203 19ac 4048     		ldr	r0, .L322+8
 5204 19ae FFF7FEFF 		bl	uart_transmit
 5205              	.LVL465:
 5206              	.LBE1014:
 5207              	.LBB1015:
 5208 19b2 7178     		ldrb	r1, [r6, #1]	@ zero_extendqisi2
 5209              	.LVL466:
 5210 19b4 2B78     		ldrb	r3, [r5, #0]	@ zero_extendqisi2
 5211 19b6 2278     		ldrb	r2, [r4, #0]	@ zero_extendqisi2
 5212 19b8 CB18     		adds	r3, r1, r3
 5213 19ba DBB2     		uxtb	r3, r3
 5214 19bc 2B70     		strb	r3, [r5, #0]
 5215 19be 9B18     		adds	r3, r3, r2
 5216 19c0 2370     		strb	r3, [r4, #0]
 5217 19c2 3B48     		ldr	r0, .L322+8
 5218 19c4 FFF7FEFF 		bl	uart_transmit
 5219              	.LVL467:
 5220              	.LBE1015:
 5221              	.LBB1016:
 5222 19c8 B178     		ldrb	r1, [r6, #2]	@ zero_extendqisi2
 5223              	.LVL468:
 5224 19ca 2B78     		ldrb	r3, [r5, #0]	@ zero_extendqisi2
 5225 19cc 2278     		ldrb	r2, [r4, #0]	@ zero_extendqisi2
 5226 19ce CB18     		adds	r3, r1, r3
 5227 19d0 DBB2     		uxtb	r3, r3
 5228 19d2 2B70     		strb	r3, [r5, #0]
 5229 19d4 9B18     		adds	r3, r3, r2
 5230 19d6 2370     		strb	r3, [r4, #0]
 5231 19d8 3548     		ldr	r0, .L322+8
 5232 19da FFF7FEFF 		bl	uart_transmit
 5233              	.LVL469:
 5234              	.LBE1016:
 5235              	.LBB1017:
 5236 19de F178     		ldrb	r1, [r6, #3]	@ zero_extendqisi2
 5237              	.LVL470:
 5238 19e0 2B78     		ldrb	r3, [r5, #0]	@ zero_extendqisi2
 5239 19e2 2278     		ldrb	r2, [r4, #0]	@ zero_extendqisi2
 5240 19e4 CB18     		adds	r3, r1, r3
 5241 19e6 DBB2     		uxtb	r3, r3
 5242 19e8 2B70     		strb	r3, [r5, #0]
 5243 19ea 9B18     		adds	r3, r3, r2
 5244 19ec 2370     		strb	r3, [r4, #0]
 5245 19ee 3048     		ldr	r0, .L322+8
 5246 19f0 FFF7FEFF 		bl	uart_transmit
 5247              	.LVL471:
 5248              	.LBE1017:
 5249              	.LBB1018:
 5250 19f4 3179     		ldrb	r1, [r6, #4]	@ zero_extendqisi2
 5251              	.LVL472:
 5252 19f6 2B78     		ldrb	r3, [r5, #0]	@ zero_extendqisi2
 5253 19f8 2278     		ldrb	r2, [r4, #0]	@ zero_extendqisi2
 5254 19fa CB18     		adds	r3, r1, r3
 5255 19fc DBB2     		uxtb	r3, r3
 5256 19fe 2B70     		strb	r3, [r5, #0]
 5257 1a00 9B18     		adds	r3, r3, r2
 5258 1a02 371D     		adds	r7, r6, #4
 5259 1a04 2370     		strb	r3, [r4, #0]
 5260 1a06 2A48     		ldr	r0, .L322+8
 5261 1a08 FFF7FEFF 		bl	uart_transmit
 5262              	.LVL473:
 5263              	.LBE1018:
 5264              	.LBB1019:
 5265 1a0c 7978     		ldrb	r1, [r7, #1]	@ zero_extendqisi2
 5266              	.LVL474:
 5267 1a0e 2B78     		ldrb	r3, [r5, #0]	@ zero_extendqisi2
 5268 1a10 2278     		ldrb	r2, [r4, #0]	@ zero_extendqisi2
 5269 1a12 CB18     		adds	r3, r1, r3
 5270 1a14 DBB2     		uxtb	r3, r3
 5271 1a16 2B70     		strb	r3, [r5, #0]
 5272 1a18 9B18     		adds	r3, r3, r2
 5273 1a1a 2370     		strb	r3, [r4, #0]
 5274 1a1c 2448     		ldr	r0, .L322+8
 5275 1a1e FFF7FEFF 		bl	uart_transmit
 5276              	.LVL475:
 5277              	.LBE1019:
 5278              	.LBB1020:
 5279 1a22 B978     		ldrb	r1, [r7, #2]	@ zero_extendqisi2
 5280              	.LVL476:
 5281 1a24 2B78     		ldrb	r3, [r5, #0]	@ zero_extendqisi2
 5282 1a26 2278     		ldrb	r2, [r4, #0]	@ zero_extendqisi2
 5283 1a28 CB18     		adds	r3, r1, r3
 5284 1a2a DBB2     		uxtb	r3, r3
 5285 1a2c 2B70     		strb	r3, [r5, #0]
 5286 1a2e 9B18     		adds	r3, r3, r2
 5287 1a30 2370     		strb	r3, [r4, #0]
 5288 1a32 1F48     		ldr	r0, .L322+8
 5289 1a34 FFF7FEFF 		bl	uart_transmit
 5290              	.LVL477:
 5291              	.LBE1020:
 5292              	.LBB1021:
 5293 1a38 F978     		ldrb	r1, [r7, #3]	@ zero_extendqisi2
 5294              	.LVL478:
 5295 1a3a 2B78     		ldrb	r3, [r5, #0]	@ zero_extendqisi2
 5296 1a3c 2278     		ldrb	r2, [r4, #0]	@ zero_extendqisi2
 5297 1a3e CB18     		adds	r3, r1, r3
 5298 1a40 DBB2     		uxtb	r3, r3
 5299 1a42 2B70     		strb	r3, [r5, #0]
 5300 1a44 9B18     		adds	r3, r3, r2
 5301 1a46 2370     		strb	r3, [r4, #0]
 5302 1a48 1948     		ldr	r0, .L322+8
 5303 1a4a FFF7FEFF 		bl	uart_transmit
 5304              	.LVL479:
 5305              	.LBE1021:
 5306              	.LBB1022:
 5307 1a4e 317A     		ldrb	r1, [r6, #8]	@ zero_extendqisi2
 5308              	.LVL480:
 5309 1a50 2B78     		ldrb	r3, [r5, #0]	@ zero_extendqisi2
 5310 1a52 2278     		ldrb	r2, [r4, #0]	@ zero_extendqisi2
 5311 1a54 CB18     		adds	r3, r1, r3
 5312 1a56 DBB2     		uxtb	r3, r3
 5313 1a58 2B70     		strb	r3, [r5, #0]
 5314 1a5a 9B18     		adds	r3, r3, r2
 5315 1a5c 2370     		strb	r3, [r4, #0]
 5316 1a5e 06F10807 		add	r7, r6, #8
 5317 1a62 1348     		ldr	r0, .L322+8
 5318 1a64 FFF7FEFF 		bl	uart_transmit
 5319              	.LVL481:
 5320              	.LBE1022:
 5321              	.LBB1023:
 5322 1a68 7978     		ldrb	r1, [r7, #1]	@ zero_extendqisi2
 5323              	.LVL482:
 5324 1a6a 2B78     		ldrb	r3, [r5, #0]	@ zero_extendqisi2
 5325 1a6c 2278     		ldrb	r2, [r4, #0]	@ zero_extendqisi2
 5326 1a6e CB18     		adds	r3, r1, r3
 5327 1a70 DBB2     		uxtb	r3, r3
 5328 1a72 2B70     		strb	r3, [r5, #0]
 5329 1a74 9B18     		adds	r3, r3, r2
 5330 1a76 2370     		strb	r3, [r4, #0]
 5331 1a78 0D48     		ldr	r0, .L322+8
 5332 1a7a FFF7FEFF 		bl	uart_transmit
 5333              	.LVL483:
 5334              	.LBE1023:
 5335              	.LBB1024:
 5336 1a7e B17A     		ldrb	r1, [r6, #10]	@ zero_extendqisi2
 5337              	.LVL484:
 5338 1a80 2B78     		ldrb	r3, [r5, #0]	@ zero_extendqisi2
 5339 1a82 2278     		ldrb	r2, [r4, #0]	@ zero_extendqisi2
 5340 1a84 CB18     		adds	r3, r1, r3
 5341 1a86 DBB2     		uxtb	r3, r3
 5342 1a88 2B70     		strb	r3, [r5, #0]
 5343 1a8a 9B18     		adds	r3, r3, r2
 5344 1a8c 2370     		strb	r3, [r4, #0]
 5345 1a8e 0848     		ldr	r0, .L322+8
 5346 1a90 FFF7FEFF 		bl	uart_transmit
 5347              	.LVL485:
 5348              	.LBE1024:
 5349 1a94 2978     		ldrb	r1, [r5, #0]	@ zero_extendqisi2
 5350 1a96 0648     		ldr	r0, .L322+8
 5351 1a98 FFF7FEFF 		bl	uart_transmit
 5352 1a9c 0448     		ldr	r0, .L322+8
 5353 1a9e 2178     		ldrb	r1, [r4, #0]	@ zero_extendqisi2
 5354 1aa0 FFF7FEFF 		bl	uart_transmit
 5355 1aa4 1AE0     		b	.L126
 5356              	.L323:
 5357 1aa6 00BF     		.align	2
 5358              	.L322:
 5359 1aa8 00000000 		.word	telemetry_mode_Fbw_DefaultChannel
 5360 1aac 00000000 		.word	gps
 5361 1ab0 00000000 		.word	uart2
 5362 1ab4 00000000 		.word	downlink_nb_bytes
 5363 1ab8 00000000 		.word	downlink_nb_msgs
 5364 1abc 00000000 		.word	ck_a
 5365 1ac0 00000000 		.word	ck_b
 5366 1ac4 00000000 		.word	.LANCHOR34
 5367 1ac8 00000000 		.word	downlink_nb_ovrn
 5368 1acc 00000000 		.word	.LANCHOR26
 5369 1ad0 4C000000 		.word	gps+76
 5370              	.L127:
 5371 1ad4 314B     		ldr	r3, .L324
 5372 1ad6 1A78     		ldrb	r2, [r3, #0]	@ zero_extendqisi2
 5373 1ad8 0132     		adds	r2, r2, #1
 5374 1ada 1A70     		strb	r2, [r3, #0]
 5375              	.L126:
 5376 1adc 304B     		ldr	r3, .L324+4
 5377 1ade 1B78     		ldrb	r3, [r3, #0]	@ zero_extendqisi2
 5378 1ae0 1E2B     		cmp	r3, #30
 5379 1ae2 6DD1     		bne	.L128
 5380 1ae4 2F48     		ldr	r0, .L324+8
 5381 1ae6 0B21     		movs	r1, #11
 5382 1ae8 FFF7FEFF 		bl	uart_check_free_space
 5383 1aec 0028     		cmp	r0, #0
 5384 1aee 00F06D81 		beq	.L131
 5385 1af2 2D4B     		ldr	r3, .L324+12
 5386              	.LBB1025:
 5387 1af4 2B48     		ldr	r0, .L324+8
 5388              	.LBE1025:
 5389 1af6 1A88     		ldrh	r2, [r3, #0]
 5390              	.LBB1026:
 5391 1af8 9921     		movs	r1, #153
 5392              	.LBE1026:
 5393 1afa 0B32     		adds	r2, r2, #11
 5394 1afc 1A80     		strh	r2, [r3, #0]	@ movhi
 5395 1afe 2B4B     		ldr	r3, .L324+16
 5396              	.LBB1027:
 5397 1b00 2B4D     		ldr	r5, .L324+20
 5398              	.LBE1027:
 5399 1b02 1A88     		ldrh	r2, [r3, #0]
 5400              	.LBB1028:
 5401 1b04 2B4C     		ldr	r4, .L324+24
 5402              	.LBE1028:
 5403 1b06 0132     		adds	r2, r2, #1
 5404 1b08 1A80     		strh	r2, [r3, #0]	@ movhi
 5405              	.LBB1029:
 5406 1b0a FFF7FEFF 		bl	uart_transmit
 5407 1b0e 2548     		ldr	r0, .L324+8
 5408 1b10 0B21     		movs	r1, #11
 5409 1b12 FFF7FEFF 		bl	uart_transmit
 5410              	.LBE1029:
 5411 1b16 0C23     		movs	r3, #12
 5412 1b18 2B70     		strb	r3, [r5, #0]
 5413 1b1a 0B33     		adds	r3, r3, #11
 5414 1b1c 2370     		strb	r3, [r4, #0]
 5415 1b1e 2148     		ldr	r0, .L324+8
 5416 1b20 0121     		movs	r1, #1
 5417 1b22 FFF7FEFF 		bl	uart_transmit
 5418 1b26 2B78     		ldrb	r3, [r5, #0]	@ zero_extendqisi2
 5419 1b28 2278     		ldrb	r2, [r4, #0]	@ zero_extendqisi2
 5420 1b2a 0E33     		adds	r3, r3, #14
 5421 1b2c DBB2     		uxtb	r3, r3
 5422              	.LBB1030:
 5423 1b2e 224E     		ldr	r6, .L324+28
 5424              	.LBE1030:
 5425 1b30 2B70     		strb	r3, [r5, #0]
 5426 1b32 9B18     		adds	r3, r3, r2
 5427 1b34 2370     		strb	r3, [r4, #0]
 5428 1b36 1B48     		ldr	r0, .L324+8
 5429 1b38 0E21     		movs	r1, #14
 5430 1b3a FFF7FEFF 		bl	uart_transmit
 5431              	.LBB1031:
 5432 1b3e 3178     		ldrb	r1, [r6, #0]	@ zero_extendqisi2
 5433              	.LVL486:
 5434 1b40 2B78     		ldrb	r3, [r5, #0]	@ zero_extendqisi2
 5435 1b42 2278     		ldrb	r2, [r4, #0]	@ zero_extendqisi2
 5436 1b44 CB18     		adds	r3, r1, r3
 5437 1b46 DBB2     		uxtb	r3, r3
 5438 1b48 2B70     		strb	r3, [r5, #0]
 5439 1b4a 9B18     		adds	r3, r3, r2
 5440 1b4c 2370     		strb	r3, [r4, #0]
 5441 1b4e 1548     		ldr	r0, .L324+8
 5442 1b50 FFF7FEFF 		bl	uart_transmit
 5443              	.LVL487:
 5444              	.LBE1031:
 5445              	.LBB1032:
 5446 1b54 7178     		ldrb	r1, [r6, #1]	@ zero_extendqisi2
 5447              	.LVL488:
 5448 1b56 2B78     		ldrb	r3, [r5, #0]	@ zero_extendqisi2
 5449 1b58 2278     		ldrb	r2, [r4, #0]	@ zero_extendqisi2
 5450 1b5a CB18     		adds	r3, r1, r3
 5451 1b5c DBB2     		uxtb	r3, r3
 5452 1b5e 2B70     		strb	r3, [r5, #0]
 5453 1b60 9B18     		adds	r3, r3, r2
 5454 1b62 2370     		strb	r3, [r4, #0]
 5455 1b64 0F48     		ldr	r0, .L324+8
 5456 1b66 FFF7FEFF 		bl	uart_transmit
 5457              	.LVL489:
 5458              	.LBE1032:
 5459              	.LBB1033:
 5460 1b6a B178     		ldrb	r1, [r6, #2]	@ zero_extendqisi2
 5461              	.LVL490:
 5462 1b6c 2B78     		ldrb	r3, [r5, #0]	@ zero_extendqisi2
 5463 1b6e 2278     		ldrb	r2, [r4, #0]	@ zero_extendqisi2
 5464 1b70 CB18     		adds	r3, r1, r3
 5465 1b72 DBB2     		uxtb	r3, r3
 5466 1b74 2B70     		strb	r3, [r5, #0]
 5467 1b76 9B18     		adds	r3, r3, r2
 5468 1b78 2370     		strb	r3, [r4, #0]
 5469 1b7a 0A48     		ldr	r0, .L324+8
 5470 1b7c FFF7FEFF 		bl	uart_transmit
 5471              	.LVL491:
 5472              	.LBE1033:
 5473              	.LBB1034:
 5474 1b80 F178     		ldrb	r1, [r6, #3]	@ zero_extendqisi2
 5475              	.LVL492:
 5476 1b82 2B78     		ldrb	r3, [r5, #0]	@ zero_extendqisi2
 5477 1b84 2278     		ldrb	r2, [r4, #0]	@ zero_extendqisi2
 5478 1b86 CB18     		adds	r3, r1, r3
 5479 1b88 DBB2     		uxtb	r3, r3
 5480 1b8a 2B70     		strb	r3, [r5, #0]
 5481 1b8c 9B18     		adds	r3, r3, r2
 5482 1b8e 2370     		strb	r3, [r4, #0]
 5483 1b90 0448     		ldr	r0, .L324+8
 5484 1b92 FFF7FEFF 		bl	uart_transmit
 5485              	.LVL493:
 5486              	.LBE1034:
 5487              	.LBB1035:
 5488 1b96 094B     		ldr	r3, .L324+32
 5489 1b98 1978     		ldrb	r1, [r3, #0]	@ zero_extendqisi2
 5490              	.LVL494:
 5491 1b9a EFE0     		b	.L283
 5492              	.L325:
 5493              		.align	2
 5494              	.L324:
 5495 1b9c 00000000 		.word	downlink_nb_ovrn
 5496 1ba0 00000000 		.word	.LANCHOR27
 5497 1ba4 00000000 		.word	uart2
 5498 1ba8 00000000 		.word	downlink_nb_bytes
 5499 1bac 00000000 		.word	downlink_nb_msgs
 5500 1bb0 00000000 		.word	ck_a
 5501 1bb4 00000000 		.word	ck_b
 5502 1bb8 00000000 		.word	v_ctl_auto_throttle_sum_err
 5503 1bbc 00000000 		.word	v_ctl_auto_throttle_submode
 5504              	.LVL495:
 5505              	.L128:
 5506              	.LBE1035:
 5507 1bc0 242B     		cmp	r3, #36
 5508 1bc2 40F00781 		bne	.L130
 5509 1bc6 774B     		ldr	r3, .L326
 5510 1bc8 1B78     		ldrb	r3, [r3, #0]	@ zero_extendqisi2
 5511 1bca 002B     		cmp	r3, #0
 5512 1bcc 00F00281 		beq	.L130
 5513 1bd0 7548     		ldr	r0, .L326+4
 5514 1bd2 1621     		movs	r1, #22
 5515 1bd4 FFF7FEFF 		bl	uart_check_free_space
 5516 1bd8 0028     		cmp	r0, #0
 5517 1bda 00F0F780 		beq	.L131
 5518 1bde 734B     		ldr	r3, .L326+8
 5519              	.LBB1036:
 5520 1be0 9921     		movs	r1, #153
 5521              	.LBE1036:
 5522 1be2 1A88     		ldrh	r2, [r3, #0]
 5523              	.LBB1037:
 5524 1be4 7048     		ldr	r0, .L326+4
 5525              	.LBE1037:
 5526 1be6 1632     		adds	r2, r2, #22
 5527 1be8 1A80     		strh	r2, [r3, #0]	@ movhi
 5528 1bea 714B     		ldr	r3, .L326+12
 5529              	.LBB1038:
 5530 1bec 714D     		ldr	r5, .L326+16
 5531              	.LBE1038:
 5532 1bee 1A88     		ldrh	r2, [r3, #0]
 5533              	.LBB1039:
 5534 1bf0 714C     		ldr	r4, .L326+20
 5535              	.LBE1039:
 5536 1bf2 0132     		adds	r2, r2, #1
 5537 1bf4 1A80     		strh	r2, [r3, #0]	@ movhi
 5538              	.LBB1040:
 5539 1bf6 FFF7FEFF 		bl	uart_transmit
 5540 1bfa 1621     		movs	r1, #22
 5541 1bfc 6A48     		ldr	r0, .L326+4
 5542 1bfe FFF7FEFF 		bl	uart_transmit
 5543              	.LBE1040:
 5544 1c02 1723     		movs	r3, #23
 5545 1c04 2B70     		strb	r3, [r5, #0]
 5546 1c06 1633     		adds	r3, r3, #22
 5547 1c08 0121     		movs	r1, #1
 5548 1c0a 2370     		strb	r3, [r4, #0]
 5549 1c0c 6648     		ldr	r0, .L326+4
 5550 1c0e FFF7FEFF 		bl	uart_transmit
 5551 1c12 2B78     		ldrb	r3, [r5, #0]	@ zero_extendqisi2
 5552 1c14 2278     		ldrb	r2, [r4, #0]	@ zero_extendqisi2
 5553 1c16 1B33     		adds	r3, r3, #27
 5554 1c18 DBB2     		uxtb	r3, r3
 5555              	.LBB1041:
 5556 1c1a 684E     		ldr	r6, .L326+24
 5557              	.LBE1041:
 5558 1c1c 2B70     		strb	r3, [r5, #0]
 5559 1c1e 9B18     		adds	r3, r3, r2
 5560 1c20 1B21     		movs	r1, #27
 5561 1c22 2370     		strb	r3, [r4, #0]
 5562 1c24 6048     		ldr	r0, .L326+4
 5563 1c26 FFF7FEFF 		bl	uart_transmit
 5564              	.LBB1042:
 5565 1c2a 3178     		ldrb	r1, [r6, #0]	@ zero_extendqisi2
 5566              	.LVL496:
 5567 1c2c 2B78     		ldrb	r3, [r5, #0]	@ zero_extendqisi2
 5568 1c2e 2278     		ldrb	r2, [r4, #0]	@ zero_extendqisi2
 5569 1c30 CB18     		adds	r3, r1, r3
 5570 1c32 DBB2     		uxtb	r3, r3
 5571 1c34 2B70     		strb	r3, [r5, #0]
 5572 1c36 9B18     		adds	r3, r3, r2
 5573 1c38 2370     		strb	r3, [r4, #0]
 5574 1c3a 5B48     		ldr	r0, .L326+4
 5575 1c3c FFF7FEFF 		bl	uart_transmit
 5576              	.LVL497:
 5577              	.LBE1042:
 5578              	.LBB1043:
 5579 1c40 7178     		ldrb	r1, [r6, #1]	@ zero_extendqisi2
 5580              	.LVL498:
 5581 1c42 2B78     		ldrb	r3, [r5, #0]	@ zero_extendqisi2
 5582 1c44 2278     		ldrb	r2, [r4, #0]	@ zero_extendqisi2
 5583 1c46 CB18     		adds	r3, r1, r3
 5584 1c48 DBB2     		uxtb	r3, r3
 5585 1c4a 2B70     		strb	r3, [r5, #0]
 5586 1c4c 9B18     		adds	r3, r3, r2
 5587 1c4e 2370     		strb	r3, [r4, #0]
 5588 1c50 5548     		ldr	r0, .L326+4
 5589 1c52 FFF7FEFF 		bl	uart_transmit
 5590              	.LVL499:
 5591              	.LBE1043:
 5592              	.LBB1044:
 5593 1c56 B178     		ldrb	r1, [r6, #2]	@ zero_extendqisi2
 5594              	.LVL500:
 5595 1c58 2B78     		ldrb	r3, [r5, #0]	@ zero_extendqisi2
 5596 1c5a 2278     		ldrb	r2, [r4, #0]	@ zero_extendqisi2
 5597 1c5c CB18     		adds	r3, r1, r3
 5598 1c5e DBB2     		uxtb	r3, r3
 5599 1c60 2B70     		strb	r3, [r5, #0]
 5600 1c62 9B18     		adds	r3, r3, r2
 5601 1c64 2370     		strb	r3, [r4, #0]
 5602 1c66 5048     		ldr	r0, .L326+4
 5603 1c68 FFF7FEFF 		bl	uart_transmit
 5604              	.LVL501:
 5605              	.LBE1044:
 5606              	.LBB1045:
 5607 1c6c F178     		ldrb	r1, [r6, #3]	@ zero_extendqisi2
 5608              	.LVL502:
 5609 1c6e 2B78     		ldrb	r3, [r5, #0]	@ zero_extendqisi2
 5610 1c70 2278     		ldrb	r2, [r4, #0]	@ zero_extendqisi2
 5611 1c72 CB18     		adds	r3, r1, r3
 5612 1c74 DBB2     		uxtb	r3, r3
 5613              	.LBE1045:
 5614              	.LBB1046:
 5615 1c76 524E     		ldr	r6, .L326+28
 5616              	.LBE1046:
 5617              	.LBB1047:
 5618 1c78 2B70     		strb	r3, [r5, #0]
 5619 1c7a 9B18     		adds	r3, r3, r2
 5620 1c7c 2370     		strb	r3, [r4, #0]
 5621 1c7e 4A48     		ldr	r0, .L326+4
 5622 1c80 FFF7FEFF 		bl	uart_transmit
 5623              	.LVL503:
 5624              	.LBE1047:
 5625              	.LBB1048:
 5626 1c84 3178     		ldrb	r1, [r6, #0]	@ zero_extendqisi2
 5627              	.LVL504:
 5628 1c86 2B78     		ldrb	r3, [r5, #0]	@ zero_extendqisi2
 5629 1c88 2278     		ldrb	r2, [r4, #0]	@ zero_extendqisi2
 5630 1c8a CB18     		adds	r3, r1, r3
 5631 1c8c DBB2     		uxtb	r3, r3
 5632 1c8e 2B70     		strb	r3, [r5, #0]
 5633 1c90 9B18     		adds	r3, r3, r2
 5634 1c92 2370     		strb	r3, [r4, #0]
 5635 1c94 4448     		ldr	r0, .L326+4
 5636 1c96 FFF7FEFF 		bl	uart_transmit
 5637              	.LVL505:
 5638              	.LBE1048:
 5639              	.LBB1049:
 5640 1c9a 7178     		ldrb	r1, [r6, #1]	@ zero_extendqisi2
 5641              	.LVL506:
 5642 1c9c 2B78     		ldrb	r3, [r5, #0]	@ zero_extendqisi2
 5643 1c9e 2278     		ldrb	r2, [r4, #0]	@ zero_extendqisi2
 5644 1ca0 CB18     		adds	r3, r1, r3
 5645 1ca2 DBB2     		uxtb	r3, r3
 5646 1ca4 2B70     		strb	r3, [r5, #0]
 5647 1ca6 9B18     		adds	r3, r3, r2
 5648 1ca8 2370     		strb	r3, [r4, #0]
 5649 1caa 3F48     		ldr	r0, .L326+4
 5650 1cac FFF7FEFF 		bl	uart_transmit
 5651              	.LVL507:
 5652              	.LBE1049:
 5653              	.LBB1050:
 5654 1cb0 B178     		ldrb	r1, [r6, #2]	@ zero_extendqisi2
 5655              	.LVL508:
 5656 1cb2 2B78     		ldrb	r3, [r5, #0]	@ zero_extendqisi2
 5657 1cb4 2278     		ldrb	r2, [r4, #0]	@ zero_extendqisi2
 5658 1cb6 CB18     		adds	r3, r1, r3
 5659 1cb8 DBB2     		uxtb	r3, r3
 5660 1cba 2B70     		strb	r3, [r5, #0]
 5661 1cbc 9B18     		adds	r3, r3, r2
 5662 1cbe 2370     		strb	r3, [r4, #0]
 5663 1cc0 3948     		ldr	r0, .L326+4
 5664 1cc2 FFF7FEFF 		bl	uart_transmit
 5665              	.LVL509:
 5666              	.LBE1050:
 5667              	.LBB1051:
 5668 1cc6 F178     		ldrb	r1, [r6, #3]	@ zero_extendqisi2
 5669              	.LVL510:
 5670 1cc8 2B78     		ldrb	r3, [r5, #0]	@ zero_extendqisi2
 5671 1cca 2278     		ldrb	r2, [r4, #0]	@ zero_extendqisi2
 5672 1ccc CB18     		adds	r3, r1, r3
 5673 1cce DBB2     		uxtb	r3, r3
 5674              	.LBE1051:
 5675              	.LBB1052:
 5676 1cd0 3C4E     		ldr	r6, .L326+32
 5677              	.LBE1052:
 5678              	.LBB1053:
 5679 1cd2 2B70     		strb	r3, [r5, #0]
 5680 1cd4 9B18     		adds	r3, r3, r2
 5681 1cd6 2370     		strb	r3, [r4, #0]
 5682 1cd8 3348     		ldr	r0, .L326+4
 5683 1cda FFF7FEFF 		bl	uart_transmit
 5684              	.LVL511:
 5685              	.LBE1053:
 5686              	.LBB1054:
 5687 1cde 3178     		ldrb	r1, [r6, #0]	@ zero_extendqisi2
 5688              	.LVL512:
 5689 1ce0 2B78     		ldrb	r3, [r5, #0]	@ zero_extendqisi2
 5690 1ce2 2278     		ldrb	r2, [r4, #0]	@ zero_extendqisi2
 5691 1ce4 CB18     		adds	r3, r1, r3
 5692 1ce6 DBB2     		uxtb	r3, r3
 5693 1ce8 2B70     		strb	r3, [r5, #0]
 5694 1cea 9B18     		adds	r3, r3, r2
 5695 1cec 2370     		strb	r3, [r4, #0]
 5696 1cee 2E48     		ldr	r0, .L326+4
 5697 1cf0 FFF7FEFF 		bl	uart_transmit
 5698              	.LVL513:
 5699              	.LBE1054:
 5700              	.LBB1055:
 5701 1cf4 7178     		ldrb	r1, [r6, #1]	@ zero_extendqisi2
 5702              	.LVL514:
 5703 1cf6 2B78     		ldrb	r3, [r5, #0]	@ zero_extendqisi2
 5704 1cf8 2278     		ldrb	r2, [r4, #0]	@ zero_extendqisi2
 5705 1cfa CB18     		adds	r3, r1, r3
 5706 1cfc DBB2     		uxtb	r3, r3
 5707 1cfe 2B70     		strb	r3, [r5, #0]
 5708 1d00 9B18     		adds	r3, r3, r2
 5709 1d02 2370     		strb	r3, [r4, #0]
 5710 1d04 2848     		ldr	r0, .L326+4
 5711 1d06 FFF7FEFF 		bl	uart_transmit
 5712              	.LVL515:
 5713              	.LBE1055:
 5714              	.LBB1056:
 5715 1d0a B178     		ldrb	r1, [r6, #2]	@ zero_extendqisi2
 5716              	.LVL516:
 5717 1d0c 2B78     		ldrb	r3, [r5, #0]	@ zero_extendqisi2
 5718 1d0e 2278     		ldrb	r2, [r4, #0]	@ zero_extendqisi2
 5719 1d10 CB18     		adds	r3, r1, r3
 5720 1d12 DBB2     		uxtb	r3, r3
 5721 1d14 2B70     		strb	r3, [r5, #0]
 5722 1d16 9B18     		adds	r3, r3, r2
 5723 1d18 2370     		strb	r3, [r4, #0]
 5724 1d1a 2348     		ldr	r0, .L326+4
 5725 1d1c FFF7FEFF 		bl	uart_transmit
 5726              	.LVL517:
 5727              	.LBE1056:
 5728              	.LBB1057:
 5729 1d20 F178     		ldrb	r1, [r6, #3]	@ zero_extendqisi2
 5730              	.LVL518:
 5731 1d22 2B78     		ldrb	r3, [r5, #0]	@ zero_extendqisi2
 5732 1d24 2278     		ldrb	r2, [r4, #0]	@ zero_extendqisi2
 5733 1d26 CB18     		adds	r3, r1, r3
 5734 1d28 DBB2     		uxtb	r3, r3
 5735              	.LBE1057:
 5736              	.LBB1058:
 5737 1d2a 274E     		ldr	r6, .L326+36
 5738              	.LBE1058:
 5739              	.LBB1059:
 5740 1d2c 2B70     		strb	r3, [r5, #0]
 5741 1d2e 9B18     		adds	r3, r3, r2
 5742 1d30 2370     		strb	r3, [r4, #0]
 5743 1d32 1D48     		ldr	r0, .L326+4
 5744 1d34 FFF7FEFF 		bl	uart_transmit
 5745              	.LVL519:
 5746              	.LBE1059:
 5747              	.LBB1060:
 5748 1d38 3178     		ldrb	r1, [r6, #0]	@ zero_extendqisi2
 5749              	.LVL520:
 5750 1d3a 2B78     		ldrb	r3, [r5, #0]	@ zero_extendqisi2
 5751 1d3c 2278     		ldrb	r2, [r4, #0]	@ zero_extendqisi2
 5752 1d3e CB18     		adds	r3, r1, r3
 5753 1d40 DBB2     		uxtb	r3, r3
 5754 1d42 2B70     		strb	r3, [r5, #0]
 5755 1d44 9B18     		adds	r3, r3, r2
 5756 1d46 2370     		strb	r3, [r4, #0]
 5757 1d48 1748     		ldr	r0, .L326+4
 5758 1d4a FFF7FEFF 		bl	uart_transmit
 5759              	.LVL521:
 5760              	.LBE1060:
 5761              	.LBB1061:
 5762 1d4e 7178     		ldrb	r1, [r6, #1]	@ zero_extendqisi2
 5763              	.LVL522:
 5764 1d50 2B78     		ldrb	r3, [r5, #0]	@ zero_extendqisi2
 5765 1d52 2278     		ldrb	r2, [r4, #0]	@ zero_extendqisi2
 5766 1d54 CB18     		adds	r3, r1, r3
 5767 1d56 DBB2     		uxtb	r3, r3
 5768 1d58 2B70     		strb	r3, [r5, #0]
 5769 1d5a 9B18     		adds	r3, r3, r2
 5770 1d5c 2370     		strb	r3, [r4, #0]
 5771 1d5e 1248     		ldr	r0, .L326+4
 5772 1d60 FFF7FEFF 		bl	uart_transmit
 5773              	.LVL523:
 5774              	.LBE1061:
 5775              	.LBB1062:
 5776 1d64 B178     		ldrb	r1, [r6, #2]	@ zero_extendqisi2
 5777              	.LVL524:
 5778 1d66 2B78     		ldrb	r3, [r5, #0]	@ zero_extendqisi2
 5779 1d68 2278     		ldrb	r2, [r4, #0]	@ zero_extendqisi2
 5780 1d6a CB18     		adds	r3, r1, r3
 5781 1d6c DBB2     		uxtb	r3, r3
 5782 1d6e 2B70     		strb	r3, [r5, #0]
 5783 1d70 9B18     		adds	r3, r3, r2
 5784 1d72 2370     		strb	r3, [r4, #0]
 5785 1d74 0C48     		ldr	r0, .L326+4
 5786 1d76 FFF7FEFF 		bl	uart_transmit
 5787              	.LVL525:
 5788              	.LBE1062:
 5789              	.LBB1063:
 5790 1d7a F178     		ldrb	r1, [r6, #3]	@ zero_extendqisi2
 5791              	.LVL526:
 5792              	.L283:
 5793 1d7c 2B78     		ldrb	r3, [r5, #0]	@ zero_extendqisi2
 5794 1d7e 2278     		ldrb	r2, [r4, #0]	@ zero_extendqisi2
 5795 1d80 CB18     		adds	r3, r1, r3
 5796 1d82 DBB2     		uxtb	r3, r3
 5797 1d84 2B70     		strb	r3, [r5, #0]
 5798 1d86 9B18     		adds	r3, r3, r2
 5799 1d88 2370     		strb	r3, [r4, #0]
 5800 1d8a 0748     		ldr	r0, .L326+4
 5801 1d8c FFF7FEFF 		bl	uart_transmit
 5802              	.LVL527:
 5803              	.LBE1063:
 5804 1d90 2978     		ldrb	r1, [r5, #0]	@ zero_extendqisi2
 5805 1d92 0548     		ldr	r0, .L326+4
 5806 1d94 FFF7FEFF 		bl	uart_transmit
 5807 1d98 0348     		ldr	r0, .L326+4
 5808 1d9a 2178     		ldrb	r1, [r4, #0]	@ zero_extendqisi2
 5809 1d9c FFF7FEFF 		bl	uart_transmit
 5810 1da0 18E0     		b	.L130
 5811              	.L327:
 5812 1da2 00BF     		.align	2
 5813              	.L326:
 5814 1da4 00000000 		.word	nav_survey_active
 5815 1da8 00000000 		.word	uart2
 5816 1dac 00000000 		.word	downlink_nb_bytes
 5817 1db0 00000000 		.word	downlink_nb_msgs
 5818 1db4 00000000 		.word	ck_a
 5819 1db8 00000000 		.word	ck_b
 5820 1dbc 00000000 		.word	nav_survey_east
 5821 1dc0 00000000 		.word	nav_survey_north
 5822 1dc4 00000000 		.word	nav_survey_west
 5823 1dc8 00000000 		.word	nav_survey_south
 5824              	.L131:
 5825 1dcc 7D4B     		ldr	r3, .L328
 5826 1dce 1A78     		ldrb	r2, [r3, #0]	@ zero_extendqisi2
 5827 1dd0 0132     		adds	r2, r2, #1
 5828 1dd2 1A70     		strb	r2, [r3, #0]
 5829              	.L130:
 5830 1dd4 7C4B     		ldr	r3, .L328+4
 5831 1dd6 1B78     		ldrb	r3, [r3, #0]	@ zero_extendqisi2
 5832 1dd8 2A2B     		cmp	r3, #42
 5833 1dda 40F00F81 		bne	.L132
 5834              	.LBB1064:
 5835 1dde 7B4B     		ldr	r3, .L328+8
 5836 1de0 1868     		ldr	r0, [r3, #0]	@ float
 5837 1de2 FFF7FEFF 		bl	__aeabi_f2iz
 5838 1de6 7A4B     		ldr	r3, .L328+12
 5839 1de8 ADF80C00 		strh	r0, [sp, #12]	@ movhi
 5840              	.LVL528:
 5841 1dec 1878     		ldrb	r0, [r3, #0]	@ zero_extendqisi2
 5842 1dee FFF7FEFF 		bl	__aeabi_ui2f
 5843 1df2 7849     		ldr	r1, .L328+16
 5844 1df4 FFF7FEFF 		bl	__aeabi_fdiv
 5845 1df8 774B     		ldr	r3, .L328+20
 5846 1dfa 0446     		mov	r4, r0
 5847 1dfc 0290     		str	r0, [sp, #8]	@ float
 5848              	.LVL529:
 5849 1dfe 1868     		ldr	r0, [r3, #0]
 5850 1e00 FFF7FEFF 		bl	__aeabi_i2f
 5851 1e04 7549     		ldr	r1, .L328+24
 5852 1e06 FFF7FEFF 		bl	__aeabi_fdiv
 5853 1e0a 0146     		mov	r1, r0
 5854 1e0c 0090     		str	r0, [sp, #0]	@ float
 5855              	.LVL530:
 5856 1e0e 2046     		mov	r0, r4
 5857 1e10 FFF7FEFF 		bl	__aeabi_fmul
 5858 1e14 1421     		movs	r1, #20
 5859 1e16 0190     		str	r0, [sp, #4]	@ float
 5860              	.LVL531:
 5861 1e18 7148     		ldr	r0, .L328+28
 5862 1e1a FFF7FEFF 		bl	uart_check_free_space
 5863 1e1e 0028     		cmp	r0, #0
 5864 1e20 00F0E880 		beq	.L133
 5865 1e24 6F4B     		ldr	r3, .L328+32
 5866              	.LBB1065:
 5867 1e26 9921     		movs	r1, #153
 5868              	.LBE1065:
 5869 1e28 1A88     		ldrh	r2, [r3, #0]
 5870              	.LBB1066:
 5871 1e2a 6D48     		ldr	r0, .L328+28
 5872              	.LBE1066:
 5873 1e2c 1432     		adds	r2, r2, #20
 5874 1e2e 1A80     		strh	r2, [r3, #0]	@ movhi
 5875 1e30 6D4B     		ldr	r3, .L328+36
 5876              	.LBB1067:
 5877 1e32 6E4D     		ldr	r5, .L328+40
 5878              	.LBE1067:
 5879 1e34 1A88     		ldrh	r2, [r3, #0]
 5880              	.LBB1068:
 5881 1e36 6E4C     		ldr	r4, .L328+44
 5882              	.LBE1068:
 5883 1e38 0132     		adds	r2, r2, #1
 5884 1e3a 1A80     		strh	r2, [r3, #0]	@ movhi
 5885              	.LBB1069:
 5886 1e3c FFF7FEFF 		bl	uart_transmit
 5887 1e40 1421     		movs	r1, #20
 5888 1e42 6748     		ldr	r0, .L328+28
 5889 1e44 FFF7FEFF 		bl	uart_transmit
 5890              	.LBE1069:
 5891 1e48 1523     		movs	r3, #21
 5892 1e4a 2B70     		strb	r3, [r5, #0]
 5893 1e4c 1433     		adds	r3, r3, #20
 5894 1e4e 2370     		strb	r3, [r4, #0]
 5895 1e50 0121     		movs	r1, #1
 5896 1e52 6348     		ldr	r0, .L328+28
 5897 1e54 FFF7FEFF 		bl	uart_transmit
 5898 1e58 2B78     		ldrb	r3, [r5, #0]	@ zero_extendqisi2
 5899 1e5a 2278     		ldrb	r2, [r4, #0]	@ zero_extendqisi2
 5900 1e5c 2533     		adds	r3, r3, #37
 5901 1e5e DBB2     		uxtb	r3, r3
 5902 1e60 2B70     		strb	r3, [r5, #0]
 5903 1e62 9B18     		adds	r3, r3, r2
 5904 1e64 2370     		strb	r3, [r4, #0]
 5905 1e66 2521     		movs	r1, #37
 5906 1e68 5D48     		ldr	r0, .L328+28
 5907 1e6a FFF7FEFF 		bl	uart_transmit
 5908              	.LBB1070:
 5909 1e6e 9DF80810 		ldrb	r1, [sp, #8]	@ zero_extendqisi2
 5910              	.LVL532:
 5911 1e72 2B78     		ldrb	r3, [r5, #0]	@ zero_extendqisi2
 5912 1e74 2278     		ldrb	r2, [r4, #0]	@ zero_extendqisi2
 5913 1e76 CB18     		adds	r3, r1, r3
 5914 1e78 DBB2     		uxtb	r3, r3
 5915 1e7a 2B70     		strb	r3, [r5, #0]
 5916 1e7c 9B18     		adds	r3, r3, r2
 5917 1e7e 02AE     		add	r6, sp, #8
 5918 1e80 2370     		strb	r3, [r4, #0]
 5919 1e82 5748     		ldr	r0, .L328+28
 5920 1e84 FFF7FEFF 		bl	uart_transmit
 5921              	.LVL533:
 5922              	.LBE1070:
 5923              	.LBB1071:
 5924 1e88 7178     		ldrb	r1, [r6, #1]	@ zero_extendqisi2
 5925              	.LVL534:
 5926 1e8a 2B78     		ldrb	r3, [r5, #0]	@ zero_extendqisi2
 5927 1e8c 2278     		ldrb	r2, [r4, #0]	@ zero_extendqisi2
 5928 1e8e CB18     		adds	r3, r1, r3
 5929 1e90 DBB2     		uxtb	r3, r3
 5930 1e92 2B70     		strb	r3, [r5, #0]
 5931 1e94 9B18     		adds	r3, r3, r2
 5932 1e96 2370     		strb	r3, [r4, #0]
 5933 1e98 5148     		ldr	r0, .L328+28
 5934 1e9a FFF7FEFF 		bl	uart_transmit
 5935              	.LVL535:
 5936              	.LBE1071:
 5937              	.LBB1072:
 5938 1e9e B178     		ldrb	r1, [r6, #2]	@ zero_extendqisi2
 5939              	.LVL536:
 5940 1ea0 2B78     		ldrb	r3, [r5, #0]	@ zero_extendqisi2
 5941 1ea2 2278     		ldrb	r2, [r4, #0]	@ zero_extendqisi2
 5942 1ea4 CB18     		adds	r3, r1, r3
 5943 1ea6 DBB2     		uxtb	r3, r3
 5944 1ea8 2B70     		strb	r3, [r5, #0]
 5945 1eaa 9B18     		adds	r3, r3, r2
 5946 1eac 2370     		strb	r3, [r4, #0]
 5947 1eae 4C48     		ldr	r0, .L328+28
 5948 1eb0 FFF7FEFF 		bl	uart_transmit
 5949              	.LVL537:
 5950              	.LBE1072:
 5951              	.LBB1073:
 5952 1eb4 F178     		ldrb	r1, [r6, #3]	@ zero_extendqisi2
 5953              	.LVL538:
 5954 1eb6 2B78     		ldrb	r3, [r5, #0]	@ zero_extendqisi2
 5955 1eb8 2278     		ldrb	r2, [r4, #0]	@ zero_extendqisi2
 5956 1eba CB18     		adds	r3, r1, r3
 5957 1ebc DBB2     		uxtb	r3, r3
 5958 1ebe 2B70     		strb	r3, [r5, #0]
 5959 1ec0 9B18     		adds	r3, r3, r2
 5960 1ec2 2370     		strb	r3, [r4, #0]
 5961 1ec4 4648     		ldr	r0, .L328+28
 5962 1ec6 FFF7FEFF 		bl	uart_transmit
 5963              	.LVL539:
 5964              	.LBE1073:
 5965              	.LBB1074:
 5966 1eca 9DF80010 		ldrb	r1, [sp, #0]	@ zero_extendqisi2
 5967              	.LVL540:
 5968 1ece 2B78     		ldrb	r3, [r5, #0]	@ zero_extendqisi2
 5969 1ed0 2278     		ldrb	r2, [r4, #0]	@ zero_extendqisi2
 5970 1ed2 CB18     		adds	r3, r1, r3
 5971 1ed4 DBB2     		uxtb	r3, r3
 5972 1ed6 2B70     		strb	r3, [r5, #0]
 5973 1ed8 9B18     		adds	r3, r3, r2
 5974 1eda 6E46     		mov	r6, sp
 5975 1edc 2370     		strb	r3, [r4, #0]
 5976 1ede 4048     		ldr	r0, .L328+28
 5977 1ee0 FFF7FEFF 		bl	uart_transmit
 5978              	.LVL541:
 5979              	.LBE1074:
 5980              	.LBB1075:
 5981 1ee4 7178     		ldrb	r1, [r6, #1]	@ zero_extendqisi2
 5982              	.LVL542:
 5983 1ee6 2B78     		ldrb	r3, [r5, #0]	@ zero_extendqisi2
 5984 1ee8 2278     		ldrb	r2, [r4, #0]	@ zero_extendqisi2
 5985 1eea CB18     		adds	r3, r1, r3
 5986 1eec DBB2     		uxtb	r3, r3
 5987 1eee 2B70     		strb	r3, [r5, #0]
 5988 1ef0 9B18     		adds	r3, r3, r2
 5989 1ef2 2370     		strb	r3, [r4, #0]
 5990 1ef4 3A48     		ldr	r0, .L328+28
 5991 1ef6 FFF7FEFF 		bl	uart_transmit
 5992              	.LVL543:
 5993              	.LBE1075:
 5994              	.LBB1076:
 5995 1efa B178     		ldrb	r1, [r6, #2]	@ zero_extendqisi2
 5996              	.LVL544:
 5997 1efc 2B78     		ldrb	r3, [r5, #0]	@ zero_extendqisi2
 5998 1efe 2278     		ldrb	r2, [r4, #0]	@ zero_extendqisi2
 5999 1f00 CB18     		adds	r3, r1, r3
 6000 1f02 DBB2     		uxtb	r3, r3
 6001 1f04 2B70     		strb	r3, [r5, #0]
 6002 1f06 9B18     		adds	r3, r3, r2
 6003 1f08 2370     		strb	r3, [r4, #0]
 6004 1f0a 3548     		ldr	r0, .L328+28
 6005 1f0c FFF7FEFF 		bl	uart_transmit
 6006              	.LVL545:
 6007              	.LBE1076:
 6008              	.LBB1077:
 6009 1f10 F178     		ldrb	r1, [r6, #3]	@ zero_extendqisi2
 6010              	.LVL546:
 6011 1f12 2B78     		ldrb	r3, [r5, #0]	@ zero_extendqisi2
 6012 1f14 2278     		ldrb	r2, [r4, #0]	@ zero_extendqisi2
 6013 1f16 CB18     		adds	r3, r1, r3
 6014 1f18 DBB2     		uxtb	r3, r3
 6015 1f1a 2B70     		strb	r3, [r5, #0]
 6016 1f1c 9B18     		adds	r3, r3, r2
 6017 1f1e 2370     		strb	r3, [r4, #0]
 6018 1f20 2F48     		ldr	r0, .L328+28
 6019 1f22 FFF7FEFF 		bl	uart_transmit
 6020              	.LVL547:
 6021              	.LBE1077:
 6022              	.LBB1078:
 6023 1f26 9DF80C10 		ldrb	r1, [sp, #12]	@ zero_extendqisi2
 6024              	.LVL548:
 6025 1f2a 2B78     		ldrb	r3, [r5, #0]	@ zero_extendqisi2
 6026 1f2c 2278     		ldrb	r2, [r4, #0]	@ zero_extendqisi2
 6027 1f2e CB18     		adds	r3, r1, r3
 6028 1f30 DBB2     		uxtb	r3, r3
 6029 1f32 2B70     		strb	r3, [r5, #0]
 6030 1f34 9B18     		adds	r3, r3, r2
 6031 1f36 2370     		strb	r3, [r4, #0]
 6032 1f38 2948     		ldr	r0, .L328+28
 6033 1f3a FFF7FEFF 		bl	uart_transmit
 6034              	.LVL549:
 6035              	.LBE1078:
 6036              	.LBB1079:
 6037 1f3e 03AB     		add	r3, sp, #12
 6038 1f40 5978     		ldrb	r1, [r3, #1]	@ zero_extendqisi2
 6039              	.LVL550:
 6040 1f42 2B78     		ldrb	r3, [r5, #0]	@ zero_extendqisi2
 6041 1f44 2278     		ldrb	r2, [r4, #0]	@ zero_extendqisi2
 6042 1f46 CB18     		adds	r3, r1, r3
 6043 1f48 DBB2     		uxtb	r3, r3
 6044 1f4a 2B70     		strb	r3, [r5, #0]
 6045 1f4c 9B18     		adds	r3, r3, r2
 6046 1f4e 2370     		strb	r3, [r4, #0]
 6047 1f50 2348     		ldr	r0, .L328+28
 6048 1f52 FFF7FEFF 		bl	uart_transmit
 6049              	.LVL551:
 6050              	.LBE1079:
 6051              	.LBB1080:
 6052 1f56 9DF80410 		ldrb	r1, [sp, #4]	@ zero_extendqisi2
 6053              	.LVL552:
 6054 1f5a 2B78     		ldrb	r3, [r5, #0]	@ zero_extendqisi2
 6055 1f5c 2278     		ldrb	r2, [r4, #0]	@ zero_extendqisi2
 6056 1f5e CB18     		adds	r3, r1, r3
 6057 1f60 DBB2     		uxtb	r3, r3
 6058 1f62 2B70     		strb	r3, [r5, #0]
 6059 1f64 9B18     		adds	r3, r3, r2
 6060 1f66 01AE     		add	r6, sp, #4
 6061 1f68 2370     		strb	r3, [r4, #0]
 6062 1f6a 1D48     		ldr	r0, .L328+28
 6063 1f6c FFF7FEFF 		bl	uart_transmit
 6064              	.LVL553:
 6065              	.LBE1080:
 6066              	.LBB1081:
 6067 1f70 7178     		ldrb	r1, [r6, #1]	@ zero_extendqisi2
 6068              	.LVL554:
 6069 1f72 2B78     		ldrb	r3, [r5, #0]	@ zero_extendqisi2
 6070 1f74 2278     		ldrb	r2, [r4, #0]	@ zero_extendqisi2
 6071 1f76 CB18     		adds	r3, r1, r3
 6072 1f78 DBB2     		uxtb	r3, r3
 6073 1f7a 2B70     		strb	r3, [r5, #0]
 6074 1f7c 9B18     		adds	r3, r3, r2
 6075 1f7e 2370     		strb	r3, [r4, #0]
 6076 1f80 1748     		ldr	r0, .L328+28
 6077 1f82 FFF7FEFF 		bl	uart_transmit
 6078              	.LVL555:
 6079              	.LBE1081:
 6080              	.LBB1082:
 6081 1f86 B178     		ldrb	r1, [r6, #2]	@ zero_extendqisi2
 6082              	.LVL556:
 6083 1f88 2B78     		ldrb	r3, [r5, #0]	@ zero_extendqisi2
 6084 1f8a 2278     		ldrb	r2, [r4, #0]	@ zero_extendqisi2
 6085 1f8c CB18     		adds	r3, r1, r3
 6086 1f8e DBB2     		uxtb	r3, r3
 6087 1f90 2B70     		strb	r3, [r5, #0]
 6088 1f92 9B18     		adds	r3, r3, r2
 6089 1f94 2370     		strb	r3, [r4, #0]
 6090 1f96 1248     		ldr	r0, .L328+28
 6091 1f98 FFF7FEFF 		bl	uart_transmit
 6092              	.LVL557:
 6093              	.LBE1082:
 6094              	.LBB1083:
 6095 1f9c F178     		ldrb	r1, [r6, #3]	@ zero_extendqisi2
 6096              	.LVL558:
 6097 1f9e 2B78     		ldrb	r3, [r5, #0]	@ zero_extendqisi2
 6098 1fa0 2278     		ldrb	r2, [r4, #0]	@ zero_extendqisi2
 6099 1fa2 CB18     		adds	r3, r1, r3
 6100 1fa4 DBB2     		uxtb	r3, r3
 6101 1fa6 2B70     		strb	r3, [r5, #0]
 6102 1fa8 9B18     		adds	r3, r3, r2
 6103 1faa 2370     		strb	r3, [r4, #0]
 6104 1fac 0C48     		ldr	r0, .L328+28
 6105 1fae FFF7FEFF 		bl	uart_transmit
 6106              	.LVL559:
 6107              	.LBE1083:
 6108 1fb2 2978     		ldrb	r1, [r5, #0]	@ zero_extendqisi2
 6109 1fb4 0A48     		ldr	r0, .L328+28
 6110 1fb6 FFF7FEFF 		bl	uart_transmit
 6111 1fba 0948     		ldr	r0, .L328+28
 6112 1fbc 2178     		ldrb	r1, [r4, #0]	@ zero_extendqisi2
 6113 1fbe FFF7FEFF 		bl	uart_transmit
 6114 1fc2 1BE0     		b	.L132
 6115              	.L329:
 6116              		.align	2
 6117              	.L328:
 6118 1fc4 00000000 		.word	downlink_nb_ovrn
 6119 1fc8 00000000 		.word	.LANCHOR28
 6120 1fcc 00000000 		.word	.LANCHOR10
 6121 1fd0 00000000 		.word	.LANCHOR8
 6122 1fd4 00002041 		.word	1092616192
 6123 1fd8 00000000 		.word	.LANCHOR11
 6124 1fdc 00007A44 		.word	1148846080
 6125 1fe0 00000000 		.word	uart2
 6126 1fe4 00000000 		.word	downlink_nb_bytes
 6127 1fe8 00000000 		.word	downlink_nb_msgs
 6128 1fec 00000000 		.word	ck_a
 6129 1ff0 00000000 		.word	ck_b
 6130              	.L133:
 6131 1ff4 984B     		ldr	r3, .L330
 6132 1ff6 1A78     		ldrb	r2, [r3, #0]	@ zero_extendqisi2
 6133 1ff8 0132     		adds	r2, r2, #1
 6134 1ffa 1A70     		strb	r2, [r3, #0]
 6135              	.L132:
 6136              	.LBE1064:
 6137 1ffc 974B     		ldr	r3, .L330+4
 6138 1ffe 1B88     		ldrh	r3, [r3, #0]
 6139 2000 302B     		cmp	r3, #48
 6140 2002 50D1     		bne	.L134
 6141 2004 9648     		ldr	r0, .L330+8
 6142 2006 1721     		movs	r1, #23
 6143 2008 FFF7FEFF 		bl	uart_check_free_space
 6144 200c 0028     		cmp	r0, #0
 6145 200e 00F04381 		beq	.L143
 6146 2012 944B     		ldr	r3, .L330+12
 6147              	.LBB1084:
 6148 2014 9248     		ldr	r0, .L330+8
 6149              	.LBE1084:
 6150 2016 1A88     		ldrh	r2, [r3, #0]
 6151              	.LBB1085:
 6152 2018 9921     		movs	r1, #153
 6153              	.LBE1085:
 6154 201a 1732     		adds	r2, r2, #23
 6155 201c 1A80     		strh	r2, [r3, #0]	@ movhi
 6156 201e 924B     		ldr	r3, .L330+16
 6157              	.LBB1086:
 6158 2020 924D     		ldr	r5, .L330+20
 6159              	.LBE1086:
 6160 2022 1A88     		ldrh	r2, [r3, #0]
 6161              	.LBB1087:
 6162 2024 924C     		ldr	r4, .L330+24
 6163              	.LBE1087:
 6164 2026 0132     		adds	r2, r2, #1
 6165 2028 1A80     		strh	r2, [r3, #0]	@ movhi
 6166              	.LBB1088:
 6167 202a FFF7FEFF 		bl	uart_transmit
 6168 202e 8C48     		ldr	r0, .L330+8
 6169 2030 1721     		movs	r1, #23
 6170 2032 FFF7FEFF 		bl	uart_transmit
 6171              	.LBE1088:
 6172 2036 1823     		movs	r3, #24
 6173 2038 2B70     		strb	r3, [r5, #0]
 6174 203a 1733     		adds	r3, r3, #23
 6175 203c 2370     		strb	r3, [r4, #0]
 6176 203e 8848     		ldr	r0, .L330+8
 6177 2040 0121     		movs	r1, #1
 6178 2042 FFF7FEFF 		bl	uart_transmit
 6179 2046 2B78     		ldrb	r3, [r5, #0]	@ zero_extendqisi2
 6180 2048 2278     		ldrb	r2, [r4, #0]	@ zero_extendqisi2
 6181 204a 0233     		adds	r3, r3, #2
 6182 204c DBB2     		uxtb	r3, r3
 6183 204e 2B70     		strb	r3, [r5, #0]
 6184 2050 9B18     		adds	r3, r3, r2
 6185 2052 2370     		strb	r3, [r4, #0]
 6186 2054 8248     		ldr	r0, .L330+8
 6187 2056 0221     		movs	r1, #2
 6188 2058 FFF7FEFF 		bl	uart_transmit
 6189              	.LBB1089:
 6190 205c 2B78     		ldrb	r3, [r5, #0]	@ zero_extendqisi2
 6191 205e 2278     		ldrb	r2, [r4, #0]	@ zero_extendqisi2
 6192 2060 1033     		adds	r3, r3, #16
 6193 2062 DBB2     		uxtb	r3, r3
 6194 2064 2B70     		strb	r3, [r5, #0]
 6195 2066 9B18     		adds	r3, r3, r2
 6196 2068 2370     		strb	r3, [r4, #0]
 6197 206a 7D48     		ldr	r0, .L330+8
 6198 206c 1021     		movs	r1, #16
 6199 206e FFF7FEFF 		bl	uart_transmit
 6200 2072 804C     		ldr	r4, .L330+28
 425:firmwares/fixedwing/main_ap.c **** void periodic_task_ap( void ) {
 6201              		.loc 1 425 0
 6202 2074 04F11007 		add	r7, r4, #16
 6203              	.L136:
 6204              	.LBB1090:
 205:firmwares/fixedwing/main_ap.c ****     PeriodicSendAp(DefaultChannel);
 6205              		.loc 1 205 0
 6206 2078 7C4E     		ldr	r6, .L330+20
 6207 207a 14F8011B 		ldrb	r1, [r4], #1	@ zero_extendqisi2
 6208              	.LVL560:
 6209 207e 3378     		ldrb	r3, [r6, #0]	@ zero_extendqisi2
 6210 2080 7B4D     		ldr	r5, .L330+24
 6211 2082 CB18     		adds	r3, r1, r3
 6212 2084 2A78     		ldrb	r2, [r5, #0]	@ zero_extendqisi2
 6213 2086 DBB2     		uxtb	r3, r3
 6214 2088 3370     		strb	r3, [r6, #0]
 6215 208a 9B18     		adds	r3, r3, r2
 6216 208c 2B70     		strb	r3, [r5, #0]
 6217 208e 7448     		ldr	r0, .L330+8
 6218 2090 FFF7FEFF 		bl	uart_transmit
 6219              	.LVL561:
 6220              	.LBE1090:
 6221 2094 BC42     		cmp	r4, r7
 6222 2096 EFD1     		bne	.L136
 6223              	.LBE1089:
 6224 2098 7148     		ldr	r0, .L330+8
 6225 209a 3178     		ldrb	r1, [r6, #0]	@ zero_extendqisi2
 6226 209c FFF7FEFF 		bl	uart_transmit
 6227 20a0 6F48     		ldr	r0, .L330+8
 6228 20a2 2978     		ldrb	r1, [r5, #0]	@ zero_extendqisi2
 6229 20a4 7BE0     		b	.L284
 6230              	.L134:
 6231 20a6 362B     		cmp	r3, #54
 6232 20a8 7CD1     		bne	.L138
 6233 20aa 6D48     		ldr	r0, .L330+8
 6234 20ac 0C21     		movs	r1, #12
 6235 20ae FFF7FEFF 		bl	uart_check_free_space
 6236 20b2 0028     		cmp	r0, #0
 6237 20b4 00F0F080 		beq	.L143
 6238 20b8 6A4B     		ldr	r3, .L330+12
 6239              	.LBB1091:
 6240 20ba 6948     		ldr	r0, .L330+8
 6241              	.LBE1091:
 6242 20bc 1A88     		ldrh	r2, [r3, #0]
 6243              	.LBB1092:
 6244 20be 9921     		movs	r1, #153
 6245              	.LBE1092:
 6246 20c0 0C32     		adds	r2, r2, #12
 6247 20c2 1A80     		strh	r2, [r3, #0]	@ movhi
 6248 20c4 684B     		ldr	r3, .L330+16
 6249              	.LBB1093:
 6250 20c6 694D     		ldr	r5, .L330+20
 6251              	.LBE1093:
 6252 20c8 1A88     		ldrh	r2, [r3, #0]
 6253              	.LBB1094:
 6254 20ca 694C     		ldr	r4, .L330+24
 6255              	.LBE1094:
 6256 20cc 0132     		adds	r2, r2, #1
 6257 20ce 1A80     		strh	r2, [r3, #0]	@ movhi
 6258              	.LBB1095:
 6259 20d0 FFF7FEFF 		bl	uart_transmit
 6260 20d4 6248     		ldr	r0, .L330+8
 6261 20d6 0C21     		movs	r1, #12
 6262 20d8 FFF7FEFF 		bl	uart_transmit
 6263              	.LBE1095:
 6264 20dc 0D23     		movs	r3, #13
 6265 20de 2B70     		strb	r3, [r5, #0]
 6266 20e0 0C33     		adds	r3, r3, #12
 6267 20e2 2370     		strb	r3, [r4, #0]
 6268 20e4 5E48     		ldr	r0, .L330+8
 6269 20e6 0121     		movs	r1, #1
 6270 20e8 FFF7FEFF 		bl	uart_transmit
 6271 20ec 2B78     		ldrb	r3, [r5, #0]	@ zero_extendqisi2
 6272 20ee 2278     		ldrb	r2, [r4, #0]	@ zero_extendqisi2
 6273 20f0 0B33     		adds	r3, r3, #11
 6274 20f2 DBB2     		uxtb	r3, r3
 6275 20f4 2B70     		strb	r3, [r5, #0]
 6276 20f6 9B18     		adds	r3, r3, r2
 6277 20f8 2370     		strb	r3, [r4, #0]
 6278 20fa 5948     		ldr	r0, .L330+8
 6279 20fc 0B21     		movs	r1, #11
 6280 20fe FFF7FEFF 		bl	uart_transmit
 6281              	.LBB1096:
 6282 2102 5D4B     		ldr	r3, .L330+32
 6283 2104 2278     		ldrb	r2, [r4, #0]	@ zero_extendqisi2
 6284 2106 1978     		ldrb	r1, [r3, #0]	@ zero_extendqisi2
 6285              	.LVL562:
 6286 2108 2B78     		ldrb	r3, [r5, #0]	@ zero_extendqisi2
 6287 210a 5548     		ldr	r0, .L330+8
 6288 210c CB18     		adds	r3, r1, r3
 6289 210e DBB2     		uxtb	r3, r3
 6290 2110 2B70     		strb	r3, [r5, #0]
 6291 2112 9B18     		adds	r3, r3, r2
 6292 2114 2370     		strb	r3, [r4, #0]
 6293 2116 FFF7FEFF 		bl	uart_transmit
 6294              	.LVL563:
 6295              	.LBE1096:
 6296              	.LBB1097:
 6297 211a 584B     		ldr	r3, .L330+36
 6298 211c 2278     		ldrb	r2, [r4, #0]	@ zero_extendqisi2
 6299 211e 1978     		ldrb	r1, [r3, #0]	@ zero_extendqisi2
 6300              	.LVL564:
 6301 2120 2B78     		ldrb	r3, [r5, #0]	@ zero_extendqisi2
 6302 2122 4F48     		ldr	r0, .L330+8
 6303 2124 CB18     		adds	r3, r1, r3
 6304 2126 DBB2     		uxtb	r3, r3
 6305 2128 2B70     		strb	r3, [r5, #0]
 6306 212a 9B18     		adds	r3, r3, r2
 6307 212c 2370     		strb	r3, [r4, #0]
 6308 212e FFF7FEFF 		bl	uart_transmit
 6309              	.LVL565:
 6310              	.LBE1097:
 6311              	.LBB1098:
 6312 2132 534B     		ldr	r3, .L330+40
 6313 2134 2278     		ldrb	r2, [r4, #0]	@ zero_extendqisi2
 6314 2136 1978     		ldrb	r1, [r3, #0]	@ zero_extendqisi2
 6315              	.LVL566:
 6316 2138 2B78     		ldrb	r3, [r5, #0]	@ zero_extendqisi2
 6317 213a 4948     		ldr	r0, .L330+8
 6318 213c CB18     		adds	r3, r1, r3
 6319 213e DBB2     		uxtb	r3, r3
 6320 2140 2B70     		strb	r3, [r5, #0]
 6321 2142 9B18     		adds	r3, r3, r2
 6322 2144 2370     		strb	r3, [r4, #0]
 6323 2146 FFF7FEFF 		bl	uart_transmit
 6324              	.LVL567:
 6325              	.LBE1098:
 6326              	.LBB1099:
 6327 214a 4E4B     		ldr	r3, .L330+44
 6328 214c 2278     		ldrb	r2, [r4, #0]	@ zero_extendqisi2
 6329 214e 1978     		ldrb	r1, [r3, #0]	@ zero_extendqisi2
 6330              	.LVL568:
 6331 2150 2B78     		ldrb	r3, [r5, #0]	@ zero_extendqisi2
 6332 2152 4348     		ldr	r0, .L330+8
 6333 2154 CB18     		adds	r3, r1, r3
 6334 2156 DBB2     		uxtb	r3, r3
 6335 2158 2B70     		strb	r3, [r5, #0]
 6336 215a 9B18     		adds	r3, r3, r2
 6337 215c 2370     		strb	r3, [r4, #0]
 6338 215e FFF7FEFF 		bl	uart_transmit
 6339              	.LVL569:
 6340              	.LBE1099:
 6341              	.LBB1100:
 6342 2162 494B     		ldr	r3, .L330+48
 6343 2164 2278     		ldrb	r2, [r4, #0]	@ zero_extendqisi2
 6344 2166 1978     		ldrb	r1, [r3, #0]	@ zero_extendqisi2
 6345              	.LVL570:
 6346 2168 2B78     		ldrb	r3, [r5, #0]	@ zero_extendqisi2
 6347 216a 3D48     		ldr	r0, .L330+8
 6348 216c CB18     		adds	r3, r1, r3
 6349 216e DBB2     		uxtb	r3, r3
 6350 2170 2B70     		strb	r3, [r5, #0]
 6351 2172 9B18     		adds	r3, r3, r2
 6352 2174 2370     		strb	r3, [r4, #0]
 6353 2176 FFF7FEFF 		bl	uart_transmit
 6354              	.LVL571:
 6355              	.LBE1100:
 6356              	.LBB1101:
 6357 217a 444B     		ldr	r3, .L330+52
 6358 217c 1978     		ldrb	r1, [r3, #0]	@ zero_extendqisi2
 6359              	.LVL572:
 6360              	.L292:
 6361 217e 2B78     		ldrb	r3, [r5, #0]	@ zero_extendqisi2
 6362 2180 2278     		ldrb	r2, [r4, #0]	@ zero_extendqisi2
 6363 2182 CB18     		adds	r3, r1, r3
 6364 2184 DBB2     		uxtb	r3, r3
 6365 2186 2B70     		strb	r3, [r5, #0]
 6366 2188 9B18     		adds	r3, r3, r2
 6367 218a 2370     		strb	r3, [r4, #0]
 6368 218c 3448     		ldr	r0, .L330+8
 6369 218e FFF7FEFF 		bl	uart_transmit
 6370              	.LVL573:
 6371              	.LBE1101:
 6372 2192 3348     		ldr	r0, .L330+8
 6373 2194 2978     		ldrb	r1, [r5, #0]	@ zero_extendqisi2
 6374 2196 FFF7FEFF 		bl	uart_transmit
 6375 219a 3148     		ldr	r0, .L330+8
 6376 219c 2178     		ldrb	r1, [r4, #0]	@ zero_extendqisi2
 6377              	.L284:
 6378 219e FFF7FEFF 		bl	uart_transmit
 6379 21a2 7DE0     		b	.L137
 6380              	.LVL574:
 6381              	.L138:
 6382 21a4 3C2B     		cmp	r3, #60
 6383 21a6 7BD0     		beq	.L137
 6384 21a8 422B     		cmp	r3, #66
 6385 21aa 79D1     		bne	.L137
 6386              	.LBB1102:
 6387 21ac 384B     		ldr	r3, .L330+56
 6388 21ae 2C48     		ldr	r0, .L330+8
 6389 21b0 93F89860 		ldrb	r6, [r3, #152]	@ zero_extendqisi2
 6390 21b4 374B     		ldr	r3, .L330+60
 6391 21b6 002E     		cmp	r6, #0
 6392 21b8 14BF     		ite	ne
 6393 21ba 0326     		movne	r6, #3
 6394 21bc 0226     		moveq	r6, #2
 6395              	.LVL575:
 6396 21be 1B78     		ldrb	r3, [r3, #0]	@ zero_extendqisi2
 6397 21c0 0921     		movs	r1, #9
 6398 21c2 0A2B     		cmp	r3, #10
 6399 21c4 88BF     		it	hi
 6400 21c6 0526     		movhi	r6, #5
 6401              	.LVL576:
 6402 21c8 4FF00003 		mov	r3, #0	@ movhi
 6403 21cc ADF80C30 		strh	r3, [sp, #12]	@ movhi
 6404              	.LVL577:
 6405 21d0 FFF7FEFF 		bl	uart_check_free_space
 6406 21d4 0028     		cmp	r0, #0
 6407 21d6 5FD0     		beq	.L143
 6408 21d8 224B     		ldr	r3, .L330+12
 6409              	.LBB1103:
 6410 21da 2148     		ldr	r0, .L330+8
 6411              	.LBE1103:
 6412 21dc 1A88     		ldrh	r2, [r3, #0]
 6413              	.LBB1104:
 6414 21de 9921     		movs	r1, #153
 6415              	.LBE1104:
 6416 21e0 0932     		adds	r2, r2, #9
 6417 21e2 1A80     		strh	r2, [r3, #0]	@ movhi
 6418 21e4 204B     		ldr	r3, .L330+16
 6419              	.LBB1105:
 6420 21e6 214D     		ldr	r5, .L330+20
 6421              	.LBE1105:
 6422 21e8 1A88     		ldrh	r2, [r3, #0]
 6423              	.LBB1106:
 6424 21ea 214C     		ldr	r4, .L330+24
 6425              	.LBE1106:
 6426 21ec 0132     		adds	r2, r2, #1
 6427 21ee 1A80     		strh	r2, [r3, #0]	@ movhi
 6428              	.LBB1107:
 6429 21f0 FFF7FEFF 		bl	uart_transmit
 6430 21f4 1A48     		ldr	r0, .L330+8
 6431 21f6 0921     		movs	r1, #9
 6432 21f8 FFF7FEFF 		bl	uart_transmit
 6433              	.LBE1107:
 6434 21fc 0A23     		movs	r3, #10
 6435 21fe 2B70     		strb	r3, [r5, #0]
 6436 2200 0933     		adds	r3, r3, #9
 6437 2202 2370     		strb	r3, [r4, #0]
 6438 2204 1648     		ldr	r0, .L330+8
 6439 2206 0121     		movs	r1, #1
 6440 2208 FFF7FEFF 		bl	uart_transmit
 6441 220c 2B78     		ldrb	r3, [r5, #0]	@ zero_extendqisi2
 6442 220e 2278     		ldrb	r2, [r4, #0]	@ zero_extendqisi2
 6443 2210 183B     		subs	r3, r3, #24
 6444 2212 DBB2     		uxtb	r3, r3
 6445 2214 2B70     		strb	r3, [r5, #0]
 6446 2216 9B18     		adds	r3, r3, r2
 6447 2218 2370     		strb	r3, [r4, #0]
 6448 221a 1148     		ldr	r0, .L330+8
 6449 221c E821     		movs	r1, #232
 6450 221e FFF7FEFF 		bl	uart_transmit
 6451              	.LBB1108:
 6452 2222 2B78     		ldrb	r3, [r5, #0]	@ zero_extendqisi2
 6453 2224 2278     		ldrb	r2, [r4, #0]	@ zero_extendqisi2
 6454 2226 F318     		adds	r3, r6, r3
 6455 2228 DBB2     		uxtb	r3, r3
 6456 222a 2B70     		strb	r3, [r5, #0]
 6457 222c 9B18     		adds	r3, r3, r2
 6458 222e 2370     		strb	r3, [r4, #0]
 6459 2230 0B48     		ldr	r0, .L330+8
 6460 2232 3146     		mov	r1, r6
 6461 2234 FFF7FEFF 		bl	uart_transmit
 6462              	.LBE1108:
 6463              	.LBB1109:
 6464 2238 9DF80C10 		ldrb	r1, [sp, #12]	@ zero_extendqisi2
 6465              	.LVL578:
 6466 223c 2B78     		ldrb	r3, [r5, #0]	@ zero_extendqisi2
 6467 223e 2278     		ldrb	r2, [r4, #0]	@ zero_extendqisi2
 6468 2240 CB18     		adds	r3, r1, r3
 6469 2242 DBB2     		uxtb	r3, r3
 6470 2244 2B70     		strb	r3, [r5, #0]
 6471 2246 9B18     		adds	r3, r3, r2
 6472 2248 2370     		strb	r3, [r4, #0]
 6473 224a 0548     		ldr	r0, .L330+8
 6474 224c FFF7FEFF 		bl	uart_transmit
 6475              	.LVL579:
 6476              	.LBE1109:
 6477              	.LBB1110:
 6478 2250 03AB     		add	r3, sp, #12
 6479 2252 5978     		ldrb	r1, [r3, #1]	@ zero_extendqisi2
 6480              	.LVL580:
 6481 2254 93E7     		b	.L292
 6482              	.L331:
 6483 2256 00BF     		.align	2
 6484              	.L330:
 6485 2258 00000000 		.word	downlink_nb_ovrn
 6486 225c 00000000 		.word	.LANCHOR29
 6487 2260 00000000 		.word	uart2
 6488 2264 00000000 		.word	downlink_nb_bytes
 6489 2268 00000000 		.word	downlink_nb_msgs
 6490 226c 00000000 		.word	ck_a
 6491 2270 00000000 		.word	ck_b
 6492 2274 00000000 		.word	.LC0
 6493 2278 00000000 		.word	.LANCHOR2
 6494 227c 00000000 		.word	v_ctl_mode
 6495 2280 00000000 		.word	.LANCHOR4
 6496 2284 00000000 		.word	horizontal_mode
 6497 2288 00000000 		.word	.LANCHOR5
 6498 228c 00000000 		.word	.LANCHOR6
 6499 2290 00000000 		.word	ahrs
 6500 2294 00000000 		.word	.LANCHOR0
 6501              	.LVL581:
 6502              	.L143:
 6503              	.LBE1110:
 6504 2298 974B     		ldr	r3, .L332+8
 6505 229a 1A78     		ldrb	r2, [r3, #0]	@ zero_extendqisi2
 6506 229c 0132     		adds	r2, r2, #1
 6507 229e 1A70     		strb	r2, [r3, #0]
 6508              	.L137:
 6509              	.LBE1102:
 6510 22a0 964B     		ldr	r3, .L332+12
 6511 22a2 1B88     		ldrh	r3, [r3, #0]
 6512 22a4 482B     		cmp	r3, #72
 6513 22a6 40F08180 		bne	.L144
 6514              	.LBB1111:
 6515 22aa 954D     		ldr	r5, .L332+16
 6516 22ac 954C     		ldr	r4, .L332+20
 6517 22ae 2888     		ldrh	r0, [r5, #0]
 6518 22b0 2688     		ldrh	r6, [r4, #0]
 6519              	.LVL582:
 6520 22b2 914F     		ldr	r7, .L332+8
 6521 22b4 301A     		subs	r0, r6, r0
 6522 22b6 FFF7FEFF 		bl	__aeabi_i2d
 6523 22ba 8DA3     		adr	r3, .L332
 6524 22bc D3E90023 		ldrd	r2, [r3]
 6525 22c0 FFF7FEFF 		bl	__aeabi_ddiv
 6526 22c4 FFF7FEFF 		bl	__aeabi_d2uiz
 6527 22c8 2E80     		strh	r6, [r5, #0]	@ movhi
 6528 22ca ADF80C00 		strh	r0, [sp, #12]	@ movhi
 6529              	.LVL583:
 6530 22ce 0B21     		movs	r1, #11
 6531 22d0 8D48     		ldr	r0, .L332+24
 6532 22d2 FFF7FEFF 		bl	uart_check_free_space
 6533 22d6 0028     		cmp	r0, #0
 6534 22d8 65D0     		beq	.L145
 6535 22da 2388     		ldrh	r3, [r4, #0]
 6536 22dc 8B4E     		ldr	r6, .L332+28
 6537 22de 0B33     		adds	r3, r3, #11
 6538 22e0 2380     		strh	r3, [r4, #0]	@ movhi
 6539 22e2 3388     		ldrh	r3, [r6, #0]
 6540              	.LBB1112:
 6541 22e4 9921     		movs	r1, #153
 6542              	.LBE1112:
 6543 22e6 0133     		adds	r3, r3, #1
 6544 22e8 3380     		strh	r3, [r6, #0]	@ movhi
 6545              	.LBB1113:
 6546 22ea 8748     		ldr	r0, .L332+24
 6547 22ec 884D     		ldr	r5, .L332+32
 6548 22ee FFF7FEFF 		bl	uart_transmit
 6549 22f2 0B21     		movs	r1, #11
 6550 22f4 8448     		ldr	r0, .L332+24
 6551 22f6 874C     		ldr	r4, .L332+36
 6552 22f8 FFF7FEFF 		bl	uart_transmit
 6553              	.LBE1113:
 6554 22fc 0C23     		movs	r3, #12
 6555 22fe 2B70     		strb	r3, [r5, #0]
 6556 2300 0B33     		adds	r3, r3, #11
 6557 2302 2370     		strb	r3, [r4, #0]
 6558 2304 0121     		movs	r1, #1
 6559 2306 8048     		ldr	r0, .L332+24
 6560 2308 FFF7FEFF 		bl	uart_transmit
 6561 230c 2B78     		ldrb	r3, [r5, #0]	@ zero_extendqisi2
 6562 230e 2278     		ldrb	r2, [r4, #0]	@ zero_extendqisi2
 6563 2310 1E33     		adds	r3, r3, #30
 6564 2312 DBB2     		uxtb	r3, r3
 6565 2314 2B70     		strb	r3, [r5, #0]
 6566 2316 9B18     		adds	r3, r3, r2
 6567 2318 2370     		strb	r3, [r4, #0]
 6568 231a 1E21     		movs	r1, #30
 6569 231c 7A48     		ldr	r0, .L332+24
 6570 231e FFF7FEFF 		bl	uart_transmit
 6571              	.LBB1114:
 6572 2322 3978     		ldrb	r1, [r7, #0]	@ zero_extendqisi2
 6573              	.LVL584:
 6574 2324 2B78     		ldrb	r3, [r5, #0]	@ zero_extendqisi2
 6575 2326 2278     		ldrb	r2, [r4, #0]	@ zero_extendqisi2
 6576 2328 CB18     		adds	r3, r1, r3
 6577 232a DBB2     		uxtb	r3, r3
 6578 232c 2B70     		strb	r3, [r5, #0]
 6579 232e 9B18     		adds	r3, r3, r2
 6580 2330 2370     		strb	r3, [r4, #0]
 6581 2332 7548     		ldr	r0, .L332+24
 6582 2334 FFF7FEFF 		bl	uart_transmit
 6583              	.LVL585:
 6584              	.LBE1114:
 6585              	.LBB1115:
 6586 2338 9DF80C10 		ldrb	r1, [sp, #12]	@ zero_extendqisi2
 6587              	.LVL586:
 6588 233c 2B78     		ldrb	r3, [r5, #0]	@ zero_extendqisi2
 6589 233e 2278     		ldrb	r2, [r4, #0]	@ zero_extendqisi2
 6590 2340 CB18     		adds	r3, r1, r3
 6591 2342 DBB2     		uxtb	r3, r3
 6592 2344 2B70     		strb	r3, [r5, #0]
 6593 2346 9B18     		adds	r3, r3, r2
 6594 2348 2370     		strb	r3, [r4, #0]
 6595 234a 6F48     		ldr	r0, .L332+24
 6596 234c FFF7FEFF 		bl	uart_transmit
 6597              	.LVL587:
 6598              	.LBE1115:
 6599              	.LBB1116:
 6600 2350 03AB     		add	r3, sp, #12
 6601 2352 5978     		ldrb	r1, [r3, #1]	@ zero_extendqisi2
 6602              	.LVL588:
 6603 2354 2B78     		ldrb	r3, [r5, #0]	@ zero_extendqisi2
 6604 2356 2278     		ldrb	r2, [r4, #0]	@ zero_extendqisi2
 6605 2358 CB18     		adds	r3, r1, r3
 6606 235a DBB2     		uxtb	r3, r3
 6607 235c 2B70     		strb	r3, [r5, #0]
 6608 235e 9B18     		adds	r3, r3, r2
 6609 2360 2370     		strb	r3, [r4, #0]
 6610 2362 6948     		ldr	r0, .L332+24
 6611 2364 FFF7FEFF 		bl	uart_transmit
 6612              	.LVL589:
 6613              	.LBE1116:
 6614              	.LBB1117:
 6615 2368 3178     		ldrb	r1, [r6, #0]	@ zero_extendqisi2
 6616              	.LVL590:
 6617 236a 2B78     		ldrb	r3, [r5, #0]	@ zero_extendqisi2
 6618 236c 2278     		ldrb	r2, [r4, #0]	@ zero_extendqisi2
 6619 236e CB18     		adds	r3, r1, r3
 6620 2370 DBB2     		uxtb	r3, r3
 6621 2372 2B70     		strb	r3, [r5, #0]
 6622 2374 9B18     		adds	r3, r3, r2
 6623 2376 2370     		strb	r3, [r4, #0]
 6624 2378 6348     		ldr	r0, .L332+24
 6625 237a FFF7FEFF 		bl	uart_transmit
 6626              	.LVL591:
 6627              	.LBE1117:
 6628              	.LBB1118:
 6629 237e 7178     		ldrb	r1, [r6, #1]	@ zero_extendqisi2
 6630              	.LVL592:
 6631 2380 2B78     		ldrb	r3, [r5, #0]	@ zero_extendqisi2
 6632 2382 2278     		ldrb	r2, [r4, #0]	@ zero_extendqisi2
 6633 2384 CB18     		adds	r3, r1, r3
 6634 2386 DBB2     		uxtb	r3, r3
 6635 2388 2B70     		strb	r3, [r5, #0]
 6636 238a 9B18     		adds	r3, r3, r2
 6637 238c 2370     		strb	r3, [r4, #0]
 6638 238e 5E48     		ldr	r0, .L332+24
 6639 2390 FFF7FEFF 		bl	uart_transmit
 6640              	.LVL593:
 6641              	.LBE1118:
 6642 2394 2978     		ldrb	r1, [r5, #0]	@ zero_extendqisi2
 6643 2396 5C48     		ldr	r0, .L332+24
 6644 2398 FFF7FEFF 		bl	uart_transmit
 6645 239c 5A48     		ldr	r0, .L332+24
 6646 239e 2178     		ldrb	r1, [r4, #0]	@ zero_extendqisi2
 6647 23a0 FFF7FEFF 		bl	uart_transmit
 6648 23a4 02E0     		b	.L144
 6649              	.L145:
 6650 23a6 3B78     		ldrb	r3, [r7, #0]	@ zero_extendqisi2
 6651 23a8 0133     		adds	r3, r3, #1
 6652 23aa 3B70     		strb	r3, [r7, #0]
 6653              	.LVL594:
 6654              	.L144:
 6655              	.LBE1111:
 6656 23ac 5A4B     		ldr	r3, .L332+40
 6657 23ae 1B88     		ldrh	r3, [r3, #0]
 6658 23b0 4E2B     		cmp	r3, #78
 6659 23b2 40F0BD80 		bne	.L70
 6660 23b6 5448     		ldr	r0, .L332+24
 6661 23b8 0F21     		movs	r1, #15
 6662 23ba FFF7FEFF 		bl	uart_check_free_space
 6663 23be 0028     		cmp	r0, #0
 6664 23c0 00F0B280 		beq	.L146
 6665 23c4 4F4B     		ldr	r3, .L332+20
 6666              	.LBB1119:
 6667 23c6 9921     		movs	r1, #153
 6668              	.LBE1119:
 6669 23c8 1A88     		ldrh	r2, [r3, #0]
 6670              	.LBB1120:
 6671 23ca 4F48     		ldr	r0, .L332+24
 6672              	.LBE1120:
 6673 23cc 0F32     		adds	r2, r2, #15
 6674 23ce 1A80     		strh	r2, [r3, #0]	@ movhi
 6675 23d0 4E4B     		ldr	r3, .L332+28
 6676              	.LBB1121:
 6677 23d2 4F4D     		ldr	r5, .L332+32
 6678              	.LBE1121:
 6679 23d4 1A88     		ldrh	r2, [r3, #0]
 6680              	.LBB1122:
 6681 23d6 4F4C     		ldr	r4, .L332+36
 6682              	.LBE1122:
 6683 23d8 0132     		adds	r2, r2, #1
 6684 23da 1A80     		strh	r2, [r3, #0]	@ movhi
 6685              	.LBB1123:
 6686 23dc FFF7FEFF 		bl	uart_transmit
 6687 23e0 0F21     		movs	r1, #15
 6688 23e2 4948     		ldr	r0, .L332+24
 6689 23e4 FFF7FEFF 		bl	uart_transmit
 6690              	.LBE1123:
 6691 23e8 1023     		movs	r3, #16
 6692 23ea 2B70     		strb	r3, [r5, #0]
 6693 23ec 0F33     		adds	r3, r3, #15
 6694 23ee 2370     		strb	r3, [r4, #0]
 6695 23f0 0121     		movs	r1, #1
 6696 23f2 4548     		ldr	r0, .L332+24
 6697 23f4 FFF7FEFF 		bl	uart_transmit
 6698 23f8 2B78     		ldrb	r3, [r5, #0]	@ zero_extendqisi2
 6699 23fa 2278     		ldrb	r2, [r4, #0]	@ zero_extendqisi2
 6700 23fc 0933     		adds	r3, r3, #9
 6701 23fe DBB2     		uxtb	r3, r3
 6702              	.LBB1124:
 6703 2400 464E     		ldr	r6, .L332+44
 6704              	.LVL595:
 6705              	.LBE1124:
 6706 2402 2B70     		strb	r3, [r5, #0]
 6707 2404 9B18     		adds	r3, r3, r2
 6708 2406 2370     		strb	r3, [r4, #0]
 6709 2408 0921     		movs	r1, #9
 6710 240a 3F48     		ldr	r0, .L332+24
 6711 240c FFF7FEFF 		bl	uart_transmit
 6712              	.LBB1125:
 6713 2410 3178     		ldrb	r1, [r6, #0]	@ zero_extendqisi2
 6714              	.LVL596:
 6715 2412 2B78     		ldrb	r3, [r5, #0]	@ zero_extendqisi2
 6716 2414 2278     		ldrb	r2, [r4, #0]	@ zero_extendqisi2
 6717 2416 CB18     		adds	r3, r1, r3
 6718 2418 DBB2     		uxtb	r3, r3
 6719 241a 2B70     		strb	r3, [r5, #0]
 6720 241c 9B18     		adds	r3, r3, r2
 6721 241e 2370     		strb	r3, [r4, #0]
 6722 2420 3948     		ldr	r0, .L332+24
 6723 2422 FFF7FEFF 		bl	uart_transmit
 6724              	.LVL597:
 6725              	.LBE1125:
 6726              	.LBB1126:
 6727 2426 7178     		ldrb	r1, [r6, #1]	@ zero_extendqisi2
 6728              	.LVL598:
 6729 2428 2B78     		ldrb	r3, [r5, #0]	@ zero_extendqisi2
 6730 242a 2278     		ldrb	r2, [r4, #0]	@ zero_extendqisi2
 6731 242c CB18     		adds	r3, r1, r3
 6732 242e DBB2     		uxtb	r3, r3
 6733 2430 2B70     		strb	r3, [r5, #0]
 6734 2432 9B18     		adds	r3, r3, r2
 6735 2434 2370     		strb	r3, [r4, #0]
 6736 2436 3448     		ldr	r0, .L332+24
 6737 2438 FFF7FEFF 		bl	uart_transmit
 6738              	.LVL599:
 6739              	.LBE1126:
 6740              	.LBB1127:
 6741 243c B178     		ldrb	r1, [r6, #2]	@ zero_extendqisi2
 6742              	.LVL600:
 6743 243e 2B78     		ldrb	r3, [r5, #0]	@ zero_extendqisi2
 6744 2440 2278     		ldrb	r2, [r4, #0]	@ zero_extendqisi2
 6745 2442 CB18     		adds	r3, r1, r3
 6746 2444 DBB2     		uxtb	r3, r3
 6747 2446 2B70     		strb	r3, [r5, #0]
 6748 2448 9B18     		adds	r3, r3, r2
 6749 244a 2370     		strb	r3, [r4, #0]
 6750 244c 2E48     		ldr	r0, .L332+24
 6751 244e FFF7FEFF 		bl	uart_transmit
 6752              	.LVL601:
 6753              	.LBE1127:
 6754              	.LBB1128:
 6755 2452 F178     		ldrb	r1, [r6, #3]	@ zero_extendqisi2
 6756              	.LVL602:
 6757 2454 2B78     		ldrb	r3, [r5, #0]	@ zero_extendqisi2
 6758 2456 2278     		ldrb	r2, [r4, #0]	@ zero_extendqisi2
 6759 2458 CB18     		adds	r3, r1, r3
 6760 245a DBB2     		uxtb	r3, r3
 6761              	.LBE1128:
 6762              	.LBB1129:
 6763 245c 304E     		ldr	r6, .L332+48
 6764              	.LBE1129:
 6765              	.LBB1130:
 6766 245e 2B70     		strb	r3, [r5, #0]
 6767 2460 9B18     		adds	r3, r3, r2
 6768 2462 2370     		strb	r3, [r4, #0]
 6769 2464 2848     		ldr	r0, .L332+24
 6770 2466 FFF7FEFF 		bl	uart_transmit
 6771              	.LVL603:
 6772              	.LBE1130:
 6773              	.LBB1131:
 6774 246a 3178     		ldrb	r1, [r6, #0]	@ zero_extendqisi2
 6775              	.LVL604:
 6776 246c 2B78     		ldrb	r3, [r5, #0]	@ zero_extendqisi2
 6777 246e 2278     		ldrb	r2, [r4, #0]	@ zero_extendqisi2
 6778 2470 CB18     		adds	r3, r1, r3
 6779 2472 DBB2     		uxtb	r3, r3
 6780 2474 2B70     		strb	r3, [r5, #0]
 6781 2476 9B18     		adds	r3, r3, r2
 6782 2478 2370     		strb	r3, [r4, #0]
 6783 247a 2348     		ldr	r0, .L332+24
 6784 247c FFF7FEFF 		bl	uart_transmit
 6785              	.LVL605:
 6786              	.LBE1131:
 6787              	.LBB1132:
 6788 2480 7178     		ldrb	r1, [r6, #1]	@ zero_extendqisi2
 6789              	.LVL606:
 6790 2482 2B78     		ldrb	r3, [r5, #0]	@ zero_extendqisi2
 6791 2484 2278     		ldrb	r2, [r4, #0]	@ zero_extendqisi2
 6792 2486 CB18     		adds	r3, r1, r3
 6793 2488 DBB2     		uxtb	r3, r3
 6794 248a 2B70     		strb	r3, [r5, #0]
 6795 248c 9B18     		adds	r3, r3, r2
 6796 248e 2370     		strb	r3, [r4, #0]
 6797 2490 1D48     		ldr	r0, .L332+24
 6798 2492 FFF7FEFF 		bl	uart_transmit
 6799              	.LVL607:
 6800              	.LBE1132:
 6801              	.LBB1133:
 6802 2496 B178     		ldrb	r1, [r6, #2]	@ zero_extendqisi2
 6803              	.LVL608:
 6804 2498 2B78     		ldrb	r3, [r5, #0]	@ zero_extendqisi2
 6805 249a 2278     		ldrb	r2, [r4, #0]	@ zero_extendqisi2
 6806 249c CB18     		adds	r3, r1, r3
 6807 249e DBB2     		uxtb	r3, r3
 6808 24a0 2B70     		strb	r3, [r5, #0]
 6809 24a2 9B18     		adds	r3, r3, r2
 6810 24a4 2370     		strb	r3, [r4, #0]
 6811 24a6 1848     		ldr	r0, .L332+24
 6812 24a8 FFF7FEFF 		bl	uart_transmit
 6813              	.LVL609:
 6814              	.LBE1133:
 6815              	.LBB1134:
 6816 24ac F178     		ldrb	r1, [r6, #3]	@ zero_extendqisi2
 6817              	.LVL610:
 6818 24ae 2B78     		ldrb	r3, [r5, #0]	@ zero_extendqisi2
 6819 24b0 2278     		ldrb	r2, [r4, #0]	@ zero_extendqisi2
 6820 24b2 CB18     		adds	r3, r1, r3
 6821 24b4 DBB2     		uxtb	r3, r3
 6822 24b6 2B70     		strb	r3, [r5, #0]
 6823 24b8 9B18     		adds	r3, r3, r2
 6824 24ba 2370     		strb	r3, [r4, #0]
 6825 24bc 1248     		ldr	r0, .L332+24
 6826 24be FFF7FEFF 		bl	uart_transmit
 6827              	.LVL611:
 6828              	.LBE1134:
 6829              	.LBB1135:
 6830 24c2 184B     		ldr	r3, .L332+52
 6831 24c4 2278     		ldrb	r2, [r4, #0]	@ zero_extendqisi2
 6832 24c6 1978     		ldrb	r1, [r3, #0]	@ zero_extendqisi2
 6833              	.LVL612:
 6834 24c8 2B78     		ldrb	r3, [r5, #0]	@ zero_extendqisi2
 6835 24ca 0F48     		ldr	r0, .L332+24
 6836 24cc CB18     		adds	r3, r1, r3
 6837 24ce DBB2     		uxtb	r3, r3
 6838 24d0 2B70     		strb	r3, [r5, #0]
 6839 24d2 9B18     		adds	r3, r3, r2
 6840 24d4 2370     		strb	r3, [r4, #0]
 6841 24d6 FFF7FEFF 		bl	uart_transmit
 6842              	.LVL613:
 6843              	.LBE1135:
 6844 24da 2978     		ldrb	r1, [r5, #0]	@ zero_extendqisi2
 6845 24dc 0A48     		ldr	r0, .L332+24
 6846 24de FFF7FEFF 		bl	uart_transmit
 6847 24e2 0948     		ldr	r0, .L332+24
 6848 24e4 2178     		ldrb	r1, [r4, #0]	@ zero_extendqisi2
 6849 24e6 FFF7FEFF 		bl	uart_transmit
 6850 24ea 21E0     		b	.L70
 6851              	.L333:
 6852 24ec AFF30080 		.align	3
 6853              	.L332:
 6854 24f0 66666666 		.word	1717986918
 6855 24f4 66661440 		.word	1075078758
 6856 24f8 00000000 		.word	downlink_nb_ovrn
 6857 24fc 00000000 		.word	.LANCHOR30
 6858 2500 00000000 		.word	.LANCHOR35
 6859 2504 00000000 		.word	downlink_nb_bytes
 6860 2508 00000000 		.word	uart2
 6861 250c 00000000 		.word	downlink_nb_msgs
 6862 2510 00000000 		.word	ck_a
 6863 2514 00000000 		.word	ck_b
 6864 2518 00000000 		.word	.LANCHOR31
 6865 251c 00000000 		.word	nav_utm_east0
 6866 2520 00000000 		.word	nav_utm_north0
 6867 2524 00000000 		.word	nav_utm_zone0
 6868              	.LVL614:
 6869              	.L146:
 6870 2528 9B4B     		ldr	r3, .L334+16
 6871 252a 1A78     		ldrb	r2, [r3, #0]	@ zero_extendqisi2
 6872 252c 0132     		adds	r2, r2, #1
 6873 252e 1A70     		strb	r2, [r3, #0]
 6874              	.L70:
 6875              	.LBE748:
 6876 2530 9A4B     		ldr	r3, .L334+20
 6877 2532 1B78     		ldrb	r3, [r3, #0]	@ zero_extendqisi2
 6878 2534 012B     		cmp	r3, #1
 6879 2536 42F08D81 		bne	.L147
 6880              	.LBB1136:
 6881 253a 994B     		ldr	r3, .L334+24
 6882 253c 1A78     		ldrb	r2, [r3, #0]	@ zero_extendqisi2
 6883 253e 0132     		adds	r2, r2, #1
 6884 2540 D2B2     		uxtb	r2, r2
 6885 2542 3E2A     		cmp	r2, #62
 6886 2544 1A70     		strb	r2, [r3, #0]
 6887 2546 01D9     		bls	.L148
 6888 2548 0022     		movs	r2, #0
 6889 254a 1A70     		strb	r2, [r3, #0]
 6890              	.L148:
 6891 254c 954B     		ldr	r3, .L334+28
 6892 254e 1A78     		ldrb	r2, [r3, #0]	@ zero_extendqisi2
 6893 2550 0132     		adds	r2, r2, #1
 6894 2552 D2B2     		uxtb	r2, r2
 6895 2554 412A     		cmp	r2, #65
 6896 2556 1A70     		strb	r2, [r3, #0]
 6897 2558 01D9     		bls	.L149
 6898 255a 0022     		movs	r2, #0
 6899 255c 1A70     		strb	r2, [r3, #0]
 6900              	.L149:
 6901 255e 924B     		ldr	r3, .L334+32
 6902 2560 1A78     		ldrb	r2, [r3, #0]	@ zero_extendqisi2
 6903 2562 0132     		adds	r2, r2, #1
 6904 2564 D2B2     		uxtb	r2, r2
 6905 2566 4D2A     		cmp	r2, #77
 6906 2568 1A70     		strb	r2, [r3, #0]
 6907 256a 01D9     		bls	.L150
 6908 256c 0022     		movs	r2, #0
 6909 256e 1A70     		strb	r2, [r3, #0]
 6910              	.L150:
 6911 2570 8E4B     		ldr	r3, .L334+36
 6912 2572 1A78     		ldrb	r2, [r3, #0]	@ zero_extendqisi2
 6913 2574 0132     		adds	r2, r2, #1
 6914 2576 D2B2     		uxtb	r2, r2
 6915 2578 532A     		cmp	r2, #83
 6916 257a 1A70     		strb	r2, [r3, #0]
 6917 257c 01D9     		bls	.L151
 6918 257e 0022     		movs	r2, #0
 6919 2580 1A70     		strb	r2, [r3, #0]
 6920              	.L151:
 6921 2582 8B4B     		ldr	r3, .L334+40
 6922 2584 1A78     		ldrb	r2, [r3, #0]	@ zero_extendqisi2
 6923 2586 0132     		adds	r2, r2, #1
 6924 2588 D2B2     		uxtb	r2, r2
 6925 258a 592A     		cmp	r2, #89
 6926 258c 1A70     		strb	r2, [r3, #0]
 6927 258e 01D9     		bls	.L152
 6928 2590 0022     		movs	r2, #0
 6929 2592 1A70     		strb	r2, [r3, #0]
 6930              	.L152:
 6931 2594 874B     		ldr	r3, .L334+44
 6932 2596 1A78     		ldrb	r2, [r3, #0]	@ zero_extendqisi2
 6933 2598 0132     		adds	r2, r2, #1
 6934 259a D2B2     		uxtb	r2, r2
 6935 259c 7D2A     		cmp	r2, #125
 6936 259e 1A70     		strb	r2, [r3, #0]
 6937 25a0 01D9     		bls	.L153
 6938 25a2 0022     		movs	r2, #0
 6939 25a4 1A70     		strb	r2, [r3, #0]
 6940              	.L153:
 6941 25a6 844B     		ldr	r3, .L334+48
 6942 25a8 1A78     		ldrb	r2, [r3, #0]	@ zero_extendqisi2
 6943 25aa 0132     		adds	r2, r2, #1
 6944 25ac D2B2     		uxtb	r2, r2
 6945 25ae B32A     		cmp	r2, #179
 6946 25b0 1A70     		strb	r2, [r3, #0]
 6947 25b2 01D9     		bls	.L154
 6948 25b4 0022     		movs	r2, #0
 6949 25b6 1A70     		strb	r2, [r3, #0]
 6950              	.L154:
 6951 25b8 804B     		ldr	r3, .L334+52
 6952 25ba 1A78     		ldrb	r2, [r3, #0]	@ zero_extendqisi2
 6953 25bc 0132     		adds	r2, r2, #1
 6954 25be D2B2     		uxtb	r2, r2
 6955 25c0 B62A     		cmp	r2, #182
 6956 25c2 1A70     		strb	r2, [r3, #0]
 6957 25c4 01D9     		bls	.L155
 6958 25c6 0022     		movs	r2, #0
 6959 25c8 1A70     		strb	r2, [r3, #0]
 6960              	.L155:
 6961 25ca 7D4B     		ldr	r3, .L334+56
 6962 25cc 1A78     		ldrb	r2, [r3, #0]	@ zero_extendqisi2
 6963 25ce 0132     		adds	r2, r2, #1
 6964 25d0 D2B2     		uxtb	r2, r2
 6965 25d2 BF2A     		cmp	r2, #191
 6966 25d4 1A70     		strb	r2, [r3, #0]
 6967 25d6 01D9     		bls	.L156
 6968 25d8 0022     		movs	r2, #0
 6969 25da 1A70     		strb	r2, [r3, #0]
 6970              	.L156:
 6971 25dc 794B     		ldr	r3, .L334+60
 6972 25de 1A78     		ldrb	r2, [r3, #0]	@ zero_extendqisi2
 6973 25e0 0132     		adds	r2, r2, #1
 6974 25e2 D2B2     		uxtb	r2, r2
 6975 25e4 EF2A     		cmp	r2, #239
 6976 25e6 1A70     		strb	r2, [r3, #0]
 6977 25e8 01D9     		bls	.L157
 6978 25ea 0022     		movs	r2, #0
 6979 25ec 1A70     		strb	r2, [r3, #0]
 6980              	.L157:
 6981 25ee 764B     		ldr	r3, .L334+64
 6982 25f0 1A78     		ldrb	r2, [r3, #0]	@ zero_extendqisi2
 6983 25f2 0132     		adds	r2, r2, #1
 6984 25f4 D2B2     		uxtb	r2, r2
 6985 25f6 F22A     		cmp	r2, #242
 6986 25f8 1A70     		strb	r2, [r3, #0]
 6987 25fa 01D9     		bls	.L158
 6988 25fc 0022     		movs	r2, #0
 6989 25fe 1A70     		strb	r2, [r3, #0]
 6990              	.L158:
 6991 2600 724B     		ldr	r3, .L334+68
 6992 2602 40F25D21 		movw	r1, #605
 6993 2606 1A88     		ldrh	r2, [r3, #0]
 6994 2608 0132     		adds	r2, r2, #1
 6995 260a 92B2     		uxth	r2, r2
 6996 260c B2F5967F 		cmp	r2, #300
 6997 2610 1A80     		strh	r2, [r3, #0]	@ movhi
 6998 2612 24BF     		itt	cs
 6999 2614 0022     		movcs	r2, #0	@ movhi
 7000 2616 1A80     		strhcs	r2, [r3, #0]	@ movhi
 7001 2618 6D4B     		ldr	r3, .L334+72
 7002 261a 1A88     		ldrh	r2, [r3, #0]
 7003 261c 0132     		adds	r2, r2, #1
 7004 261e 92B2     		uxth	r2, r2
 7005 2620 B2F5997F 		cmp	r2, #306
 7006 2624 1A80     		strh	r2, [r3, #0]	@ movhi
 7007 2626 24BF     		itt	cs
 7008 2628 0022     		movcs	r2, #0	@ movhi
 7009 262a 1A80     		strhcs	r2, [r3, #0]	@ movhi
 7010 262c 694B     		ldr	r3, .L334+76
 7011 262e 1A88     		ldrh	r2, [r3, #0]
 7012 2630 0132     		adds	r2, r2, #1
 7013 2632 92B2     		uxth	r2, r2
 7014 2634 B2F59C7F 		cmp	r2, #312
 7015 2638 1A80     		strh	r2, [r3, #0]	@ movhi
 7016 263a 24BF     		itt	cs
 7017 263c 0022     		movcs	r2, #0	@ movhi
 7018 263e 1A80     		strhcs	r2, [r3, #0]	@ movhi
 7019 2640 654B     		ldr	r3, .L334+80
 7020 2642 1A88     		ldrh	r2, [r3, #0]
 7021 2644 0132     		adds	r2, r2, #1
 7022 2646 92B2     		uxth	r2, r2
 7023 2648 B2F5077F 		cmp	r2, #540
 7024 264c 1A80     		strh	r2, [r3, #0]	@ movhi
 7025 264e 24BF     		itt	cs
 7026 2650 0022     		movcs	r2, #0	@ movhi
 7027 2652 1A80     		strhcs	r2, [r3, #0]	@ movhi
 7028 2654 614B     		ldr	r3, .L334+84
 7029 2656 1A88     		ldrh	r2, [r3, #0]
 7030 2658 0132     		adds	r2, r2, #1
 7031 265a 92B2     		uxth	r2, r2
 7032 265c 8A42     		cmp	r2, r1
 7033 265e 1A80     		strh	r2, [r3, #0]	@ movhi
 7034 2660 84BF     		itt	hi
 7035 2662 0022     		movhi	r2, #0	@ movhi
 7036 2664 1A80     		strhhi	r2, [r3, #0]	@ movhi
 7037 2666 4E4B     		ldr	r3, .L334+24
 7038 2668 1B78     		ldrb	r3, [r3, #0]	@ zero_extendqisi2
 7039 266a 002B     		cmp	r3, #0
 7040 266c 40F0B482 		bne	.L164
 7041              	.LBB1137:
 7042 2670 5B4C     		ldr	r4, .L334+88
 7043 2672 236C     		ldr	r3, [r4, #64]
 7044 2674 A06C     		ldr	r0, [r4, #72]
 7045 2676 5B42     		negs	r3, r3
 7046 2678 ADF80C30 		strh	r3, [sp, #12]	@ movhi
 7047              	.LVL615:
 7048 267c FFF7FEFF 		bl	__aeabi_i2d
 7049 2680 41A3     		adr	r3, .L334
 7050 2682 D3E90023 		ldrd	r2, [r3]
 7051 2686 FFF7FEFF 		bl	__aeabi_dmul
 7052 268a 41A3     		adr	r3, .L334+8
 7053 268c D3E90023 		ldrd	r2, [r3]
 7054 2690 FFF7FEFF 		bl	__aeabi_ddiv
 7055 2694 FFF7FEFF 		bl	__aeabi_d2iz
 7056 2698 2121     		movs	r1, #33
 7057 269a ADF80E00 		strh	r0, [sp, #14]	@ movhi
 7058              	.LVL616:
 7059 269e 5148     		ldr	r0, .L334+92
 7060 26a0 FFF7FEFF 		bl	uart_check_free_space
 7061 26a4 0028     		cmp	r0, #0
 7062 26a6 00F0AD81 		beq	.L165
 7063 26aa 4F4B     		ldr	r3, .L334+96
 7064              	.LBB1138:
 7065 26ac 9921     		movs	r1, #153
 7066              	.LBE1138:
 7067 26ae 1A88     		ldrh	r2, [r3, #0]
 7068              	.LBB1139:
 7069 26b0 4C48     		ldr	r0, .L334+92
 7070              	.LBE1139:
 7071 26b2 2132     		adds	r2, r2, #33
 7072 26b4 1A80     		strh	r2, [r3, #0]	@ movhi
 7073 26b6 4D4B     		ldr	r3, .L334+100
 7074              	.LBB1140:
 7075 26b8 4D4E     		ldr	r6, .L334+104
 7076              	.LVL617:
 7077              	.LBE1140:
 7078 26ba 1A88     		ldrh	r2, [r3, #0]
 7079              	.LBB1141:
 7080 26bc 4D4D     		ldr	r5, .L334+108
 7081              	.LBE1141:
 7082 26be 0132     		adds	r2, r2, #1
 7083 26c0 1A80     		strh	r2, [r3, #0]	@ movhi
 7084              	.LBB1142:
 7085 26c2 FFF7FEFF 		bl	uart_transmit
 7086 26c6 2121     		movs	r1, #33
 7087 26c8 4648     		ldr	r0, .L334+92
 7088 26ca FFF7FEFF 		bl	uart_transmit
 7089              	.LBE1142:
 7090 26ce 2223     		movs	r3, #34
 7091 26d0 3370     		strb	r3, [r6, #0]
 7092 26d2 2133     		adds	r3, r3, #33
 7093 26d4 2B70     		strb	r3, [r5, #0]
 7094 26d6 0121     		movs	r1, #1
 7095 26d8 4248     		ldr	r0, .L334+92
 7096 26da FFF7FEFF 		bl	uart_transmit
 7097 26de 3378     		ldrb	r3, [r6, #0]	@ zero_extendqisi2
 7098 26e0 2A78     		ldrb	r2, [r5, #0]	@ zero_extendqisi2
 7099 26e2 0833     		adds	r3, r3, #8
 7100 26e4 DBB2     		uxtb	r3, r3
 7101 26e6 3370     		strb	r3, [r6, #0]
 7102 26e8 9B18     		adds	r3, r3, r2
 7103 26ea 2B70     		strb	r3, [r5, #0]
 7104 26ec 0821     		movs	r1, #8
 7105 26ee 3D48     		ldr	r0, .L334+92
 7106 26f0 FFF7FEFF 		bl	uart_transmit
 7107              	.LBB1143:
 7108 26f4 94F85710 		ldrb	r1, [r4, #87]	@ zero_extendqisi2
 7109              	.LVL618:
 7110 26f8 3378     		ldrb	r3, [r6, #0]	@ zero_extendqisi2
 7111 26fa 2A78     		ldrb	r2, [r5, #0]	@ zero_extendqisi2
 7112 26fc CB18     		adds	r3, r1, r3
 7113 26fe DBB2     		uxtb	r3, r3
 7114 2700 3370     		strb	r3, [r6, #0]
 7115 2702 9B18     		adds	r3, r3, r2
 7116 2704 2B70     		strb	r3, [r5, #0]
 7117 2706 3748     		ldr	r0, .L334+92
 7118 2708 FFF7FEFF 		bl	uart_transmit
 7119              	.LVL619:
 7120              	.LBE1143:
 7121              	.LBB1144:
 7122 270c 217F     		ldrb	r1, [r4, #28]	@ zero_extendqisi2
 7123              	.LVL620:
 7124 270e 3378     		ldrb	r3, [r6, #0]	@ zero_extendqisi2
 7125 2710 2A78     		ldrb	r2, [r5, #0]	@ zero_extendqisi2
 7126 2712 CB18     		adds	r3, r1, r3
 7127 2714 DBB2     		uxtb	r3, r3
 7128 2716 3370     		strb	r3, [r6, #0]
 7129 2718 9B18     		adds	r3, r3, r2
 7130 271a 04F11C07 		add	r7, r4, #28
 7131 271e 2B70     		strb	r3, [r5, #0]
 7132 2720 3048     		ldr	r0, .L334+92
 7133 2722 FFF7FEFF 		bl	uart_transmit
 7134              	.LVL621:
 7135              	.LBE1144:
 7136              	.LBB1145:
 7137 2726 7978     		ldrb	r1, [r7, #1]	@ zero_extendqisi2
 7138              	.LVL622:
 7139 2728 3378     		ldrb	r3, [r6, #0]	@ zero_extendqisi2
 7140 272a 2A78     		ldrb	r2, [r5, #0]	@ zero_extendqisi2
 7141 272c CB18     		adds	r3, r1, r3
 7142 272e DBB2     		uxtb	r3, r3
 7143 2730 3370     		strb	r3, [r6, #0]
 7144 2732 9B18     		adds	r3, r3, r2
 7145 2734 2B70     		strb	r3, [r5, #0]
 7146 2736 2B48     		ldr	r0, .L334+92
 7147 2738 FFF7FEFF 		bl	uart_transmit
 7148              	.LVL623:
 7149              	.LBE1145:
 7150              	.LBB1146:
 7151 273c B978     		ldrb	r1, [r7, #2]	@ zero_extendqisi2
 7152              	.LVL624:
 7153 273e 3378     		ldrb	r3, [r6, #0]	@ zero_extendqisi2
 7154 2740 2A78     		ldrb	r2, [r5, #0]	@ zero_extendqisi2
 7155 2742 CB18     		adds	r3, r1, r3
 7156 2744 DBB2     		uxtb	r3, r3
 7157 2746 3370     		strb	r3, [r6, #0]
 7158 2748 9B18     		adds	r3, r3, r2
 7159 274a 2B70     		strb	r3, [r5, #0]
 7160 274c 2548     		ldr	r0, .L334+92
 7161 274e FFF7FEFF 		bl	uart_transmit
 7162              	.LVL625:
 7163              	.LBE1146:
 7164              	.LBB1147:
 7165 2752 F978     		ldrb	r1, [r7, #3]	@ zero_extendqisi2
 7166              	.LVL626:
 7167 2754 3378     		ldrb	r3, [r6, #0]	@ zero_extendqisi2
 7168 2756 2A78     		ldrb	r2, [r5, #0]	@ zero_extendqisi2
 7169 2758 CB18     		adds	r3, r1, r3
 7170 275a DBB2     		uxtb	r3, r3
 7171 275c 3370     		strb	r3, [r6, #0]
 7172 275e 9B18     		adds	r3, r3, r2
 7173 2760 2B70     		strb	r3, [r5, #0]
 7174 2762 2048     		ldr	r0, .L334+92
 7175 2764 FFF7FEFF 		bl	uart_transmit
 7176              	.LVL627:
 7177              	.LBE1147:
 7178              	.LBB1148:
 7179 2768 217E     		ldrb	r1, [r4, #24]	@ zero_extendqisi2
 7180              	.LVL628:
 7181 276a 3378     		ldrb	r3, [r6, #0]	@ zero_extendqisi2
 7182 276c 2A78     		ldrb	r2, [r5, #0]	@ zero_extendqisi2
 7183 276e CB18     		adds	r3, r1, r3
 7184 2770 DBB2     		uxtb	r3, r3
 7185 2772 3370     		strb	r3, [r6, #0]
 7186 2774 9B18     		adds	r3, r3, r2
 7187 2776 04F11807 		add	r7, r4, #24
 7188 277a 2B70     		strb	r3, [r5, #0]
 7189 277c 1948     		ldr	r0, .L334+92
 7190 277e FFF7FEFF 		bl	uart_transmit
 7191              	.LVL629:
 7192              	.LBE1148:
 7193              	.LBB1149:
 7194 2782 7978     		ldrb	r1, [r7, #1]	@ zero_extendqisi2
 7195 2784 38E0     		b	.L335
 7196              	.L336:
 7197 2786 00BF     		.align	3
 7198              	.L334:
 7199 2788 F8C1631A 		.word	442745336
 7200 278c DCA54C40 		.word	1078765020
 7201 2790 00000000 		.word	0
 7202 2794 80842E41 		.word	1093567616
 7203 2798 00000000 		.word	downlink_nb_ovrn
 7204 279c 00000000 		.word	telemetry_mode_Ap_DefaultChannel
 7205 27a0 00000000 		.word	.LANCHOR36
 7206 27a4 00000000 		.word	.LANCHOR37
 7207 27a8 00000000 		.word	.LANCHOR38
 7208 27ac 00000000 		.word	.LANCHOR39
 7209 27b0 00000000 		.word	.LANCHOR40
 7210 27b4 00000000 		.word	.LANCHOR41
 7211 27b8 00000000 		.word	.LANCHOR42
 7212 27bc 00000000 		.word	.LANCHOR43
 7213 27c0 00000000 		.word	.LANCHOR44
 7214 27c4 00000000 		.word	.LANCHOR45
 7215 27c8 00000000 		.word	.LANCHOR46
 7216 27cc 00000000 		.word	.LANCHOR47
 7217 27d0 00000000 		.word	.LANCHOR48
 7218 27d4 00000000 		.word	.LANCHOR49
 7219 27d8 00000000 		.word	.LANCHOR50
 7220 27dc 00000000 		.word	.LANCHOR51
 7221 27e0 00000000 		.word	gps
 7222 27e4 00000000 		.word	uart2
 7223 27e8 00000000 		.word	downlink_nb_bytes
 7224 27ec 00000000 		.word	downlink_nb_msgs
 7225 27f0 00000000 		.word	ck_a
 7226 27f4 00000000 		.word	ck_b
 7227              	.L335:
 7228              	.LVL630:
 7229 27f8 3378     		ldrb	r3, [r6, #0]	@ zero_extendqisi2
 7230 27fa 2A78     		ldrb	r2, [r5, #0]	@ zero_extendqisi2
 7231 27fc CB18     		adds	r3, r1, r3
 7232 27fe DBB2     		uxtb	r3, r3
 7233 2800 3370     		strb	r3, [r6, #0]
 7234 2802 9B18     		adds	r3, r3, r2
 7235 2804 2B70     		strb	r3, [r5, #0]
 7236 2806 7D48     		ldr	r0, .L337
 7237 2808 FFF7FEFF 		bl	uart_transmit
 7238              	.LVL631:
 7239              	.LBE1149:
 7240              	.LBB1150:
 7241 280c B978     		ldrb	r1, [r7, #2]	@ zero_extendqisi2
 7242              	.LVL632:
 7243 280e 3378     		ldrb	r3, [r6, #0]	@ zero_extendqisi2
 7244 2810 2A78     		ldrb	r2, [r5, #0]	@ zero_extendqisi2
 7245 2812 CB18     		adds	r3, r1, r3
 7246 2814 DBB2     		uxtb	r3, r3
 7247 2816 3370     		strb	r3, [r6, #0]
 7248 2818 9B18     		adds	r3, r3, r2
 7249 281a 2B70     		strb	r3, [r5, #0]
 7250 281c 7748     		ldr	r0, .L337
 7251 281e FFF7FEFF 		bl	uart_transmit
 7252              	.LVL633:
 7253              	.LBE1150:
 7254              	.LBB1151:
 7255 2822 F978     		ldrb	r1, [r7, #3]	@ zero_extendqisi2
 7256              	.LVL634:
 7257 2824 3378     		ldrb	r3, [r6, #0]	@ zero_extendqisi2
 7258 2826 2A78     		ldrb	r2, [r5, #0]	@ zero_extendqisi2
 7259 2828 CB18     		adds	r3, r1, r3
 7260 282a DBB2     		uxtb	r3, r3
 7261 282c 3370     		strb	r3, [r6, #0]
 7262 282e 9B18     		adds	r3, r3, r2
 7263 2830 2B70     		strb	r3, [r5, #0]
 7264 2832 7248     		ldr	r0, .L337
 7265 2834 FFF7FEFF 		bl	uart_transmit
 7266              	.LVL635:
 7267              	.LBE1151:
 7268              	.LBB1152:
 7269 2838 9DF80E10 		ldrb	r1, [sp, #14]	@ zero_extendqisi2
 7270              	.LVL636:
 7271 283c 3378     		ldrb	r3, [r6, #0]	@ zero_extendqisi2
 7272 283e 2A78     		ldrb	r2, [r5, #0]	@ zero_extendqisi2
 7273 2840 CB18     		adds	r3, r1, r3
 7274 2842 DBB2     		uxtb	r3, r3
 7275 2844 3370     		strb	r3, [r6, #0]
 7276 2846 9B18     		adds	r3, r3, r2
 7277 2848 2B70     		strb	r3, [r5, #0]
 7278 284a 6C48     		ldr	r0, .L337
 7279 284c FFF7FEFF 		bl	uart_transmit
 7280              	.LVL637:
 7281              	.LBE1152:
 7282              	.LBB1153:
 7283 2850 0DF10E03 		add	r3, sp, #14
 7284 2854 5978     		ldrb	r1, [r3, #1]	@ zero_extendqisi2
 7285              	.LVL638:
 7286 2856 3378     		ldrb	r3, [r6, #0]	@ zero_extendqisi2
 7287 2858 2A78     		ldrb	r2, [r5, #0]	@ zero_extendqisi2
 7288 285a CB18     		adds	r3, r1, r3
 7289 285c DBB2     		uxtb	r3, r3
 7290 285e 3370     		strb	r3, [r6, #0]
 7291 2860 9B18     		adds	r3, r3, r2
 7292 2862 2B70     		strb	r3, [r5, #0]
 7293 2864 6548     		ldr	r0, .L337
 7294 2866 FFF7FEFF 		bl	uart_transmit
 7295              	.LVL639:
 7296              	.LBE1153:
 7297              	.LBB1154:
 7298 286a 94F82810 		ldrb	r1, [r4, #40]	@ zero_extendqisi2
 7299              	.LVL640:
 7300 286e 3378     		ldrb	r3, [r6, #0]	@ zero_extendqisi2
 7301 2870 2A78     		ldrb	r2, [r5, #0]	@ zero_extendqisi2
 7302 2872 CB18     		adds	r3, r1, r3
 7303 2874 DBB2     		uxtb	r3, r3
 7304 2876 3370     		strb	r3, [r6, #0]
 7305 2878 9B18     		adds	r3, r3, r2
 7306 287a 04F12807 		add	r7, r4, #40
 7307 287e 2B70     		strb	r3, [r5, #0]
 7308 2880 5E48     		ldr	r0, .L337
 7309 2882 FFF7FEFF 		bl	uart_transmit
 7310              	.LVL641:
 7311              	.LBE1154:
 7312              	.LBB1155:
 7313 2886 7978     		ldrb	r1, [r7, #1]	@ zero_extendqisi2
 7314              	.LVL642:
 7315 2888 3378     		ldrb	r3, [r6, #0]	@ zero_extendqisi2
 7316 288a 2A78     		ldrb	r2, [r5, #0]	@ zero_extendqisi2
 7317 288c CB18     		adds	r3, r1, r3
 7318 288e DBB2     		uxtb	r3, r3
 7319 2890 3370     		strb	r3, [r6, #0]
 7320 2892 9B18     		adds	r3, r3, r2
 7321 2894 2B70     		strb	r3, [r5, #0]
 7322 2896 5948     		ldr	r0, .L337
 7323 2898 FFF7FEFF 		bl	uart_transmit
 7324              	.LVL643:
 7325              	.LBE1155:
 7326              	.LBB1156:
 7327 289c B978     		ldrb	r1, [r7, #2]	@ zero_extendqisi2
 7328              	.LVL644:
 7329 289e 3378     		ldrb	r3, [r6, #0]	@ zero_extendqisi2
 7330 28a0 2A78     		ldrb	r2, [r5, #0]	@ zero_extendqisi2
 7331 28a2 CB18     		adds	r3, r1, r3
 7332 28a4 DBB2     		uxtb	r3, r3
 7333 28a6 3370     		strb	r3, [r6, #0]
 7334 28a8 9B18     		adds	r3, r3, r2
 7335 28aa 2B70     		strb	r3, [r5, #0]
 7336 28ac 5348     		ldr	r0, .L337
 7337 28ae FFF7FEFF 		bl	uart_transmit
 7338              	.LVL645:
 7339              	.LBE1156:
 7340              	.LBB1157:
 7341 28b2 F978     		ldrb	r1, [r7, #3]	@ zero_extendqisi2
 7342              	.LVL646:
 7343 28b4 3378     		ldrb	r3, [r6, #0]	@ zero_extendqisi2
 7344 28b6 2A78     		ldrb	r2, [r5, #0]	@ zero_extendqisi2
 7345 28b8 CB18     		adds	r3, r1, r3
 7346 28ba DBB2     		uxtb	r3, r3
 7347 28bc 3370     		strb	r3, [r6, #0]
 7348 28be 9B18     		adds	r3, r3, r2
 7349 28c0 2B70     		strb	r3, [r5, #0]
 7350 28c2 4E48     		ldr	r0, .L337
 7351 28c4 FFF7FEFF 		bl	uart_transmit
 7352              	.LVL647:
 7353              	.LBE1157:
 7354              	.LBB1158:
 7355 28c8 94F84410 		ldrb	r1, [r4, #68]	@ zero_extendqisi2
 7356              	.LVL648:
 7357 28cc 3378     		ldrb	r3, [r6, #0]	@ zero_extendqisi2
 7358 28ce 2A78     		ldrb	r2, [r5, #0]	@ zero_extendqisi2
 7359 28d0 CB18     		adds	r3, r1, r3
 7360 28d2 DBB2     		uxtb	r3, r3
 7361 28d4 3370     		strb	r3, [r6, #0]
 7362 28d6 9B18     		adds	r3, r3, r2
 7363 28d8 04F14407 		add	r7, r4, #68
 7364 28dc 2B70     		strb	r3, [r5, #0]
 7365 28de 4748     		ldr	r0, .L337
 7366 28e0 FFF7FEFF 		bl	uart_transmit
 7367              	.LVL649:
 7368              	.LBE1158:
 7369              	.LBB1159:
 7370 28e4 7978     		ldrb	r1, [r7, #1]	@ zero_extendqisi2
 7371              	.LVL650:
 7372 28e6 3378     		ldrb	r3, [r6, #0]	@ zero_extendqisi2
 7373 28e8 2A78     		ldrb	r2, [r5, #0]	@ zero_extendqisi2
 7374 28ea CB18     		adds	r3, r1, r3
 7375 28ec DBB2     		uxtb	r3, r3
 7376 28ee 3370     		strb	r3, [r6, #0]
 7377 28f0 9B18     		adds	r3, r3, r2
 7378 28f2 2B70     		strb	r3, [r5, #0]
 7379 28f4 4148     		ldr	r0, .L337
 7380 28f6 FFF7FEFF 		bl	uart_transmit
 7381              	.LVL651:
 7382              	.LBE1159:
 7383              	.LBB1160:
 7384 28fa 9DF80C10 		ldrb	r1, [sp, #12]	@ zero_extendqisi2
 7385              	.LVL652:
 7386 28fe 3378     		ldrb	r3, [r6, #0]	@ zero_extendqisi2
 7387 2900 2A78     		ldrb	r2, [r5, #0]	@ zero_extendqisi2
 7388 2902 CB18     		adds	r3, r1, r3
 7389 2904 DBB2     		uxtb	r3, r3
 7390 2906 3370     		strb	r3, [r6, #0]
 7391 2908 9B18     		adds	r3, r3, r2
 7392 290a 2B70     		strb	r3, [r5, #0]
 7393 290c 3B48     		ldr	r0, .L337
 7394 290e FFF7FEFF 		bl	uart_transmit
 7395              	.LVL653:
 7396              	.LBE1160:
 7397              	.LBB1161:
 7398 2912 03AB     		add	r3, sp, #12
 7399 2914 5978     		ldrb	r1, [r3, #1]	@ zero_extendqisi2
 7400              	.LVL654:
 7401 2916 3378     		ldrb	r3, [r6, #0]	@ zero_extendqisi2
 7402 2918 2A78     		ldrb	r2, [r5, #0]	@ zero_extendqisi2
 7403 291a CB18     		adds	r3, r1, r3
 7404 291c DBB2     		uxtb	r3, r3
 7405 291e 3370     		strb	r3, [r6, #0]
 7406 2920 9B18     		adds	r3, r3, r2
 7407 2922 2B70     		strb	r3, [r5, #0]
 7408 2924 3548     		ldr	r0, .L337
 7409 2926 FFF7FEFF 		bl	uart_transmit
 7410              	.LVL655:
 7411              	.LBE1161:
 7412              	.LBB1162:
 7413 292a 94F85810 		ldrb	r1, [r4, #88]	@ zero_extendqisi2
 7414              	.LVL656:
 7415 292e 3378     		ldrb	r3, [r6, #0]	@ zero_extendqisi2
 7416 2930 2A78     		ldrb	r2, [r5, #0]	@ zero_extendqisi2
 7417 2932 CB18     		adds	r3, r1, r3
 7418 2934 DBB2     		uxtb	r3, r3
 7419 2936 3370     		strb	r3, [r6, #0]
 7420 2938 9B18     		adds	r3, r3, r2
 7421 293a 04F15807 		add	r7, r4, #88
 7422 293e 2B70     		strb	r3, [r5, #0]
 7423 2940 2E48     		ldr	r0, .L337
 7424 2942 FFF7FEFF 		bl	uart_transmit
 7425              	.LVL657:
 7426              	.LBE1162:
 7427              	.LBB1163:
 7428 2946 7978     		ldrb	r1, [r7, #1]	@ zero_extendqisi2
 7429              	.LVL658:
 7430 2948 3378     		ldrb	r3, [r6, #0]	@ zero_extendqisi2
 7431 294a 2A78     		ldrb	r2, [r5, #0]	@ zero_extendqisi2
 7432 294c CB18     		adds	r3, r1, r3
 7433 294e DBB2     		uxtb	r3, r3
 7434 2950 3370     		strb	r3, [r6, #0]
 7435 2952 9B18     		adds	r3, r3, r2
 7436 2954 2B70     		strb	r3, [r5, #0]
 7437 2956 2948     		ldr	r0, .L337
 7438 2958 FFF7FEFF 		bl	uart_transmit
 7439              	.LVL659:
 7440              	.LBE1163:
 7441              	.LBB1164:
 7442 295c 94F85C10 		ldrb	r1, [r4, #92]	@ zero_extendqisi2
 7443              	.LVL660:
 7444 2960 3378     		ldrb	r3, [r6, #0]	@ zero_extendqisi2
 7445 2962 2A78     		ldrb	r2, [r5, #0]	@ zero_extendqisi2
 7446 2964 CB18     		adds	r3, r1, r3
 7447 2966 DBB2     		uxtb	r3, r3
 7448 2968 3370     		strb	r3, [r6, #0]
 7449 296a 9B18     		adds	r3, r3, r2
 7450 296c 04F15C07 		add	r7, r4, #92
 7451 2970 2B70     		strb	r3, [r5, #0]
 7452 2972 2248     		ldr	r0, .L337
 7453 2974 FFF7FEFF 		bl	uart_transmit
 7454              	.LVL661:
 7455              	.LBE1164:
 7456              	.LBB1165:
 7457 2978 7978     		ldrb	r1, [r7, #1]	@ zero_extendqisi2
 7458              	.LVL662:
 7459 297a 3378     		ldrb	r3, [r6, #0]	@ zero_extendqisi2
 7460 297c 2A78     		ldrb	r2, [r5, #0]	@ zero_extendqisi2
 7461 297e CB18     		adds	r3, r1, r3
 7462 2980 DBB2     		uxtb	r3, r3
 7463 2982 3370     		strb	r3, [r6, #0]
 7464 2984 9B18     		adds	r3, r3, r2
 7465 2986 2B70     		strb	r3, [r5, #0]
 7466 2988 1C48     		ldr	r0, .L337
 7467 298a FFF7FEFF 		bl	uart_transmit
 7468              	.LVL663:
 7469              	.LBE1165:
 7470              	.LBB1166:
 7471 298e B978     		ldrb	r1, [r7, #2]	@ zero_extendqisi2
 7472              	.LVL664:
 7473 2990 3378     		ldrb	r3, [r6, #0]	@ zero_extendqisi2
 7474 2992 2A78     		ldrb	r2, [r5, #0]	@ zero_extendqisi2
 7475 2994 CB18     		adds	r3, r1, r3
 7476 2996 DBB2     		uxtb	r3, r3
 7477 2998 3370     		strb	r3, [r6, #0]
 7478 299a 9B18     		adds	r3, r3, r2
 7479 299c 2B70     		strb	r3, [r5, #0]
 7480 299e 1748     		ldr	r0, .L337
 7481 29a0 FFF7FEFF 		bl	uart_transmit
 7482              	.LVL665:
 7483              	.LBE1166:
 7484              	.LBB1167:
 7485 29a4 F978     		ldrb	r1, [r7, #3]	@ zero_extendqisi2
 7486              	.LVL666:
 7487 29a6 3378     		ldrb	r3, [r6, #0]	@ zero_extendqisi2
 7488 29a8 2A78     		ldrb	r2, [r5, #0]	@ zero_extendqisi2
 7489 29aa CB18     		adds	r3, r1, r3
 7490 29ac DBB2     		uxtb	r3, r3
 7491 29ae 3370     		strb	r3, [r6, #0]
 7492 29b0 9B18     		adds	r3, r3, r2
 7493 29b2 2B70     		strb	r3, [r5, #0]
 7494 29b4 1148     		ldr	r0, .L337
 7495 29b6 FFF7FEFF 		bl	uart_transmit
 7496              	.LVL667:
 7497              	.LBE1167:
 7498              	.LBB1168:
 7499 29ba 94F82410 		ldrb	r1, [r4, #36]	@ zero_extendqisi2
 7500              	.LVL668:
 7501 29be 3378     		ldrb	r3, [r6, #0]	@ zero_extendqisi2
 7502 29c0 2A78     		ldrb	r2, [r5, #0]	@ zero_extendqisi2
 7503 29c2 CB18     		adds	r3, r1, r3
 7504 29c4 DBB2     		uxtb	r3, r3
 7505 29c6 3370     		strb	r3, [r6, #0]
 7506 29c8 9B18     		adds	r3, r3, r2
 7507 29ca 2B70     		strb	r3, [r5, #0]
 7508 29cc 0B48     		ldr	r0, .L337
 7509 29ce FFF7FEFF 		bl	uart_transmit
 7510              	.LVL669:
 7511              	.LBE1168:
 7512              	.LBB1169:
 7513 29d2 0B4B     		ldr	r3, .L337+4
 7514 29d4 2A78     		ldrb	r2, [r5, #0]	@ zero_extendqisi2
 7515 29d6 1978     		ldrb	r1, [r3, #0]	@ zero_extendqisi2
 7516              	.LVL670:
 7517 29d8 3378     		ldrb	r3, [r6, #0]	@ zero_extendqisi2
 7518 29da 0848     		ldr	r0, .L337
 7519 29dc CB18     		adds	r3, r1, r3
 7520 29de DBB2     		uxtb	r3, r3
 7521 29e0 3370     		strb	r3, [r6, #0]
 7522 29e2 9B18     		adds	r3, r3, r2
 7523 29e4 2B70     		strb	r3, [r5, #0]
 7524 29e6 FFF7FEFF 		bl	uart_transmit
 7525              	.LVL671:
 7526              	.LBE1169:
 7527 29ea 3178     		ldrb	r1, [r6, #0]	@ zero_extendqisi2
 7528 29ec 0348     		ldr	r0, .L337
 7529 29ee FFF7FEFF 		bl	uart_transmit
 7530 29f2 0248     		ldr	r0, .L337
 7531 29f4 2978     		ldrb	r1, [r5, #0]	@ zero_extendqisi2
 7532 29f6 FFF7FEFF 		bl	uart_transmit
 7533 29fa 07E0     		b	.L166
 7534              	.L338:
 7535              		.align	2
 7536              	.L337:
 7537 29fc 00000000 		.word	uart2
 7538 2a00 00000000 		.word	.LANCHOR52
 7539              	.LVL672:
 7540              	.L165:
 7541 2a04 684B     		ldr	r3, .L339
 7542 2a06 1A78     		ldrb	r2, [r3, #0]	@ zero_extendqisi2
 7543 2a08 0132     		adds	r2, r2, #1
 7544 2a0a 1A70     		strb	r2, [r3, #0]
 7545              	.L166:
 7546 2a0c 674A     		ldr	r2, .L339+4
 7547 2a0e 92F85730 		ldrb	r3, [r2, #87]	@ zero_extendqisi2
 7548 2a12 032B     		cmp	r3, #3
 7549 2a14 07D0     		beq	.L167
 7550 2a16 664B     		ldr	r3, .L339+8
 7551 2a18 92F86020 		ldrb	r2, [r2, #96]	@ zero_extendqisi2
 7552 2a1c 1978     		ldrb	r1, [r3, #0]	@ zero_extendqisi2
 7553 2a1e 9142     		cmp	r1, r2
 7554 2a20 01D3     		bcc	.L167
 7555 2a22 0022     		movs	r2, #0
 7556 2a24 1A70     		strb	r2, [r3, #0]
 7557              	.L167:
 7558 2a26 614B     		ldr	r3, .L339+4
 7559 2a28 93F86020 		ldrb	r2, [r3, #96]	@ zero_extendqisi2
 7560 2a2c 604B     		ldr	r3, .L339+8
 7561 2a2e 1978     		ldrb	r1, [r3, #0]	@ zero_extendqisi2
 7562 2a30 B1EB420F 		cmp	r1, r2, lsl #1
 7563 2a34 01DB     		blt	.L168
 7564 2a36 0021     		movs	r1, #0
 7565 2a38 1970     		strb	r1, [r3, #0]
 7566              	.L168:
 7567 2a3a 5D4E     		ldr	r6, .L339+8
 7568              	.LVL673:
 7569 2a3c 3378     		ldrb	r3, [r6, #0]	@ zero_extendqisi2
 7570 2a3e 9342     		cmp	r3, r2
 7571 2a40 80F0C680 		bcs	.L169
 7572 2a44 594F     		ldr	r7, .L339+4
 7573 2a46 07EBC303 		add	r3, r7, r3, lsl #3
 7574 2a4a 93F86530 		ldrb	r3, [r3, #101]	@ zero_extendqisi2
 7575 2a4e 002B     		cmp	r3, #0
 7576 2a50 00F0BE80 		beq	.L169
 7577 2a54 5748     		ldr	r0, .L339+12
 7578 2a56 0E21     		movs	r1, #14
 7579 2a58 FFF7FEFF 		bl	uart_check_free_space
 7580 2a5c 0028     		cmp	r0, #0
 7581 2a5e 00F0B380 		beq	.L170
 7582 2a62 554B     		ldr	r3, .L339+16
 7583              	.LBB1170:
 7584 2a64 9921     		movs	r1, #153
 7585              	.LBE1170:
 7586 2a66 1A88     		ldrh	r2, [r3, #0]
 7587              	.LBB1171:
 7588 2a68 5248     		ldr	r0, .L339+12
 7589              	.LBE1171:
 7590 2a6a 0E32     		adds	r2, r2, #14
 7591 2a6c 1A80     		strh	r2, [r3, #0]	@ movhi
 7592 2a6e 534B     		ldr	r3, .L339+20
 7593              	.LBB1172:
 7594 2a70 534D     		ldr	r5, .L339+24
 7595              	.LBE1172:
 7596 2a72 1A88     		ldrh	r2, [r3, #0]
 7597              	.LBB1173:
 7598 2a74 534C     		ldr	r4, .L339+28
 7599              	.LBE1173:
 7600 2a76 0132     		adds	r2, r2, #1
 7601 2a78 1A80     		strh	r2, [r3, #0]	@ movhi
 7602              	.LBB1174:
 7603 2a7a FFF7FEFF 		bl	uart_transmit
 7604 2a7e 0E21     		movs	r1, #14
 7605 2a80 4C48     		ldr	r0, .L339+12
 7606 2a82 FFF7FEFF 		bl	uart_transmit
 7607              	.LBE1174:
 7608 2a86 0F23     		movs	r3, #15
 7609 2a88 2B70     		strb	r3, [r5, #0]
 7610 2a8a 0E33     		adds	r3, r3, #14
 7611 2a8c 2370     		strb	r3, [r4, #0]
 7612 2a8e 0121     		movs	r1, #1
 7613 2a90 4848     		ldr	r0, .L339+12
 7614 2a92 FFF7FEFF 		bl	uart_transmit
 7615 2a96 2B78     		ldrb	r3, [r5, #0]	@ zero_extendqisi2
 7616 2a98 2278     		ldrb	r2, [r4, #0]	@ zero_extendqisi2
 7617 2a9a 1933     		adds	r3, r3, #25
 7618 2a9c DBB2     		uxtb	r3, r3
 7619 2a9e 2B70     		strb	r3, [r5, #0]
 7620 2aa0 9B18     		adds	r3, r3, r2
 7621 2aa2 2370     		strb	r3, [r4, #0]
 7622 2aa4 1921     		movs	r1, #25
 7623 2aa6 4348     		ldr	r0, .L339+12
 7624 2aa8 FFF7FEFF 		bl	uart_transmit
 7625              	.LBB1175:
 7626 2aac 3178     		ldrb	r1, [r6, #0]	@ zero_extendqisi2
 7627              	.LVL674:
 7628 2aae 2B78     		ldrb	r3, [r5, #0]	@ zero_extendqisi2
 7629 2ab0 2278     		ldrb	r2, [r4, #0]	@ zero_extendqisi2
 7630 2ab2 CB18     		adds	r3, r1, r3
 7631 2ab4 DBB2     		uxtb	r3, r3
 7632 2ab6 2B70     		strb	r3, [r5, #0]
 7633 2ab8 9B18     		adds	r3, r3, r2
 7634 2aba 2370     		strb	r3, [r4, #0]
 7635 2abc 3D48     		ldr	r0, .L339+12
 7636 2abe FFF7FEFF 		bl	uart_transmit
 7637              	.LVL675:
 7638              	.LBE1175:
 7639              	.LBB1176:
 7640 2ac2 3378     		ldrb	r3, [r6, #0]	@ zero_extendqisi2
 7641 2ac4 2278     		ldrb	r2, [r4, #0]	@ zero_extendqisi2
 7642 2ac6 07EBC303 		add	r3, r7, r3, lsl #3
 7643 2aca 93F86210 		ldrb	r1, [r3, #98]	@ zero_extendqisi2
 7644              	.LVL676:
 7645 2ace 2B78     		ldrb	r3, [r5, #0]	@ zero_extendqisi2
 7646 2ad0 3848     		ldr	r0, .L339+12
 7647 2ad2 CB18     		adds	r3, r1, r3
 7648 2ad4 DBB2     		uxtb	r3, r3
 7649 2ad6 2B70     		strb	r3, [r5, #0]
 7650 2ad8 9B18     		adds	r3, r3, r2
 7651 2ada 2370     		strb	r3, [r4, #0]
 7652 2adc FFF7FEFF 		bl	uart_transmit
 7653              	.LVL677:
 7654              	.LBE1176:
 7655              	.LBB1177:
 7656 2ae0 3378     		ldrb	r3, [r6, #0]	@ zero_extendqisi2
 7657 2ae2 2278     		ldrb	r2, [r4, #0]	@ zero_extendqisi2
 7658 2ae4 07EBC303 		add	r3, r7, r3, lsl #3
 7659 2ae8 93F86310 		ldrb	r1, [r3, #99]	@ zero_extendqisi2
 7660              	.LVL678:
 7661 2aec 2B78     		ldrb	r3, [r5, #0]	@ zero_extendqisi2
 7662 2aee 3148     		ldr	r0, .L339+12
 7663 2af0 CB18     		adds	r3, r1, r3
 7664 2af2 DBB2     		uxtb	r3, r3
 7665 2af4 2B70     		strb	r3, [r5, #0]
 7666 2af6 9B18     		adds	r3, r3, r2
 7667 2af8 2370     		strb	r3, [r4, #0]
 7668 2afa FFF7FEFF 		bl	uart_transmit
 7669              	.LVL679:
 7670              	.LBE1177:
 7671              	.LBB1178:
 7672 2afe 3378     		ldrb	r3, [r6, #0]	@ zero_extendqisi2
 7673 2b00 2278     		ldrb	r2, [r4, #0]	@ zero_extendqisi2
 7674 2b02 07EBC303 		add	r3, r7, r3, lsl #3
 7675 2b06 93F86410 		ldrb	r1, [r3, #100]	@ zero_extendqisi2
 7676              	.LVL680:
 7677 2b0a 2B78     		ldrb	r3, [r5, #0]	@ zero_extendqisi2
 7678 2b0c 2948     		ldr	r0, .L339+12
 7679 2b0e CB18     		adds	r3, r1, r3
 7680 2b10 DBB2     		uxtb	r3, r3
 7681 2b12 2B70     		strb	r3, [r5, #0]
 7682 2b14 9B18     		adds	r3, r3, r2
 7683 2b16 2370     		strb	r3, [r4, #0]
 7684 2b18 FFF7FEFF 		bl	uart_transmit
 7685              	.LVL681:
 7686              	.LBE1178:
 7687              	.LBB1179:
 7688 2b1c 3378     		ldrb	r3, [r6, #0]	@ zero_extendqisi2
 7689 2b1e 2278     		ldrb	r2, [r4, #0]	@ zero_extendqisi2
 7690 2b20 07EBC303 		add	r3, r7, r3, lsl #3
 7691 2b24 93F86510 		ldrb	r1, [r3, #101]	@ zero_extendqisi2
 7692              	.LVL682:
 7693 2b28 2B78     		ldrb	r3, [r5, #0]	@ zero_extendqisi2
 7694 2b2a 2248     		ldr	r0, .L339+12
 7695 2b2c CB18     		adds	r3, r1, r3
 7696 2b2e DBB2     		uxtb	r3, r3
 7697 2b30 2B70     		strb	r3, [r5, #0]
 7698 2b32 9B18     		adds	r3, r3, r2
 7699 2b34 2370     		strb	r3, [r4, #0]
 7700 2b36 FFF7FEFF 		bl	uart_transmit
 7701              	.LVL683:
 7702              	.LBE1179:
 7703              	.LBB1180:
 7704 2b3a 3378     		ldrb	r3, [r6, #0]	@ zero_extendqisi2
 7705 2b3c 2278     		ldrb	r2, [r4, #0]	@ zero_extendqisi2
 7706 2b3e 07EBC303 		add	r3, r7, r3, lsl #3
 7707 2b42 93F86610 		ldrb	r1, [r3, #102]	@ zero_extendqisi2
 7708              	.LVL684:
 7709 2b46 2B78     		ldrb	r3, [r5, #0]	@ zero_extendqisi2
 7710 2b48 1A48     		ldr	r0, .L339+12
 7711 2b4a CB18     		adds	r3, r1, r3
 7712 2b4c DBB2     		uxtb	r3, r3
 7713 2b4e 2B70     		strb	r3, [r5, #0]
 7714 2b50 9B18     		adds	r3, r3, r2
 7715 2b52 2370     		strb	r3, [r4, #0]
 7716 2b54 FFF7FEFF 		bl	uart_transmit
 7717              	.LVL685:
 7718              	.LBE1180:
 7719              	.LBB1181:
 7720 2b58 3378     		ldrb	r3, [r6, #0]	@ zero_extendqisi2
 7721 2b5a 2278     		ldrb	r2, [r4, #0]	@ zero_extendqisi2
 7722 2b5c 07EBC303 		add	r3, r7, r3, lsl #3
 7723 2b60 93F86810 		ldrb	r1, [r3, #104]	@ zero_extendqisi2
 7724              	.LVL686:
 7725 2b64 2B78     		ldrb	r3, [r5, #0]	@ zero_extendqisi2
 7726 2b66 1348     		ldr	r0, .L339+12
 7727 2b68 CB18     		adds	r3, r1, r3
 7728 2b6a DBB2     		uxtb	r3, r3
 7729 2b6c 2B70     		strb	r3, [r5, #0]
 7730 2b6e 9B18     		adds	r3, r3, r2
 7731 2b70 2370     		strb	r3, [r4, #0]
 7732 2b72 FFF7FEFF 		bl	uart_transmit
 7733              	.LVL687:
 7734              	.LBE1181:
 7735              	.LBB1182:
 7736 2b76 3378     		ldrb	r3, [r6, #0]	@ zero_extendqisi2
 7737 2b78 2278     		ldrb	r2, [r4, #0]	@ zero_extendqisi2
 7738 2b7a 07EBC307 		add	r7, r7, r3, lsl #3
 7739 2b7e 97F86910 		ldrb	r1, [r7, #105]	@ zero_extendqisi2
 7740              	.LVL688:
 7741 2b82 2B78     		ldrb	r3, [r5, #0]	@ zero_extendqisi2
 7742 2b84 0B48     		ldr	r0, .L339+12
 7743 2b86 CB18     		adds	r3, r1, r3
 7744 2b88 DBB2     		uxtb	r3, r3
 7745 2b8a 2B70     		strb	r3, [r5, #0]
 7746 2b8c 9B18     		adds	r3, r3, r2
 7747 2b8e 2370     		strb	r3, [r4, #0]
 7748 2b90 FFF7FEFF 		bl	uart_transmit
 7749              	.LVL689:
 7750              	.LBE1182:
 7751 2b94 2978     		ldrb	r1, [r5, #0]	@ zero_extendqisi2
 7752 2b96 0748     		ldr	r0, .L339+12
 7753 2b98 FFF7FEFF 		bl	uart_transmit
 7754 2b9c 0548     		ldr	r0, .L339+12
 7755 2b9e 2178     		ldrb	r1, [r4, #0]	@ zero_extendqisi2
 7756 2ba0 FFF7FEFF 		bl	uart_transmit
 7757 2ba4 14E0     		b	.L169
 7758              	.L340:
 7759 2ba6 00BF     		.align	2
 7760              	.L339:
 7761 2ba8 00000000 		.word	downlink_nb_ovrn
 7762 2bac 00000000 		.word	gps
 7763 2bb0 00000000 		.word	.LANCHOR52
 7764 2bb4 00000000 		.word	uart2
 7765 2bb8 00000000 		.word	downlink_nb_bytes
 7766 2bbc 00000000 		.word	downlink_nb_msgs
 7767 2bc0 00000000 		.word	ck_a
 7768 2bc4 00000000 		.word	ck_b
 7769              	.L170:
 7770 2bc8 794B     		ldr	r3, .L341
 7771 2bca 1A78     		ldrb	r2, [r3, #0]	@ zero_extendqisi2
 7772 2bcc 0132     		adds	r2, r2, #1
 7773 2bce 1A70     		strb	r2, [r3, #0]
 7774              	.L169:
 7775 2bd0 784B     		ldr	r3, .L341+4
 7776 2bd2 1A78     		ldrb	r2, [r3, #0]	@ zero_extendqisi2
 7777 2bd4 0132     		adds	r2, r2, #1
 7778 2bd6 1A70     		strb	r2, [r3, #0]
 7779              	.LVL690:
 7780              	.L164:
 7781              	.LBE1137:
 7782 2bd8 774B     		ldr	r3, .L341+8
 7783 2bda 1B78     		ldrb	r3, [r3, #0]	@ zero_extendqisi2
 7784 2bdc 062B     		cmp	r3, #6
 7785 2bde 40F00B81 		bne	.L171
 7786              	.LBB1183:
 7787 2be2 764B     		ldr	r3, .L341+12
 7788 2be4 1A68     		ldr	r2, [r3, #0]
 7789 2be6 0A23     		movs	r3, #10
 7790 2be8 92FBF3F3 		sdiv	r3, r2, r3
 7791 2bec ADF80E30 		strh	r3, [sp, #14]	@ movhi
 7792              	.LVL691:
 7793              	.LBB1184:
 7794 2bf0 734B     		ldr	r3, .L341+16
 7795 2bf2 1868     		ldr	r0, [r3, #0]	@ float
 7796 2bf4 FFF7FEFF 		bl	__aeabi_f2iz
 7797 2bf8 1421     		movs	r1, #20
 7798 2bfa ADF80C00 		strh	r0, [sp, #12]	@ movhi
 7799              	.LVL692:
 7800 2bfe 7148     		ldr	r0, .L341+20
 7801 2c00 FFF7FEFF 		bl	uart_check_free_space
 7802 2c04 0028     		cmp	r0, #0
 7803 2c06 00F0F380 		beq	.L172
 7804 2c0a 6F4B     		ldr	r3, .L341+24
 7805              	.LBB1185:
 7806 2c0c 9921     		movs	r1, #153
 7807              	.LBE1185:
 7808 2c0e 1A88     		ldrh	r2, [r3, #0]
 7809              	.LBB1186:
 7810 2c10 6C48     		ldr	r0, .L341+20
 7811              	.LBE1186:
 7812 2c12 1432     		adds	r2, r2, #20
 7813 2c14 1A80     		strh	r2, [r3, #0]	@ movhi
 7814 2c16 6D4B     		ldr	r3, .L341+28
 7815              	.LBB1187:
 7816 2c18 6D4D     		ldr	r5, .L341+32
 7817              	.LBE1187:
 7818 2c1a 1A88     		ldrh	r2, [r3, #0]
 7819              	.LBB1188:
 7820 2c1c 6D4C     		ldr	r4, .L341+36
 7821              	.LBE1188:
 7822 2c1e 0132     		adds	r2, r2, #1
 7823 2c20 1A80     		strh	r2, [r3, #0]	@ movhi
 7824              	.LBB1189:
 7825 2c22 FFF7FEFF 		bl	uart_transmit
 7826 2c26 1421     		movs	r1, #20
 7827 2c28 6648     		ldr	r0, .L341+20
 7828 2c2a FFF7FEFF 		bl	uart_transmit
 7829              	.LBE1189:
 7830 2c2e 1523     		movs	r3, #21
 7831 2c30 2B70     		strb	r3, [r5, #0]
 7832 2c32 1433     		adds	r3, r3, #20
 7833 2c34 2370     		strb	r3, [r4, #0]
 7834 2c36 0121     		movs	r1, #1
 7835 2c38 6248     		ldr	r0, .L341+20
 7836 2c3a FFF7FEFF 		bl	uart_transmit
 7837 2c3e 2B78     		ldrb	r3, [r5, #0]	@ zero_extendqisi2
 7838 2c40 2278     		ldrb	r2, [r4, #0]	@ zero_extendqisi2
 7839 2c42 0C33     		adds	r3, r3, #12
 7840 2c44 DBB2     		uxtb	r3, r3
 7841 2c46 2B70     		strb	r3, [r5, #0]
 7842              	.LBB1190:
 7843 2c48 634E     		ldr	r6, .L341+40
 7844              	.LVL693:
 7845              	.LBE1190:
 7846 2c4a 9B18     		adds	r3, r3, r2
 7847 2c4c 2370     		strb	r3, [r4, #0]
 7848 2c4e 0C21     		movs	r1, #12
 7849 2c50 5C48     		ldr	r0, .L341+20
 7850 2c52 FFF7FEFF 		bl	uart_transmit
 7851              	.LBB1191:
 7852 2c56 3178     		ldrb	r1, [r6, #0]	@ zero_extendqisi2
 7853              	.LVL694:
 7854 2c58 2B78     		ldrb	r3, [r5, #0]	@ zero_extendqisi2
 7855 2c5a 2278     		ldrb	r2, [r4, #0]	@ zero_extendqisi2
 7856 2c5c CB18     		adds	r3, r1, r3
 7857 2c5e DBB2     		uxtb	r3, r3
 7858 2c60 2B70     		strb	r3, [r5, #0]
 7859 2c62 9B18     		adds	r3, r3, r2
 7860 2c64 2370     		strb	r3, [r4, #0]
 7861 2c66 5748     		ldr	r0, .L341+20
 7862 2c68 FFF7FEFF 		bl	uart_transmit
 7863              	.LVL695:
 7864              	.LBE1191:
 7865              	.LBB1192:
 7866 2c6c 7178     		ldrb	r1, [r6, #1]	@ zero_extendqisi2
 7867              	.LVL696:
 7868 2c6e 2B78     		ldrb	r3, [r5, #0]	@ zero_extendqisi2
 7869 2c70 2278     		ldrb	r2, [r4, #0]	@ zero_extendqisi2
 7870 2c72 CB18     		adds	r3, r1, r3
 7871 2c74 DBB2     		uxtb	r3, r3
 7872 2c76 2B70     		strb	r3, [r5, #0]
 7873 2c78 9B18     		adds	r3, r3, r2
 7874 2c7a 2370     		strb	r3, [r4, #0]
 7875 2c7c 5148     		ldr	r0, .L341+20
 7876 2c7e FFF7FEFF 		bl	uart_transmit
 7877              	.LVL697:
 7878              	.LBE1192:
 7879              	.LBB1193:
 7880 2c82 564B     		ldr	r3, .L341+44
 7881 2c84 2278     		ldrb	r2, [r4, #0]	@ zero_extendqisi2
 7882 2c86 1978     		ldrb	r1, [r3, #0]	@ zero_extendqisi2
 7883              	.LVL698:
 7884 2c88 2B78     		ldrb	r3, [r5, #0]	@ zero_extendqisi2
 7885 2c8a 4E48     		ldr	r0, .L341+20
 7886 2c8c CB18     		adds	r3, r1, r3
 7887 2c8e DBB2     		uxtb	r3, r3
 7888 2c90 2B70     		strb	r3, [r5, #0]
 7889 2c92 9B18     		adds	r3, r3, r2
 7890 2c94 2370     		strb	r3, [r4, #0]
 7891 2c96 FFF7FEFF 		bl	uart_transmit
 7892              	.LVL699:
 7893              	.LBE1193:
 7894              	.LBB1194:
 7895 2c9a 9DF80E10 		ldrb	r1, [sp, #14]	@ zero_extendqisi2
 7896              	.LVL700:
 7897 2c9e 2B78     		ldrb	r3, [r5, #0]	@ zero_extendqisi2
 7898 2ca0 2278     		ldrb	r2, [r4, #0]	@ zero_extendqisi2
 7899 2ca2 CB18     		adds	r3, r1, r3
 7900 2ca4 DBB2     		uxtb	r3, r3
 7901 2ca6 2B70     		strb	r3, [r5, #0]
 7902 2ca8 9B18     		adds	r3, r3, r2
 7903 2caa 2370     		strb	r3, [r4, #0]
 7904 2cac 4548     		ldr	r0, .L341+20
 7905 2cae FFF7FEFF 		bl	uart_transmit
 7906              	.LVL701:
 7907              	.LBE1194:
 7908              	.LBB1195:
 7909 2cb2 0DF10E03 		add	r3, sp, #14
 7910 2cb6 5978     		ldrb	r1, [r3, #1]	@ zero_extendqisi2
 7911              	.LVL702:
 7912 2cb8 2B78     		ldrb	r3, [r5, #0]	@ zero_extendqisi2
 7913 2cba 2278     		ldrb	r2, [r4, #0]	@ zero_extendqisi2
 7914 2cbc CB18     		adds	r3, r1, r3
 7915 2cbe DBB2     		uxtb	r3, r3
 7916 2cc0 2B70     		strb	r3, [r5, #0]
 7917              	.LBE1195:
 7918              	.LBB1196:
 7919 2cc2 474E     		ldr	r6, .L341+48
 7920              	.LBE1196:
 7921              	.LBB1197:
 7922 2cc4 9B18     		adds	r3, r3, r2
 7923 2cc6 2370     		strb	r3, [r4, #0]
 7924 2cc8 3E48     		ldr	r0, .L341+20
 7925 2cca FFF7FEFF 		bl	uart_transmit
 7926              	.LVL703:
 7927              	.LBE1197:
 7928              	.LBB1198:
 7929 2cce 3178     		ldrb	r1, [r6, #0]	@ zero_extendqisi2
 7930              	.LVL704:
 7931 2cd0 2B78     		ldrb	r3, [r5, #0]	@ zero_extendqisi2
 7932 2cd2 2278     		ldrb	r2, [r4, #0]	@ zero_extendqisi2
 7933 2cd4 CB18     		adds	r3, r1, r3
 7934 2cd6 DBB2     		uxtb	r3, r3
 7935 2cd8 2B70     		strb	r3, [r5, #0]
 7936 2cda 9B18     		adds	r3, r3, r2
 7937 2cdc 2370     		strb	r3, [r4, #0]
 7938 2cde 3948     		ldr	r0, .L341+20
 7939 2ce0 FFF7FEFF 		bl	uart_transmit
 7940              	.LVL705:
 7941              	.LBE1198:
 7942              	.LBB1199:
 7943 2ce4 7178     		ldrb	r1, [r6, #1]	@ zero_extendqisi2
 7944              	.LVL706:
 7945 2ce6 2B78     		ldrb	r3, [r5, #0]	@ zero_extendqisi2
 7946 2ce8 2278     		ldrb	r2, [r4, #0]	@ zero_extendqisi2
 7947 2cea CB18     		adds	r3, r1, r3
 7948 2cec DBB2     		uxtb	r3, r3
 7949 2cee 2B70     		strb	r3, [r5, #0]
 7950 2cf0 9B18     		adds	r3, r3, r2
 7951 2cf2 2370     		strb	r3, [r4, #0]
 7952 2cf4 3348     		ldr	r0, .L341+20
 7953 2cf6 FFF7FEFF 		bl	uart_transmit
 7954              	.LVL707:
 7955              	.LBE1199:
 7956              	.LBB1200:
 7957 2cfa 3A4B     		ldr	r3, .L341+52
 7958 2cfc 2278     		ldrb	r2, [r4, #0]	@ zero_extendqisi2
 7959 2cfe 1978     		ldrb	r1, [r3, #0]	@ zero_extendqisi2
 7960              	.LVL708:
 7961 2d00 2B78     		ldrb	r3, [r5, #0]	@ zero_extendqisi2
 7962              	.LBE1200:
 7963              	.LBB1201:
 7964 2d02 394E     		ldr	r6, .L341+56
 7965              	.LBE1201:
 7966              	.LBB1202:
 7967 2d04 CB18     		adds	r3, r1, r3
 7968 2d06 DBB2     		uxtb	r3, r3
 7969 2d08 2B70     		strb	r3, [r5, #0]
 7970 2d0a 9B18     		adds	r3, r3, r2
 7971 2d0c 2370     		strb	r3, [r4, #0]
 7972 2d0e 2D48     		ldr	r0, .L341+20
 7973 2d10 FFF7FEFF 		bl	uart_transmit
 7974              	.LVL709:
 7975              	.LBE1202:
 7976              	.LBB1203:
 7977 2d14 3178     		ldrb	r1, [r6, #0]	@ zero_extendqisi2
 7978              	.LVL710:
 7979 2d16 2B78     		ldrb	r3, [r5, #0]	@ zero_extendqisi2
 7980 2d18 2278     		ldrb	r2, [r4, #0]	@ zero_extendqisi2
 7981 2d1a CB18     		adds	r3, r1, r3
 7982 2d1c DBB2     		uxtb	r3, r3
 7983 2d1e 2B70     		strb	r3, [r5, #0]
 7984 2d20 9B18     		adds	r3, r3, r2
 7985 2d22 2370     		strb	r3, [r4, #0]
 7986 2d24 2748     		ldr	r0, .L341+20
 7987 2d26 FFF7FEFF 		bl	uart_transmit
 7988              	.LVL711:
 7989              	.LBE1203:
 7990              	.LBB1204:
 7991 2d2a 7178     		ldrb	r1, [r6, #1]	@ zero_extendqisi2
 7992              	.LVL712:
 7993 2d2c 2B78     		ldrb	r3, [r5, #0]	@ zero_extendqisi2
 7994 2d2e 2278     		ldrb	r2, [r4, #0]	@ zero_extendqisi2
 7995 2d30 CB18     		adds	r3, r1, r3
 7996 2d32 DBB2     		uxtb	r3, r3
 7997 2d34 2B70     		strb	r3, [r5, #0]
 7998              	.LBE1204:
 7999              	.LBB1205:
 8000 2d36 2D4E     		ldr	r6, .L341+60
 8001              	.LBE1205:
 8002              	.LBB1206:
 8003 2d38 9B18     		adds	r3, r3, r2
 8004 2d3a 2370     		strb	r3, [r4, #0]
 8005 2d3c 2148     		ldr	r0, .L341+20
 8006 2d3e FFF7FEFF 		bl	uart_transmit
 8007              	.LVL713:
 8008              	.LBE1206:
 8009              	.LBB1207:
 8010 2d42 3178     		ldrb	r1, [r6, #0]	@ zero_extendqisi2
 8011              	.LVL714:
 8012 2d44 2B78     		ldrb	r3, [r5, #0]	@ zero_extendqisi2
 8013 2d46 2278     		ldrb	r2, [r4, #0]	@ zero_extendqisi2
 8014 2d48 CB18     		adds	r3, r1, r3
 8015 2d4a DBB2     		uxtb	r3, r3
 8016 2d4c 2B70     		strb	r3, [r5, #0]
 8017 2d4e 9B18     		adds	r3, r3, r2
 8018 2d50 2370     		strb	r3, [r4, #0]
 8019 2d52 1C48     		ldr	r0, .L341+20
 8020 2d54 FFF7FEFF 		bl	uart_transmit
 8021              	.LVL715:
 8022              	.LBE1207:
 8023              	.LBB1208:
 8024 2d58 7178     		ldrb	r1, [r6, #1]	@ zero_extendqisi2
 8025              	.LVL716:
 8026 2d5a 2B78     		ldrb	r3, [r5, #0]	@ zero_extendqisi2
 8027 2d5c 2278     		ldrb	r2, [r4, #0]	@ zero_extendqisi2
 8028 2d5e CB18     		adds	r3, r1, r3
 8029 2d60 DBB2     		uxtb	r3, r3
 8030 2d62 2B70     		strb	r3, [r5, #0]
 8031 2d64 9B18     		adds	r3, r3, r2
 8032 2d66 2370     		strb	r3, [r4, #0]
 8033 2d68 1648     		ldr	r0, .L341+20
 8034 2d6a FFF7FEFF 		bl	uart_transmit
 8035              	.LVL717:
 8036              	.LBE1208:
 8037              	.LBB1209:
 8038 2d6e 9DF80C10 		ldrb	r1, [sp, #12]	@ zero_extendqisi2
 8039              	.LVL718:
 8040 2d72 2B78     		ldrb	r3, [r5, #0]	@ zero_extendqisi2
 8041 2d74 2278     		ldrb	r2, [r4, #0]	@ zero_extendqisi2
 8042 2d76 CB18     		adds	r3, r1, r3
 8043 2d78 DBB2     		uxtb	r3, r3
 8044 2d7a 2B70     		strb	r3, [r5, #0]
 8045 2d7c 9B18     		adds	r3, r3, r2
 8046 2d7e 2370     		strb	r3, [r4, #0]
 8047 2d80 1048     		ldr	r0, .L341+20
 8048 2d82 FFF7FEFF 		bl	uart_transmit
 8049              	.LVL719:
 8050              	.LBE1209:
 8051              	.LBB1210:
 8052 2d86 03AB     		add	r3, sp, #12
 8053 2d88 5978     		ldrb	r1, [r3, #1]	@ zero_extendqisi2
 8054              	.LVL720:
 8055 2d8a 2B78     		ldrb	r3, [r5, #0]	@ zero_extendqisi2
 8056 2d8c 2278     		ldrb	r2, [r4, #0]	@ zero_extendqisi2
 8057 2d8e CB18     		adds	r3, r1, r3
 8058 2d90 DBB2     		uxtb	r3, r3
 8059 2d92 2B70     		strb	r3, [r5, #0]
 8060 2d94 9B18     		adds	r3, r3, r2
 8061 2d96 2370     		strb	r3, [r4, #0]
 8062 2d98 0A48     		ldr	r0, .L341+20
 8063 2d9a FFF7FEFF 		bl	uart_transmit
 8064              	.LVL721:
 8065              	.LBE1210:
 8066 2d9e 2978     		ldrb	r1, [r5, #0]	@ zero_extendqisi2
 8067 2da0 0848     		ldr	r0, .L341+20
 8068 2da2 FFF7FEFF 		bl	uart_transmit
 8069 2da6 0748     		ldr	r0, .L341+20
 8070 2da8 2178     		ldrb	r1, [r4, #0]	@ zero_extendqisi2
 8071 2daa FFF7FEFF 		bl	uart_transmit
 8072 2dae 23E0     		b	.L171
 8073              	.L342:
 8074              		.align	2
 8075              	.L341:
 8076 2db0 00000000 		.word	downlink_nb_ovrn
 8077 2db4 00000000 		.word	.LANCHOR52
 8078 2db8 00000000 		.word	.LANCHOR37
 8079 2dbc 00000000 		.word	.LANCHOR11
 8080 2dc0 00000000 		.word	.LANCHOR10
 8081 2dc4 00000000 		.word	uart2
 8082 2dc8 00000000 		.word	downlink_nb_bytes
 8083 2dcc 00000000 		.word	downlink_nb_msgs
 8084 2dd0 00000000 		.word	ck_a
 8085 2dd4 00000000 		.word	ck_b
 8086 2dd8 00000000 		.word	v_ctl_throttle_slewed
 8087 2ddc 00000000 		.word	.LANCHOR8
 8088 2de0 00000000 		.word	estimator_flight_time
 8089 2de4 00000000 		.word	.LANCHOR9
 8090 2de8 00000000 		.word	block_time
 8091 2dec 00000000 		.word	stage_time
 8092              	.LVL722:
 8093              	.L172:
 8094 2df0 4B4B     		ldr	r3, .L343
 8095 2df2 1A78     		ldrb	r2, [r3, #0]	@ zero_extendqisi2
 8096 2df4 0132     		adds	r2, r2, #1
 8097 2df6 1A70     		strb	r2, [r3, #0]
 8098              	.L171:
 8099              	.LBE1184:
 8100              	.LBE1183:
 8101 2df8 4A4B     		ldr	r3, .L343+4
 8102 2dfa 1B78     		ldrb	r3, [r3, #0]	@ zero_extendqisi2
 8103 2dfc 0C2B     		cmp	r3, #12
 8104 2dfe 40F0A580 		bne	.L173
 8105 2e02 4948     		ldr	r0, .L343+8
 8106 2e04 0E21     		movs	r1, #14
 8107 2e06 FFF7FEFF 		bl	uart_check_free_space
 8108 2e0a 0028     		cmp	r0, #0
 8109 2e0c 00F09A80 		beq	.L174
 8110 2e10 464B     		ldr	r3, .L343+12
 8111              	.LBB1211:
 8112 2e12 9921     		movs	r1, #153
 8113              	.LBE1211:
 8114 2e14 1A88     		ldrh	r2, [r3, #0]
 8115              	.LBB1212:
 8116 2e16 4448     		ldr	r0, .L343+8
 8117              	.LBE1212:
 8118 2e18 0E32     		adds	r2, r2, #14
 8119 2e1a 1A80     		strh	r2, [r3, #0]	@ movhi
 8120 2e1c 444B     		ldr	r3, .L343+16
 8121              	.LBB1213:
 8122 2e1e 454D     		ldr	r5, .L343+20
 8123              	.LBE1213:
 8124 2e20 1A88     		ldrh	r2, [r3, #0]
 8125              	.LBB1214:
 8126 2e22 454C     		ldr	r4, .L343+24
 8127              	.LBE1214:
 8128 2e24 0132     		adds	r2, r2, #1
 8129 2e26 1A80     		strh	r2, [r3, #0]	@ movhi
 8130              	.LBB1215:
 8131 2e28 FFF7FEFF 		bl	uart_transmit
 8132 2e2c 0E21     		movs	r1, #14
 8133 2e2e 3E48     		ldr	r0, .L343+8
 8134 2e30 FFF7FEFF 		bl	uart_transmit
 8135              	.LBE1215:
 8136 2e34 0F23     		movs	r3, #15
 8137 2e36 2B70     		strb	r3, [r5, #0]
 8138 2e38 0E33     		adds	r3, r3, #14
 8139 2e3a 2370     		strb	r3, [r4, #0]
 8140 2e3c 0121     		movs	r1, #1
 8141 2e3e 3A48     		ldr	r0, .L343+8
 8142 2e40 FFF7FEFF 		bl	uart_transmit
 8143 2e44 2B78     		ldrb	r3, [r5, #0]	@ zero_extendqisi2
 8144 2e46 2278     		ldrb	r2, [r4, #0]	@ zero_extendqisi2
 8145 2e48 2A33     		adds	r3, r3, #42
 8146 2e4a DBB2     		uxtb	r3, r3
 8147              	.LBB1216:
 8148 2e4c 3B4E     		ldr	r6, .L343+28
 8149              	.LVL723:
 8150              	.LBE1216:
 8151 2e4e 2B70     		strb	r3, [r5, #0]
 8152 2e50 9B18     		adds	r3, r3, r2
 8153 2e52 2370     		strb	r3, [r4, #0]
 8154 2e54 2A21     		movs	r1, #42
 8155 2e56 3448     		ldr	r0, .L343+8
 8156 2e58 FFF7FEFF 		bl	uart_transmit
 8157              	.LBB1217:
 8158 2e5c 3178     		ldrb	r1, [r6, #0]	@ zero_extendqisi2
 8159              	.LVL724:
 8160 2e5e 2B78     		ldrb	r3, [r5, #0]	@ zero_extendqisi2
 8161 2e60 2278     		ldrb	r2, [r4, #0]	@ zero_extendqisi2
 8162 2e62 CB18     		adds	r3, r1, r3
 8163 2e64 DBB2     		uxtb	r3, r3
 8164 2e66 2B70     		strb	r3, [r5, #0]
 8165 2e68 9B18     		adds	r3, r3, r2
 8166 2e6a 2370     		strb	r3, [r4, #0]
 8167 2e6c 2E48     		ldr	r0, .L343+8
 8168 2e6e FFF7FEFF 		bl	uart_transmit
 8169              	.LVL725:
 8170              	.LBE1217:
 8171              	.LBB1218:
 8172 2e72 7178     		ldrb	r1, [r6, #1]	@ zero_extendqisi2
 8173              	.LVL726:
 8174 2e74 2B78     		ldrb	r3, [r5, #0]	@ zero_extendqisi2
 8175 2e76 2278     		ldrb	r2, [r4, #0]	@ zero_extendqisi2
 8176 2e78 CB18     		adds	r3, r1, r3
 8177 2e7a DBB2     		uxtb	r3, r3
 8178 2e7c 2B70     		strb	r3, [r5, #0]
 8179 2e7e 9B18     		adds	r3, r3, r2
 8180 2e80 2370     		strb	r3, [r4, #0]
 8181 2e82 2948     		ldr	r0, .L343+8
 8182 2e84 FFF7FEFF 		bl	uart_transmit
 8183              	.LVL727:
 8184              	.LBE1218:
 8185              	.LBB1219:
 8186 2e88 B178     		ldrb	r1, [r6, #2]	@ zero_extendqisi2
 8187              	.LVL728:
 8188 2e8a 2B78     		ldrb	r3, [r5, #0]	@ zero_extendqisi2
 8189 2e8c 2278     		ldrb	r2, [r4, #0]	@ zero_extendqisi2
 8190 2e8e CB18     		adds	r3, r1, r3
 8191 2e90 DBB2     		uxtb	r3, r3
 8192 2e92 2B70     		strb	r3, [r5, #0]
 8193 2e94 9B18     		adds	r3, r3, r2
 8194 2e96 2370     		strb	r3, [r4, #0]
 8195 2e98 2348     		ldr	r0, .L343+8
 8196 2e9a FFF7FEFF 		bl	uart_transmit
 8197              	.LVL729:
 8198              	.LBE1219:
 8199              	.LBB1220:
 8200 2e9e F178     		ldrb	r1, [r6, #3]	@ zero_extendqisi2
 8201              	.LVL730:
 8202 2ea0 2B78     		ldrb	r3, [r5, #0]	@ zero_extendqisi2
 8203 2ea2 2278     		ldrb	r2, [r4, #0]	@ zero_extendqisi2
 8204 2ea4 CB18     		adds	r3, r1, r3
 8205 2ea6 DBB2     		uxtb	r3, r3
 8206              	.LBE1220:
 8207              	.LBB1221:
 8208 2ea8 254E     		ldr	r6, .L343+32
 8209              	.LBE1221:
 8210              	.LBB1222:
 8211 2eaa 2B70     		strb	r3, [r5, #0]
 8212 2eac 9B18     		adds	r3, r3, r2
 8213 2eae 2370     		strb	r3, [r4, #0]
 8214 2eb0 1D48     		ldr	r0, .L343+8
 8215 2eb2 FFF7FEFF 		bl	uart_transmit
 8216              	.LVL731:
 8217              	.LBE1222:
 8218              	.LBB1223:
 8219 2eb6 3178     		ldrb	r1, [r6, #0]	@ zero_extendqisi2
 8220              	.LVL732:
 8221 2eb8 2B78     		ldrb	r3, [r5, #0]	@ zero_extendqisi2
 8222 2eba 2278     		ldrb	r2, [r4, #0]	@ zero_extendqisi2
 8223 2ebc CB18     		adds	r3, r1, r3
 8224 2ebe DBB2     		uxtb	r3, r3
 8225 2ec0 2B70     		strb	r3, [r5, #0]
 8226 2ec2 9B18     		adds	r3, r3, r2
 8227 2ec4 2370     		strb	r3, [r4, #0]
 8228 2ec6 1848     		ldr	r0, .L343+8
 8229 2ec8 FFF7FEFF 		bl	uart_transmit
 8230              	.LVL733:
 8231              	.LBE1223:
 8232              	.LBB1224:
 8233 2ecc 7178     		ldrb	r1, [r6, #1]	@ zero_extendqisi2
 8234              	.LVL734:
 8235 2ece 2B78     		ldrb	r3, [r5, #0]	@ zero_extendqisi2
 8236 2ed0 2278     		ldrb	r2, [r4, #0]	@ zero_extendqisi2
 8237 2ed2 CB18     		adds	r3, r1, r3
 8238 2ed4 DBB2     		uxtb	r3, r3
 8239 2ed6 2B70     		strb	r3, [r5, #0]
 8240 2ed8 9B18     		adds	r3, r3, r2
 8241 2eda 2370     		strb	r3, [r4, #0]
 8242 2edc 1248     		ldr	r0, .L343+8
 8243 2ede FFF7FEFF 		bl	uart_transmit
 8244              	.LVL735:
 8245              	.LBE1224:
 8246              	.LBB1225:
 8247 2ee2 B178     		ldrb	r1, [r6, #2]	@ zero_extendqisi2
 8248              	.LVL736:
 8249 2ee4 2B78     		ldrb	r3, [r5, #0]	@ zero_extendqisi2
 8250 2ee6 2278     		ldrb	r2, [r4, #0]	@ zero_extendqisi2
 8251 2ee8 CB18     		adds	r3, r1, r3
 8252 2eea DBB2     		uxtb	r3, r3
 8253 2eec 2B70     		strb	r3, [r5, #0]
 8254 2eee 9B18     		adds	r3, r3, r2
 8255 2ef0 2370     		strb	r3, [r4, #0]
 8256 2ef2 0D48     		ldr	r0, .L343+8
 8257 2ef4 FFF7FEFF 		bl	uart_transmit
 8258              	.LVL737:
 8259              	.LBE1225:
 8260              	.LBB1226:
 8261 2ef8 F178     		ldrb	r1, [r6, #3]	@ zero_extendqisi2
 8262              	.LVL738:
 8263 2efa 2B78     		ldrb	r3, [r5, #0]	@ zero_extendqisi2
 8264 2efc 2278     		ldrb	r2, [r4, #0]	@ zero_extendqisi2
 8265 2efe CB18     		adds	r3, r1, r3
 8266 2f00 DBB2     		uxtb	r3, r3
 8267 2f02 2B70     		strb	r3, [r5, #0]
 8268 2f04 9B18     		adds	r3, r3, r2
 8269 2f06 2370     		strb	r3, [r4, #0]
 8270 2f08 0748     		ldr	r0, .L343+8
 8271 2f0a FFF7FEFF 		bl	uart_transmit
 8272              	.LVL739:
 8273              	.LBE1226:
 8274 2f0e 2978     		ldrb	r1, [r5, #0]	@ zero_extendqisi2
 8275 2f10 0548     		ldr	r0, .L343+8
 8276 2f12 FFF7FEFF 		bl	uart_transmit
 8277 2f16 0448     		ldr	r0, .L343+8
 8278 2f18 2178     		ldrb	r1, [r4, #0]	@ zero_extendqisi2
 8279 2f1a FFF7FEFF 		bl	uart_transmit
 8280 2f1e 15E0     		b	.L173
 8281              	.L344:
 8282              		.align	2
 8283              	.L343:
 8284 2f20 00000000 		.word	downlink_nb_ovrn
 8285 2f24 00000000 		.word	.LANCHOR38
 8286 2f28 00000000 		.word	uart2
 8287 2f2c 00000000 		.word	downlink_nb_bytes
 8288 2f30 00000000 		.word	downlink_nb_msgs
 8289 2f34 00000000 		.word	ck_a
 8290 2f38 00000000 		.word	ck_b
 8291 2f3c 00000000 		.word	estimator_z
 8292 2f40 00000000 		.word	estimator_z_dot
 8293              	.LVL740:
 8294              	.L174:
 8295 2f44 9A4B     		ldr	r3, .L345
 8296 2f46 1A78     		ldrb	r2, [r3, #0]	@ zero_extendqisi2
 8297 2f48 0132     		adds	r2, r2, #1
 8298 2f4a 1A70     		strb	r2, [r3, #0]
 8299              	.L173:
 8300 2f4c 994B     		ldr	r3, .L345+4
 8301 2f4e 1B78     		ldrb	r3, [r3, #0]	@ zero_extendqisi2
 8302 2f50 122B     		cmp	r3, #18
 8303 2f52 40F00E81 		bne	.L175
 8304              	.LBB1227:
 8305 2f56 984B     		ldr	r3, .L345+8
 8306 2f58 9849     		ldr	r1, .L345+12
 8307 2f5a 1A78     		ldrb	r2, [r3, #0]	@ zero_extendqisi2
 8308 2f5c 0978     		ldrb	r1, [r1, #0]	@ zero_extendqisi2
 8309 2f5e 0132     		adds	r2, r2, #1
 8310 2f60 D2B2     		uxtb	r2, r2
 8311 2f62 9142     		cmp	r1, r2
 8312 2f64 1A70     		strb	r2, [r3, #0]
 8313 2f66 01D8     		bhi	.L176
 8314 2f68 0022     		movs	r2, #0
 8315 2f6a 1A70     		strb	r2, [r3, #0]
 8316              	.L176:
 8317              	.LBB1228:
 8318 2f6c 944B     		ldr	r3, .L345+16
 8319 2f6e 924F     		ldr	r7, .L345+8
 8320 2f70 1868     		ldr	r0, [r3, #0]
 8321 2f72 FFF7FEFF 		bl	__aeabi_i2f
 8322 2f76 3B78     		ldrb	r3, [r7, #0]	@ zero_extendqisi2
 8323 2f78 4FF00C08 		mov	r8, #12
 8324 2f7c 08FB03F3 		mul	r3, r8, r3
 8325 2f80 904E     		ldr	r6, .L345+20
 8326              	.LVL741:
 8327 2f82 9959     		ldr	r1, [r3, r6]	@ float
 8328 2f84 9C19     		adds	r4, r3, r6
 8329 2f86 FFF7FEFF 		bl	__aeabi_fadd
 8330 2f8a 8F4B     		ldr	r3, .L345+24
 8331 2f8c 0190     		str	r0, [sp, #4]	@ float
 8332              	.LVL742:
 8333 2f8e 1868     		ldr	r0, [r3, #0]
 8334 2f90 FFF7FEFF 		bl	__aeabi_i2f
 8335 2f94 6168     		ldr	r1, [r4, #4]	@ float
 8336 2f96 FFF7FEFF 		bl	__aeabi_fadd
 8337 2f9a 1421     		movs	r1, #20
 8338 2f9c 0090     		str	r0, [sp, #0]	@ float
 8339              	.LVL743:
 8340 2f9e 8B48     		ldr	r0, .L345+28
 8341 2fa0 FFF7FEFF 		bl	uart_check_free_space
 8342 2fa4 0028     		cmp	r0, #0
 8343 2fa6 00F0E080 		beq	.L177
 8344 2faa 894B     		ldr	r3, .L345+32
 8345              	.LBB1229:
 8346 2fac 9921     		movs	r1, #153
 8347              	.LBE1229:
 8348 2fae 1A88     		ldrh	r2, [r3, #0]
 8349              	.LBB1230:
 8350 2fb0 8648     		ldr	r0, .L345+28
 8351              	.LBE1230:
 8352 2fb2 1432     		adds	r2, r2, #20
 8353 2fb4 1A80     		strh	r2, [r3, #0]	@ movhi
 8354 2fb6 874B     		ldr	r3, .L345+36
 8355              	.LBB1231:
 8356 2fb8 874D     		ldr	r5, .L345+40
 8357              	.LBE1231:
 8358 2fba 1A88     		ldrh	r2, [r3, #0]
 8359              	.LBB1232:
 8360 2fbc 874C     		ldr	r4, .L345+44
 8361              	.LBE1232:
 8362 2fbe 0132     		adds	r2, r2, #1
 8363 2fc0 1A80     		strh	r2, [r3, #0]	@ movhi
 8364              	.LBB1233:
 8365 2fc2 FFF7FEFF 		bl	uart_transmit
 8366 2fc6 1421     		movs	r1, #20
 8367 2fc8 8048     		ldr	r0, .L345+28
 8368 2fca FFF7FEFF 		bl	uart_transmit
 8369              	.LBE1233:
 8370 2fce 1523     		movs	r3, #21
 8371 2fd0 2B70     		strb	r3, [r5, #0]
 8372 2fd2 1433     		adds	r3, r3, #20
 8373 2fd4 2370     		strb	r3, [r4, #0]
 8374 2fd6 0121     		movs	r1, #1
 8375 2fd8 7C48     		ldr	r0, .L345+28
 8376 2fda FFF7FEFF 		bl	uart_transmit
 8377 2fde 2B78     		ldrb	r3, [r5, #0]	@ zero_extendqisi2
 8378 2fe0 2278     		ldrb	r2, [r4, #0]	@ zero_extendqisi2
 8379 2fe2 2333     		adds	r3, r3, #35
 8380 2fe4 DBB2     		uxtb	r3, r3
 8381 2fe6 2B70     		strb	r3, [r5, #0]
 8382 2fe8 9B18     		adds	r3, r3, r2
 8383 2fea 2370     		strb	r3, [r4, #0]
 8384 2fec 2321     		movs	r1, #35
 8385 2fee 7748     		ldr	r0, .L345+28
 8386 2ff0 FFF7FEFF 		bl	uart_transmit
 8387              	.LBB1234:
 8388 2ff4 3978     		ldrb	r1, [r7, #0]	@ zero_extendqisi2
 8389              	.LVL744:
 8390 2ff6 2B78     		ldrb	r3, [r5, #0]	@ zero_extendqisi2
 8391 2ff8 2278     		ldrb	r2, [r4, #0]	@ zero_extendqisi2
 8392 2ffa CB18     		adds	r3, r1, r3
 8393 2ffc DBB2     		uxtb	r3, r3
 8394 2ffe 2B70     		strb	r3, [r5, #0]
 8395 3000 9B18     		adds	r3, r3, r2
 8396 3002 2370     		strb	r3, [r4, #0]
 8397 3004 7148     		ldr	r0, .L345+28
 8398 3006 FFF7FEFF 		bl	uart_transmit
 8399              	.LVL745:
 8400              	.LBE1234:
 8401              	.LBB1235:
 8402 300a 9DF80410 		ldrb	r1, [sp, #4]	@ zero_extendqisi2
 8403              	.LVL746:
 8404 300e 2B78     		ldrb	r3, [r5, #0]	@ zero_extendqisi2
 8405 3010 2278     		ldrb	r2, [r4, #0]	@ zero_extendqisi2
 8406 3012 CB18     		adds	r3, r1, r3
 8407 3014 DBB2     		uxtb	r3, r3
 8408 3016 2B70     		strb	r3, [r5, #0]
 8409 3018 9B18     		adds	r3, r3, r2
 8410 301a 0DF1040A 		add	sl, sp, #4
 8411 301e 2370     		strb	r3, [r4, #0]
 8412 3020 6A48     		ldr	r0, .L345+28
 8413 3022 FFF7FEFF 		bl	uart_transmit
 8414              	.LVL747:
 8415              	.LBE1235:
 8416              	.LBB1236:
 8417 3026 9AF80110 		ldrb	r1, [sl, #1]	@ zero_extendqisi2
 8418              	.LVL748:
 8419 302a 2B78     		ldrb	r3, [r5, #0]	@ zero_extendqisi2
 8420 302c 2278     		ldrb	r2, [r4, #0]	@ zero_extendqisi2
 8421 302e CB18     		adds	r3, r1, r3
 8422 3030 DBB2     		uxtb	r3, r3
 8423 3032 2B70     		strb	r3, [r5, #0]
 8424 3034 9B18     		adds	r3, r3, r2
 8425 3036 2370     		strb	r3, [r4, #0]
 8426 3038 6448     		ldr	r0, .L345+28
 8427 303a FFF7FEFF 		bl	uart_transmit
 8428              	.LVL749:
 8429              	.LBE1236:
 8430              	.LBB1237:
 8431 303e 9AF80210 		ldrb	r1, [sl, #2]	@ zero_extendqisi2
 8432              	.LVL750:
 8433 3042 2B78     		ldrb	r3, [r5, #0]	@ zero_extendqisi2
 8434 3044 2278     		ldrb	r2, [r4, #0]	@ zero_extendqisi2
 8435 3046 CB18     		adds	r3, r1, r3
 8436 3048 DBB2     		uxtb	r3, r3
 8437 304a 2B70     		strb	r3, [r5, #0]
 8438 304c 9B18     		adds	r3, r3, r2
 8439 304e 2370     		strb	r3, [r4, #0]
 8440 3050 5E48     		ldr	r0, .L345+28
 8441 3052 FFF7FEFF 		bl	uart_transmit
 8442              	.LVL751:
 8443              	.LBE1237:
 8444              	.LBB1238:
 8445 3056 9AF80310 		ldrb	r1, [sl, #3]	@ zero_extendqisi2
 8446              	.LVL752:
 8447 305a 2B78     		ldrb	r3, [r5, #0]	@ zero_extendqisi2
 8448 305c 2278     		ldrb	r2, [r4, #0]	@ zero_extendqisi2
 8449 305e CB18     		adds	r3, r1, r3
 8450 3060 DBB2     		uxtb	r3, r3
 8451 3062 2B70     		strb	r3, [r5, #0]
 8452 3064 9B18     		adds	r3, r3, r2
 8453 3066 2370     		strb	r3, [r4, #0]
 8454 3068 5848     		ldr	r0, .L345+28
 8455 306a FFF7FEFF 		bl	uart_transmit
 8456              	.LVL753:
 8457              	.LBE1238:
 8458              	.LBB1239:
 8459 306e 9DF80010 		ldrb	r1, [sp, #0]	@ zero_extendqisi2
 8460              	.LVL754:
 8461 3072 2B78     		ldrb	r3, [r5, #0]	@ zero_extendqisi2
 8462 3074 2278     		ldrb	r2, [r4, #0]	@ zero_extendqisi2
 8463 3076 CB18     		adds	r3, r1, r3
 8464 3078 DBB2     		uxtb	r3, r3
 8465 307a 2B70     		strb	r3, [r5, #0]
 8466 307c 9B18     		adds	r3, r3, r2
 8467 307e EA46     		mov	sl, sp
 8468 3080 2370     		strb	r3, [r4, #0]
 8469 3082 5248     		ldr	r0, .L345+28
 8470 3084 FFF7FEFF 		bl	uart_transmit
 8471              	.LVL755:
 8472              	.LBE1239:
 8473              	.LBB1240:
 8474 3088 9AF80110 		ldrb	r1, [sl, #1]	@ zero_extendqisi2
 8475              	.LVL756:
 8476 308c 2B78     		ldrb	r3, [r5, #0]	@ zero_extendqisi2
 8477 308e 2278     		ldrb	r2, [r4, #0]	@ zero_extendqisi2
 8478 3090 CB18     		adds	r3, r1, r3
 8479 3092 DBB2     		uxtb	r3, r3
 8480 3094 2B70     		strb	r3, [r5, #0]
 8481 3096 9B18     		adds	r3, r3, r2
 8482 3098 2370     		strb	r3, [r4, #0]
 8483 309a 4C48     		ldr	r0, .L345+28
 8484 309c FFF7FEFF 		bl	uart_transmit
 8485              	.LVL757:
 8486              	.LBE1240:
 8487              	.LBB1241:
 8488 30a0 9AF80210 		ldrb	r1, [sl, #2]	@ zero_extendqisi2
 8489              	.LVL758:
 8490 30a4 2B78     		ldrb	r3, [r5, #0]	@ zero_extendqisi2
 8491 30a6 2278     		ldrb	r2, [r4, #0]	@ zero_extendqisi2
 8492 30a8 CB18     		adds	r3, r1, r3
 8493 30aa DBB2     		uxtb	r3, r3
 8494 30ac 2B70     		strb	r3, [r5, #0]
 8495 30ae 9B18     		adds	r3, r3, r2
 8496 30b0 2370     		strb	r3, [r4, #0]
 8497 30b2 4648     		ldr	r0, .L345+28
 8498 30b4 FFF7FEFF 		bl	uart_transmit
 8499              	.LVL759:
 8500              	.LBE1241:
 8501              	.LBB1242:
 8502 30b8 9AF80310 		ldrb	r1, [sl, #3]	@ zero_extendqisi2
 8503              	.LVL760:
 8504 30bc 2B78     		ldrb	r3, [r5, #0]	@ zero_extendqisi2
 8505 30be 2278     		ldrb	r2, [r4, #0]	@ zero_extendqisi2
 8506 30c0 CB18     		adds	r3, r1, r3
 8507 30c2 DBB2     		uxtb	r3, r3
 8508 30c4 2B70     		strb	r3, [r5, #0]
 8509 30c6 9B18     		adds	r3, r3, r2
 8510 30c8 2370     		strb	r3, [r4, #0]
 8511 30ca 4048     		ldr	r0, .L345+28
 8512 30cc FFF7FEFF 		bl	uart_transmit
 8513              	.LVL761:
 8514              	.LBE1242:
 8515              	.LBB1243:
 8516 30d0 3B78     		ldrb	r3, [r7, #0]	@ zero_extendqisi2
 8517 30d2 2278     		ldrb	r2, [r4, #0]	@ zero_extendqisi2
 8518 30d4 08FB0363 		mla	r3, r8, r3, r6
 8519 30d8 197A     		ldrb	r1, [r3, #8]	@ zero_extendqisi2
 8520              	.LVL762:
 8521 30da 2B78     		ldrb	r3, [r5, #0]	@ zero_extendqisi2
 8522 30dc 3B48     		ldr	r0, .L345+28
 8523 30de CB18     		adds	r3, r1, r3
 8524 30e0 DBB2     		uxtb	r3, r3
 8525 30e2 2B70     		strb	r3, [r5, #0]
 8526 30e4 9B18     		adds	r3, r3, r2
 8527 30e6 2370     		strb	r3, [r4, #0]
 8528 30e8 FFF7FEFF 		bl	uart_transmit
 8529              	.LVL763:
 8530              	.LBE1243:
 8531              	.LBB1244:
 8532 30ec 3B78     		ldrb	r3, [r7, #0]	@ zero_extendqisi2
 8533 30ee 2278     		ldrb	r2, [r4, #0]	@ zero_extendqisi2
 8534 30f0 08FB0363 		mla	r3, r8, r3, r6
 8535 30f4 597A     		ldrb	r1, [r3, #9]	@ zero_extendqisi2
 8536              	.LVL764:
 8537 30f6 2B78     		ldrb	r3, [r5, #0]	@ zero_extendqisi2
 8538 30f8 3448     		ldr	r0, .L345+28
 8539 30fa CB18     		adds	r3, r1, r3
 8540 30fc DBB2     		uxtb	r3, r3
 8541 30fe 2B70     		strb	r3, [r5, #0]
 8542 3100 9B18     		adds	r3, r3, r2
 8543 3102 2370     		strb	r3, [r4, #0]
 8544 3104 FFF7FEFF 		bl	uart_transmit
 8545              	.LVL765:
 8546              	.LBE1244:
 8547              	.LBB1245:
 8548 3108 3B78     		ldrb	r3, [r7, #0]	@ zero_extendqisi2
 8549 310a 2278     		ldrb	r2, [r4, #0]	@ zero_extendqisi2
 8550 310c 08FB0363 		mla	r3, r8, r3, r6
 8551 3110 997A     		ldrb	r1, [r3, #10]	@ zero_extendqisi2
 8552              	.LVL766:
 8553 3112 2B78     		ldrb	r3, [r5, #0]	@ zero_extendqisi2
 8554 3114 2D48     		ldr	r0, .L345+28
 8555 3116 CB18     		adds	r3, r1, r3
 8556 3118 DBB2     		uxtb	r3, r3
 8557 311a 2B70     		strb	r3, [r5, #0]
 8558 311c 9B18     		adds	r3, r3, r2
 8559 311e 2370     		strb	r3, [r4, #0]
 8560 3120 FFF7FEFF 		bl	uart_transmit
 8561              	.LVL767:
 8562              	.LBE1245:
 8563              	.LBB1246:
 8564 3124 3B78     		ldrb	r3, [r7, #0]	@ zero_extendqisi2
 8565 3126 2278     		ldrb	r2, [r4, #0]	@ zero_extendqisi2
 8566 3128 08FB0366 		mla	r6, r8, r3, r6
 8567 312c 2B78     		ldrb	r3, [r5, #0]	@ zero_extendqisi2
 8568 312e F17A     		ldrb	r1, [r6, #11]	@ zero_extendqisi2
 8569              	.LVL768:
 8570 3130 2648     		ldr	r0, .L345+28
 8571 3132 CB18     		adds	r3, r1, r3
 8572 3134 DBB2     		uxtb	r3, r3
 8573 3136 2B70     		strb	r3, [r5, #0]
 8574 3138 9B18     		adds	r3, r3, r2
 8575 313a 2370     		strb	r3, [r4, #0]
 8576 313c FFF7FEFF 		bl	uart_transmit
 8577              	.LVL769:
 8578              	.LBE1246:
 8579              	.LBB1247:
 8580 3140 274B     		ldr	r3, .L345+48
 8581 3142 2278     		ldrb	r2, [r4, #0]	@ zero_extendqisi2
 8582 3144 1978     		ldrb	r1, [r3, #0]	@ zero_extendqisi2
 8583              	.LVL770:
 8584 3146 2B78     		ldrb	r3, [r5, #0]	@ zero_extendqisi2
 8585 3148 2048     		ldr	r0, .L345+28
 8586 314a CB18     		adds	r3, r1, r3
 8587 314c DBB2     		uxtb	r3, r3
 8588 314e 2B70     		strb	r3, [r5, #0]
 8589 3150 9B18     		adds	r3, r3, r2
 8590 3152 2370     		strb	r3, [r4, #0]
 8591 3154 FFF7FEFF 		bl	uart_transmit
 8592              	.LVL771:
 8593              	.LBE1247:
 8594 3158 2978     		ldrb	r1, [r5, #0]	@ zero_extendqisi2
 8595 315a 1C48     		ldr	r0, .L345+28
 8596 315c FFF7FEFF 		bl	uart_transmit
 8597 3160 1A48     		ldr	r0, .L345+28
 8598 3162 2178     		ldrb	r1, [r4, #0]	@ zero_extendqisi2
 8599 3164 FFF7FEFF 		bl	uart_transmit
 8600 3168 03E0     		b	.L175
 8601              	.L177:
 8602 316a 114B     		ldr	r3, .L345
 8603 316c 1A78     		ldrb	r2, [r3, #0]	@ zero_extendqisi2
 8604 316e 0132     		adds	r2, r2, #1
 8605 3170 1A70     		strb	r2, [r3, #0]
 8606              	.LVL772:
 8607              	.L175:
 8608              	.LBE1228:
 8609              	.LBE1227:
 8610 3172 1C4B     		ldr	r3, .L345+52
 8611 3174 1B78     		ldrb	r3, [r3, #0]	@ zero_extendqisi2
 8612 3176 182B     		cmp	r3, #24
 8613 3178 40F0EA80 		bne	.L178
 8614              	.LBB1248:
 8615 317c 1A4B     		ldr	r3, .L345+56
 8616 317e 1A78     		ldrb	r2, [r3, #0]	@ zero_extendqisi2
 8617 3180 0A2A     		cmp	r2, #10
 8618 3182 01D9     		bls	.L179
 8619 3184 0022     		movs	r2, #0
 8620 3186 1A70     		strb	r2, [r3, #0]
 8621              	.L179:
 8622 3188 174B     		ldr	r3, .L345+56
 8623 318a 1B78     		ldrb	r3, [r3, #0]	@ zero_extendqisi2
 8624 318c 0A2B     		cmp	r3, #10
 8625 318e 4AD8     		bhi	.L180
 8626 3190 DFE803F0 		tbb	[pc, r3]
 8627              	.L192:
 8628 3194 06       		.byte	(.L181-.L192)/2
 8629 3195 08       		.byte	(.L182-.L192)/2
 8630 3196 0B       		.byte	(.L183-.L192)/2
 8631 3197 32       		.byte	(.L184-.L192)/2
 8632 3198 35       		.byte	(.L185-.L192)/2
 8633 3199 37       		.byte	(.L186-.L192)/2
 8634 319a 39       		.byte	(.L187-.L192)/2
 8635 319b 3B       		.byte	(.L188-.L192)/2
 8636 319c 3D       		.byte	(.L189-.L192)/2
 8637 319d 3F       		.byte	(.L190-.L192)/2
 8638 319e 42       		.byte	(.L191-.L192)/2
 8639 319f 00       		.align	1
 8640              	.L181:
 8641 31a0 124B     		ldr	r3, .L345+60
 8642 31a2 00E0     		b	.L294
 8643              	.L182:
 8644 31a4 124B     		ldr	r3, .L345+64
 8645              	.L294:
 8646 31a6 1B68     		ldr	r3, [r3, #0]	@ float
 8647 31a8 3EE0     		b	.L285
 8648              	.L183:
 8649 31aa 124B     		ldr	r3, .L345+68
 8650 31ac FBE7     		b	.L294
 8651              	.L346:
 8652 31ae 00BF     		.align	2
 8653              	.L345:
 8654 31b0 00000000 		.word	downlink_nb_ovrn
 8655 31b4 00000000 		.word	.LANCHOR39
 8656 31b8 00000000 		.word	.LANCHOR53
 8657 31bc 00000000 		.word	nb_waypoint
 8658 31c0 00000000 		.word	nav_utm_east0
 8659 31c4 00000000 		.word	waypoints
 8660 31c8 00000000 		.word	nav_utm_north0
 8661 31cc 00000000 		.word	uart2
 8662 31d0 00000000 		.word	downlink_nb_bytes
 8663 31d4 00000000 		.word	downlink_nb_msgs
 8664 31d8 00000000 		.word	ck_a
 8665 31dc 00000000 		.word	ck_b
 8666 31e0 00000000 		.word	nav_utm_zone0
 8667 31e4 00000000 		.word	.LANCHOR40
 8668 31e8 00000000 		.word	.LANCHOR54
 8669 31ec 00000000 		.word	flight_altitude
 8670 31f0 00000000 		.word	nav_course
 8671 31f4 00000000 		.word	nav_shift
 8672              	.L184:
 8673 31f8 434B     		ldr	r3, .L347
 8674 31fa 1888     		ldrh	r0, [r3, #0]
 8675 31fc 0FE0     		b	.L286
 8676              	.L185:
 8677 31fe 434B     		ldr	r3, .L347+4
 8678 3200 D1E7     		b	.L294
 8679              	.L186:
 8680 3202 434B     		ldr	r3, .L347+8
 8681 3204 06E0     		b	.L293
 8682              	.L187:
 8683 3206 434B     		ldr	r3, .L347+12
 8684 3208 04E0     		b	.L293
 8685              	.L188:
 8686 320a 434B     		ldr	r3, .L347+16
 8687 320c 02E0     		b	.L293
 8688              	.L189:
 8689 320e 434B     		ldr	r3, .L347+20
 8690 3210 00E0     		b	.L293
 8691              	.L190:
 8692 3212 434B     		ldr	r3, .L347+24
 8693              	.L293:
 8694 3214 1878     		ldrb	r0, [r3, #0]	@ zero_extendqisi2
 8695 3216 02E0     		b	.L286
 8696              	.L191:
 8697 3218 424B     		ldr	r3, .L347+28
 8698 321a B3F8EA00 		ldrh	r0, [r3, #234]
 8699              	.L286:
 8700 321e FFF7FEFF 		bl	__aeabi_ui2f
 8701 3222 0090     		str	r0, [sp, #0]	@ float
 8702              	.LVL773:
 8703 3224 01E0     		b	.L193
 8704              	.LVL774:
 8705              	.L180:
 8706 3226 0023     		movs	r3, #0
 8707              	.L285:
 8708 3228 0093     		str	r3, [sp, #0]	@ float
 8709              	.LVL775:
 8710              	.L193:
 8711 322a 3F48     		ldr	r0, .L347+32
 8712 322c 0B21     		movs	r1, #11
 8713 322e FFF7FEFF 		bl	uart_check_free_space
 8714 3232 0028     		cmp	r0, #0
 8715 3234 00F08480 		beq	.L194
 8716 3238 3C4B     		ldr	r3, .L347+36
 8717              	.LBB1249:
 8718 323a 9921     		movs	r1, #153
 8719              	.LBE1249:
 8720 323c 1A88     		ldrh	r2, [r3, #0]
 8721              	.LBB1250:
 8722 323e 3A48     		ldr	r0, .L347+32
 8723              	.LBE1250:
 8724 3240 0B32     		adds	r2, r2, #11
 8725 3242 1A80     		strh	r2, [r3, #0]	@ movhi
 8726 3244 3A4B     		ldr	r3, .L347+40
 8727              	.LBB1251:
 8728 3246 3B4D     		ldr	r5, .L347+44
 8729              	.LBE1251:
 8730 3248 1A88     		ldrh	r2, [r3, #0]
 8731              	.LBB1252:
 8732 324a 3B4C     		ldr	r4, .L347+48
 8733              	.LBE1252:
 8734 324c 0132     		adds	r2, r2, #1
 8735 324e 1A80     		strh	r2, [r3, #0]	@ movhi
 8736              	.LBB1253:
 8737 3250 FFF7FEFF 		bl	uart_transmit
 8738 3254 0B21     		movs	r1, #11
 8739 3256 3448     		ldr	r0, .L347+32
 8740 3258 FFF7FEFF 		bl	uart_transmit
 8741              	.LBE1253:
 8742 325c 0C23     		movs	r3, #12
 8743 325e 2B70     		strb	r3, [r5, #0]
 8744 3260 0B33     		adds	r3, r3, #11
 8745 3262 2370     		strb	r3, [r4, #0]
 8746 3264 0121     		movs	r1, #1
 8747 3266 3048     		ldr	r0, .L347+32
 8748 3268 FFF7FEFF 		bl	uart_transmit
 8749 326c 2B78     		ldrb	r3, [r5, #0]	@ zero_extendqisi2
 8750 326e 2278     		ldrb	r2, [r4, #0]	@ zero_extendqisi2
 8751 3270 1F33     		adds	r3, r3, #31
 8752 3272 DBB2     		uxtb	r3, r3
 8753 3274 2B70     		strb	r3, [r5, #0]
 8754 3276 9B18     		adds	r3, r3, r2
 8755 3278 2370     		strb	r3, [r4, #0]
 8756 327a 1F21     		movs	r1, #31
 8757 327c 2A48     		ldr	r0, .L347+32
 8758 327e FFF7FEFF 		bl	uart_transmit
 8759              	.LBB1254:
 8760 3282 2E4B     		ldr	r3, .L347+52
 8761 3284 2278     		ldrb	r2, [r4, #0]	@ zero_extendqisi2
 8762 3286 1978     		ldrb	r1, [r3, #0]	@ zero_extendqisi2
 8763              	.LVL776:
 8764 3288 2B78     		ldrb	r3, [r5, #0]	@ zero_extendqisi2
 8765 328a 2748     		ldr	r0, .L347+32
 8766 328c CB18     		adds	r3, r1, r3
 8767 328e DBB2     		uxtb	r3, r3
 8768 3290 2B70     		strb	r3, [r5, #0]
 8769 3292 9B18     		adds	r3, r3, r2
 8770 3294 2370     		strb	r3, [r4, #0]
 8771 3296 FFF7FEFF 		bl	uart_transmit
 8772              	.LVL777:
 8773              	.LBE1254:
 8774              	.LBB1255:
 8775 329a 9DF80010 		ldrb	r1, [sp, #0]	@ zero_extendqisi2
 8776              	.LVL778:
 8777 329e 2B78     		ldrb	r3, [r5, #0]	@ zero_extendqisi2
 8778 32a0 2278     		ldrb	r2, [r4, #0]	@ zero_extendqisi2
 8779 32a2 CB18     		adds	r3, r1, r3
 8780 32a4 DBB2     		uxtb	r3, r3
 8781 32a6 2B70     		strb	r3, [r5, #0]
 8782 32a8 9B18     		adds	r3, r3, r2
 8783 32aa 6E46     		mov	r6, sp
 8784              	.LVL779:
 8785 32ac 2370     		strb	r3, [r4, #0]
 8786 32ae 1E48     		ldr	r0, .L347+32
 8787 32b0 FFF7FEFF 		bl	uart_transmit
 8788              	.LVL780:
 8789              	.LBE1255:
 8790              	.LBB1256:
 8791 32b4 7178     		ldrb	r1, [r6, #1]	@ zero_extendqisi2
 8792              	.LVL781:
 8793 32b6 2B78     		ldrb	r3, [r5, #0]	@ zero_extendqisi2
 8794 32b8 2278     		ldrb	r2, [r4, #0]	@ zero_extendqisi2
 8795 32ba CB18     		adds	r3, r1, r3
 8796 32bc DBB2     		uxtb	r3, r3
 8797 32be 2B70     		strb	r3, [r5, #0]
 8798 32c0 9B18     		adds	r3, r3, r2
 8799 32c2 2370     		strb	r3, [r4, #0]
 8800 32c4 1848     		ldr	r0, .L347+32
 8801 32c6 FFF7FEFF 		bl	uart_transmit
 8802              	.LVL782:
 8803              	.LBE1256:
 8804              	.LBB1257:
 8805 32ca B178     		ldrb	r1, [r6, #2]	@ zero_extendqisi2
 8806              	.LVL783:
 8807 32cc 2B78     		ldrb	r3, [r5, #0]	@ zero_extendqisi2
 8808 32ce 2278     		ldrb	r2, [r4, #0]	@ zero_extendqisi2
 8809 32d0 CB18     		adds	r3, r1, r3
 8810 32d2 DBB2     		uxtb	r3, r3
 8811 32d4 2B70     		strb	r3, [r5, #0]
 8812 32d6 9B18     		adds	r3, r3, r2
 8813 32d8 2370     		strb	r3, [r4, #0]
 8814 32da 1348     		ldr	r0, .L347+32
 8815 32dc FFF7FEFF 		bl	uart_transmit
 8816              	.LVL784:
 8817              	.LBE1257:
 8818              	.LBB1258:
 8819 32e0 F178     		ldrb	r1, [r6, #3]	@ zero_extendqisi2
 8820              	.LVL785:
 8821 32e2 2B78     		ldrb	r3, [r5, #0]	@ zero_extendqisi2
 8822 32e4 2278     		ldrb	r2, [r4, #0]	@ zero_extendqisi2
 8823 32e6 CB18     		adds	r3, r1, r3
 8824 32e8 DBB2     		uxtb	r3, r3
 8825 32ea 2B70     		strb	r3, [r5, #0]
 8826 32ec 9B18     		adds	r3, r3, r2
 8827 32ee 2370     		strb	r3, [r4, #0]
 8828 32f0 0D48     		ldr	r0, .L347+32
 8829 32f2 FFF7FEFF 		bl	uart_transmit
 8830              	.LVL786:
 8831              	.LBE1258:
 8832 32f6 2978     		ldrb	r1, [r5, #0]	@ zero_extendqisi2
 8833 32f8 0B48     		ldr	r0, .L347+32
 8834 32fa FFF7FEFF 		bl	uart_transmit
 8835 32fe 0A48     		ldr	r0, .L347+32
 8836 3300 2178     		ldrb	r1, [r4, #0]	@ zero_extendqisi2
 8837 3302 FFF7FEFF 		bl	uart_transmit
 8838 3306 1FE0     		b	.L195
 8839              	.L348:
 8840              		.align	2
 8841              	.L347:
 8842 3308 00000000 		.word	estimator_flight_time
 8843 330c 00000000 		.word	nav_radius
 8844 3310 00000000 		.word	.LANCHOR2
 8845 3314 00000000 		.word	.LANCHOR1
 8846 3318 00000000 		.word	.LANCHOR9
 8847 331c 00000000 		.word	telemetry_mode_Ap_DefaultChannel
 8848 3320 00000000 		.word	telemetry_mode_Fbw_DefaultChannel
 8849 3324 00000000 		.word	gps
 8850 3328 00000000 		.word	uart2
 8851 332c 00000000 		.word	downlink_nb_bytes
 8852 3330 00000000 		.word	downlink_nb_msgs
 8853 3334 00000000 		.word	ck_a
 8854 3338 00000000 		.word	ck_b
 8855 333c 00000000 		.word	.LANCHOR54
 8856              	.LVL787:
 8857              	.L194:
 8858 3340 7D4B     		ldr	r3, .L349
 8859 3342 1A78     		ldrb	r2, [r3, #0]	@ zero_extendqisi2
 8860 3344 0132     		adds	r2, r2, #1
 8861 3346 1A70     		strb	r2, [r3, #0]
 8862              	.L195:
 8863 3348 7C4B     		ldr	r3, .L349+4
 8864 334a 1A78     		ldrb	r2, [r3, #0]	@ zero_extendqisi2
 8865 334c 0132     		adds	r2, r2, #1
 8866 334e 1A70     		strb	r2, [r3, #0]
 8867              	.L178:
 8868              	.LBE1248:
 8869 3350 7B4B     		ldr	r3, .L349+8
 8870 3352 1B78     		ldrb	r3, [r3, #0]	@ zero_extendqisi2
 8871 3354 1E2B     		cmp	r3, #30
 8872 3356 40F00D81 		bne	.L196
 8873 335a 7A4B     		ldr	r3, .L349+12
 8874 335c 1B78     		ldrb	r3, [r3, #0]	@ zero_extendqisi2
 8875 335e 002B     		cmp	r3, #0
 8876 3360 00F00881 		beq	.L196
 8877 3364 7848     		ldr	r0, .L349+16
 8878 3366 1621     		movs	r1, #22
 8879 3368 FFF7FEFF 		bl	uart_check_free_space
 8880 336c 0028     		cmp	r0, #0
 8881 336e 00F0FD80 		beq	.L197
 8882 3372 764B     		ldr	r3, .L349+20
 8883              	.LBB1259:
 8884 3374 9921     		movs	r1, #153
 8885              	.LBE1259:
 8886 3376 1A88     		ldrh	r2, [r3, #0]
 8887              	.LBB1260:
 8888 3378 7348     		ldr	r0, .L349+16
 8889              	.LBE1260:
 8890 337a 1632     		adds	r2, r2, #22
 8891 337c 1A80     		strh	r2, [r3, #0]	@ movhi
 8892 337e 744B     		ldr	r3, .L349+24
 8893              	.LBB1261:
 8894 3380 744D     		ldr	r5, .L349+28
 8895              	.LBE1261:
 8896 3382 1A88     		ldrh	r2, [r3, #0]
 8897              	.LBB1262:
 8898 3384 744C     		ldr	r4, .L349+32
 8899              	.LBE1262:
 8900 3386 0132     		adds	r2, r2, #1
 8901 3388 1A80     		strh	r2, [r3, #0]	@ movhi
 8902              	.LBB1263:
 8903 338a FFF7FEFF 		bl	uart_transmit
 8904 338e 1621     		movs	r1, #22
 8905 3390 6D48     		ldr	r0, .L349+16
 8906 3392 FFF7FEFF 		bl	uart_transmit
 8907              	.LBE1263:
 8908 3396 1723     		movs	r3, #23
 8909 3398 2B70     		strb	r3, [r5, #0]
 8910 339a 1633     		adds	r3, r3, #22
 8911 339c 2370     		strb	r3, [r4, #0]
 8912 339e 0121     		movs	r1, #1
 8913 33a0 6948     		ldr	r0, .L349+16
 8914 33a2 FFF7FEFF 		bl	uart_transmit
 8915 33a6 2B78     		ldrb	r3, [r5, #0]	@ zero_extendqisi2
 8916 33a8 2278     		ldrb	r2, [r4, #0]	@ zero_extendqisi2
 8917 33aa 1B33     		adds	r3, r3, #27
 8918 33ac DBB2     		uxtb	r3, r3
 8919              	.LBB1264:
 8920 33ae 6B4E     		ldr	r6, .L349+36
 8921              	.LVL788:
 8922              	.LBE1264:
 8923 33b0 2B70     		strb	r3, [r5, #0]
 8924 33b2 9B18     		adds	r3, r3, r2
 8925 33b4 2370     		strb	r3, [r4, #0]
 8926 33b6 1B21     		movs	r1, #27
 8927 33b8 6348     		ldr	r0, .L349+16
 8928 33ba FFF7FEFF 		bl	uart_transmit
 8929              	.LBB1265:
 8930 33be 3178     		ldrb	r1, [r6, #0]	@ zero_extendqisi2
 8931              	.LVL789:
 8932 33c0 2B78     		ldrb	r3, [r5, #0]	@ zero_extendqisi2
 8933 33c2 2278     		ldrb	r2, [r4, #0]	@ zero_extendqisi2
 8934 33c4 CB18     		adds	r3, r1, r3
 8935 33c6 DBB2     		uxtb	r3, r3
 8936 33c8 2B70     		strb	r3, [r5, #0]
 8937 33ca 9B18     		adds	r3, r3, r2
 8938 33cc 2370     		strb	r3, [r4, #0]
 8939 33ce 5E48     		ldr	r0, .L349+16
 8940 33d0 FFF7FEFF 		bl	uart_transmit
 8941              	.LVL790:
 8942              	.LBE1265:
 8943              	.LBB1266:
 8944 33d4 7178     		ldrb	r1, [r6, #1]	@ zero_extendqisi2
 8945              	.LVL791:
 8946 33d6 2B78     		ldrb	r3, [r5, #0]	@ zero_extendqisi2
 8947 33d8 2278     		ldrb	r2, [r4, #0]	@ zero_extendqisi2
 8948 33da CB18     		adds	r3, r1, r3
 8949 33dc DBB2     		uxtb	r3, r3
 8950 33de 2B70     		strb	r3, [r5, #0]
 8951 33e0 9B18     		adds	r3, r3, r2
 8952 33e2 2370     		strb	r3, [r4, #0]
 8953 33e4 5848     		ldr	r0, .L349+16
 8954 33e6 FFF7FEFF 		bl	uart_transmit
 8955              	.LVL792:
 8956              	.LBE1266:
 8957              	.LBB1267:
 8958 33ea B178     		ldrb	r1, [r6, #2]	@ zero_extendqisi2
 8959              	.LVL793:
 8960 33ec 2B78     		ldrb	r3, [r5, #0]	@ zero_extendqisi2
 8961 33ee 2278     		ldrb	r2, [r4, #0]	@ zero_extendqisi2
 8962 33f0 CB18     		adds	r3, r1, r3
 8963 33f2 DBB2     		uxtb	r3, r3
 8964 33f4 2B70     		strb	r3, [r5, #0]
 8965 33f6 9B18     		adds	r3, r3, r2
 8966 33f8 2370     		strb	r3, [r4, #0]
 8967 33fa 5348     		ldr	r0, .L349+16
 8968 33fc FFF7FEFF 		bl	uart_transmit
 8969              	.LVL794:
 8970              	.LBE1267:
 8971              	.LBB1268:
 8972 3400 F178     		ldrb	r1, [r6, #3]	@ zero_extendqisi2
 8973              	.LVL795:
 8974 3402 2B78     		ldrb	r3, [r5, #0]	@ zero_extendqisi2
 8975 3404 2278     		ldrb	r2, [r4, #0]	@ zero_extendqisi2
 8976 3406 CB18     		adds	r3, r1, r3
 8977 3408 DBB2     		uxtb	r3, r3
 8978              	.LBE1268:
 8979              	.LBB1269:
 8980 340a 554E     		ldr	r6, .L349+40
 8981              	.LBE1269:
 8982              	.LBB1270:
 8983 340c 2B70     		strb	r3, [r5, #0]
 8984 340e 9B18     		adds	r3, r3, r2
 8985 3410 2370     		strb	r3, [r4, #0]
 8986 3412 4D48     		ldr	r0, .L349+16
 8987 3414 FFF7FEFF 		bl	uart_transmit
 8988              	.LVL796:
 8989              	.LBE1270:
 8990              	.LBB1271:
 8991 3418 3178     		ldrb	r1, [r6, #0]	@ zero_extendqisi2
 8992              	.LVL797:
 8993 341a 2B78     		ldrb	r3, [r5, #0]	@ zero_extendqisi2
 8994 341c 2278     		ldrb	r2, [r4, #0]	@ zero_extendqisi2
 8995 341e CB18     		adds	r3, r1, r3
 8996 3420 DBB2     		uxtb	r3, r3
 8997 3422 2B70     		strb	r3, [r5, #0]
 8998 3424 9B18     		adds	r3, r3, r2
 8999 3426 2370     		strb	r3, [r4, #0]
 9000 3428 4748     		ldr	r0, .L349+16
 9001 342a FFF7FEFF 		bl	uart_transmit
 9002              	.LVL798:
 9003              	.LBE1271:
 9004              	.LBB1272:
 9005 342e 7178     		ldrb	r1, [r6, #1]	@ zero_extendqisi2
 9006              	.LVL799:
 9007 3430 2B78     		ldrb	r3, [r5, #0]	@ zero_extendqisi2
 9008 3432 2278     		ldrb	r2, [r4, #0]	@ zero_extendqisi2
 9009 3434 CB18     		adds	r3, r1, r3
 9010 3436 DBB2     		uxtb	r3, r3
 9011 3438 2B70     		strb	r3, [r5, #0]
 9012 343a 9B18     		adds	r3, r3, r2
 9013 343c 2370     		strb	r3, [r4, #0]
 9014 343e 4248     		ldr	r0, .L349+16
 9015 3440 FFF7FEFF 		bl	uart_transmit
 9016              	.LVL800:
 9017              	.LBE1272:
 9018              	.LBB1273:
 9019 3444 B178     		ldrb	r1, [r6, #2]	@ zero_extendqisi2
 9020              	.LVL801:
 9021 3446 2B78     		ldrb	r3, [r5, #0]	@ zero_extendqisi2
 9022 3448 2278     		ldrb	r2, [r4, #0]	@ zero_extendqisi2
 9023 344a CB18     		adds	r3, r1, r3
 9024 344c DBB2     		uxtb	r3, r3
 9025 344e 2B70     		strb	r3, [r5, #0]
 9026 3450 9B18     		adds	r3, r3, r2
 9027 3452 2370     		strb	r3, [r4, #0]
 9028 3454 3C48     		ldr	r0, .L349+16
 9029 3456 FFF7FEFF 		bl	uart_transmit
 9030              	.LVL802:
 9031              	.LBE1273:
 9032              	.LBB1274:
 9033 345a F178     		ldrb	r1, [r6, #3]	@ zero_extendqisi2
 9034              	.LVL803:
 9035 345c 2B78     		ldrb	r3, [r5, #0]	@ zero_extendqisi2
 9036 345e 2278     		ldrb	r2, [r4, #0]	@ zero_extendqisi2
 9037 3460 CB18     		adds	r3, r1, r3
 9038 3462 DBB2     		uxtb	r3, r3
 9039              	.LBE1274:
 9040              	.LBB1275:
 9041 3464 3F4E     		ldr	r6, .L349+44
 9042              	.LBE1275:
 9043              	.LBB1276:
 9044 3466 2B70     		strb	r3, [r5, #0]
 9045 3468 9B18     		adds	r3, r3, r2
 9046 346a 2370     		strb	r3, [r4, #0]
 9047 346c 3648     		ldr	r0, .L349+16
 9048 346e FFF7FEFF 		bl	uart_transmit
 9049              	.LVL804:
 9050              	.LBE1276:
 9051              	.LBB1277:
 9052 3472 3178     		ldrb	r1, [r6, #0]	@ zero_extendqisi2
 9053              	.LVL805:
 9054 3474 2B78     		ldrb	r3, [r5, #0]	@ zero_extendqisi2
 9055 3476 2278     		ldrb	r2, [r4, #0]	@ zero_extendqisi2
 9056 3478 CB18     		adds	r3, r1, r3
 9057 347a DBB2     		uxtb	r3, r3
 9058 347c 2B70     		strb	r3, [r5, #0]
 9059 347e 9B18     		adds	r3, r3, r2
 9060 3480 2370     		strb	r3, [r4, #0]
 9061 3482 3148     		ldr	r0, .L349+16
 9062 3484 FFF7FEFF 		bl	uart_transmit
 9063              	.LVL806:
 9064              	.LBE1277:
 9065              	.LBB1278:
 9066 3488 7178     		ldrb	r1, [r6, #1]	@ zero_extendqisi2
 9067              	.LVL807:
 9068 348a 2B78     		ldrb	r3, [r5, #0]	@ zero_extendqisi2
 9069 348c 2278     		ldrb	r2, [r4, #0]	@ zero_extendqisi2
 9070 348e CB18     		adds	r3, r1, r3
 9071 3490 DBB2     		uxtb	r3, r3
 9072 3492 2B70     		strb	r3, [r5, #0]
 9073 3494 9B18     		adds	r3, r3, r2
 9074 3496 2370     		strb	r3, [r4, #0]
 9075 3498 2B48     		ldr	r0, .L349+16
 9076 349a FFF7FEFF 		bl	uart_transmit
 9077              	.LVL808:
 9078              	.LBE1278:
 9079              	.LBB1279:
 9080 349e B178     		ldrb	r1, [r6, #2]	@ zero_extendqisi2
 9081              	.LVL809:
 9082 34a0 2B78     		ldrb	r3, [r5, #0]	@ zero_extendqisi2
 9083 34a2 2278     		ldrb	r2, [r4, #0]	@ zero_extendqisi2
 9084 34a4 CB18     		adds	r3, r1, r3
 9085 34a6 DBB2     		uxtb	r3, r3
 9086 34a8 2B70     		strb	r3, [r5, #0]
 9087 34aa 9B18     		adds	r3, r3, r2
 9088 34ac 2370     		strb	r3, [r4, #0]
 9089 34ae 2648     		ldr	r0, .L349+16
 9090 34b0 FFF7FEFF 		bl	uart_transmit
 9091              	.LVL810:
 9092              	.LBE1279:
 9093              	.LBB1280:
 9094 34b4 F178     		ldrb	r1, [r6, #3]	@ zero_extendqisi2
 9095              	.LVL811:
 9096 34b6 2B78     		ldrb	r3, [r5, #0]	@ zero_extendqisi2
 9097 34b8 2278     		ldrb	r2, [r4, #0]	@ zero_extendqisi2
 9098 34ba CB18     		adds	r3, r1, r3
 9099 34bc DBB2     		uxtb	r3, r3
 9100              	.LBE1280:
 9101              	.LBB1281:
 9102 34be 2A4E     		ldr	r6, .L349+48
 9103              	.LBE1281:
 9104              	.LBB1282:
 9105 34c0 2B70     		strb	r3, [r5, #0]
 9106 34c2 9B18     		adds	r3, r3, r2
 9107 34c4 2370     		strb	r3, [r4, #0]
 9108 34c6 2048     		ldr	r0, .L349+16
 9109 34c8 FFF7FEFF 		bl	uart_transmit
 9110              	.LVL812:
 9111              	.LBE1282:
 9112              	.LBB1283:
 9113 34cc 3178     		ldrb	r1, [r6, #0]	@ zero_extendqisi2
 9114              	.LVL813:
 9115 34ce 2B78     		ldrb	r3, [r5, #0]	@ zero_extendqisi2
 9116 34d0 2278     		ldrb	r2, [r4, #0]	@ zero_extendqisi2
 9117 34d2 CB18     		adds	r3, r1, r3
 9118 34d4 DBB2     		uxtb	r3, r3
 9119 34d6 2B70     		strb	r3, [r5, #0]
 9120 34d8 9B18     		adds	r3, r3, r2
 9121 34da 2370     		strb	r3, [r4, #0]
 9122 34dc 1A48     		ldr	r0, .L349+16
 9123 34de FFF7FEFF 		bl	uart_transmit
 9124              	.LVL814:
 9125              	.LBE1283:
 9126              	.LBB1284:
 9127 34e2 7178     		ldrb	r1, [r6, #1]	@ zero_extendqisi2
 9128              	.LVL815:
 9129 34e4 2B78     		ldrb	r3, [r5, #0]	@ zero_extendqisi2
 9130 34e6 2278     		ldrb	r2, [r4, #0]	@ zero_extendqisi2
 9131 34e8 CB18     		adds	r3, r1, r3
 9132 34ea DBB2     		uxtb	r3, r3
 9133 34ec 2B70     		strb	r3, [r5, #0]
 9134 34ee 9B18     		adds	r3, r3, r2
 9135 34f0 2370     		strb	r3, [r4, #0]
 9136 34f2 1548     		ldr	r0, .L349+16
 9137 34f4 FFF7FEFF 		bl	uart_transmit
 9138              	.LVL816:
 9139              	.LBE1284:
 9140              	.LBB1285:
 9141 34f8 B178     		ldrb	r1, [r6, #2]	@ zero_extendqisi2
 9142              	.LVL817:
 9143 34fa 2B78     		ldrb	r3, [r5, #0]	@ zero_extendqisi2
 9144 34fc 2278     		ldrb	r2, [r4, #0]	@ zero_extendqisi2
 9145 34fe CB18     		adds	r3, r1, r3
 9146 3500 DBB2     		uxtb	r3, r3
 9147 3502 2B70     		strb	r3, [r5, #0]
 9148 3504 9B18     		adds	r3, r3, r2
 9149 3506 2370     		strb	r3, [r4, #0]
 9150 3508 0F48     		ldr	r0, .L349+16
 9151 350a FFF7FEFF 		bl	uart_transmit
 9152              	.LVL818:
 9153              	.LBE1285:
 9154              	.LBB1286:
 9155 350e F178     		ldrb	r1, [r6, #3]	@ zero_extendqisi2
 9156              	.LVL819:
 9157 3510 2B78     		ldrb	r3, [r5, #0]	@ zero_extendqisi2
 9158 3512 2278     		ldrb	r2, [r4, #0]	@ zero_extendqisi2
 9159 3514 CB18     		adds	r3, r1, r3
 9160 3516 DBB2     		uxtb	r3, r3
 9161 3518 2B70     		strb	r3, [r5, #0]
 9162 351a 9B18     		adds	r3, r3, r2
 9163 351c 2370     		strb	r3, [r4, #0]
 9164 351e 0A48     		ldr	r0, .L349+16
 9165 3520 FFF7FEFF 		bl	uart_transmit
 9166              	.LVL820:
 9167              	.LBE1286:
 9168 3524 2978     		ldrb	r1, [r5, #0]	@ zero_extendqisi2
 9169 3526 0848     		ldr	r0, .L349+16
 9170 3528 FFF7FEFF 		bl	uart_transmit
 9171 352c 0648     		ldr	r0, .L349+16
 9172 352e 2178     		ldrb	r1, [r4, #0]	@ zero_extendqisi2
 9173 3530 FFF7FEFF 		bl	uart_transmit
 9174 3534 1EE0     		b	.L196
 9175              	.L350:
 9176 3536 00BF     		.align	2
 9177              	.L349:
 9178 3538 00000000 		.word	downlink_nb_ovrn
 9179 353c 00000000 		.word	.LANCHOR54
 9180 3540 00000000 		.word	.LANCHOR41
 9181 3544 00000000 		.word	nav_survey_active
 9182 3548 00000000 		.word	uart2
 9183 354c 00000000 		.word	downlink_nb_bytes
 9184 3550 00000000 		.word	downlink_nb_msgs
 9185 3554 00000000 		.word	ck_a
 9186 3558 00000000 		.word	ck_b
 9187 355c 00000000 		.word	nav_survey_east
 9188 3560 00000000 		.word	nav_survey_north
 9189 3564 00000000 		.word	nav_survey_west
 9190 3568 00000000 		.word	nav_survey_south
 9191              	.LVL821:
 9192              	.L197:
 9193 356c 9A4B     		ldr	r3, .L351+8
 9194 356e 1A78     		ldrb	r2, [r3, #0]	@ zero_extendqisi2
 9195 3570 0132     		adds	r2, r2, #1
 9196 3572 1A70     		strb	r2, [r3, #0]
 9197              	.L196:
 9198 3574 994B     		ldr	r3, .L351+12
 9199 3576 1B78     		ldrb	r3, [r3, #0]	@ zero_extendqisi2
 9200 3578 242B     		cmp	r3, #36
 9201 357a 40F04F81 		bne	.L198
 9202              	.LBB1287:
 9203 357e 984B     		ldr	r3, .L351+16
 9204 3580 9848     		ldr	r0, .L351+20
 9205 3582 1A21     		movs	r1, #26
 9206 3584 1C68     		ldr	r4, [r3, #0]	@ float
 9207 3586 FFF7FEFF 		bl	uart_check_free_space
 9208 358a 0028     		cmp	r0, #0
 9209 358c 00F04281 		beq	.L199
 9210 3590 24F00040 		bic	r0, r4, #-2147483648
 9211 3594 FFF7FEFF 		bl	__aeabi_f2d
 9212 3598 8DA3     		adr	r3, .L351
 9213 359a D3E90023 		ldrd	r2, [r3]
 9214 359e FFF7FEFF 		bl	__aeabi_ddiv
 9215 35a2 FFF7FEFF 		bl	__aeabi_d2uiz
 9216 35a6 904B     		ldr	r3, .L351+24
 9217 35a8 C7B2     		uxtb	r7, r0
 9218 35aa 1A88     		ldrh	r2, [r3, #0]
 9219              	.LBB1288:
 9220 35ac 9921     		movs	r1, #153
 9221              	.LBE1288:
 9222 35ae 1A32     		adds	r2, r2, #26
 9223 35b0 1A80     		strh	r2, [r3, #0]	@ movhi
 9224 35b2 8E4B     		ldr	r3, .L351+28
 9225              	.LBB1289:
 9226 35b4 8B48     		ldr	r0, .L351+20
 9227              	.LBE1289:
 9228 35b6 1A88     		ldrh	r2, [r3, #0]
 9229              	.LBB1290:
 9230 35b8 8D4D     		ldr	r5, .L351+32
 9231              	.LBE1290:
 9232 35ba 0132     		adds	r2, r2, #1
 9233 35bc 1A80     		strh	r2, [r3, #0]	@ movhi
 9234              	.LBB1291:
 9235 35be FFF7FEFF 		bl	uart_transmit
 9236 35c2 1A21     		movs	r1, #26
 9237 35c4 8748     		ldr	r0, .L351+20
 9238 35c6 8B4C     		ldr	r4, .L351+36
 9239 35c8 FFF7FEFF 		bl	uart_transmit
 9240              	.LBE1291:
 9241 35cc 1B23     		movs	r3, #27
 9242 35ce 2B70     		strb	r3, [r5, #0]
 9243 35d0 1A33     		adds	r3, r3, #26
 9244 35d2 2370     		strb	r3, [r4, #0]
 9245 35d4 0121     		movs	r1, #1
 9246 35d6 8348     		ldr	r0, .L351+20
 9247 35d8 FFF7FEFF 		bl	uart_transmit
 9248 35dc 2B78     		ldrb	r3, [r5, #0]	@ zero_extendqisi2
 9249 35de 2278     		ldrb	r2, [r4, #0]	@ zero_extendqisi2
 9250 35e0 0A33     		adds	r3, r3, #10
 9251 35e2 DBB2     		uxtb	r3, r3
 9252 35e4 2B70     		strb	r3, [r5, #0]
 9253 35e6 9B18     		adds	r3, r3, r2
 9254 35e8 2370     		strb	r3, [r4, #0]
 9255 35ea 0A21     		movs	r1, #10
 9256 35ec 7D48     		ldr	r0, .L351+20
 9257 35ee FFF7FEFF 		bl	uart_transmit
 9258              	.LBB1292:
 9259 35f2 814B     		ldr	r3, .L351+40
 9260 35f4 2278     		ldrb	r2, [r4, #0]	@ zero_extendqisi2
 9261 35f6 1978     		ldrb	r1, [r3, #0]	@ zero_extendqisi2
 9262              	.LVL822:
 9263 35f8 2B78     		ldrb	r3, [r5, #0]	@ zero_extendqisi2
 9264 35fa 7A48     		ldr	r0, .L351+20
 9265 35fc CB18     		adds	r3, r1, r3
 9266 35fe DBB2     		uxtb	r3, r3
 9267 3600 2B70     		strb	r3, [r5, #0]
 9268 3602 9B18     		adds	r3, r3, r2
 9269 3604 2370     		strb	r3, [r4, #0]
 9270 3606 FFF7FEFF 		bl	uart_transmit
 9271              	.LVL823:
 9272              	.LBE1292:
 9273              	.LBB1293:
 9274 360a 7C4B     		ldr	r3, .L351+44
 9275 360c 2278     		ldrb	r2, [r4, #0]	@ zero_extendqisi2
 9276 360e 1978     		ldrb	r1, [r3, #0]	@ zero_extendqisi2
 9277              	.LVL824:
 9278 3610 2B78     		ldrb	r3, [r5, #0]	@ zero_extendqisi2
 9279              	.LBE1293:
 9280              	.LBB1294:
 9281 3612 7B4E     		ldr	r6, .L351+48
 9282              	.LVL825:
 9283              	.LBE1294:
 9284              	.LBB1295:
 9285 3614 CB18     		adds	r3, r1, r3
 9286 3616 DBB2     		uxtb	r3, r3
 9287 3618 2B70     		strb	r3, [r5, #0]
 9288 361a 9B18     		adds	r3, r3, r2
 9289 361c 2370     		strb	r3, [r4, #0]
 9290 361e 7148     		ldr	r0, .L351+20
 9291 3620 FFF7FEFF 		bl	uart_transmit
 9292              	.LVL826:
 9293              	.LBE1295:
 9294              	.LBB1296:
 9295 3624 3178     		ldrb	r1, [r6, #0]	@ zero_extendqisi2
 9296              	.LVL827:
 9297 3626 2B78     		ldrb	r3, [r5, #0]	@ zero_extendqisi2
 9298 3628 2278     		ldrb	r2, [r4, #0]	@ zero_extendqisi2
 9299 362a CB18     		adds	r3, r1, r3
 9300 362c DBB2     		uxtb	r3, r3
 9301 362e 2B70     		strb	r3, [r5, #0]
 9302 3630 9B18     		adds	r3, r3, r2
 9303 3632 2370     		strb	r3, [r4, #0]
 9304 3634 6B48     		ldr	r0, .L351+20
 9305 3636 FFF7FEFF 		bl	uart_transmit
 9306              	.LVL828:
 9307              	.LBE1296:
 9308              	.LBB1297:
 9309 363a 7178     		ldrb	r1, [r6, #1]	@ zero_extendqisi2
 9310              	.LVL829:
 9311 363c 2B78     		ldrb	r3, [r5, #0]	@ zero_extendqisi2
 9312 363e 2278     		ldrb	r2, [r4, #0]	@ zero_extendqisi2
 9313 3640 CB18     		adds	r3, r1, r3
 9314 3642 DBB2     		uxtb	r3, r3
 9315 3644 2B70     		strb	r3, [r5, #0]
 9316 3646 9B18     		adds	r3, r3, r2
 9317 3648 2370     		strb	r3, [r4, #0]
 9318 364a 6648     		ldr	r0, .L351+20
 9319 364c FFF7FEFF 		bl	uart_transmit
 9320              	.LVL830:
 9321              	.LBE1297:
 9322              	.LBB1298:
 9323 3650 B178     		ldrb	r1, [r6, #2]	@ zero_extendqisi2
 9324              	.LVL831:
 9325 3652 2B78     		ldrb	r3, [r5, #0]	@ zero_extendqisi2
 9326 3654 2278     		ldrb	r2, [r4, #0]	@ zero_extendqisi2
 9327 3656 CB18     		adds	r3, r1, r3
 9328 3658 DBB2     		uxtb	r3, r3
 9329 365a 2B70     		strb	r3, [r5, #0]
 9330 365c 9B18     		adds	r3, r3, r2
 9331 365e 2370     		strb	r3, [r4, #0]
 9332 3660 6048     		ldr	r0, .L351+20
 9333 3662 FFF7FEFF 		bl	uart_transmit
 9334              	.LVL832:
 9335              	.LBE1298:
 9336              	.LBB1299:
 9337 3666 F178     		ldrb	r1, [r6, #3]	@ zero_extendqisi2
 9338              	.LVL833:
 9339 3668 2B78     		ldrb	r3, [r5, #0]	@ zero_extendqisi2
 9340 366a 2278     		ldrb	r2, [r4, #0]	@ zero_extendqisi2
 9341 366c CB18     		adds	r3, r1, r3
 9342 366e DBB2     		uxtb	r3, r3
 9343              	.LBE1299:
 9344              	.LBB1300:
 9345 3670 644E     		ldr	r6, .L351+52
 9346              	.LBE1300:
 9347              	.LBB1301:
 9348 3672 2B70     		strb	r3, [r5, #0]
 9349 3674 9B18     		adds	r3, r3, r2
 9350 3676 2370     		strb	r3, [r4, #0]
 9351 3678 5A48     		ldr	r0, .L351+20
 9352 367a FFF7FEFF 		bl	uart_transmit
 9353              	.LVL834:
 9354              	.LBE1301:
 9355              	.LBB1302:
 9356 367e 3178     		ldrb	r1, [r6, #0]	@ zero_extendqisi2
 9357              	.LVL835:
 9358 3680 2B78     		ldrb	r3, [r5, #0]	@ zero_extendqisi2
 9359 3682 2278     		ldrb	r2, [r4, #0]	@ zero_extendqisi2
 9360 3684 CB18     		adds	r3, r1, r3
 9361 3686 DBB2     		uxtb	r3, r3
 9362 3688 2B70     		strb	r3, [r5, #0]
 9363 368a 9B18     		adds	r3, r3, r2
 9364 368c 2370     		strb	r3, [r4, #0]
 9365 368e 5548     		ldr	r0, .L351+20
 9366 3690 FFF7FEFF 		bl	uart_transmit
 9367              	.LVL836:
 9368              	.LBE1302:
 9369              	.LBB1303:
 9370 3694 7178     		ldrb	r1, [r6, #1]	@ zero_extendqisi2
 9371              	.LVL837:
 9372 3696 2B78     		ldrb	r3, [r5, #0]	@ zero_extendqisi2
 9373 3698 2278     		ldrb	r2, [r4, #0]	@ zero_extendqisi2
 9374 369a CB18     		adds	r3, r1, r3
 9375 369c DBB2     		uxtb	r3, r3
 9376 369e 2B70     		strb	r3, [r5, #0]
 9377 36a0 9B18     		adds	r3, r3, r2
 9378 36a2 2370     		strb	r3, [r4, #0]
 9379 36a4 4F48     		ldr	r0, .L351+20
 9380 36a6 FFF7FEFF 		bl	uart_transmit
 9381              	.LVL838:
 9382              	.LBE1303:
 9383              	.LBB1304:
 9384 36aa B178     		ldrb	r1, [r6, #2]	@ zero_extendqisi2
 9385              	.LVL839:
 9386 36ac 2B78     		ldrb	r3, [r5, #0]	@ zero_extendqisi2
 9387 36ae 2278     		ldrb	r2, [r4, #0]	@ zero_extendqisi2
 9388 36b0 CB18     		adds	r3, r1, r3
 9389 36b2 DBB2     		uxtb	r3, r3
 9390 36b4 2B70     		strb	r3, [r5, #0]
 9391 36b6 9B18     		adds	r3, r3, r2
 9392 36b8 2370     		strb	r3, [r4, #0]
 9393 36ba 4A48     		ldr	r0, .L351+20
 9394 36bc FFF7FEFF 		bl	uart_transmit
 9395              	.LVL840:
 9396              	.LBE1304:
 9397              	.LBB1305:
 9398 36c0 F178     		ldrb	r1, [r6, #3]	@ zero_extendqisi2
 9399              	.LVL841:
 9400 36c2 2B78     		ldrb	r3, [r5, #0]	@ zero_extendqisi2
 9401 36c4 2278     		ldrb	r2, [r4, #0]	@ zero_extendqisi2
 9402 36c6 CB18     		adds	r3, r1, r3
 9403 36c8 DBB2     		uxtb	r3, r3
 9404              	.LBE1305:
 9405              	.LBB1306:
 9406 36ca 4F4E     		ldr	r6, .L351+56
 9407              	.LBE1306:
 9408              	.LBB1307:
 9409 36cc 2B70     		strb	r3, [r5, #0]
 9410 36ce 9B18     		adds	r3, r3, r2
 9411 36d0 2370     		strb	r3, [r4, #0]
 9412 36d2 4448     		ldr	r0, .L351+20
 9413 36d4 FFF7FEFF 		bl	uart_transmit
 9414              	.LVL842:
 9415              	.LBE1307:
 9416              	.LBB1308:
 9417 36d8 3178     		ldrb	r1, [r6, #0]	@ zero_extendqisi2
 9418              	.LVL843:
 9419 36da 2B78     		ldrb	r3, [r5, #0]	@ zero_extendqisi2
 9420 36dc 2278     		ldrb	r2, [r4, #0]	@ zero_extendqisi2
 9421 36de CB18     		adds	r3, r1, r3
 9422 36e0 DBB2     		uxtb	r3, r3
 9423 36e2 2B70     		strb	r3, [r5, #0]
 9424 36e4 9B18     		adds	r3, r3, r2
 9425 36e6 2370     		strb	r3, [r4, #0]
 9426 36e8 3E48     		ldr	r0, .L351+20
 9427 36ea FFF7FEFF 		bl	uart_transmit
 9428              	.LVL844:
 9429              	.LBE1308:
 9430              	.LBB1309:
 9431 36ee 7178     		ldrb	r1, [r6, #1]	@ zero_extendqisi2
 9432              	.LVL845:
 9433 36f0 2B78     		ldrb	r3, [r5, #0]	@ zero_extendqisi2
 9434 36f2 2278     		ldrb	r2, [r4, #0]	@ zero_extendqisi2
 9435 36f4 CB18     		adds	r3, r1, r3
 9436 36f6 DBB2     		uxtb	r3, r3
 9437 36f8 2B70     		strb	r3, [r5, #0]
 9438 36fa 9B18     		adds	r3, r3, r2
 9439 36fc 2370     		strb	r3, [r4, #0]
 9440 36fe 3948     		ldr	r0, .L351+20
 9441 3700 FFF7FEFF 		bl	uart_transmit
 9442              	.LVL846:
 9443              	.LBE1309:
 9444              	.LBB1310:
 9445 3704 B178     		ldrb	r1, [r6, #2]	@ zero_extendqisi2
 9446              	.LVL847:
 9447 3706 2B78     		ldrb	r3, [r5, #0]	@ zero_extendqisi2
 9448 3708 2278     		ldrb	r2, [r4, #0]	@ zero_extendqisi2
 9449 370a CB18     		adds	r3, r1, r3
 9450 370c DBB2     		uxtb	r3, r3
 9451 370e 2B70     		strb	r3, [r5, #0]
 9452 3710 9B18     		adds	r3, r3, r2
 9453 3712 2370     		strb	r3, [r4, #0]
 9454 3714 3348     		ldr	r0, .L351+20
 9455 3716 FFF7FEFF 		bl	uart_transmit
 9456              	.LVL848:
 9457              	.LBE1310:
 9458              	.LBB1311:
 9459 371a F178     		ldrb	r1, [r6, #3]	@ zero_extendqisi2
 9460              	.LVL849:
 9461 371c 2B78     		ldrb	r3, [r5, #0]	@ zero_extendqisi2
 9462 371e 2278     		ldrb	r2, [r4, #0]	@ zero_extendqisi2
 9463 3720 CB18     		adds	r3, r1, r3
 9464 3722 DBB2     		uxtb	r3, r3
 9465              	.LBE1311:
 9466              	.LBB1312:
 9467 3724 394E     		ldr	r6, .L351+60
 9468              	.LBE1312:
 9469              	.LBB1313:
 9470 3726 2B70     		strb	r3, [r5, #0]
 9471 3728 9B18     		adds	r3, r3, r2
 9472 372a 2370     		strb	r3, [r4, #0]
 9473 372c 2D48     		ldr	r0, .L351+20
 9474 372e FFF7FEFF 		bl	uart_transmit
 9475              	.LVL850:
 9476              	.LBE1313:
 9477              	.LBB1314:
 9478 3732 3178     		ldrb	r1, [r6, #0]	@ zero_extendqisi2
 9479              	.LVL851:
 9480 3734 2B78     		ldrb	r3, [r5, #0]	@ zero_extendqisi2
 9481 3736 2278     		ldrb	r2, [r4, #0]	@ zero_extendqisi2
 9482 3738 CB18     		adds	r3, r1, r3
 9483 373a DBB2     		uxtb	r3, r3
 9484 373c 2B70     		strb	r3, [r5, #0]
 9485 373e 9B18     		adds	r3, r3, r2
 9486 3740 2370     		strb	r3, [r4, #0]
 9487 3742 2848     		ldr	r0, .L351+20
 9488 3744 FFF7FEFF 		bl	uart_transmit
 9489              	.LVL852:
 9490              	.LBE1314:
 9491              	.LBB1315:
 9492 3748 7178     		ldrb	r1, [r6, #1]	@ zero_extendqisi2
 9493              	.LVL853:
 9494 374a 2B78     		ldrb	r3, [r5, #0]	@ zero_extendqisi2
 9495 374c 2278     		ldrb	r2, [r4, #0]	@ zero_extendqisi2
 9496 374e CB18     		adds	r3, r1, r3
 9497 3750 DBB2     		uxtb	r3, r3
 9498 3752 2B70     		strb	r3, [r5, #0]
 9499 3754 9B18     		adds	r3, r3, r2
 9500 3756 2370     		strb	r3, [r4, #0]
 9501 3758 2248     		ldr	r0, .L351+20
 9502 375a FFF7FEFF 		bl	uart_transmit
 9503              	.LVL854:
 9504              	.LBE1315:
 9505              	.LBB1316:
 9506 375e B178     		ldrb	r1, [r6, #2]	@ zero_extendqisi2
 9507              	.LVL855:
 9508 3760 2B78     		ldrb	r3, [r5, #0]	@ zero_extendqisi2
 9509 3762 2278     		ldrb	r2, [r4, #0]	@ zero_extendqisi2
 9510 3764 CB18     		adds	r3, r1, r3
 9511 3766 DBB2     		uxtb	r3, r3
 9512 3768 2B70     		strb	r3, [r5, #0]
 9513 376a 9B18     		adds	r3, r3, r2
 9514 376c 2370     		strb	r3, [r4, #0]
 9515 376e 1D48     		ldr	r0, .L351+20
 9516 3770 FFF7FEFF 		bl	uart_transmit
 9517              	.LVL856:
 9518              	.LBE1316:
 9519              	.LBB1317:
 9520 3774 F178     		ldrb	r1, [r6, #3]	@ zero_extendqisi2
 9521              	.LVL857:
 9522 3776 2B78     		ldrb	r3, [r5, #0]	@ zero_extendqisi2
 9523 3778 2278     		ldrb	r2, [r4, #0]	@ zero_extendqisi2
 9524 377a CB18     		adds	r3, r1, r3
 9525 377c DBB2     		uxtb	r3, r3
 9526 377e 2B70     		strb	r3, [r5, #0]
 9527 3780 9B18     		adds	r3, r3, r2
 9528 3782 2370     		strb	r3, [r4, #0]
 9529 3784 1748     		ldr	r0, .L351+20
 9530 3786 FFF7FEFF 		bl	uart_transmit
 9531              	.LVL858:
 9532              	.LBE1317:
 9533              	.LBB1318:
 9534 378a 2B78     		ldrb	r3, [r5, #0]	@ zero_extendqisi2
 9535 378c 2278     		ldrb	r2, [r4, #0]	@ zero_extendqisi2
 9536 378e FB18     		adds	r3, r7, r3
 9537 3790 DBB2     		uxtb	r3, r3
 9538 3792 2B70     		strb	r3, [r5, #0]
 9539 3794 9B18     		adds	r3, r3, r2
 9540 3796 2370     		strb	r3, [r4, #0]
 9541 3798 3946     		mov	r1, r7
 9542 379a 1248     		ldr	r0, .L351+20
 9543 379c FFF7FEFF 		bl	uart_transmit
 9544              	.LBE1318:
 9545              	.LBB1319:
 9546 37a0 1B4B     		ldr	r3, .L351+64
 9547 37a2 2278     		ldrb	r2, [r4, #0]	@ zero_extendqisi2
 9548 37a4 1978     		ldrb	r1, [r3, #0]	@ zero_extendqisi2
 9549              	.LVL859:
 9550 37a6 2B78     		ldrb	r3, [r5, #0]	@ zero_extendqisi2
 9551 37a8 0E48     		ldr	r0, .L351+20
 9552 37aa CB18     		adds	r3, r1, r3
 9553 37ac DBB2     		uxtb	r3, r3
 9554 37ae 2B70     		strb	r3, [r5, #0]
 9555 37b0 9B18     		adds	r3, r3, r2
 9556 37b2 2370     		strb	r3, [r4, #0]
 9557 37b4 FFF7FEFF 		bl	uart_transmit
 9558              	.LVL860:
 9559              	.LBE1319:
 9560 37b8 2978     		ldrb	r1, [r5, #0]	@ zero_extendqisi2
 9561 37ba 0A48     		ldr	r0, .L351+20
 9562 37bc FFF7FEFF 		bl	uart_transmit
 9563 37c0 0848     		ldr	r0, .L351+20
 9564 37c2 2178     		ldrb	r1, [r4, #0]	@ zero_extendqisi2
 9565 37c4 FFF7FEFF 		bl	uart_transmit
 9566 37c8 28E0     		b	.L198
 9567              	.L352:
 9568 37ca 00BFAFF3 		.align	3
 9568      0080
 9569              	.L351:
 9570 37d0 182D4454 		.word	1413754136
 9571 37d4 FB211940 		.word	1075388923
 9572 37d8 00000000 		.word	downlink_nb_ovrn
 9573 37dc 00000000 		.word	.LANCHOR42
 9574 37e0 00000000 		.word	nav_circle_radians
 9575 37e4 00000000 		.word	uart2
 9576 37e8 00000000 		.word	downlink_nb_bytes
 9577 37ec 00000000 		.word	downlink_nb_msgs
 9578 37f0 00000000 		.word	ck_a
 9579 37f4 00000000 		.word	ck_b
 9580 37f8 00000000 		.word	nav_block
 9581 37fc 00000000 		.word	nav_stage
 9582 3800 00000000 		.word	estimator_x
 9583 3804 00000000 		.word	estimator_y
 9584 3808 00000000 		.word	dist2_to_wp
 9585 380c 00000000 		.word	dist2_to_home
 9586 3810 00000000 		.word	nav_oval_count
 9587              	.LVL861:
 9588              	.L199:
 9589 3814 644B     		ldr	r3, .L353
 9590 3816 1A78     		ldrb	r2, [r3, #0]	@ zero_extendqisi2
 9591 3818 0132     		adds	r2, r2, #1
 9592 381a 1A70     		strb	r2, [r3, #0]
 9593              	.L198:
 9594              	.LBE1287:
 9595 381c 634B     		ldr	r3, .L353+4
 9596 381e 1B78     		ldrb	r3, [r3, #0]	@ zero_extendqisi2
 9597 3820 2A2B     		cmp	r3, #42
 9598 3822 40F0DB80 		bne	.L200
 9599 3826 624B     		ldr	r3, .L353+8
 9600 3828 1B78     		ldrb	r3, [r3, #0]	@ zero_extendqisi2
 9601 382a 002B     		cmp	r3, #0
 9602 382c 00F0D680 		beq	.L200
 9603 3830 6048     		ldr	r0, .L353+12
 9604 3832 1221     		movs	r1, #18
 9605 3834 FFF7FEFF 		bl	uart_check_free_space
 9606 3838 0028     		cmp	r0, #0
 9607 383a 00F0CB80 		beq	.L201
 9608 383e 5E4B     		ldr	r3, .L353+16
 9609              	.LBB1320:
 9610 3840 9921     		movs	r1, #153
 9611              	.LBE1320:
 9612 3842 1A88     		ldrh	r2, [r3, #0]
 9613              	.LBB1321:
 9614 3844 5B48     		ldr	r0, .L353+12
 9615              	.LBE1321:
 9616 3846 1232     		adds	r2, r2, #18
 9617 3848 1A80     		strh	r2, [r3, #0]	@ movhi
 9618 384a 5C4B     		ldr	r3, .L353+20
 9619              	.LBB1322:
 9620 384c 5C4D     		ldr	r5, .L353+24
 9621              	.LBE1322:
 9622 384e 1A88     		ldrh	r2, [r3, #0]
 9623              	.LBB1323:
 9624 3850 5C4C     		ldr	r4, .L353+28
 9625              	.LBE1323:
 9626 3852 0132     		adds	r2, r2, #1
 9627 3854 1A80     		strh	r2, [r3, #0]	@ movhi
 9628              	.LBB1324:
 9629 3856 FFF7FEFF 		bl	uart_transmit
 9630 385a 1221     		movs	r1, #18
 9631 385c 5548     		ldr	r0, .L353+12
 9632 385e FFF7FEFF 		bl	uart_transmit
 9633              	.LBE1324:
 9634 3862 1323     		movs	r3, #19
 9635 3864 2B70     		strb	r3, [r5, #0]
 9636 3866 1233     		adds	r3, r3, #18
 9637 3868 2370     		strb	r3, [r4, #0]
 9638 386a 0121     		movs	r1, #1
 9639 386c 5148     		ldr	r0, .L353+12
 9640 386e FFF7FEFF 		bl	uart_transmit
 9641 3872 2B78     		ldrb	r3, [r5, #0]	@ zero_extendqisi2
 9642 3874 2278     		ldrb	r2, [r4, #0]	@ zero_extendqisi2
 9643 3876 1533     		adds	r3, r3, #21
 9644 3878 DBB2     		uxtb	r3, r3
 9645              	.LBB1325:
 9646 387a 534E     		ldr	r6, .L353+32
 9647              	.LVL862:
 9648              	.LBE1325:
 9649 387c 2B70     		strb	r3, [r5, #0]
 9650 387e 9B18     		adds	r3, r3, r2
 9651 3880 2370     		strb	r3, [r4, #0]
 9652 3882 1521     		movs	r1, #21
 9653 3884 4B48     		ldr	r0, .L353+12
 9654 3886 FFF7FEFF 		bl	uart_transmit
 9655              	.LBB1326:
 9656 388a 3178     		ldrb	r1, [r6, #0]	@ zero_extendqisi2
 9657              	.LVL863:
 9658 388c 2B78     		ldrb	r3, [r5, #0]	@ zero_extendqisi2
 9659 388e 2278     		ldrb	r2, [r4, #0]	@ zero_extendqisi2
 9660 3890 CB18     		adds	r3, r1, r3
 9661 3892 DBB2     		uxtb	r3, r3
 9662 3894 2B70     		strb	r3, [r5, #0]
 9663 3896 9B18     		adds	r3, r3, r2
 9664 3898 2370     		strb	r3, [r4, #0]
 9665 389a 4648     		ldr	r0, .L353+12
 9666 389c FFF7FEFF 		bl	uart_transmit
 9667              	.LVL864:
 9668              	.LBE1326:
 9669              	.LBB1327:
 9670 38a0 7178     		ldrb	r1, [r6, #1]	@ zero_extendqisi2
 9671              	.LVL865:
 9672 38a2 2B78     		ldrb	r3, [r5, #0]	@ zero_extendqisi2
 9673 38a4 2278     		ldrb	r2, [r4, #0]	@ zero_extendqisi2
 9674 38a6 CB18     		adds	r3, r1, r3
 9675 38a8 DBB2     		uxtb	r3, r3
 9676 38aa 2B70     		strb	r3, [r5, #0]
 9677 38ac 9B18     		adds	r3, r3, r2
 9678 38ae 2370     		strb	r3, [r4, #0]
 9679 38b0 4048     		ldr	r0, .L353+12
 9680 38b2 FFF7FEFF 		bl	uart_transmit
 9681              	.LVL866:
 9682              	.LBE1327:
 9683              	.LBB1328:
 9684 38b6 B178     		ldrb	r1, [r6, #2]	@ zero_extendqisi2
 9685              	.LVL867:
 9686 38b8 2B78     		ldrb	r3, [r5, #0]	@ zero_extendqisi2
 9687 38ba 2278     		ldrb	r2, [r4, #0]	@ zero_extendqisi2
 9688 38bc CB18     		adds	r3, r1, r3
 9689 38be DBB2     		uxtb	r3, r3
 9690 38c0 2B70     		strb	r3, [r5, #0]
 9691 38c2 9B18     		adds	r3, r3, r2
 9692 38c4 2370     		strb	r3, [r4, #0]
 9693 38c6 3B48     		ldr	r0, .L353+12
 9694 38c8 FFF7FEFF 		bl	uart_transmit
 9695              	.LVL868:
 9696              	.LBE1328:
 9697              	.LBB1329:
 9698 38cc F178     		ldrb	r1, [r6, #3]	@ zero_extendqisi2
 9699              	.LVL869:
 9700 38ce 2B78     		ldrb	r3, [r5, #0]	@ zero_extendqisi2
 9701 38d0 2278     		ldrb	r2, [r4, #0]	@ zero_extendqisi2
 9702 38d2 CB18     		adds	r3, r1, r3
 9703 38d4 DBB2     		uxtb	r3, r3
 9704              	.LBE1329:
 9705              	.LBB1330:
 9706 38d6 3D4E     		ldr	r6, .L353+36
 9707              	.LBE1330:
 9708              	.LBB1331:
 9709 38d8 2B70     		strb	r3, [r5, #0]
 9710 38da 9B18     		adds	r3, r3, r2
 9711 38dc 2370     		strb	r3, [r4, #0]
 9712 38de 3548     		ldr	r0, .L353+12
 9713 38e0 FFF7FEFF 		bl	uart_transmit
 9714              	.LVL870:
 9715              	.LBE1331:
 9716              	.LBB1332:
 9717 38e4 3178     		ldrb	r1, [r6, #0]	@ zero_extendqisi2
 9718              	.LVL871:
 9719 38e6 2B78     		ldrb	r3, [r5, #0]	@ zero_extendqisi2
 9720 38e8 2278     		ldrb	r2, [r4, #0]	@ zero_extendqisi2
 9721 38ea CB18     		adds	r3, r1, r3
 9722 38ec DBB2     		uxtb	r3, r3
 9723 38ee 2B70     		strb	r3, [r5, #0]
 9724 38f0 9B18     		adds	r3, r3, r2
 9725 38f2 2370     		strb	r3, [r4, #0]
 9726 38f4 2F48     		ldr	r0, .L353+12
 9727 38f6 FFF7FEFF 		bl	uart_transmit
 9728              	.LVL872:
 9729              	.LBE1332:
 9730              	.LBB1333:
 9731 38fa 7178     		ldrb	r1, [r6, #1]	@ zero_extendqisi2
 9732              	.LVL873:
 9733 38fc 2B78     		ldrb	r3, [r5, #0]	@ zero_extendqisi2
 9734 38fe 2278     		ldrb	r2, [r4, #0]	@ zero_extendqisi2
 9735 3900 CB18     		adds	r3, r1, r3
 9736 3902 DBB2     		uxtb	r3, r3
 9737 3904 2B70     		strb	r3, [r5, #0]
 9738 3906 9B18     		adds	r3, r3, r2
 9739 3908 2370     		strb	r3, [r4, #0]
 9740 390a 2A48     		ldr	r0, .L353+12
 9741 390c FFF7FEFF 		bl	uart_transmit
 9742              	.LVL874:
 9743              	.LBE1333:
 9744              	.LBB1334:
 9745 3910 B178     		ldrb	r1, [r6, #2]	@ zero_extendqisi2
 9746              	.LVL875:
 9747 3912 2B78     		ldrb	r3, [r5, #0]	@ zero_extendqisi2
 9748 3914 2278     		ldrb	r2, [r4, #0]	@ zero_extendqisi2
 9749 3916 CB18     		adds	r3, r1, r3
 9750 3918 DBB2     		uxtb	r3, r3
 9751 391a 2B70     		strb	r3, [r5, #0]
 9752 391c 9B18     		adds	r3, r3, r2
 9753 391e 2370     		strb	r3, [r4, #0]
 9754 3920 2448     		ldr	r0, .L353+12
 9755 3922 FFF7FEFF 		bl	uart_transmit
 9756              	.LVL876:
 9757              	.LBE1334:
 9758              	.LBB1335:
 9759 3926 F178     		ldrb	r1, [r6, #3]	@ zero_extendqisi2
 9760              	.LVL877:
 9761 3928 2B78     		ldrb	r3, [r5, #0]	@ zero_extendqisi2
 9762 392a 2278     		ldrb	r2, [r4, #0]	@ zero_extendqisi2
 9763 392c CB18     		adds	r3, r1, r3
 9764 392e DBB2     		uxtb	r3, r3
 9765              	.LBE1335:
 9766              	.LBB1336:
 9767 3930 274E     		ldr	r6, .L353+40
 9768              	.LBE1336:
 9769              	.LBB1337:
 9770 3932 2B70     		strb	r3, [r5, #0]
 9771 3934 9B18     		adds	r3, r3, r2
 9772 3936 2370     		strb	r3, [r4, #0]
 9773 3938 1E48     		ldr	r0, .L353+12
 9774 393a FFF7FEFF 		bl	uart_transmit
 9775              	.LVL878:
 9776              	.LBE1337:
 9777              	.LBB1338:
 9778 393e 3178     		ldrb	r1, [r6, #0]	@ zero_extendqisi2
 9779              	.LVL879:
 9780 3940 2B78     		ldrb	r3, [r5, #0]	@ zero_extendqisi2
 9781 3942 2278     		ldrb	r2, [r4, #0]	@ zero_extendqisi2
 9782 3944 CB18     		adds	r3, r1, r3
 9783 3946 DBB2     		uxtb	r3, r3
 9784 3948 2B70     		strb	r3, [r5, #0]
 9785 394a 9B18     		adds	r3, r3, r2
 9786 394c 2370     		strb	r3, [r4, #0]
 9787 394e 1948     		ldr	r0, .L353+12
 9788 3950 FFF7FEFF 		bl	uart_transmit
 9789              	.LVL880:
 9790              	.LBE1338:
 9791              	.LBB1339:
 9792 3954 7178     		ldrb	r1, [r6, #1]	@ zero_extendqisi2
 9793              	.LVL881:
 9794 3956 2B78     		ldrb	r3, [r5, #0]	@ zero_extendqisi2
 9795 3958 2278     		ldrb	r2, [r4, #0]	@ zero_extendqisi2
 9796 395a CB18     		adds	r3, r1, r3
 9797 395c DBB2     		uxtb	r3, r3
 9798 395e 2B70     		strb	r3, [r5, #0]
 9799 3960 9B18     		adds	r3, r3, r2
 9800 3962 2370     		strb	r3, [r4, #0]
 9801 3964 1348     		ldr	r0, .L353+12
 9802 3966 FFF7FEFF 		bl	uart_transmit
 9803              	.LVL882:
 9804              	.LBE1339:
 9805              	.LBB1340:
 9806 396a B178     		ldrb	r1, [r6, #2]	@ zero_extendqisi2
 9807              	.LVL883:
 9808 396c 2B78     		ldrb	r3, [r5, #0]	@ zero_extendqisi2
 9809 396e 2278     		ldrb	r2, [r4, #0]	@ zero_extendqisi2
 9810 3970 CB18     		adds	r3, r1, r3
 9811 3972 DBB2     		uxtb	r3, r3
 9812 3974 2B70     		strb	r3, [r5, #0]
 9813 3976 9B18     		adds	r3, r3, r2
 9814 3978 2370     		strb	r3, [r4, #0]
 9815 397a 0E48     		ldr	r0, .L353+12
 9816 397c FFF7FEFF 		bl	uart_transmit
 9817              	.LVL884:
 9818              	.LBE1340:
 9819              	.LBB1341:
 9820 3980 F178     		ldrb	r1, [r6, #3]	@ zero_extendqisi2
 9821              	.LVL885:
 9822 3982 2B78     		ldrb	r3, [r5, #0]	@ zero_extendqisi2
 9823 3984 2278     		ldrb	r2, [r4, #0]	@ zero_extendqisi2
 9824 3986 CB18     		adds	r3, r1, r3
 9825 3988 DBB2     		uxtb	r3, r3
 9826 398a 2B70     		strb	r3, [r5, #0]
 9827 398c 9B18     		adds	r3, r3, r2
 9828 398e 2370     		strb	r3, [r4, #0]
 9829 3990 0848     		ldr	r0, .L353+12
 9830 3992 FFF7FEFF 		bl	uart_transmit
 9831              	.LVL886:
 9832              	.LBE1341:
 9833 3996 2978     		ldrb	r1, [r5, #0]	@ zero_extendqisi2
 9834 3998 0648     		ldr	r0, .L353+12
 9835 399a FFF7FEFF 		bl	uart_transmit
 9836 399e 0548     		ldr	r0, .L353+12
 9837 39a0 2178     		ldrb	r1, [r4, #0]	@ zero_extendqisi2
 9838 39a2 FFF7FEFF 		bl	uart_transmit
 9839 39a6 19E0     		b	.L200
 9840              	.L354:
 9841              		.align	2
 9842              	.L353:
 9843 39a8 00000000 		.word	downlink_nb_ovrn
 9844 39ac 00000000 		.word	.LANCHOR43
 9845 39b0 00000000 		.word	nav_in_circle
 9846 39b4 00000000 		.word	uart2
 9847 39b8 00000000 		.word	downlink_nb_bytes
 9848 39bc 00000000 		.word	downlink_nb_msgs
 9849 39c0 00000000 		.word	ck_a
 9850 39c4 00000000 		.word	ck_b
 9851 39c8 00000000 		.word	nav_circle_x
 9852 39cc 00000000 		.word	nav_circle_y
 9853 39d0 00000000 		.word	nav_circle_radius
 9854              	.LVL887:
 9855              	.L201:
 9856 39d4 7B4B     		ldr	r3, .L355
 9857 39d6 1A78     		ldrb	r2, [r3, #0]	@ zero_extendqisi2
 9858 39d8 0132     		adds	r2, r2, #1
 9859 39da 1A70     		strb	r2, [r3, #0]
 9860              	.L200:
 9861 39dc 7A4B     		ldr	r3, .L355+4
 9862 39de 1B78     		ldrb	r3, [r3, #0]	@ zero_extendqisi2
 9863 39e0 302B     		cmp	r3, #48
 9864 39e2 40F00B81 		bne	.L202
 9865 39e6 794B     		ldr	r3, .L355+8
 9866 39e8 1B78     		ldrb	r3, [r3, #0]	@ zero_extendqisi2
 9867 39ea 002B     		cmp	r3, #0
 9868 39ec 00F00681 		beq	.L202
 9869 39f0 7748     		ldr	r0, .L355+12
 9870 39f2 1621     		movs	r1, #22
 9871 39f4 FFF7FEFF 		bl	uart_check_free_space
 9872 39f8 0028     		cmp	r0, #0
 9873 39fa 00F0FB80 		beq	.L203
 9874 39fe 754B     		ldr	r3, .L355+16
 9875              	.LBB1342:
 9876 3a00 9921     		movs	r1, #153
 9877              	.LBE1342:
 9878 3a02 1A88     		ldrh	r2, [r3, #0]
 9879              	.LBB1343:
 9880 3a04 7248     		ldr	r0, .L355+12
 9881              	.LBE1343:
 9882 3a06 1632     		adds	r2, r2, #22
 9883 3a08 1A80     		strh	r2, [r3, #0]	@ movhi
 9884 3a0a 734B     		ldr	r3, .L355+20
 9885              	.LBB1344:
 9886 3a0c 734D     		ldr	r5, .L355+24
 9887              	.LBE1344:
 9888 3a0e 1A88     		ldrh	r2, [r3, #0]
 9889              	.LBB1345:
 9890 3a10 734C     		ldr	r4, .L355+28
 9891              	.LBE1345:
 9892 3a12 0132     		adds	r2, r2, #1
 9893 3a14 1A80     		strh	r2, [r3, #0]	@ movhi
 9894              	.LBB1346:
 9895 3a16 FFF7FEFF 		bl	uart_transmit
 9896 3a1a 1621     		movs	r1, #22
 9897 3a1c 6C48     		ldr	r0, .L355+12
 9898 3a1e FFF7FEFF 		bl	uart_transmit
 9899              	.LBE1346:
 9900 3a22 1723     		movs	r3, #23
 9901 3a24 2B70     		strb	r3, [r5, #0]
 9902 3a26 1633     		adds	r3, r3, #22
 9903 3a28 2370     		strb	r3, [r4, #0]
 9904 3a2a 0121     		movs	r1, #1
 9905 3a2c 6848     		ldr	r0, .L355+12
 9906 3a2e FFF7FEFF 		bl	uart_transmit
 9907 3a32 2B78     		ldrb	r3, [r5, #0]	@ zero_extendqisi2
 9908 3a34 2278     		ldrb	r2, [r4, #0]	@ zero_extendqisi2
 9909 3a36 1633     		adds	r3, r3, #22
 9910 3a38 DBB2     		uxtb	r3, r3
 9911              	.LBB1347:
 9912 3a3a 6A4E     		ldr	r6, .L355+32
 9913              	.LVL888:
 9914              	.LBE1347:
 9915 3a3c 2B70     		strb	r3, [r5, #0]
 9916 3a3e 9B18     		adds	r3, r3, r2
 9917 3a40 2370     		strb	r3, [r4, #0]
 9918 3a42 1621     		movs	r1, #22
 9919 3a44 6248     		ldr	r0, .L355+12
 9920 3a46 FFF7FEFF 		bl	uart_transmit
 9921              	.LBB1348:
 9922 3a4a 3178     		ldrb	r1, [r6, #0]	@ zero_extendqisi2
 9923              	.LVL889:
 9924 3a4c 2B78     		ldrb	r3, [r5, #0]	@ zero_extendqisi2
 9925 3a4e 2278     		ldrb	r2, [r4, #0]	@ zero_extendqisi2
 9926 3a50 CB18     		adds	r3, r1, r3
 9927 3a52 DBB2     		uxtb	r3, r3
 9928 3a54 2B70     		strb	r3, [r5, #0]
 9929 3a56 9B18     		adds	r3, r3, r2
 9930 3a58 2370     		strb	r3, [r4, #0]
 9931 3a5a 5D48     		ldr	r0, .L355+12
 9932 3a5c FFF7FEFF 		bl	uart_transmit
 9933              	.LVL890:
 9934              	.LBE1348:
 9935              	.LBB1349:
 9936 3a60 7178     		ldrb	r1, [r6, #1]	@ zero_extendqisi2
 9937              	.LVL891:
 9938 3a62 2B78     		ldrb	r3, [r5, #0]	@ zero_extendqisi2
 9939 3a64 2278     		ldrb	r2, [r4, #0]	@ zero_extendqisi2
 9940 3a66 CB18     		adds	r3, r1, r3
 9941 3a68 DBB2     		uxtb	r3, r3
 9942 3a6a 2B70     		strb	r3, [r5, #0]
 9943 3a6c 9B18     		adds	r3, r3, r2
 9944 3a6e 2370     		strb	r3, [r4, #0]
 9945 3a70 5748     		ldr	r0, .L355+12
 9946 3a72 FFF7FEFF 		bl	uart_transmit
 9947              	.LVL892:
 9948              	.LBE1349:
 9949              	.LBB1350:
 9950 3a76 B178     		ldrb	r1, [r6, #2]	@ zero_extendqisi2
 9951              	.LVL893:
 9952 3a78 2B78     		ldrb	r3, [r5, #0]	@ zero_extendqisi2
 9953 3a7a 2278     		ldrb	r2, [r4, #0]	@ zero_extendqisi2
 9954 3a7c CB18     		adds	r3, r1, r3
 9955 3a7e DBB2     		uxtb	r3, r3
 9956 3a80 2B70     		strb	r3, [r5, #0]
 9957 3a82 9B18     		adds	r3, r3, r2
 9958 3a84 2370     		strb	r3, [r4, #0]
 9959 3a86 5248     		ldr	r0, .L355+12
 9960 3a88 FFF7FEFF 		bl	uart_transmit
 9961              	.LVL894:
 9962              	.LBE1350:
 9963              	.LBB1351:
 9964 3a8c F178     		ldrb	r1, [r6, #3]	@ zero_extendqisi2
 9965              	.LVL895:
 9966 3a8e 2B78     		ldrb	r3, [r5, #0]	@ zero_extendqisi2
 9967 3a90 2278     		ldrb	r2, [r4, #0]	@ zero_extendqisi2
 9968 3a92 CB18     		adds	r3, r1, r3
 9969 3a94 DBB2     		uxtb	r3, r3
 9970              	.LBE1351:
 9971              	.LBB1352:
 9972 3a96 544E     		ldr	r6, .L355+36
 9973              	.LBE1352:
 9974              	.LBB1353:
 9975 3a98 2B70     		strb	r3, [r5, #0]
 9976 3a9a 9B18     		adds	r3, r3, r2
 9977 3a9c 2370     		strb	r3, [r4, #0]
 9978 3a9e 4C48     		ldr	r0, .L355+12
 9979 3aa0 FFF7FEFF 		bl	uart_transmit
 9980              	.LVL896:
 9981              	.LBE1353:
 9982              	.LBB1354:
 9983 3aa4 3178     		ldrb	r1, [r6, #0]	@ zero_extendqisi2
 9984              	.LVL897:
 9985 3aa6 2B78     		ldrb	r3, [r5, #0]	@ zero_extendqisi2
 9986 3aa8 2278     		ldrb	r2, [r4, #0]	@ zero_extendqisi2
 9987 3aaa CB18     		adds	r3, r1, r3
 9988 3aac DBB2     		uxtb	r3, r3
 9989 3aae 2B70     		strb	r3, [r5, #0]
 9990 3ab0 9B18     		adds	r3, r3, r2
 9991 3ab2 2370     		strb	r3, [r4, #0]
 9992 3ab4 4648     		ldr	r0, .L355+12
 9993 3ab6 FFF7FEFF 		bl	uart_transmit
 9994              	.LVL898:
 9995              	.LBE1354:
 9996              	.LBB1355:
 9997 3aba 7178     		ldrb	r1, [r6, #1]	@ zero_extendqisi2
 9998              	.LVL899:
 9999 3abc 2B78     		ldrb	r3, [r5, #0]	@ zero_extendqisi2
 10000 3abe 2278     		ldrb	r2, [r4, #0]	@ zero_extendqisi2
 10001 3ac0 CB18     		adds	r3, r1, r3
 10002 3ac2 DBB2     		uxtb	r3, r3
 10003 3ac4 2B70     		strb	r3, [r5, #0]
 10004 3ac6 9B18     		adds	r3, r3, r2
 10005 3ac8 2370     		strb	r3, [r4, #0]
 10006 3aca 4148     		ldr	r0, .L355+12
 10007 3acc FFF7FEFF 		bl	uart_transmit
 10008              	.LVL900:
 10009              	.LBE1355:
 10010              	.LBB1356:
 10011 3ad0 B178     		ldrb	r1, [r6, #2]	@ zero_extendqisi2
 10012              	.LVL901:
 10013 3ad2 2B78     		ldrb	r3, [r5, #0]	@ zero_extendqisi2
 10014 3ad4 2278     		ldrb	r2, [r4, #0]	@ zero_extendqisi2
 10015 3ad6 CB18     		adds	r3, r1, r3
 10016 3ad8 DBB2     		uxtb	r3, r3
 10017 3ada 2B70     		strb	r3, [r5, #0]
 10018 3adc 9B18     		adds	r3, r3, r2
 10019 3ade 2370     		strb	r3, [r4, #0]
 10020 3ae0 3B48     		ldr	r0, .L355+12
 10021 3ae2 FFF7FEFF 		bl	uart_transmit
 10022              	.LVL902:
 10023              	.LBE1356:
 10024              	.LBB1357:
 10025 3ae6 F178     		ldrb	r1, [r6, #3]	@ zero_extendqisi2
 10026              	.LVL903:
 10027 3ae8 2B78     		ldrb	r3, [r5, #0]	@ zero_extendqisi2
 10028 3aea 2278     		ldrb	r2, [r4, #0]	@ zero_extendqisi2
 10029 3aec CB18     		adds	r3, r1, r3
 10030 3aee DBB2     		uxtb	r3, r3
 10031              	.LBE1357:
 10032              	.LBB1358:
 10033 3af0 3E4E     		ldr	r6, .L355+40
 10034              	.LBE1358:
 10035              	.LBB1359:
 10036 3af2 2B70     		strb	r3, [r5, #0]
 10037 3af4 9B18     		adds	r3, r3, r2
 10038 3af6 2370     		strb	r3, [r4, #0]
 10039 3af8 3548     		ldr	r0, .L355+12
 10040 3afa FFF7FEFF 		bl	uart_transmit
 10041              	.LVL904:
 10042              	.LBE1359:
 10043              	.LBB1360:
 10044 3afe 3178     		ldrb	r1, [r6, #0]	@ zero_extendqisi2
 10045              	.LVL905:
 10046 3b00 2B78     		ldrb	r3, [r5, #0]	@ zero_extendqisi2
 10047 3b02 2278     		ldrb	r2, [r4, #0]	@ zero_extendqisi2
 10048 3b04 CB18     		adds	r3, r1, r3
 10049 3b06 DBB2     		uxtb	r3, r3
 10050 3b08 2B70     		strb	r3, [r5, #0]
 10051 3b0a 9B18     		adds	r3, r3, r2
 10052 3b0c 2370     		strb	r3, [r4, #0]
 10053 3b0e 3048     		ldr	r0, .L355+12
 10054 3b10 FFF7FEFF 		bl	uart_transmit
 10055              	.LVL906:
 10056              	.LBE1360:
 10057              	.LBB1361:
 10058 3b14 7178     		ldrb	r1, [r6, #1]	@ zero_extendqisi2
 10059              	.LVL907:
 10060 3b16 2B78     		ldrb	r3, [r5, #0]	@ zero_extendqisi2
 10061 3b18 2278     		ldrb	r2, [r4, #0]	@ zero_extendqisi2
 10062 3b1a CB18     		adds	r3, r1, r3
 10063 3b1c DBB2     		uxtb	r3, r3
 10064 3b1e 2B70     		strb	r3, [r5, #0]
 10065 3b20 9B18     		adds	r3, r3, r2
 10066 3b22 2370     		strb	r3, [r4, #0]
 10067 3b24 2A48     		ldr	r0, .L355+12
 10068 3b26 FFF7FEFF 		bl	uart_transmit
 10069              	.LVL908:
 10070              	.LBE1361:
 10071              	.LBB1362:
 10072 3b2a B178     		ldrb	r1, [r6, #2]	@ zero_extendqisi2
 10073              	.LVL909:
 10074 3b2c 2B78     		ldrb	r3, [r5, #0]	@ zero_extendqisi2
 10075 3b2e 2278     		ldrb	r2, [r4, #0]	@ zero_extendqisi2
 10076 3b30 CB18     		adds	r3, r1, r3
 10077 3b32 DBB2     		uxtb	r3, r3
 10078 3b34 2B70     		strb	r3, [r5, #0]
 10079 3b36 9B18     		adds	r3, r3, r2
 10080 3b38 2370     		strb	r3, [r4, #0]
 10081 3b3a 2548     		ldr	r0, .L355+12
 10082 3b3c FFF7FEFF 		bl	uart_transmit
 10083              	.LVL910:
 10084              	.LBE1362:
 10085              	.LBB1363:
 10086 3b40 F178     		ldrb	r1, [r6, #3]	@ zero_extendqisi2
 10087              	.LVL911:
 10088 3b42 2B78     		ldrb	r3, [r5, #0]	@ zero_extendqisi2
 10089 3b44 2278     		ldrb	r2, [r4, #0]	@ zero_extendqisi2
 10090 3b46 CB18     		adds	r3, r1, r3
 10091 3b48 DBB2     		uxtb	r3, r3
 10092              	.LBE1363:
 10093              	.LBB1364:
 10094 3b4a 294E     		ldr	r6, .L355+44
 10095              	.LBE1364:
 10096              	.LBB1365:
 10097 3b4c 2B70     		strb	r3, [r5, #0]
 10098 3b4e 9B18     		adds	r3, r3, r2
 10099 3b50 2370     		strb	r3, [r4, #0]
 10100 3b52 1F48     		ldr	r0, .L355+12
 10101 3b54 FFF7FEFF 		bl	uart_transmit
 10102              	.LVL912:
 10103              	.LBE1365:
 10104              	.LBB1366:
 10105 3b58 3178     		ldrb	r1, [r6, #0]	@ zero_extendqisi2
 10106              	.LVL913:
 10107 3b5a 2B78     		ldrb	r3, [r5, #0]	@ zero_extendqisi2
 10108 3b5c 2278     		ldrb	r2, [r4, #0]	@ zero_extendqisi2
 10109 3b5e CB18     		adds	r3, r1, r3
 10110 3b60 DBB2     		uxtb	r3, r3
 10111 3b62 2B70     		strb	r3, [r5, #0]
 10112 3b64 9B18     		adds	r3, r3, r2
 10113 3b66 2370     		strb	r3, [r4, #0]
 10114 3b68 1948     		ldr	r0, .L355+12
 10115 3b6a FFF7FEFF 		bl	uart_transmit
 10116              	.LVL914:
 10117              	.LBE1366:
 10118              	.LBB1367:
 10119 3b6e 7178     		ldrb	r1, [r6, #1]	@ zero_extendqisi2
 10120              	.LVL915:
 10121 3b70 2B78     		ldrb	r3, [r5, #0]	@ zero_extendqisi2
 10122 3b72 2278     		ldrb	r2, [r4, #0]	@ zero_extendqisi2
 10123 3b74 CB18     		adds	r3, r1, r3
 10124 3b76 DBB2     		uxtb	r3, r3
 10125 3b78 2B70     		strb	r3, [r5, #0]
 10126 3b7a 9B18     		adds	r3, r3, r2
 10127 3b7c 2370     		strb	r3, [r4, #0]
 10128 3b7e 1448     		ldr	r0, .L355+12
 10129 3b80 FFF7FEFF 		bl	uart_transmit
 10130              	.LVL916:
 10131              	.LBE1367:
 10132              	.LBB1368:
 10133 3b84 B178     		ldrb	r1, [r6, #2]	@ zero_extendqisi2
 10134              	.LVL917:
 10135 3b86 2B78     		ldrb	r3, [r5, #0]	@ zero_extendqisi2
 10136 3b88 2278     		ldrb	r2, [r4, #0]	@ zero_extendqisi2
 10137 3b8a CB18     		adds	r3, r1, r3
 10138 3b8c DBB2     		uxtb	r3, r3
 10139 3b8e 2B70     		strb	r3, [r5, #0]
 10140 3b90 9B18     		adds	r3, r3, r2
 10141 3b92 2370     		strb	r3, [r4, #0]
 10142 3b94 0E48     		ldr	r0, .L355+12
 10143 3b96 FFF7FEFF 		bl	uart_transmit
 10144              	.LVL918:
 10145              	.LBE1368:
 10146              	.LBB1369:
 10147 3b9a F178     		ldrb	r1, [r6, #3]	@ zero_extendqisi2
 10148              	.LVL919:
 10149 3b9c 2B78     		ldrb	r3, [r5, #0]	@ zero_extendqisi2
 10150 3b9e 2278     		ldrb	r2, [r4, #0]	@ zero_extendqisi2
 10151 3ba0 CB18     		adds	r3, r1, r3
 10152 3ba2 DBB2     		uxtb	r3, r3
 10153 3ba4 2B70     		strb	r3, [r5, #0]
 10154 3ba6 9B18     		adds	r3, r3, r2
 10155 3ba8 2370     		strb	r3, [r4, #0]
 10156 3baa 0948     		ldr	r0, .L355+12
 10157 3bac FFF7FEFF 		bl	uart_transmit
 10158              	.LVL920:
 10159              	.LBE1369:
 10160 3bb0 2978     		ldrb	r1, [r5, #0]	@ zero_extendqisi2
 10161 3bb2 0748     		ldr	r0, .L355+12
 10162 3bb4 FFF7FEFF 		bl	uart_transmit
 10163 3bb8 0548     		ldr	r0, .L355+12
 10164 3bba 2178     		ldrb	r1, [r4, #0]	@ zero_extendqisi2
 10165 3bbc FFF7FEFF 		bl	uart_transmit
 10166 3bc0 1CE0     		b	.L202
 10167              	.L356:
 10168 3bc2 00BF     		.align	2
 10169              	.L355:
 10170 3bc4 00000000 		.word	downlink_nb_ovrn
 10171 3bc8 00000000 		.word	.LANCHOR44
 10172 3bcc 00000000 		.word	nav_in_segment
 10173 3bd0 00000000 		.word	uart2
 10174 3bd4 00000000 		.word	downlink_nb_bytes
 10175 3bd8 00000000 		.word	downlink_nb_msgs
 10176 3bdc 00000000 		.word	ck_a
 10177 3be0 00000000 		.word	ck_b
 10178 3be4 00000000 		.word	nav_segment_x_1
 10179 3be8 00000000 		.word	nav_segment_y_1
 10180 3bec 00000000 		.word	nav_segment_x_2
 10181 3bf0 00000000 		.word	nav_segment_y_2
 10182              	.LVL921:
 10183              	.L203:
 10184 3bf4 624B     		ldr	r3, .L357
 10185 3bf6 1A78     		ldrb	r2, [r3, #0]	@ zero_extendqisi2
 10186 3bf8 0132     		adds	r2, r2, #1
 10187 3bfa 1A70     		strb	r2, [r3, #0]
 10188              	.L202:
 10189 3bfc 614B     		ldr	r3, .L357+4
 10190 3bfe 1B78     		ldrb	r3, [r3, #0]	@ zero_extendqisi2
 10191 3c00 362B     		cmp	r3, #54
 10192 3c02 40F0D580 		bne	.L204
 10193 3c06 6048     		ldr	r0, .L357+8
 10194 3c08 1221     		movs	r1, #18
 10195 3c0a FFF7FEFF 		bl	uart_check_free_space
 10196 3c0e 0028     		cmp	r0, #0
 10197 3c10 00F0CA80 		beq	.L205
 10198 3c14 5D4B     		ldr	r3, .L357+12
 10199              	.LBB1370:
 10200 3c16 9921     		movs	r1, #153
 10201              	.LBE1370:
 10202 3c18 1A88     		ldrh	r2, [r3, #0]
 10203              	.LBB1371:
 10204 3c1a 5B48     		ldr	r0, .L357+8
 10205              	.LBE1371:
 10206 3c1c 1232     		adds	r2, r2, #18
 10207 3c1e 1A80     		strh	r2, [r3, #0]	@ movhi
 10208 3c20 5B4B     		ldr	r3, .L357+16
 10209              	.LBB1372:
 10210 3c22 5C4D     		ldr	r5, .L357+20
 10211              	.LBE1372:
 10212 3c24 1A88     		ldrh	r2, [r3, #0]
 10213              	.LBB1373:
 10214 3c26 5C4C     		ldr	r4, .L357+24
 10215              	.LBE1373:
 10216 3c28 0132     		adds	r2, r2, #1
 10217 3c2a 1A80     		strh	r2, [r3, #0]	@ movhi
 10218              	.LBB1374:
 10219 3c2c FFF7FEFF 		bl	uart_transmit
 10220 3c30 1221     		movs	r1, #18
 10221 3c32 5548     		ldr	r0, .L357+8
 10222 3c34 FFF7FEFF 		bl	uart_transmit
 10223              	.LBE1374:
 10224 3c38 1323     		movs	r3, #19
 10225 3c3a 2B70     		strb	r3, [r5, #0]
 10226 3c3c 1233     		adds	r3, r3, #18
 10227 3c3e 2370     		strb	r3, [r4, #0]
 10228 3c40 0121     		movs	r1, #1
 10229 3c42 5148     		ldr	r0, .L357+8
 10230 3c44 FFF7FEFF 		bl	uart_transmit
 10231 3c48 2B78     		ldrb	r3, [r5, #0]	@ zero_extendqisi2
 10232 3c4a 2278     		ldrb	r2, [r4, #0]	@ zero_extendqisi2
 10233 3c4c 0633     		adds	r3, r3, #6
 10234 3c4e DBB2     		uxtb	r3, r3
 10235              	.LBB1375:
 10236 3c50 524E     		ldr	r6, .L357+28
 10237              	.LVL922:
 10238              	.LBE1375:
 10239 3c52 2B70     		strb	r3, [r5, #0]
 10240 3c54 9B18     		adds	r3, r3, r2
 10241 3c56 2370     		strb	r3, [r4, #0]
 10242 3c58 0621     		movs	r1, #6
 10243 3c5a 4B48     		ldr	r0, .L357+8
 10244 3c5c FFF7FEFF 		bl	uart_transmit
 10245              	.LBB1376:
 10246 3c60 3178     		ldrb	r1, [r6, #0]	@ zero_extendqisi2
 10247              	.LVL923:
 10248 3c62 2B78     		ldrb	r3, [r5, #0]	@ zero_extendqisi2
 10249 3c64 2278     		ldrb	r2, [r4, #0]	@ zero_extendqisi2
 10250 3c66 CB18     		adds	r3, r1, r3
 10251 3c68 DBB2     		uxtb	r3, r3
 10252 3c6a 2B70     		strb	r3, [r5, #0]
 10253 3c6c 9B18     		adds	r3, r3, r2
 10254 3c6e 2370     		strb	r3, [r4, #0]
 10255 3c70 4548     		ldr	r0, .L357+8
 10256 3c72 FFF7FEFF 		bl	uart_transmit
 10257              	.LVL924:
 10258              	.LBE1376:
 10259              	.LBB1377:
 10260 3c76 7178     		ldrb	r1, [r6, #1]	@ zero_extendqisi2
 10261              	.LVL925:
 10262 3c78 2B78     		ldrb	r3, [r5, #0]	@ zero_extendqisi2
 10263 3c7a 2278     		ldrb	r2, [r4, #0]	@ zero_extendqisi2
 10264 3c7c CB18     		adds	r3, r1, r3
 10265 3c7e DBB2     		uxtb	r3, r3
 10266 3c80 2B70     		strb	r3, [r5, #0]
 10267 3c82 9B18     		adds	r3, r3, r2
 10268 3c84 2370     		strb	r3, [r4, #0]
 10269 3c86 4048     		ldr	r0, .L357+8
 10270 3c88 FFF7FEFF 		bl	uart_transmit
 10271              	.LVL926:
 10272              	.LBE1377:
 10273              	.LBB1378:
 10274 3c8c B178     		ldrb	r1, [r6, #2]	@ zero_extendqisi2
 10275              	.LVL927:
 10276 3c8e 2B78     		ldrb	r3, [r5, #0]	@ zero_extendqisi2
 10277 3c90 2278     		ldrb	r2, [r4, #0]	@ zero_extendqisi2
 10278 3c92 CB18     		adds	r3, r1, r3
 10279 3c94 DBB2     		uxtb	r3, r3
 10280 3c96 2B70     		strb	r3, [r5, #0]
 10281 3c98 9B18     		adds	r3, r3, r2
 10282 3c9a 2370     		strb	r3, [r4, #0]
 10283 3c9c 3A48     		ldr	r0, .L357+8
 10284 3c9e FFF7FEFF 		bl	uart_transmit
 10285              	.LVL928:
 10286              	.LBE1378:
 10287              	.LBB1379:
 10288 3ca2 F178     		ldrb	r1, [r6, #3]	@ zero_extendqisi2
 10289              	.LVL929:
 10290 3ca4 2B78     		ldrb	r3, [r5, #0]	@ zero_extendqisi2
 10291 3ca6 2278     		ldrb	r2, [r4, #0]	@ zero_extendqisi2
 10292 3ca8 CB18     		adds	r3, r1, r3
 10293 3caa DBB2     		uxtb	r3, r3
 10294              	.LBE1379:
 10295              	.LBB1380:
 10296 3cac 3C4E     		ldr	r6, .L357+32
 10297              	.LBE1380:
 10298              	.LBB1381:
 10299 3cae 2B70     		strb	r3, [r5, #0]
 10300 3cb0 9B18     		adds	r3, r3, r2
 10301 3cb2 2370     		strb	r3, [r4, #0]
 10302 3cb4 3448     		ldr	r0, .L357+8
 10303 3cb6 FFF7FEFF 		bl	uart_transmit
 10304              	.LVL930:
 10305              	.LBE1381:
 10306              	.LBB1382:
 10307 3cba 3178     		ldrb	r1, [r6, #0]	@ zero_extendqisi2
 10308              	.LVL931:
 10309 3cbc 2B78     		ldrb	r3, [r5, #0]	@ zero_extendqisi2
 10310 3cbe 2278     		ldrb	r2, [r4, #0]	@ zero_extendqisi2
 10311 3cc0 CB18     		adds	r3, r1, r3
 10312 3cc2 DBB2     		uxtb	r3, r3
 10313 3cc4 2B70     		strb	r3, [r5, #0]
 10314 3cc6 9B18     		adds	r3, r3, r2
 10315 3cc8 2370     		strb	r3, [r4, #0]
 10316 3cca 2F48     		ldr	r0, .L357+8
 10317 3ccc FFF7FEFF 		bl	uart_transmit
 10318              	.LVL932:
 10319              	.LBE1382:
 10320              	.LBB1383:
 10321 3cd0 7178     		ldrb	r1, [r6, #1]	@ zero_extendqisi2
 10322              	.LVL933:
 10323 3cd2 2B78     		ldrb	r3, [r5, #0]	@ zero_extendqisi2
 10324 3cd4 2278     		ldrb	r2, [r4, #0]	@ zero_extendqisi2
 10325 3cd6 CB18     		adds	r3, r1, r3
 10326 3cd8 DBB2     		uxtb	r3, r3
 10327 3cda 2B70     		strb	r3, [r5, #0]
 10328 3cdc 9B18     		adds	r3, r3, r2
 10329 3cde 2370     		strb	r3, [r4, #0]
 10330 3ce0 2948     		ldr	r0, .L357+8
 10331 3ce2 FFF7FEFF 		bl	uart_transmit
 10332              	.LVL934:
 10333              	.LBE1383:
 10334              	.LBB1384:
 10335 3ce6 B178     		ldrb	r1, [r6, #2]	@ zero_extendqisi2
 10336              	.LVL935:
 10337 3ce8 2B78     		ldrb	r3, [r5, #0]	@ zero_extendqisi2
 10338 3cea 2278     		ldrb	r2, [r4, #0]	@ zero_extendqisi2
 10339 3cec CB18     		adds	r3, r1, r3
 10340 3cee DBB2     		uxtb	r3, r3
 10341 3cf0 2B70     		strb	r3, [r5, #0]
 10342 3cf2 9B18     		adds	r3, r3, r2
 10343 3cf4 2370     		strb	r3, [r4, #0]
 10344 3cf6 2448     		ldr	r0, .L357+8
 10345 3cf8 FFF7FEFF 		bl	uart_transmit
 10346              	.LVL936:
 10347              	.LBE1384:
 10348              	.LBB1385:
 10349 3cfc F178     		ldrb	r1, [r6, #3]	@ zero_extendqisi2
 10350              	.LVL937:
 10351 3cfe 2B78     		ldrb	r3, [r5, #0]	@ zero_extendqisi2
 10352 3d00 2278     		ldrb	r2, [r4, #0]	@ zero_extendqisi2
 10353 3d02 CB18     		adds	r3, r1, r3
 10354 3d04 DBB2     		uxtb	r3, r3
 10355              	.LBE1385:
 10356              	.LBB1386:
 10357 3d06 274E     		ldr	r6, .L357+36
 10358              	.LBE1386:
 10359              	.LBB1387:
 10360 3d08 2B70     		strb	r3, [r5, #0]
 10361 3d0a 9B18     		adds	r3, r3, r2
 10362 3d0c 2370     		strb	r3, [r4, #0]
 10363 3d0e 1E48     		ldr	r0, .L357+8
 10364 3d10 FFF7FEFF 		bl	uart_transmit
 10365              	.LVL938:
 10366              	.LBE1387:
 10367              	.LBB1388:
 10368 3d14 3178     		ldrb	r1, [r6, #0]	@ zero_extendqisi2
 10369              	.LVL939:
 10370 3d16 2B78     		ldrb	r3, [r5, #0]	@ zero_extendqisi2
 10371 3d18 2278     		ldrb	r2, [r4, #0]	@ zero_extendqisi2
 10372 3d1a CB18     		adds	r3, r1, r3
 10373 3d1c DBB2     		uxtb	r3, r3
 10374 3d1e 2B70     		strb	r3, [r5, #0]
 10375 3d20 9B18     		adds	r3, r3, r2
 10376 3d22 2370     		strb	r3, [r4, #0]
 10377 3d24 1848     		ldr	r0, .L357+8
 10378 3d26 FFF7FEFF 		bl	uart_transmit
 10379              	.LVL940:
 10380              	.LBE1388:
 10381              	.LBB1389:
 10382 3d2a 7178     		ldrb	r1, [r6, #1]	@ zero_extendqisi2
 10383              	.LVL941:
 10384 3d2c 2B78     		ldrb	r3, [r5, #0]	@ zero_extendqisi2
 10385 3d2e 2278     		ldrb	r2, [r4, #0]	@ zero_extendqisi2
 10386 3d30 CB18     		adds	r3, r1, r3
 10387 3d32 DBB2     		uxtb	r3, r3
 10388 3d34 2B70     		strb	r3, [r5, #0]
 10389 3d36 9B18     		adds	r3, r3, r2
 10390 3d38 2370     		strb	r3, [r4, #0]
 10391 3d3a 1348     		ldr	r0, .L357+8
 10392 3d3c FFF7FEFF 		bl	uart_transmit
 10393              	.LVL942:
 10394              	.LBE1389:
 10395              	.LBB1390:
 10396 3d40 B178     		ldrb	r1, [r6, #2]	@ zero_extendqisi2
 10397              	.LVL943:
 10398 3d42 2B78     		ldrb	r3, [r5, #0]	@ zero_extendqisi2
 10399 3d44 2278     		ldrb	r2, [r4, #0]	@ zero_extendqisi2
 10400 3d46 CB18     		adds	r3, r1, r3
 10401 3d48 DBB2     		uxtb	r3, r3
 10402 3d4a 2B70     		strb	r3, [r5, #0]
 10403 3d4c 9B18     		adds	r3, r3, r2
 10404 3d4e 2370     		strb	r3, [r4, #0]
 10405 3d50 0D48     		ldr	r0, .L357+8
 10406 3d52 FFF7FEFF 		bl	uart_transmit
 10407              	.LVL944:
 10408              	.LBE1390:
 10409              	.LBB1391:
 10410 3d56 F178     		ldrb	r1, [r6, #3]	@ zero_extendqisi2
 10411              	.LVL945:
 10412 3d58 2B78     		ldrb	r3, [r5, #0]	@ zero_extendqisi2
 10413 3d5a 2278     		ldrb	r2, [r4, #0]	@ zero_extendqisi2
 10414 3d5c CB18     		adds	r3, r1, r3
 10415 3d5e DBB2     		uxtb	r3, r3
 10416 3d60 2B70     		strb	r3, [r5, #0]
 10417 3d62 9B18     		adds	r3, r3, r2
 10418 3d64 2370     		strb	r3, [r4, #0]
 10419 3d66 0848     		ldr	r0, .L357+8
 10420 3d68 FFF7FEFF 		bl	uart_transmit
 10421              	.LVL946:
 10422              	.LBE1391:
 10423 3d6c 2978     		ldrb	r1, [r5, #0]	@ zero_extendqisi2
 10424 3d6e 0648     		ldr	r0, .L357+8
 10425 3d70 FFF7FEFF 		bl	uart_transmit
 10426 3d74 0448     		ldr	r0, .L357+8
 10427 3d76 2178     		ldrb	r1, [r4, #0]	@ zero_extendqisi2
 10428 3d78 FFF7FEFF 		bl	uart_transmit
 10429 3d7c 18E0     		b	.L204
 10430              	.L358:
 10431 3d7e 00BF     		.align	2
 10432              	.L357:
 10433 3d80 00000000 		.word	downlink_nb_ovrn
 10434 3d84 00000000 		.word	.LANCHOR45
 10435 3d88 00000000 		.word	uart2
 10436 3d8c 00000000 		.word	downlink_nb_bytes
 10437 3d90 00000000 		.word	downlink_nb_msgs
 10438 3d94 00000000 		.word	ck_a
 10439 3d98 00000000 		.word	ck_b
 10440 3d9c 00000000 		.word	estimator_phi
 10441 3da0 00000000 		.word	estimator_psi
 10442 3da4 00000000 		.word	estimator_theta
 10443              	.LVL947:
 10444              	.L205:
 10445 3da8 9C4B     		ldr	r3, .L359
 10446 3daa 1A78     		ldrb	r2, [r3, #0]	@ zero_extendqisi2
 10447 3dac 0132     		adds	r2, r2, #1
 10448 3dae 1A70     		strb	r2, [r3, #0]
 10449              	.L204:
 10450 3db0 9B4B     		ldr	r3, .L359+4
 10451 3db2 1B78     		ldrb	r3, [r3, #0]	@ zero_extendqisi2
 10452 3db4 3C2B     		cmp	r3, #60
 10453 3db6 40F09081 		bne	.L206
 10454 3dba 9A48     		ldr	r0, .L359+8
 10455 3dbc 2221     		movs	r1, #34
 10456 3dbe FFF7FEFF 		bl	uart_check_free_space
 10457 3dc2 0028     		cmp	r0, #0
 10458 3dc4 00F08581 		beq	.L207
 10459 3dc8 974B     		ldr	r3, .L359+12
 10460              	.LBB1392:
 10461 3dca 9921     		movs	r1, #153
 10462              	.LBE1392:
 10463 3dcc 1A88     		ldrh	r2, [r3, #0]
 10464              	.LBB1393:
 10465 3dce 9548     		ldr	r0, .L359+8
 10466              	.LBE1393:
 10467 3dd0 2232     		adds	r2, r2, #34
 10468 3dd2 1A80     		strh	r2, [r3, #0]	@ movhi
 10469 3dd4 954B     		ldr	r3, .L359+16
 10470              	.LBB1394:
 10471 3dd6 964D     		ldr	r5, .L359+20
 10472              	.LBE1394:
 10473 3dd8 1A88     		ldrh	r2, [r3, #0]
 10474              	.LBB1395:
 10475 3dda 964C     		ldr	r4, .L359+24
 10476              	.LBE1395:
 10477 3ddc 0132     		adds	r2, r2, #1
 10478 3dde 1A80     		strh	r2, [r3, #0]	@ movhi
 10479              	.LBB1396:
 10480 3de0 FFF7FEFF 		bl	uart_transmit
 10481 3de4 2221     		movs	r1, #34
 10482 3de6 8F48     		ldr	r0, .L359+8
 10483 3de8 FFF7FEFF 		bl	uart_transmit
 10484              	.LBE1396:
 10485 3dec 2323     		movs	r3, #35
 10486 3dee 2B70     		strb	r3, [r5, #0]
 10487 3df0 2233     		adds	r3, r3, #34
 10488 3df2 2370     		strb	r3, [r4, #0]
 10489 3df4 0121     		movs	r1, #1
 10490 3df6 8B48     		ldr	r0, .L359+8
 10491 3df8 FFF7FEFF 		bl	uart_transmit
 10492 3dfc 2B78     		ldrb	r3, [r5, #0]	@ zero_extendqisi2
 10493 3dfe 2278     		ldrb	r2, [r4, #0]	@ zero_extendqisi2
 10494 3e00 1033     		adds	r3, r3, #16
 10495 3e02 DBB2     		uxtb	r3, r3
 10496              	.LBB1397:
 10497 3e04 8C4E     		ldr	r6, .L359+28
 10498              	.LVL948:
 10499              	.LBE1397:
 10500 3e06 2B70     		strb	r3, [r5, #0]
 10501 3e08 9B18     		adds	r3, r3, r2
 10502 3e0a 2370     		strb	r3, [r4, #0]
 10503 3e0c 1021     		movs	r1, #16
 10504 3e0e 8548     		ldr	r0, .L359+8
 10505 3e10 FFF7FEFF 		bl	uart_transmit
 10506              	.LBB1398:
 10507 3e14 3178     		ldrb	r1, [r6, #0]	@ zero_extendqisi2
 10508              	.LVL949:
 10509 3e16 2B78     		ldrb	r3, [r5, #0]	@ zero_extendqisi2
 10510 3e18 2278     		ldrb	r2, [r4, #0]	@ zero_extendqisi2
 10511 3e1a CB18     		adds	r3, r1, r3
 10512 3e1c DBB2     		uxtb	r3, r3
 10513 3e1e 2B70     		strb	r3, [r5, #0]
 10514 3e20 9B18     		adds	r3, r3, r2
 10515 3e22 2370     		strb	r3, [r4, #0]
 10516 3e24 7F48     		ldr	r0, .L359+8
 10517 3e26 FFF7FEFF 		bl	uart_transmit
 10518              	.LVL950:
 10519              	.LBE1398:
 10520              	.LBB1399:
 10521 3e2a 7178     		ldrb	r1, [r6, #1]	@ zero_extendqisi2
 10522              	.LVL951:
 10523 3e2c 2B78     		ldrb	r3, [r5, #0]	@ zero_extendqisi2
 10524 3e2e 2278     		ldrb	r2, [r4, #0]	@ zero_extendqisi2
 10525 3e30 CB18     		adds	r3, r1, r3
 10526 3e32 DBB2     		uxtb	r3, r3
 10527 3e34 2B70     		strb	r3, [r5, #0]
 10528 3e36 9B18     		adds	r3, r3, r2
 10529 3e38 2370     		strb	r3, [r4, #0]
 10530 3e3a 7A48     		ldr	r0, .L359+8
 10531 3e3c FFF7FEFF 		bl	uart_transmit
 10532              	.LVL952:
 10533              	.LBE1399:
 10534              	.LBB1400:
 10535 3e40 B178     		ldrb	r1, [r6, #2]	@ zero_extendqisi2
 10536              	.LVL953:
 10537 3e42 2B78     		ldrb	r3, [r5, #0]	@ zero_extendqisi2
 10538 3e44 2278     		ldrb	r2, [r4, #0]	@ zero_extendqisi2
 10539 3e46 CB18     		adds	r3, r1, r3
 10540 3e48 DBB2     		uxtb	r3, r3
 10541 3e4a 2B70     		strb	r3, [r5, #0]
 10542 3e4c 9B18     		adds	r3, r3, r2
 10543 3e4e 2370     		strb	r3, [r4, #0]
 10544 3e50 7448     		ldr	r0, .L359+8
 10545 3e52 FFF7FEFF 		bl	uart_transmit
 10546              	.LVL954:
 10547              	.LBE1400:
 10548              	.LBB1401:
 10549 3e56 F178     		ldrb	r1, [r6, #3]	@ zero_extendqisi2
 10550              	.LVL955:
 10551 3e58 2B78     		ldrb	r3, [r5, #0]	@ zero_extendqisi2
 10552 3e5a 2278     		ldrb	r2, [r4, #0]	@ zero_extendqisi2
 10553 3e5c CB18     		adds	r3, r1, r3
 10554 3e5e DBB2     		uxtb	r3, r3
 10555              	.LBE1401:
 10556              	.LBB1402:
 10557 3e60 764E     		ldr	r6, .L359+32
 10558              	.LBE1402:
 10559              	.LBB1403:
 10560 3e62 2B70     		strb	r3, [r5, #0]
 10561 3e64 9B18     		adds	r3, r3, r2
 10562 3e66 2370     		strb	r3, [r4, #0]
 10563 3e68 6E48     		ldr	r0, .L359+8
 10564 3e6a FFF7FEFF 		bl	uart_transmit
 10565              	.LVL956:
 10566              	.LBE1403:
 10567              	.LBB1404:
 10568 3e6e 3178     		ldrb	r1, [r6, #0]	@ zero_extendqisi2
 10569              	.LVL957:
 10570 3e70 2B78     		ldrb	r3, [r5, #0]	@ zero_extendqisi2
 10571 3e72 2278     		ldrb	r2, [r4, #0]	@ zero_extendqisi2
 10572 3e74 CB18     		adds	r3, r1, r3
 10573 3e76 DBB2     		uxtb	r3, r3
 10574 3e78 2B70     		strb	r3, [r5, #0]
 10575 3e7a 9B18     		adds	r3, r3, r2
 10576 3e7c 2370     		strb	r3, [r4, #0]
 10577 3e7e 6948     		ldr	r0, .L359+8
 10578 3e80 FFF7FEFF 		bl	uart_transmit
 10579              	.LVL958:
 10580              	.LBE1404:
 10581              	.LBB1405:
 10582 3e84 7178     		ldrb	r1, [r6, #1]	@ zero_extendqisi2
 10583              	.LVL959:
 10584 3e86 2B78     		ldrb	r3, [r5, #0]	@ zero_extendqisi2
 10585 3e88 2278     		ldrb	r2, [r4, #0]	@ zero_extendqisi2
 10586 3e8a CB18     		adds	r3, r1, r3
 10587 3e8c DBB2     		uxtb	r3, r3
 10588 3e8e 2B70     		strb	r3, [r5, #0]
 10589 3e90 9B18     		adds	r3, r3, r2
 10590 3e92 2370     		strb	r3, [r4, #0]
 10591 3e94 6348     		ldr	r0, .L359+8
 10592 3e96 FFF7FEFF 		bl	uart_transmit
 10593              	.LVL960:
 10594              	.LBE1405:
 10595              	.LBB1406:
 10596 3e9a B178     		ldrb	r1, [r6, #2]	@ zero_extendqisi2
 10597              	.LVL961:
 10598 3e9c 2B78     		ldrb	r3, [r5, #0]	@ zero_extendqisi2
 10599 3e9e 2278     		ldrb	r2, [r4, #0]	@ zero_extendqisi2
 10600 3ea0 CB18     		adds	r3, r1, r3
 10601 3ea2 DBB2     		uxtb	r3, r3
 10602 3ea4 2B70     		strb	r3, [r5, #0]
 10603 3ea6 9B18     		adds	r3, r3, r2
 10604 3ea8 2370     		strb	r3, [r4, #0]
 10605 3eaa 5E48     		ldr	r0, .L359+8
 10606 3eac FFF7FEFF 		bl	uart_transmit
 10607              	.LVL962:
 10608              	.LBE1406:
 10609              	.LBB1407:
 10610 3eb0 F178     		ldrb	r1, [r6, #3]	@ zero_extendqisi2
 10611              	.LVL963:
 10612 3eb2 2B78     		ldrb	r3, [r5, #0]	@ zero_extendqisi2
 10613 3eb4 2278     		ldrb	r2, [r4, #0]	@ zero_extendqisi2
 10614 3eb6 CB18     		adds	r3, r1, r3
 10615 3eb8 DBB2     		uxtb	r3, r3
 10616              	.LBE1407:
 10617              	.LBB1408:
 10618 3eba 614E     		ldr	r6, .L359+36
 10619              	.LBE1408:
 10620              	.LBB1409:
 10621 3ebc 2B70     		strb	r3, [r5, #0]
 10622 3ebe 9B18     		adds	r3, r3, r2
 10623 3ec0 2370     		strb	r3, [r4, #0]
 10624 3ec2 5848     		ldr	r0, .L359+8
 10625 3ec4 FFF7FEFF 		bl	uart_transmit
 10626              	.LVL964:
 10627              	.LBE1409:
 10628              	.LBB1410:
 10629 3ec8 3178     		ldrb	r1, [r6, #0]	@ zero_extendqisi2
 10630              	.LVL965:
 10631 3eca 2B78     		ldrb	r3, [r5, #0]	@ zero_extendqisi2
 10632 3ecc 2278     		ldrb	r2, [r4, #0]	@ zero_extendqisi2
 10633 3ece CB18     		adds	r3, r1, r3
 10634 3ed0 DBB2     		uxtb	r3, r3
 10635 3ed2 2B70     		strb	r3, [r5, #0]
 10636 3ed4 9B18     		adds	r3, r3, r2
 10637 3ed6 2370     		strb	r3, [r4, #0]
 10638 3ed8 5248     		ldr	r0, .L359+8
 10639 3eda FFF7FEFF 		bl	uart_transmit
 10640              	.LVL966:
 10641              	.LBE1410:
 10642              	.LBB1411:
 10643 3ede 7178     		ldrb	r1, [r6, #1]	@ zero_extendqisi2
 10644              	.LVL967:
 10645 3ee0 2B78     		ldrb	r3, [r5, #0]	@ zero_extendqisi2
 10646 3ee2 2278     		ldrb	r2, [r4, #0]	@ zero_extendqisi2
 10647 3ee4 CB18     		adds	r3, r1, r3
 10648 3ee6 DBB2     		uxtb	r3, r3
 10649 3ee8 2B70     		strb	r3, [r5, #0]
 10650 3eea 9B18     		adds	r3, r3, r2
 10651 3eec 2370     		strb	r3, [r4, #0]
 10652 3eee 4D48     		ldr	r0, .L359+8
 10653 3ef0 FFF7FEFF 		bl	uart_transmit
 10654              	.LVL968:
 10655              	.LBE1411:
 10656              	.LBB1412:
 10657 3ef4 B178     		ldrb	r1, [r6, #2]	@ zero_extendqisi2
 10658              	.LVL969:
 10659 3ef6 2B78     		ldrb	r3, [r5, #0]	@ zero_extendqisi2
 10660 3ef8 2278     		ldrb	r2, [r4, #0]	@ zero_extendqisi2
 10661 3efa CB18     		adds	r3, r1, r3
 10662 3efc DBB2     		uxtb	r3, r3
 10663 3efe 2B70     		strb	r3, [r5, #0]
 10664 3f00 9B18     		adds	r3, r3, r2
 10665 3f02 2370     		strb	r3, [r4, #0]
 10666 3f04 4748     		ldr	r0, .L359+8
 10667 3f06 FFF7FEFF 		bl	uart_transmit
 10668              	.LVL970:
 10669              	.LBE1412:
 10670              	.LBB1413:
 10671 3f0a F178     		ldrb	r1, [r6, #3]	@ zero_extendqisi2
 10672              	.LVL971:
 10673 3f0c 2B78     		ldrb	r3, [r5, #0]	@ zero_extendqisi2
 10674 3f0e 2278     		ldrb	r2, [r4, #0]	@ zero_extendqisi2
 10675 3f10 CB18     		adds	r3, r1, r3
 10676 3f12 DBB2     		uxtb	r3, r3
 10677              	.LBE1413:
 10678              	.LBB1414:
 10679 3f14 4B4E     		ldr	r6, .L359+40
 10680              	.LBE1414:
 10681              	.LBB1415:
 10682 3f16 2B70     		strb	r3, [r5, #0]
 10683 3f18 9B18     		adds	r3, r3, r2
 10684 3f1a 2370     		strb	r3, [r4, #0]
 10685 3f1c 4148     		ldr	r0, .L359+8
 10686 3f1e FFF7FEFF 		bl	uart_transmit
 10687              	.LVL972:
 10688              	.LBE1415:
 10689              	.LBB1416:
 10690 3f22 3178     		ldrb	r1, [r6, #0]	@ zero_extendqisi2
 10691              	.LVL973:
 10692 3f24 2B78     		ldrb	r3, [r5, #0]	@ zero_extendqisi2
 10693 3f26 2278     		ldrb	r2, [r4, #0]	@ zero_extendqisi2
 10694 3f28 CB18     		adds	r3, r1, r3
 10695 3f2a DBB2     		uxtb	r3, r3
 10696 3f2c 2B70     		strb	r3, [r5, #0]
 10697 3f2e 9B18     		adds	r3, r3, r2
 10698 3f30 2370     		strb	r3, [r4, #0]
 10699 3f32 3C48     		ldr	r0, .L359+8
 10700 3f34 FFF7FEFF 		bl	uart_transmit
 10701              	.LVL974:
 10702              	.LBE1416:
 10703              	.LBB1417:
 10704 3f38 7178     		ldrb	r1, [r6, #1]	@ zero_extendqisi2
 10705              	.LVL975:
 10706 3f3a 2B78     		ldrb	r3, [r5, #0]	@ zero_extendqisi2
 10707 3f3c 2278     		ldrb	r2, [r4, #0]	@ zero_extendqisi2
 10708 3f3e CB18     		adds	r3, r1, r3
 10709 3f40 DBB2     		uxtb	r3, r3
 10710 3f42 2B70     		strb	r3, [r5, #0]
 10711 3f44 9B18     		adds	r3, r3, r2
 10712 3f46 2370     		strb	r3, [r4, #0]
 10713 3f48 3648     		ldr	r0, .L359+8
 10714 3f4a FFF7FEFF 		bl	uart_transmit
 10715              	.LVL976:
 10716              	.LBE1417:
 10717              	.LBB1418:
 10718 3f4e B178     		ldrb	r1, [r6, #2]	@ zero_extendqisi2
 10719              	.LVL977:
 10720 3f50 2B78     		ldrb	r3, [r5, #0]	@ zero_extendqisi2
 10721 3f52 2278     		ldrb	r2, [r4, #0]	@ zero_extendqisi2
 10722 3f54 CB18     		adds	r3, r1, r3
 10723 3f56 DBB2     		uxtb	r3, r3
 10724 3f58 2B70     		strb	r3, [r5, #0]
 10725 3f5a 9B18     		adds	r3, r3, r2
 10726 3f5c 2370     		strb	r3, [r4, #0]
 10727 3f5e 3148     		ldr	r0, .L359+8
 10728 3f60 FFF7FEFF 		bl	uart_transmit
 10729              	.LVL978:
 10730              	.LBE1418:
 10731              	.LBB1419:
 10732 3f64 F178     		ldrb	r1, [r6, #3]	@ zero_extendqisi2
 10733              	.LVL979:
 10734 3f66 2B78     		ldrb	r3, [r5, #0]	@ zero_extendqisi2
 10735 3f68 2278     		ldrb	r2, [r4, #0]	@ zero_extendqisi2
 10736 3f6a CB18     		adds	r3, r1, r3
 10737 3f6c DBB2     		uxtb	r3, r3
 10738              	.LBE1419:
 10739              	.LBB1420:
 10740 3f6e 364E     		ldr	r6, .L359+44
 10741              	.LBE1420:
 10742              	.LBB1421:
 10743 3f70 2B70     		strb	r3, [r5, #0]
 10744 3f72 9B18     		adds	r3, r3, r2
 10745 3f74 2370     		strb	r3, [r4, #0]
 10746 3f76 2B48     		ldr	r0, .L359+8
 10747 3f78 FFF7FEFF 		bl	uart_transmit
 10748              	.LVL980:
 10749              	.LBE1421:
 10750              	.LBB1422:
 10751 3f7c 3178     		ldrb	r1, [r6, #0]	@ zero_extendqisi2
 10752              	.LVL981:
 10753 3f7e 2B78     		ldrb	r3, [r5, #0]	@ zero_extendqisi2
 10754 3f80 2278     		ldrb	r2, [r4, #0]	@ zero_extendqisi2
 10755 3f82 CB18     		adds	r3, r1, r3
 10756 3f84 DBB2     		uxtb	r3, r3
 10757 3f86 2B70     		strb	r3, [r5, #0]
 10758 3f88 9B18     		adds	r3, r3, r2
 10759 3f8a 2370     		strb	r3, [r4, #0]
 10760 3f8c 2548     		ldr	r0, .L359+8
 10761 3f8e FFF7FEFF 		bl	uart_transmit
 10762              	.LVL982:
 10763              	.LBE1422:
 10764              	.LBB1423:
 10765 3f92 7178     		ldrb	r1, [r6, #1]	@ zero_extendqisi2
 10766              	.LVL983:
 10767 3f94 2B78     		ldrb	r3, [r5, #0]	@ zero_extendqisi2
 10768 3f96 2278     		ldrb	r2, [r4, #0]	@ zero_extendqisi2
 10769 3f98 CB18     		adds	r3, r1, r3
 10770 3f9a DBB2     		uxtb	r3, r3
 10771 3f9c 2B70     		strb	r3, [r5, #0]
 10772 3f9e 9B18     		adds	r3, r3, r2
 10773 3fa0 2370     		strb	r3, [r4, #0]
 10774 3fa2 2048     		ldr	r0, .L359+8
 10775 3fa4 FFF7FEFF 		bl	uart_transmit
 10776              	.LVL984:
 10777              	.LBE1423:
 10778              	.LBB1424:
 10779 3fa8 B178     		ldrb	r1, [r6, #2]	@ zero_extendqisi2
 10780              	.LVL985:
 10781 3faa 2B78     		ldrb	r3, [r5, #0]	@ zero_extendqisi2
 10782 3fac 2278     		ldrb	r2, [r4, #0]	@ zero_extendqisi2
 10783 3fae CB18     		adds	r3, r1, r3
 10784 3fb0 DBB2     		uxtb	r3, r3
 10785 3fb2 2B70     		strb	r3, [r5, #0]
 10786 3fb4 9B18     		adds	r3, r3, r2
 10787 3fb6 2370     		strb	r3, [r4, #0]
 10788 3fb8 1A48     		ldr	r0, .L359+8
 10789 3fba FFF7FEFF 		bl	uart_transmit
 10790              	.LVL986:
 10791              	.LBE1424:
 10792              	.LBB1425:
 10793 3fbe F178     		ldrb	r1, [r6, #3]	@ zero_extendqisi2
 10794              	.LVL987:
 10795 3fc0 2B78     		ldrb	r3, [r5, #0]	@ zero_extendqisi2
 10796 3fc2 2278     		ldrb	r2, [r4, #0]	@ zero_extendqisi2
 10797 3fc4 CB18     		adds	r3, r1, r3
 10798 3fc6 DBB2     		uxtb	r3, r3
 10799              	.LBE1425:
 10800              	.LBB1426:
 10801 3fc8 204E     		ldr	r6, .L359+48
 10802              	.LBE1426:
 10803              	.LBB1427:
 10804 3fca 2B70     		strb	r3, [r5, #0]
 10805 3fcc 9B18     		adds	r3, r3, r2
 10806 3fce 2370     		strb	r3, [r4, #0]
 10807 3fd0 1448     		ldr	r0, .L359+8
 10808 3fd2 FFF7FEFF 		bl	uart_transmit
 10809              	.LVL988:
 10810              	.LBE1427:
 10811              	.LBB1428:
 10812 3fd6 3178     		ldrb	r1, [r6, #0]	@ zero_extendqisi2
 10813              	.LVL989:
 10814 3fd8 2B78     		ldrb	r3, [r5, #0]	@ zero_extendqisi2
 10815 3fda 2278     		ldrb	r2, [r4, #0]	@ zero_extendqisi2
 10816 3fdc CB18     		adds	r3, r1, r3
 10817 3fde DBB2     		uxtb	r3, r3
 10818 3fe0 2B70     		strb	r3, [r5, #0]
 10819 3fe2 9B18     		adds	r3, r3, r2
 10820 3fe4 2370     		strb	r3, [r4, #0]
 10821 3fe6 0F48     		ldr	r0, .L359+8
 10822 3fe8 FFF7FEFF 		bl	uart_transmit
 10823              	.LVL990:
 10824              	.LBE1428:
 10825              	.LBB1429:
 10826 3fec 7178     		ldrb	r1, [r6, #1]	@ zero_extendqisi2
 10827              	.LVL991:
 10828 3fee 2B78     		ldrb	r3, [r5, #0]	@ zero_extendqisi2
 10829 3ff0 2278     		ldrb	r2, [r4, #0]	@ zero_extendqisi2
 10830 3ff2 CB18     		adds	r3, r1, r3
 10831 3ff4 DBB2     		uxtb	r3, r3
 10832 3ff6 2B70     		strb	r3, [r5, #0]
 10833 3ff8 9B18     		adds	r3, r3, r2
 10834 3ffa 2370     		strb	r3, [r4, #0]
 10835 3ffc 0948     		ldr	r0, .L359+8
 10836 3ffe FFF7FEFF 		bl	uart_transmit
 10837              	.LVL992:
 10838              	.LBE1429:
 10839              	.LBB1430:
 10840 4002 B178     		ldrb	r1, [r6, #2]	@ zero_extendqisi2
 10841              	.LVL993:
 10842 4004 2B78     		ldrb	r3, [r5, #0]	@ zero_extendqisi2
 10843 4006 2278     		ldrb	r2, [r4, #0]	@ zero_extendqisi2
 10844 4008 CB18     		adds	r3, r1, r3
 10845 400a DBB2     		uxtb	r3, r3
 10846 400c 2B70     		strb	r3, [r5, #0]
 10847 400e 9B18     		adds	r3, r3, r2
 10848 4010 2370     		strb	r3, [r4, #0]
 10849 4012 0448     		ldr	r0, .L359+8
 10850 4014 FFF7FEFF 		bl	uart_transmit
 10851 4018 1AE0     		b	.L360
 10852              	.L361:
 10853 401a 00BF     		.align	2
 10854              	.L359:
 10855 401c 00000000 		.word	downlink_nb_ovrn
 10856 4020 00000000 		.word	.LANCHOR46
 10857 4024 00000000 		.word	uart2
 10858 4028 00000000 		.word	downlink_nb_bytes
 10859 402c 00000000 		.word	downlink_nb_msgs
 10860 4030 00000000 		.word	ck_a
 10861 4034 00000000 		.word	ck_b
 10862 4038 00000000 		.word	h_ctl_roll_setpoint
 10863 403c 00000000 		.word	h_ctl_pitch_loop_setpoint
 10864 4040 00000000 		.word	h_ctl_course_setpoint
 10865 4044 00000000 		.word	desired_x
 10866 4048 00000000 		.word	desired_y
 10867 404c 00000000 		.word	v_ctl_altitude_setpoint
 10868              	.L360:
 10869              	.LVL994:
 10870              	.LBE1430:
 10871              	.LBB1431:
 10872 4050 F178     		ldrb	r1, [r6, #3]	@ zero_extendqisi2
 10873              	.LVL995:
 10874 4052 2B78     		ldrb	r3, [r5, #0]	@ zero_extendqisi2
 10875 4054 2278     		ldrb	r2, [r4, #0]	@ zero_extendqisi2
 10876 4056 CB18     		adds	r3, r1, r3
 10877 4058 DBB2     		uxtb	r3, r3
 10878              	.LBE1431:
 10879              	.LBB1432:
 10880 405a 8A4E     		ldr	r6, .L362
 10881              	.LBE1432:
 10882              	.LBB1433:
 10883 405c 2B70     		strb	r3, [r5, #0]
 10884 405e 9B18     		adds	r3, r3, r2
 10885 4060 2370     		strb	r3, [r4, #0]
 10886 4062 8948     		ldr	r0, .L362+4
 10887 4064 FFF7FEFF 		bl	uart_transmit
 10888              	.LVL996:
 10889              	.LBE1433:
 10890              	.LBB1434:
 10891 4068 3178     		ldrb	r1, [r6, #0]	@ zero_extendqisi2
 10892              	.LVL997:
 10893 406a 2B78     		ldrb	r3, [r5, #0]	@ zero_extendqisi2
 10894 406c 2278     		ldrb	r2, [r4, #0]	@ zero_extendqisi2
 10895 406e CB18     		adds	r3, r1, r3
 10896 4070 DBB2     		uxtb	r3, r3
 10897 4072 2B70     		strb	r3, [r5, #0]
 10898 4074 9B18     		adds	r3, r3, r2
 10899 4076 2370     		strb	r3, [r4, #0]
 10900 4078 8348     		ldr	r0, .L362+4
 10901 407a FFF7FEFF 		bl	uart_transmit
 10902              	.LVL998:
 10903              	.LBE1434:
 10904              	.LBB1435:
 10905 407e 7178     		ldrb	r1, [r6, #1]	@ zero_extendqisi2
 10906              	.LVL999:
 10907 4080 2B78     		ldrb	r3, [r5, #0]	@ zero_extendqisi2
 10908 4082 2278     		ldrb	r2, [r4, #0]	@ zero_extendqisi2
 10909 4084 CB18     		adds	r3, r1, r3
 10910 4086 DBB2     		uxtb	r3, r3
 10911 4088 2B70     		strb	r3, [r5, #0]
 10912 408a 9B18     		adds	r3, r3, r2
 10913 408c 2370     		strb	r3, [r4, #0]
 10914 408e 7E48     		ldr	r0, .L362+4
 10915 4090 FFF7FEFF 		bl	uart_transmit
 10916              	.LVL1000:
 10917              	.LBE1435:
 10918              	.LBB1436:
 10919 4094 B178     		ldrb	r1, [r6, #2]	@ zero_extendqisi2
 10920              	.LVL1001:
 10921 4096 2B78     		ldrb	r3, [r5, #0]	@ zero_extendqisi2
 10922 4098 2278     		ldrb	r2, [r4, #0]	@ zero_extendqisi2
 10923 409a CB18     		adds	r3, r1, r3
 10924 409c DBB2     		uxtb	r3, r3
 10925 409e 2B70     		strb	r3, [r5, #0]
 10926 40a0 9B18     		adds	r3, r3, r2
 10927 40a2 2370     		strb	r3, [r4, #0]
 10928 40a4 7848     		ldr	r0, .L362+4
 10929 40a6 FFF7FEFF 		bl	uart_transmit
 10930              	.LVL1002:
 10931              	.LBE1436:
 10932              	.LBB1437:
 10933 40aa F178     		ldrb	r1, [r6, #3]	@ zero_extendqisi2
 10934              	.LVL1003:
 10935 40ac 2B78     		ldrb	r3, [r5, #0]	@ zero_extendqisi2
 10936 40ae 2278     		ldrb	r2, [r4, #0]	@ zero_extendqisi2
 10937 40b0 CB18     		adds	r3, r1, r3
 10938 40b2 DBB2     		uxtb	r3, r3
 10939 40b4 2B70     		strb	r3, [r5, #0]
 10940 40b6 9B18     		adds	r3, r3, r2
 10941 40b8 2370     		strb	r3, [r4, #0]
 10942 40ba 7348     		ldr	r0, .L362+4
 10943 40bc FFF7FEFF 		bl	uart_transmit
 10944              	.LVL1004:
 10945              	.LBE1437:
 10946 40c0 2978     		ldrb	r1, [r5, #0]	@ zero_extendqisi2
 10947 40c2 7148     		ldr	r0, .L362+4
 10948 40c4 FFF7FEFF 		bl	uart_transmit
 10949 40c8 6F48     		ldr	r0, .L362+4
 10950 40ca 2178     		ldrb	r1, [r4, #0]	@ zero_extendqisi2
 10951 40cc FFF7FEFF 		bl	uart_transmit
 10952 40d0 03E0     		b	.L206
 10953              	.LVL1005:
 10954              	.L207:
 10955 40d2 6E4B     		ldr	r3, .L362+8
 10956 40d4 1A78     		ldrb	r2, [r3, #0]	@ zero_extendqisi2
 10957 40d6 0132     		adds	r2, r2, #1
 10958 40d8 1A70     		strb	r2, [r3, #0]
 10959              	.L206:
 10960 40da 6D4B     		ldr	r3, .L362+12
 10961 40dc 1B88     		ldrh	r3, [r3, #0]
 10962 40de 422B     		cmp	r3, #66
 10963 40e0 50D1     		bne	.L208
 10964 40e2 6948     		ldr	r0, .L362+4
 10965 40e4 1721     		movs	r1, #23
 10966 40e6 FFF7FEFF 		bl	uart_check_free_space
 10967 40ea 0028     		cmp	r0, #0
 10968 40ec 00F0F481 		beq	.L219
 10969 40f0 684B     		ldr	r3, .L362+16
 10970              	.LBB1438:
 10971 40f2 6548     		ldr	r0, .L362+4
 10972              	.LBE1438:
 10973 40f4 1A88     		ldrh	r2, [r3, #0]
 10974              	.LBB1439:
 10975 40f6 9921     		movs	r1, #153
 10976              	.LBE1439:
 10977 40f8 1732     		adds	r2, r2, #23
 10978 40fa 1A80     		strh	r2, [r3, #0]	@ movhi
 10979 40fc 664B     		ldr	r3, .L362+20
 10980              	.LBB1440:
 10981 40fe 674D     		ldr	r5, .L362+24
 10982              	.LBE1440:
 10983 4100 1A88     		ldrh	r2, [r3, #0]
 10984              	.LBB1441:
 10985 4102 674C     		ldr	r4, .L362+28
 10986              	.LBE1441:
 10987 4104 0132     		adds	r2, r2, #1
 10988 4106 1A80     		strh	r2, [r3, #0]	@ movhi
 10989              	.LBB1442:
 10990 4108 FFF7FEFF 		bl	uart_transmit
 10991 410c 5E48     		ldr	r0, .L362+4
 10992 410e 1721     		movs	r1, #23
 10993 4110 FFF7FEFF 		bl	uart_transmit
 10994              	.LBE1442:
 10995 4114 1823     		movs	r3, #24
 10996 4116 2B70     		strb	r3, [r5, #0]
 10997 4118 1733     		adds	r3, r3, #23
 10998 411a 2370     		strb	r3, [r4, #0]
 10999 411c 5A48     		ldr	r0, .L362+4
 11000 411e 0121     		movs	r1, #1
 11001 4120 FFF7FEFF 		bl	uart_transmit
 11002 4124 2B78     		ldrb	r3, [r5, #0]	@ zero_extendqisi2
 11003 4126 2278     		ldrb	r2, [r4, #0]	@ zero_extendqisi2
 11004 4128 0233     		adds	r3, r3, #2
 11005 412a DBB2     		uxtb	r3, r3
 11006 412c 2B70     		strb	r3, [r5, #0]
 11007 412e 9B18     		adds	r3, r3, r2
 11008 4130 2370     		strb	r3, [r4, #0]
 11009 4132 5548     		ldr	r0, .L362+4
 11010 4134 0221     		movs	r1, #2
 11011 4136 FFF7FEFF 		bl	uart_transmit
 11012              	.LBB1443:
 11013 413a 2B78     		ldrb	r3, [r5, #0]	@ zero_extendqisi2
 11014 413c 2278     		ldrb	r2, [r4, #0]	@ zero_extendqisi2
 11015 413e 1033     		adds	r3, r3, #16
 11016 4140 DBB2     		uxtb	r3, r3
 11017 4142 2B70     		strb	r3, [r5, #0]
 11018 4144 9B18     		adds	r3, r3, r2
 11019 4146 2370     		strb	r3, [r4, #0]
 11020 4148 4F48     		ldr	r0, .L362+4
 11021 414a 1021     		movs	r1, #16
 11022 414c FFF7FEFF 		bl	uart_transmit
 11023 4150 544C     		ldr	r4, .L362+32
 425:firmwares/fixedwing/main_ap.c **** void periodic_task_ap( void ) {
 11024              		.loc 1 425 0
 11025 4152 04F11007 		add	r7, r4, #16
 11026              	.L210:
 11027              	.LBB1444:
 205:firmwares/fixedwing/main_ap.c ****     PeriodicSendAp(DefaultChannel);
 11028              		.loc 1 205 0
 11029 4156 514E     		ldr	r6, .L362+24
 11030              	.LVL1006:
 11031 4158 14F8011B 		ldrb	r1, [r4], #1	@ zero_extendqisi2
 11032              	.LVL1007:
 11033 415c 3378     		ldrb	r3, [r6, #0]	@ zero_extendqisi2
 11034 415e 504D     		ldr	r5, .L362+28
 11035 4160 CB18     		adds	r3, r1, r3
 11036 4162 2A78     		ldrb	r2, [r5, #0]	@ zero_extendqisi2
 11037 4164 DBB2     		uxtb	r3, r3
 11038 4166 3370     		strb	r3, [r6, #0]
 11039 4168 9B18     		adds	r3, r3, r2
 11040 416a 2B70     		strb	r3, [r5, #0]
 11041 416c 4648     		ldr	r0, .L362+4
 11042 416e FFF7FEFF 		bl	uart_transmit
 11043              	.LVL1008:
 11044              	.LBE1444:
 11045 4172 BC42     		cmp	r4, r7
 11046 4174 EFD1     		bne	.L210
 11047              	.LBE1443:
 11048 4176 4448     		ldr	r0, .L362+4
 11049 4178 3178     		ldrb	r1, [r6, #0]	@ zero_extendqisi2
 11050 417a FFF7FEFF 		bl	uart_transmit
 11051 417e 4248     		ldr	r0, .L362+4
 11052 4180 2978     		ldrb	r1, [r5, #0]	@ zero_extendqisi2
 11053 4182 7CE0     		b	.L287
 11054              	.LVL1009:
 11055              	.L208:
 11056 4184 482B     		cmp	r3, #72
 11057 4186 40F09B80 		bne	.L212
 11058 418a 3F48     		ldr	r0, .L362+4
 11059 418c 0C21     		movs	r1, #12
 11060 418e FFF7FEFF 		bl	uart_check_free_space
 11061 4192 0028     		cmp	r0, #0
 11062 4194 00F0A081 		beq	.L219
 11063 4198 3E4B     		ldr	r3, .L362+16
 11064              	.LBB1445:
 11065 419a 3B48     		ldr	r0, .L362+4
 11066              	.LBE1445:
 11067 419c 1A88     		ldrh	r2, [r3, #0]
 11068              	.LBB1446:
 11069 419e 9921     		movs	r1, #153
 11070              	.LBE1446:
 11071 41a0 0C32     		adds	r2, r2, #12
 11072 41a2 1A80     		strh	r2, [r3, #0]	@ movhi
 11073 41a4 3C4B     		ldr	r3, .L362+20
 11074              	.LBB1447:
 11075 41a6 3D4D     		ldr	r5, .L362+24
 11076              	.LBE1447:
 11077 41a8 1A88     		ldrh	r2, [r3, #0]
 11078              	.LBB1448:
 11079 41aa 3D4C     		ldr	r4, .L362+28
 11080              	.LBE1448:
 11081 41ac 0132     		adds	r2, r2, #1
 11082 41ae 1A80     		strh	r2, [r3, #0]	@ movhi
 11083              	.LBB1449:
 11084 41b0 FFF7FEFF 		bl	uart_transmit
 11085 41b4 3448     		ldr	r0, .L362+4
 11086 41b6 0C21     		movs	r1, #12
 11087 41b8 FFF7FEFF 		bl	uart_transmit
 11088              	.LBE1449:
 11089 41bc 0D23     		movs	r3, #13
 11090 41be 2B70     		strb	r3, [r5, #0]
 11091 41c0 0C33     		adds	r3, r3, #12
 11092 41c2 2370     		strb	r3, [r4, #0]
 11093 41c4 3048     		ldr	r0, .L362+4
 11094 41c6 0121     		movs	r1, #1
 11095 41c8 FFF7FEFF 		bl	uart_transmit
 11096 41cc 2B78     		ldrb	r3, [r5, #0]	@ zero_extendqisi2
 11097 41ce 2278     		ldrb	r2, [r4, #0]	@ zero_extendqisi2
 11098 41d0 0B33     		adds	r3, r3, #11
 11099 41d2 DBB2     		uxtb	r3, r3
 11100 41d4 2B70     		strb	r3, [r5, #0]
 11101 41d6 9B18     		adds	r3, r3, r2
 11102 41d8 2370     		strb	r3, [r4, #0]
 11103 41da 2B48     		ldr	r0, .L362+4
 11104 41dc 0B21     		movs	r1, #11
 11105 41de FFF7FEFF 		bl	uart_transmit
 11106              	.LBB1450:
 11107 41e2 314B     		ldr	r3, .L362+36
 11108 41e4 2278     		ldrb	r2, [r4, #0]	@ zero_extendqisi2
 11109 41e6 1978     		ldrb	r1, [r3, #0]	@ zero_extendqisi2
 11110              	.LVL1010:
 11111 41e8 2B78     		ldrb	r3, [r5, #0]	@ zero_extendqisi2
 11112 41ea 2748     		ldr	r0, .L362+4
 11113 41ec CB18     		adds	r3, r1, r3
 11114 41ee DBB2     		uxtb	r3, r3
 11115 41f0 2B70     		strb	r3, [r5, #0]
 11116 41f2 9B18     		adds	r3, r3, r2
 11117 41f4 2370     		strb	r3, [r4, #0]
 11118 41f6 FFF7FEFF 		bl	uart_transmit
 11119              	.LVL1011:
 11120              	.LBE1450:
 11121              	.LBB1451:
 11122 41fa 2C4B     		ldr	r3, .L362+40
 11123 41fc 2278     		ldrb	r2, [r4, #0]	@ zero_extendqisi2
 11124 41fe 1978     		ldrb	r1, [r3, #0]	@ zero_extendqisi2
 11125              	.LVL1012:
 11126 4200 2B78     		ldrb	r3, [r5, #0]	@ zero_extendqisi2
 11127 4202 2148     		ldr	r0, .L362+4
 11128 4204 CB18     		adds	r3, r1, r3
 11129 4206 DBB2     		uxtb	r3, r3
 11130 4208 2B70     		strb	r3, [r5, #0]
 11131 420a 9B18     		adds	r3, r3, r2
 11132 420c 2370     		strb	r3, [r4, #0]
 11133 420e FFF7FEFF 		bl	uart_transmit
 11134              	.LVL1013:
 11135              	.LBE1451:
 11136              	.LBB1452:
 11137 4212 274B     		ldr	r3, .L362+44
 11138 4214 2278     		ldrb	r2, [r4, #0]	@ zero_extendqisi2
 11139 4216 1978     		ldrb	r1, [r3, #0]	@ zero_extendqisi2
 11140              	.LVL1014:
 11141 4218 2B78     		ldrb	r3, [r5, #0]	@ zero_extendqisi2
 11142 421a 1B48     		ldr	r0, .L362+4
 11143 421c CB18     		adds	r3, r1, r3
 11144 421e DBB2     		uxtb	r3, r3
 11145 4220 2B70     		strb	r3, [r5, #0]
 11146 4222 9B18     		adds	r3, r3, r2
 11147 4224 2370     		strb	r3, [r4, #0]
 11148 4226 FFF7FEFF 		bl	uart_transmit
 11149              	.LVL1015:
 11150              	.LBE1452:
 11151              	.LBB1453:
 11152 422a 224B     		ldr	r3, .L362+48
 11153 422c 2278     		ldrb	r2, [r4, #0]	@ zero_extendqisi2
 11154 422e 1978     		ldrb	r1, [r3, #0]	@ zero_extendqisi2
 11155              	.LVL1016:
 11156 4230 2B78     		ldrb	r3, [r5, #0]	@ zero_extendqisi2
 11157 4232 1548     		ldr	r0, .L362+4
 11158 4234 CB18     		adds	r3, r1, r3
 11159 4236 DBB2     		uxtb	r3, r3
 11160 4238 2B70     		strb	r3, [r5, #0]
 11161 423a 9B18     		adds	r3, r3, r2
 11162 423c 2370     		strb	r3, [r4, #0]
 11163 423e FFF7FEFF 		bl	uart_transmit
 11164              	.LVL1017:
 11165              	.LBE1453:
 11166              	.LBB1454:
 11167 4242 1D4B     		ldr	r3, .L362+52
 11168 4244 2278     		ldrb	r2, [r4, #0]	@ zero_extendqisi2
 11169 4246 1978     		ldrb	r1, [r3, #0]	@ zero_extendqisi2
 11170              	.LVL1018:
 11171 4248 2B78     		ldrb	r3, [r5, #0]	@ zero_extendqisi2
 11172 424a 0F48     		ldr	r0, .L362+4
 11173 424c CB18     		adds	r3, r1, r3
 11174 424e DBB2     		uxtb	r3, r3
 11175 4250 2B70     		strb	r3, [r5, #0]
 11176 4252 9B18     		adds	r3, r3, r2
 11177 4254 2370     		strb	r3, [r4, #0]
 11178 4256 FFF7FEFF 		bl	uart_transmit
 11179              	.LVL1019:
 11180              	.LBE1454:
 11181              	.LBB1455:
 11182 425a 184B     		ldr	r3, .L362+56
 11183 425c 1978     		ldrb	r1, [r3, #0]	@ zero_extendqisi2
 11184              	.LVL1020:
 11185              	.L295:
 11186 425e 2B78     		ldrb	r3, [r5, #0]	@ zero_extendqisi2
 11187 4260 2278     		ldrb	r2, [r4, #0]	@ zero_extendqisi2
 11188 4262 CB18     		adds	r3, r1, r3
 11189 4264 DBB2     		uxtb	r3, r3
 11190 4266 2B70     		strb	r3, [r5, #0]
 11191 4268 9B18     		adds	r3, r3, r2
 11192 426a 2370     		strb	r3, [r4, #0]
 11193 426c 0648     		ldr	r0, .L362+4
 11194 426e FFF7FEFF 		bl	uart_transmit
 11195              	.LVL1021:
 11196              	.LBE1455:
 11197 4272 0548     		ldr	r0, .L362+4
 11198 4274 2978     		ldrb	r1, [r5, #0]	@ zero_extendqisi2
 11199 4276 FFF7FEFF 		bl	uart_transmit
 11200 427a 0348     		ldr	r0, .L362+4
 11201 427c 2178     		ldrb	r1, [r4, #0]	@ zero_extendqisi2
 11202              	.L287:
 11203 427e FFF7FEFF 		bl	uart_transmit
 11204 4282 2DE1     		b	.L211
 11205              	.L363:
 11206              		.align	2
 11207              	.L362:
 11208 4284 00000000 		.word	v_ctl_climb_setpoint
 11209 4288 00000000 		.word	uart2
 11210 428c 00000000 		.word	downlink_nb_ovrn
 11211 4290 00000000 		.word	.LANCHOR47
 11212 4294 00000000 		.word	downlink_nb_bytes
 11213 4298 00000000 		.word	downlink_nb_msgs
 11214 429c 00000000 		.word	ck_a
 11215 42a0 00000000 		.word	ck_b
 11216 42a4 00000000 		.word	.LC0
 11217 42a8 00000000 		.word	.LANCHOR2
 11218 42ac 00000000 		.word	v_ctl_mode
 11219 42b0 00000000 		.word	.LANCHOR4
 11220 42b4 00000000 		.word	horizontal_mode
 11221 42b8 00000000 		.word	.LANCHOR5
 11222 42bc 00000000 		.word	.LANCHOR6
 11223              	.LVL1022:
 11224              	.L212:
 11225 42c0 4E2B     		cmp	r3, #78
 11226 42c2 55D1     		bne	.L214
 11227              	.LBB1456:
 11228 42c4 7C4B     		ldr	r3, .L364
 11229 42c6 7D48     		ldr	r0, .L364+4
 11230 42c8 93F89860 		ldrb	r6, [r3, #152]	@ zero_extendqisi2
 11231              	.LVL1023:
 11232 42cc 7C4B     		ldr	r3, .L364+8
 11233 42ce 002E     		cmp	r6, #0
 11234 42d0 14BF     		ite	ne
 11235 42d2 0326     		movne	r6, #3
 11236 42d4 0226     		moveq	r6, #2
 11237              	.LVL1024:
 11238 42d6 1B78     		ldrb	r3, [r3, #0]	@ zero_extendqisi2
 11239 42d8 0921     		movs	r1, #9
 11240 42da 0A2B     		cmp	r3, #10
 11241 42dc 88BF     		it	hi
 11242 42de 0526     		movhi	r6, #5
 11243              	.LVL1025:
 11244 42e0 4FF00003 		mov	r3, #0	@ movhi
 11245 42e4 ADF80C30 		strh	r3, [sp, #12]	@ movhi
 11246              	.LVL1026:
 11247 42e8 FFF7FEFF 		bl	uart_check_free_space
 11248 42ec 0028     		cmp	r0, #0
 11249 42ee 00F0F380 		beq	.L219
 11250 42f2 744B     		ldr	r3, .L364+12
 11251              	.LBB1457:
 11252 42f4 7148     		ldr	r0, .L364+4
 11253              	.LBE1457:
 11254 42f6 1A88     		ldrh	r2, [r3, #0]
 11255              	.LBB1458:
 11256 42f8 9921     		movs	r1, #153
 11257              	.LBE1458:
 11258 42fa 0932     		adds	r2, r2, #9
 11259 42fc 1A80     		strh	r2, [r3, #0]	@ movhi
 11260 42fe 724B     		ldr	r3, .L364+16
 11261              	.LBB1459:
 11262 4300 724D     		ldr	r5, .L364+20
 11263              	.LBE1459:
 11264 4302 1A88     		ldrh	r2, [r3, #0]
 11265              	.LBB1460:
 11266 4304 724C     		ldr	r4, .L364+24
 11267              	.LBE1460:
 11268 4306 0132     		adds	r2, r2, #1
 11269 4308 1A80     		strh	r2, [r3, #0]	@ movhi
 11270              	.LBB1461:
 11271 430a FFF7FEFF 		bl	uart_transmit
 11272 430e 6B48     		ldr	r0, .L364+4
 11273 4310 0921     		movs	r1, #9
 11274 4312 FFF7FEFF 		bl	uart_transmit
 11275              	.LBE1461:
 11276 4316 0A23     		movs	r3, #10
 11277 4318 2B70     		strb	r3, [r5, #0]
 11278 431a 0933     		adds	r3, r3, #9
 11279 431c 2370     		strb	r3, [r4, #0]
 11280 431e 6748     		ldr	r0, .L364+4
 11281 4320 0121     		movs	r1, #1
 11282 4322 FFF7FEFF 		bl	uart_transmit
 11283 4326 2B78     		ldrb	r3, [r5, #0]	@ zero_extendqisi2
 11284 4328 2278     		ldrb	r2, [r4, #0]	@ zero_extendqisi2
 11285 432a 183B     		subs	r3, r3, #24
 11286 432c DBB2     		uxtb	r3, r3
 11287 432e 2B70     		strb	r3, [r5, #0]
 11288 4330 9B18     		adds	r3, r3, r2
 11289 4332 2370     		strb	r3, [r4, #0]
 11290 4334 6148     		ldr	r0, .L364+4
 11291 4336 E821     		movs	r1, #232
 11292 4338 FFF7FEFF 		bl	uart_transmit
 11293              	.LBB1462:
 11294 433c 2B78     		ldrb	r3, [r5, #0]	@ zero_extendqisi2
 11295 433e 2278     		ldrb	r2, [r4, #0]	@ zero_extendqisi2
 11296 4340 F318     		adds	r3, r6, r3
 11297 4342 DBB2     		uxtb	r3, r3
 11298 4344 2B70     		strb	r3, [r5, #0]
 11299 4346 9B18     		adds	r3, r3, r2
 11300 4348 2370     		strb	r3, [r4, #0]
 11301 434a 5C48     		ldr	r0, .L364+4
 11302 434c 3146     		mov	r1, r6
 11303 434e FFF7FEFF 		bl	uart_transmit
 11304              	.LBE1462:
 11305              	.LBB1463:
 11306 4352 9DF80C10 		ldrb	r1, [sp, #12]	@ zero_extendqisi2
 11307              	.LVL1027:
 11308 4356 2B78     		ldrb	r3, [r5, #0]	@ zero_extendqisi2
 11309 4358 2278     		ldrb	r2, [r4, #0]	@ zero_extendqisi2
 11310 435a CB18     		adds	r3, r1, r3
 11311 435c DBB2     		uxtb	r3, r3
 11312 435e 2B70     		strb	r3, [r5, #0]
 11313 4360 9B18     		adds	r3, r3, r2
 11314 4362 2370     		strb	r3, [r4, #0]
 11315 4364 5548     		ldr	r0, .L364+4
 11316 4366 FFF7FEFF 		bl	uart_transmit
 11317              	.LVL1028:
 11318              	.LBE1463:
 11319              	.LBB1464:
 11320 436a 03AB     		add	r3, sp, #12
 11321 436c 5978     		ldrb	r1, [r3, #1]	@ zero_extendqisi2
 11322              	.LVL1029:
 11323 436e 76E7     		b	.L295
 11324              	.LVL1030:
 11325              	.L214:
 11326              	.LBE1464:
 11327              	.LBE1456:
 11328 4370 542B     		cmp	r3, #84
 11329 4372 40F0B580 		bne	.L211
 11330 4376 5148     		ldr	r0, .L364+4
 11331 4378 1121     		movs	r1, #17
 11332 437a FFF7FEFF 		bl	uart_check_free_space
 11333 437e 0028     		cmp	r0, #0
 11334 4380 00F0AA80 		beq	.L219
 11335 4384 4F4B     		ldr	r3, .L364+12
 11336              	.LBB1465:
 11337 4386 9921     		movs	r1, #153
 11338              	.LBE1465:
 11339 4388 1A88     		ldrh	r2, [r3, #0]
 11340              	.LBB1466:
 11341 438a 4C48     		ldr	r0, .L364+4
 11342              	.LBE1466:
 11343 438c 1132     		adds	r2, r2, #17
 11344 438e 1A80     		strh	r2, [r3, #0]	@ movhi
 11345 4390 4D4B     		ldr	r3, .L364+16
 11346              	.LBB1467:
 11347 4392 4E4D     		ldr	r5, .L364+20
 11348              	.LBE1467:
 11349 4394 1A88     		ldrh	r2, [r3, #0]
 11350              	.LBB1468:
 11351 4396 4E4C     		ldr	r4, .L364+24
 11352              	.LBE1468:
 11353 4398 0132     		adds	r2, r2, #1
 11354 439a 1A80     		strh	r2, [r3, #0]	@ movhi
 11355              	.LBB1469:
 11356 439c FFF7FEFF 		bl	uart_transmit
 11357 43a0 1121     		movs	r1, #17
 11358 43a2 4648     		ldr	r0, .L364+4
 11359 43a4 FFF7FEFF 		bl	uart_transmit
 11360              	.LBE1469:
 11361 43a8 1223     		movs	r3, #18
 11362 43aa 2B70     		strb	r3, [r5, #0]
 11363 43ac 1133     		adds	r3, r3, #17
 11364 43ae 0121     		movs	r1, #1
 11365 43b0 2370     		strb	r3, [r4, #0]
 11366 43b2 4248     		ldr	r0, .L364+4
 11367 43b4 FFF7FEFF 		bl	uart_transmit
 11368 43b8 2B78     		ldrb	r3, [r5, #0]	@ zero_extendqisi2
 11369 43ba 2278     		ldrb	r2, [r4, #0]	@ zero_extendqisi2
 11370 43bc 1133     		adds	r3, r3, #17
 11371 43be DBB2     		uxtb	r3, r3
 11372              	.LBB1470:
 11373 43c0 444E     		ldr	r6, .L364+28
 11374              	.LVL1031:
 11375              	.LBE1470:
 11376 43c2 2B70     		strb	r3, [r5, #0]
 11377 43c4 9B18     		adds	r3, r3, r2
 11378 43c6 1121     		movs	r1, #17
 11379 43c8 2370     		strb	r3, [r4, #0]
 11380 43ca 3C48     		ldr	r0, .L364+4
 11381 43cc FFF7FEFF 		bl	uart_transmit
 11382              	.LBB1471:
 11383 43d0 3178     		ldrb	r1, [r6, #0]	@ zero_extendqisi2
 11384              	.LVL1032:
 11385 43d2 2B78     		ldrb	r3, [r5, #0]	@ zero_extendqisi2
 11386 43d4 2278     		ldrb	r2, [r4, #0]	@ zero_extendqisi2
 11387 43d6 CB18     		adds	r3, r1, r3
 11388 43d8 DBB2     		uxtb	r3, r3
 11389 43da 2B70     		strb	r3, [r5, #0]
 11390 43dc 9B18     		adds	r3, r3, r2
 11391 43de 2370     		strb	r3, [r4, #0]
 11392 43e0 3648     		ldr	r0, .L364+4
 11393 43e2 FFF7FEFF 		bl	uart_transmit
 11394              	.LVL1033:
 11395              	.LBE1471:
 11396              	.LBB1472:
 11397 43e6 7178     		ldrb	r1, [r6, #1]	@ zero_extendqisi2
 11398              	.LVL1034:
 11399 43e8 2B78     		ldrb	r3, [r5, #0]	@ zero_extendqisi2
 11400 43ea 2278     		ldrb	r2, [r4, #0]	@ zero_extendqisi2
 11401 43ec CB18     		adds	r3, r1, r3
 11402 43ee DBB2     		uxtb	r3, r3
 11403 43f0 2B70     		strb	r3, [r5, #0]
 11404 43f2 9B18     		adds	r3, r3, r2
 11405 43f4 2370     		strb	r3, [r4, #0]
 11406 43f6 3148     		ldr	r0, .L364+4
 11407 43f8 FFF7FEFF 		bl	uart_transmit
 11408              	.LVL1035:
 11409              	.LBE1472:
 11410              	.LBB1473:
 11411 43fc B178     		ldrb	r1, [r6, #2]	@ zero_extendqisi2
 11412              	.LVL1036:
 11413 43fe 2B78     		ldrb	r3, [r5, #0]	@ zero_extendqisi2
 11414 4400 2278     		ldrb	r2, [r4, #0]	@ zero_extendqisi2
 11415 4402 CB18     		adds	r3, r1, r3
 11416 4404 DBB2     		uxtb	r3, r3
 11417 4406 2B70     		strb	r3, [r5, #0]
 11418 4408 9B18     		adds	r3, r3, r2
 11419 440a 2370     		strb	r3, [r4, #0]
 11420 440c 2B48     		ldr	r0, .L364+4
 11421 440e FFF7FEFF 		bl	uart_transmit
 11422              	.LVL1037:
 11423              	.LBE1473:
 11424              	.LBB1474:
 11425 4412 F178     		ldrb	r1, [r6, #3]	@ zero_extendqisi2
 11426              	.LVL1038:
 11427 4414 2B78     		ldrb	r3, [r5, #0]	@ zero_extendqisi2
 11428 4416 2278     		ldrb	r2, [r4, #0]	@ zero_extendqisi2
 11429 4418 CB18     		adds	r3, r1, r3
 11430 441a DBB2     		uxtb	r3, r3
 11431 441c 2B70     		strb	r3, [r5, #0]
 11432 441e 9B18     		adds	r3, r3, r2
 11433 4420 2370     		strb	r3, [r4, #0]
 11434 4422 2648     		ldr	r0, .L364+4
 11435 4424 FFF7FEFF 		bl	uart_transmit
 11436              	.LVL1039:
 11437              	.LBE1474:
 11438              	.LBB1475:
 11439 4428 3179     		ldrb	r1, [r6, #4]	@ zero_extendqisi2
 11440              	.LVL1040:
 11441 442a 2B78     		ldrb	r3, [r5, #0]	@ zero_extendqisi2
 11442 442c 2278     		ldrb	r2, [r4, #0]	@ zero_extendqisi2
 11443 442e CB18     		adds	r3, r1, r3
 11444 4430 DBB2     		uxtb	r3, r3
 11445 4432 2B70     		strb	r3, [r5, #0]
 11446 4434 9B18     		adds	r3, r3, r2
 11447 4436 371D     		adds	r7, r6, #4
 11448 4438 2370     		strb	r3, [r4, #0]
 11449 443a 2048     		ldr	r0, .L364+4
 11450 443c FFF7FEFF 		bl	uart_transmit
 11451              	.LVL1041:
 11452              	.LBE1475:
 11453              	.LBB1476:
 11454 4440 7978     		ldrb	r1, [r7, #1]	@ zero_extendqisi2
 11455              	.LVL1042:
 11456 4442 2B78     		ldrb	r3, [r5, #0]	@ zero_extendqisi2
 11457 4444 2278     		ldrb	r2, [r4, #0]	@ zero_extendqisi2
 11458 4446 CB18     		adds	r3, r1, r3
 11459 4448 DBB2     		uxtb	r3, r3
 11460 444a 2B70     		strb	r3, [r5, #0]
 11461 444c 9B18     		adds	r3, r3, r2
 11462 444e 2370     		strb	r3, [r4, #0]
 11463 4450 1A48     		ldr	r0, .L364+4
 11464 4452 FFF7FEFF 		bl	uart_transmit
 11465              	.LVL1043:
 11466              	.LBE1476:
 11467              	.LBB1477:
 11468 4456 B978     		ldrb	r1, [r7, #2]	@ zero_extendqisi2
 11469              	.LVL1044:
 11470 4458 2B78     		ldrb	r3, [r5, #0]	@ zero_extendqisi2
 11471 445a 2278     		ldrb	r2, [r4, #0]	@ zero_extendqisi2
 11472 445c CB18     		adds	r3, r1, r3
 11473 445e DBB2     		uxtb	r3, r3
 11474 4460 2B70     		strb	r3, [r5, #0]
 11475 4462 9B18     		adds	r3, r3, r2
 11476 4464 2370     		strb	r3, [r4, #0]
 11477 4466 1548     		ldr	r0, .L364+4
 11478 4468 FFF7FEFF 		bl	uart_transmit
 11479              	.LVL1045:
 11480              	.LBE1477:
 11481              	.LBB1478:
 11482 446c F978     		ldrb	r1, [r7, #3]	@ zero_extendqisi2
 11483              	.LVL1046:
 11484 446e 2B78     		ldrb	r3, [r5, #0]	@ zero_extendqisi2
 11485 4470 2278     		ldrb	r2, [r4, #0]	@ zero_extendqisi2
 11486 4472 CB18     		adds	r3, r1, r3
 11487 4474 DBB2     		uxtb	r3, r3
 11488 4476 2B70     		strb	r3, [r5, #0]
 11489 4478 9B18     		adds	r3, r3, r2
 11490 447a 2370     		strb	r3, [r4, #0]
 11491 447c 0F48     		ldr	r0, .L364+4
 11492 447e FFF7FEFF 		bl	uart_transmit
 11493              	.LVL1047:
 11494              	.LBE1478:
 11495              	.LBB1479:
 11496 4482 317A     		ldrb	r1, [r6, #8]	@ zero_extendqisi2
 11497              	.LVL1048:
 11498 4484 2B78     		ldrb	r3, [r5, #0]	@ zero_extendqisi2
 11499 4486 2278     		ldrb	r2, [r4, #0]	@ zero_extendqisi2
 11500 4488 CB18     		adds	r3, r1, r3
 11501 448a DBB2     		uxtb	r3, r3
 11502 448c 2B70     		strb	r3, [r5, #0]
 11503 448e 9B18     		adds	r3, r3, r2
 11504 4490 2370     		strb	r3, [r4, #0]
 11505 4492 0A48     		ldr	r0, .L364+4
 11506 4494 06F10807 		add	r7, r6, #8
 11507 4498 FFF7FEFF 		bl	uart_transmit
 11508              	.LVL1049:
 11509              	.LBE1479:
 11510              	.LBB1480:
 11511 449c 7978     		ldrb	r1, [r7, #1]	@ zero_extendqisi2
 11512              	.LVL1050:
 11513 449e 2B78     		ldrb	r3, [r5, #0]	@ zero_extendqisi2
 11514 44a0 2278     		ldrb	r2, [r4, #0]	@ zero_extendqisi2
 11515 44a2 CB18     		adds	r3, r1, r3
 11516 44a4 DBB2     		uxtb	r3, r3
 11517 44a6 2B70     		strb	r3, [r5, #0]
 11518 44a8 9B18     		adds	r3, r3, r2
 11519 44aa 2370     		strb	r3, [r4, #0]
 11520 44ac 0348     		ldr	r0, .L364+4
 11521 44ae FFF7FEFF 		bl	uart_transmit
 11522              	.LVL1051:
 11523              	.LBE1480:
 11524              	.LBB1481:
 11525 44b2 B17A     		ldrb	r1, [r6, #10]	@ zero_extendqisi2
 11526              	.LVL1052:
 11527 44b4 D3E6     		b	.L295
 11528              	.L365:
 11529 44b6 00BF     		.align	2
 11530              	.L364:
 11531 44b8 00000000 		.word	ahrs
 11532 44bc 00000000 		.word	uart2
 11533 44c0 00000000 		.word	.LANCHOR0
 11534 44c4 00000000 		.word	downlink_nb_bytes
 11535 44c8 00000000 		.word	downlink_nb_msgs
 11536 44cc 00000000 		.word	ck_a
 11537 44d0 00000000 		.word	ck_b
 11538 44d4 4C000000 		.word	gps+76
 11539              	.LVL1053:
 11540              	.L219:
 11541              	.LBE1481:
 11542 44d8 774B     		ldr	r3, .L366+8
 11543 44da 1A78     		ldrb	r2, [r3, #0]	@ zero_extendqisi2
 11544 44dc 0132     		adds	r2, r2, #1
 11545 44de 1A70     		strb	r2, [r3, #0]
 11546              	.L211:
 11547 44e0 764B     		ldr	r3, .L366+12
 11548 44e2 1B88     		ldrh	r3, [r3, #0]
 11549 44e4 5A2B     		cmp	r3, #90
 11550 44e6 5FD1     		bne	.L220
 11551 44e8 7548     		ldr	r0, .L366+16
 11552 44ea 0B21     		movs	r1, #11
 11553 44ec FFF7FEFF 		bl	uart_check_free_space
 11554 44f0 0028     		cmp	r0, #0
 11555 44f2 54D0     		beq	.L221
 11556 44f4 734B     		ldr	r3, .L366+20
 11557              	.LBB1482:
 11558 44f6 7248     		ldr	r0, .L366+16
 11559              	.LBE1482:
 11560 44f8 1A88     		ldrh	r2, [r3, #0]
 11561              	.LBB1483:
 11562 44fa 9921     		movs	r1, #153
 11563              	.LBE1483:
 11564 44fc 0B32     		adds	r2, r2, #11
 11565 44fe 1A80     		strh	r2, [r3, #0]	@ movhi
 11566 4500 714B     		ldr	r3, .L366+24
 11567              	.LBB1484:
 11568 4502 724D     		ldr	r5, .L366+28
 11569              	.LBE1484:
 11570 4504 1A88     		ldrh	r2, [r3, #0]
 11571              	.LBB1485:
 11572 4506 724C     		ldr	r4, .L366+32
 11573              	.LBE1485:
 11574 4508 0132     		adds	r2, r2, #1
 11575 450a 1A80     		strh	r2, [r3, #0]	@ movhi
 11576              	.LBB1486:
 11577 450c FFF7FEFF 		bl	uart_transmit
 11578 4510 6B48     		ldr	r0, .L366+16
 11579 4512 0B21     		movs	r1, #11
 11580 4514 FFF7FEFF 		bl	uart_transmit
 11581              	.LBE1486:
 11582 4518 0C23     		movs	r3, #12
 11583 451a 2B70     		strb	r3, [r5, #0]
 11584 451c 0B33     		adds	r3, r3, #11
 11585 451e 2370     		strb	r3, [r4, #0]
 11586 4520 6748     		ldr	r0, .L366+16
 11587 4522 0121     		movs	r1, #1
 11588 4524 FFF7FEFF 		bl	uart_transmit
 11589 4528 2B78     		ldrb	r3, [r5, #0]	@ zero_extendqisi2
 11590 452a 2278     		ldrb	r2, [r4, #0]	@ zero_extendqisi2
 11591 452c 0E33     		adds	r3, r3, #14
 11592 452e DBB2     		uxtb	r3, r3
 11593              	.LBB1487:
 11594 4530 684E     		ldr	r6, .L366+36
 11595              	.LVL1054:
 11596              	.LBE1487:
 11597 4532 2B70     		strb	r3, [r5, #0]
 11598 4534 9B18     		adds	r3, r3, r2
 11599 4536 2370     		strb	r3, [r4, #0]
 11600 4538 6148     		ldr	r0, .L366+16
 11601 453a 0E21     		movs	r1, #14
 11602 453c FFF7FEFF 		bl	uart_transmit
 11603              	.LBB1488:
 11604 4540 3178     		ldrb	r1, [r6, #0]	@ zero_extendqisi2
 11605              	.LVL1055:
 11606 4542 2B78     		ldrb	r3, [r5, #0]	@ zero_extendqisi2
 11607 4544 2278     		ldrb	r2, [r4, #0]	@ zero_extendqisi2
 11608 4546 CB18     		adds	r3, r1, r3
 11609 4548 DBB2     		uxtb	r3, r3
 11610 454a 2B70     		strb	r3, [r5, #0]
 11611 454c 9B18     		adds	r3, r3, r2
 11612 454e 2370     		strb	r3, [r4, #0]
 11613 4550 5B48     		ldr	r0, .L366+16
 11614 4552 FFF7FEFF 		bl	uart_transmit
 11615              	.LVL1056:
 11616              	.LBE1488:
 11617              	.LBB1489:
 11618 4556 7178     		ldrb	r1, [r6, #1]	@ zero_extendqisi2
 11619              	.LVL1057:
 11620 4558 2B78     		ldrb	r3, [r5, #0]	@ zero_extendqisi2
 11621 455a 2278     		ldrb	r2, [r4, #0]	@ zero_extendqisi2
 11622 455c CB18     		adds	r3, r1, r3
 11623 455e DBB2     		uxtb	r3, r3
 11624 4560 2B70     		strb	r3, [r5, #0]
 11625 4562 9B18     		adds	r3, r3, r2
 11626 4564 2370     		strb	r3, [r4, #0]
 11627 4566 5648     		ldr	r0, .L366+16
 11628 4568 FFF7FEFF 		bl	uart_transmit
 11629              	.LVL1058:
 11630              	.LBE1489:
 11631              	.LBB1490:
 11632 456c B178     		ldrb	r1, [r6, #2]	@ zero_extendqisi2
 11633              	.LVL1059:
 11634 456e 2B78     		ldrb	r3, [r5, #0]	@ zero_extendqisi2
 11635 4570 2278     		ldrb	r2, [r4, #0]	@ zero_extendqisi2
 11636 4572 CB18     		adds	r3, r1, r3
 11637 4574 DBB2     		uxtb	r3, r3
 11638 4576 2B70     		strb	r3, [r5, #0]
 11639 4578 9B18     		adds	r3, r3, r2
 11640 457a 2370     		strb	r3, [r4, #0]
 11641 457c 5048     		ldr	r0, .L366+16
 11642 457e FFF7FEFF 		bl	uart_transmit
 11643              	.LVL1060:
 11644              	.LBE1490:
 11645              	.LBB1491:
 11646 4582 F178     		ldrb	r1, [r6, #3]	@ zero_extendqisi2
 11647              	.LVL1061:
 11648 4584 2B78     		ldrb	r3, [r5, #0]	@ zero_extendqisi2
 11649 4586 2278     		ldrb	r2, [r4, #0]	@ zero_extendqisi2
 11650 4588 CB18     		adds	r3, r1, r3
 11651 458a DBB2     		uxtb	r3, r3
 11652 458c 2B70     		strb	r3, [r5, #0]
 11653 458e 9B18     		adds	r3, r3, r2
 11654 4590 2370     		strb	r3, [r4, #0]
 11655 4592 4B48     		ldr	r0, .L366+16
 11656 4594 FFF7FEFF 		bl	uart_transmit
 11657              	.LVL1062:
 11658              	.LBE1491:
 11659              	.LBB1492:
 11660 4598 4F4B     		ldr	r3, .L366+40
 11661 459a 1978     		ldrb	r1, [r3, #0]	@ zero_extendqisi2
 11662              	.LVL1063:
 11663 459c 73E0     		b	.L288
 11664              	.LVL1064:
 11665              	.L221:
 11666              	.LBE1492:
 11667 459e 464B     		ldr	r3, .L366+8
 11668 45a0 1A78     		ldrb	r2, [r3, #0]	@ zero_extendqisi2
 11669 45a2 0132     		adds	r2, r2, #1
 11670 45a4 1A70     		strb	r2, [r3, #0]
 11671 45a6 9EE0     		b	.L222
 11672              	.L220:
 11673 45a8 602B     		cmp	r3, #96
 11674 45aa 40F09C80 		bne	.L222
 11675              	.LBB1493:
 11676 45ae 4B4D     		ldr	r5, .L366+44
 11677 45b0 444C     		ldr	r4, .L366+20
 11678 45b2 2888     		ldrh	r0, [r5, #0]
 11679 45b4 2688     		ldrh	r6, [r4, #0]
 11680              	.LVL1065:
 11681 45b6 404F     		ldr	r7, .L366+8
 11682 45b8 301A     		subs	r0, r6, r0
 11683 45ba FFF7FEFF 		bl	__aeabi_i2d
 11684 45be 3CA3     		adr	r3, .L366
 11685 45c0 D3E90023 		ldrd	r2, [r3]
 11686 45c4 FFF7FEFF 		bl	__aeabi_ddiv
 11687 45c8 FFF7FEFF 		bl	__aeabi_d2uiz
 11688 45cc 2E80     		strh	r6, [r5, #0]	@ movhi
 11689 45ce ADF80C00 		strh	r0, [sp, #12]	@ movhi
 11690              	.LVL1066:
 11691 45d2 0B21     		movs	r1, #11
 11692 45d4 3A48     		ldr	r0, .L366+16
 11693 45d6 FFF7FEFF 		bl	uart_check_free_space
 11694 45da 0028     		cmp	r0, #0
 11695 45dc 00F08080 		beq	.L223
 11696 45e0 2388     		ldrh	r3, [r4, #0]
 11697 45e2 394E     		ldr	r6, .L366+24
 11698 45e4 0B33     		adds	r3, r3, #11
 11699 45e6 2380     		strh	r3, [r4, #0]	@ movhi
 11700 45e8 3388     		ldrh	r3, [r6, #0]
 11701              	.LBB1494:
 11702 45ea 3548     		ldr	r0, .L366+16
 11703              	.LBE1494:
 11704 45ec 0133     		adds	r3, r3, #1
 11705 45ee 3380     		strh	r3, [r6, #0]	@ movhi
 11706              	.LBB1495:
 11707 45f0 9921     		movs	r1, #153
 11708 45f2 364D     		ldr	r5, .L366+28
 11709 45f4 FFF7FEFF 		bl	uart_transmit
 11710 45f8 3148     		ldr	r0, .L366+16
 11711 45fa 0B21     		movs	r1, #11
 11712 45fc 344C     		ldr	r4, .L366+32
 11713 45fe FFF7FEFF 		bl	uart_transmit
 11714              	.LBE1495:
 11715 4602 0C23     		movs	r3, #12
 11716 4604 2B70     		strb	r3, [r5, #0]
 11717 4606 0B33     		adds	r3, r3, #11
 11718 4608 2370     		strb	r3, [r4, #0]
 11719 460a 2D48     		ldr	r0, .L366+16
 11720 460c 0121     		movs	r1, #1
 11721 460e FFF7FEFF 		bl	uart_transmit
 11722 4612 2B78     		ldrb	r3, [r5, #0]	@ zero_extendqisi2
 11723 4614 2278     		ldrb	r2, [r4, #0]	@ zero_extendqisi2
 11724 4616 1E33     		adds	r3, r3, #30
 11725 4618 DBB2     		uxtb	r3, r3
 11726 461a 2B70     		strb	r3, [r5, #0]
 11727 461c 9B18     		adds	r3, r3, r2
 11728 461e 2370     		strb	r3, [r4, #0]
 11729 4620 2748     		ldr	r0, .L366+16
 11730 4622 1E21     		movs	r1, #30
 11731 4624 FFF7FEFF 		bl	uart_transmit
 11732              	.LBB1496:
 11733 4628 3978     		ldrb	r1, [r7, #0]	@ zero_extendqisi2
 11734              	.LVL1067:
 11735 462a 2B78     		ldrb	r3, [r5, #0]	@ zero_extendqisi2
 11736 462c 2278     		ldrb	r2, [r4, #0]	@ zero_extendqisi2
 11737 462e CB18     		adds	r3, r1, r3
 11738 4630 DBB2     		uxtb	r3, r3
 11739 4632 2B70     		strb	r3, [r5, #0]
 11740 4634 9B18     		adds	r3, r3, r2
 11741 4636 2370     		strb	r3, [r4, #0]
 11742 4638 2148     		ldr	r0, .L366+16
 11743 463a FFF7FEFF 		bl	uart_transmit
 11744              	.LVL1068:
 11745              	.LBE1496:
 11746              	.LBB1497:
 11747 463e 9DF80C10 		ldrb	r1, [sp, #12]	@ zero_extendqisi2
 11748              	.LVL1069:
 11749 4642 2B78     		ldrb	r3, [r5, #0]	@ zero_extendqisi2
 11750 4644 2278     		ldrb	r2, [r4, #0]	@ zero_extendqisi2
 11751 4646 CB18     		adds	r3, r1, r3
 11752 4648 DBB2     		uxtb	r3, r3
 11753 464a 2B70     		strb	r3, [r5, #0]
 11754 464c 9B18     		adds	r3, r3, r2
 11755 464e 2370     		strb	r3, [r4, #0]
 11756 4650 1B48     		ldr	r0, .L366+16
 11757 4652 FFF7FEFF 		bl	uart_transmit
 11758              	.LVL1070:
 11759              	.LBE1497:
 11760              	.LBB1498:
 11761 4656 03AB     		add	r3, sp, #12
 11762 4658 5978     		ldrb	r1, [r3, #1]	@ zero_extendqisi2
 11763              	.LVL1071:
 11764 465a 2B78     		ldrb	r3, [r5, #0]	@ zero_extendqisi2
 11765 465c 2278     		ldrb	r2, [r4, #0]	@ zero_extendqisi2
 11766 465e CB18     		adds	r3, r1, r3
 11767 4660 DBB2     		uxtb	r3, r3
 11768 4662 2B70     		strb	r3, [r5, #0]
 11769 4664 9B18     		adds	r3, r3, r2
 11770 4666 2370     		strb	r3, [r4, #0]
 11771 4668 1548     		ldr	r0, .L366+16
 11772 466a FFF7FEFF 		bl	uart_transmit
 11773              	.LVL1072:
 11774              	.LBE1498:
 11775              	.LBB1499:
 11776 466e 3178     		ldrb	r1, [r6, #0]	@ zero_extendqisi2
 11777              	.LVL1073:
 11778 4670 2B78     		ldrb	r3, [r5, #0]	@ zero_extendqisi2
 11779 4672 2278     		ldrb	r2, [r4, #0]	@ zero_extendqisi2
 11780 4674 CB18     		adds	r3, r1, r3
 11781 4676 DBB2     		uxtb	r3, r3
 11782 4678 2B70     		strb	r3, [r5, #0]
 11783 467a 9B18     		adds	r3, r3, r2
 11784 467c 2370     		strb	r3, [r4, #0]
 11785 467e 1048     		ldr	r0, .L366+16
 11786 4680 FFF7FEFF 		bl	uart_transmit
 11787              	.LVL1074:
 11788              	.LBE1499:
 11789              	.LBB1500:
 11790 4684 7178     		ldrb	r1, [r6, #1]	@ zero_extendqisi2
 11791              	.LVL1075:
 11792              	.L288:
 11793 4686 2B78     		ldrb	r3, [r5, #0]	@ zero_extendqisi2
 11794 4688 2278     		ldrb	r2, [r4, #0]	@ zero_extendqisi2
 11795 468a CB18     		adds	r3, r1, r3
 11796 468c DBB2     		uxtb	r3, r3
 11797 468e 2B70     		strb	r3, [r5, #0]
 11798 4690 9B18     		adds	r3, r3, r2
 11799 4692 2370     		strb	r3, [r4, #0]
 11800 4694 0A48     		ldr	r0, .L366+16
 11801 4696 FFF7FEFF 		bl	uart_transmit
 11802              	.LVL1076:
 11803              	.LBE1500:
 11804 469a 2978     		ldrb	r1, [r5, #0]	@ zero_extendqisi2
 11805 469c 0848     		ldr	r0, .L366+16
 11806 469e FFF7FEFF 		bl	uart_transmit
 11807 46a2 0748     		ldr	r0, .L366+16
 11808 46a4 2178     		ldrb	r1, [r4, #0]	@ zero_extendqisi2
 11809 46a6 FFF7FEFF 		bl	uart_transmit
 11810 46aa 1CE0     		b	.L222
 11811              	.L367:
 11812 46ac AFF30080 		.align	3
 11813              	.L366:
 11814 46b0 66666666 		.word	1717986918
 11815 46b4 66661440 		.word	1075078758
 11816 46b8 00000000 		.word	downlink_nb_ovrn
 11817 46bc 00000000 		.word	.LANCHOR48
 11818 46c0 00000000 		.word	uart2
 11819 46c4 00000000 		.word	downlink_nb_bytes
 11820 46c8 00000000 		.word	downlink_nb_msgs
 11821 46cc 00000000 		.word	ck_a
 11822 46d0 00000000 		.word	ck_b
 11823 46d4 00000000 		.word	v_ctl_auto_throttle_sum_err
 11824 46d8 00000000 		.word	v_ctl_auto_throttle_submode
 11825 46dc 00000000 		.word	.LANCHOR55
 11826              	.L223:
 11827 46e0 3B78     		ldrb	r3, [r7, #0]	@ zero_extendqisi2
 11828 46e2 0133     		adds	r3, r3, #1
 11829 46e4 3B70     		strb	r3, [r7, #0]
 11830              	.LVL1077:
 11831              	.L222:
 11832              	.LBE1493:
 11833 46e6 504B     		ldr	r3, .L368
 11834 46e8 1B88     		ldrh	r3, [r3, #0]
 11835 46ea 6C2B     		cmp	r3, #108
 11836 46ec 40F0B280 		bne	.L147
 11837 46f0 4E48     		ldr	r0, .L368+4
 11838 46f2 0F21     		movs	r1, #15
 11839 46f4 FFF7FEFF 		bl	uart_check_free_space
 11840 46f8 0028     		cmp	r0, #0
 11841 46fa 00F0A780 		beq	.L224
 11842 46fe 4C4B     		ldr	r3, .L368+8
 11843              	.LBB1501:
 11844 4700 9921     		movs	r1, #153
 11845              	.LBE1501:
 11846 4702 1A88     		ldrh	r2, [r3, #0]
 11847              	.LBB1502:
 11848 4704 4948     		ldr	r0, .L368+4
 11849              	.LBE1502:
 11850 4706 0F32     		adds	r2, r2, #15
 11851 4708 1A80     		strh	r2, [r3, #0]	@ movhi
 11852 470a 4A4B     		ldr	r3, .L368+12
 11853              	.LBB1503:
 11854 470c 4A4D     		ldr	r5, .L368+16
 11855              	.LBE1503:
 11856 470e 1A88     		ldrh	r2, [r3, #0]
 11857              	.LBB1504:
 11858 4710 4A4C     		ldr	r4, .L368+20
 11859              	.LBE1504:
 11860 4712 0132     		adds	r2, r2, #1
 11861 4714 1A80     		strh	r2, [r3, #0]	@ movhi
 11862              	.LBB1505:
 11863 4716 FFF7FEFF 		bl	uart_transmit
 11864 471a 0F21     		movs	r1, #15
 11865 471c 4348     		ldr	r0, .L368+4
 11866 471e FFF7FEFF 		bl	uart_transmit
 11867              	.LBE1505:
 11868 4722 1023     		movs	r3, #16
 11869 4724 2B70     		strb	r3, [r5, #0]
 11870 4726 0F33     		adds	r3, r3, #15
 11871 4728 2370     		strb	r3, [r4, #0]
 11872 472a 0121     		movs	r1, #1
 11873 472c 3F48     		ldr	r0, .L368+4
 11874 472e FFF7FEFF 		bl	uart_transmit
 11875 4732 2B78     		ldrb	r3, [r5, #0]	@ zero_extendqisi2
 11876 4734 2278     		ldrb	r2, [r4, #0]	@ zero_extendqisi2
 11877 4736 0933     		adds	r3, r3, #9
 11878 4738 DBB2     		uxtb	r3, r3
 11879              	.LBB1506:
 11880 473a 414E     		ldr	r6, .L368+24
 11881              	.LVL1078:
 11882              	.LBE1506:
 11883 473c 2B70     		strb	r3, [r5, #0]
 11884 473e 9B18     		adds	r3, r3, r2
 11885 4740 2370     		strb	r3, [r4, #0]
 11886 4742 0921     		movs	r1, #9
 11887 4744 3948     		ldr	r0, .L368+4
 11888 4746 FFF7FEFF 		bl	uart_transmit
 11889              	.LBB1507:
 11890 474a 3178     		ldrb	r1, [r6, #0]	@ zero_extendqisi2
 11891              	.LVL1079:
 11892 474c 2B78     		ldrb	r3, [r5, #0]	@ zero_extendqisi2
 11893 474e 2278     		ldrb	r2, [r4, #0]	@ zero_extendqisi2
 11894 4750 CB18     		adds	r3, r1, r3
 11895 4752 DBB2     		uxtb	r3, r3
 11896 4754 2B70     		strb	r3, [r5, #0]
 11897 4756 9B18     		adds	r3, r3, r2
 11898 4758 2370     		strb	r3, [r4, #0]
 11899 475a 3448     		ldr	r0, .L368+4
 11900 475c FFF7FEFF 		bl	uart_transmit
 11901              	.LVL1080:
 11902              	.LBE1507:
 11903              	.LBB1508:
 11904 4760 7178     		ldrb	r1, [r6, #1]	@ zero_extendqisi2
 11905              	.LVL1081:
 11906 4762 2B78     		ldrb	r3, [r5, #0]	@ zero_extendqisi2
 11907 4764 2278     		ldrb	r2, [r4, #0]	@ zero_extendqisi2
 11908 4766 CB18     		adds	r3, r1, r3
 11909 4768 DBB2     		uxtb	r3, r3
 11910 476a 2B70     		strb	r3, [r5, #0]
 11911 476c 9B18     		adds	r3, r3, r2
 11912 476e 2370     		strb	r3, [r4, #0]
 11913 4770 2E48     		ldr	r0, .L368+4
 11914 4772 FFF7FEFF 		bl	uart_transmit
 11915              	.LVL1082:
 11916              	.LBE1508:
 11917              	.LBB1509:
 11918 4776 B178     		ldrb	r1, [r6, #2]	@ zero_extendqisi2
 11919              	.LVL1083:
 11920 4778 2B78     		ldrb	r3, [r5, #0]	@ zero_extendqisi2
 11921 477a 2278     		ldrb	r2, [r4, #0]	@ zero_extendqisi2
 11922 477c CB18     		adds	r3, r1, r3
 11923 477e DBB2     		uxtb	r3, r3
 11924 4780 2B70     		strb	r3, [r5, #0]
 11925 4782 9B18     		adds	r3, r3, r2
 11926 4784 2370     		strb	r3, [r4, #0]
 11927 4786 2948     		ldr	r0, .L368+4
 11928 4788 FFF7FEFF 		bl	uart_transmit
 11929              	.LVL1084:
 11930              	.LBE1509:
 11931              	.LBB1510:
 11932 478c F178     		ldrb	r1, [r6, #3]	@ zero_extendqisi2
 11933              	.LVL1085:
 11934 478e 2B78     		ldrb	r3, [r5, #0]	@ zero_extendqisi2
 11935 4790 2278     		ldrb	r2, [r4, #0]	@ zero_extendqisi2
 11936 4792 CB18     		adds	r3, r1, r3
 11937 4794 DBB2     		uxtb	r3, r3
 11938              	.LBE1510:
 11939              	.LBB1511:
 11940 4796 2B4E     		ldr	r6, .L368+28
 11941              	.LBE1511:
 11942              	.LBB1512:
 11943 4798 2B70     		strb	r3, [r5, #0]
 11944 479a 9B18     		adds	r3, r3, r2
 11945 479c 2370     		strb	r3, [r4, #0]
 11946 479e 2348     		ldr	r0, .L368+4
 11947 47a0 FFF7FEFF 		bl	uart_transmit
 11948              	.LVL1086:
 11949              	.LBE1512:
 11950              	.LBB1513:
 11951 47a4 3178     		ldrb	r1, [r6, #0]	@ zero_extendqisi2
 11952              	.LVL1087:
 11953 47a6 2B78     		ldrb	r3, [r5, #0]	@ zero_extendqisi2
 11954 47a8 2278     		ldrb	r2, [r4, #0]	@ zero_extendqisi2
 11955 47aa CB18     		adds	r3, r1, r3
 11956 47ac DBB2     		uxtb	r3, r3
 11957 47ae 2B70     		strb	r3, [r5, #0]
 11958 47b0 9B18     		adds	r3, r3, r2
 11959 47b2 2370     		strb	r3, [r4, #0]
 11960 47b4 1D48     		ldr	r0, .L368+4
 11961 47b6 FFF7FEFF 		bl	uart_transmit
 11962              	.LVL1088:
 11963              	.LBE1513:
 11964              	.LBB1514:
 11965 47ba 7178     		ldrb	r1, [r6, #1]	@ zero_extendqisi2
 11966              	.LVL1089:
 11967 47bc 2B78     		ldrb	r3, [r5, #0]	@ zero_extendqisi2
 11968 47be 2278     		ldrb	r2, [r4, #0]	@ zero_extendqisi2
 11969 47c0 CB18     		adds	r3, r1, r3
 11970 47c2 DBB2     		uxtb	r3, r3
 11971 47c4 2B70     		strb	r3, [r5, #0]
 11972 47c6 9B18     		adds	r3, r3, r2
 11973 47c8 2370     		strb	r3, [r4, #0]
 11974 47ca 1848     		ldr	r0, .L368+4
 11975 47cc FFF7FEFF 		bl	uart_transmit
 11976              	.LVL1090:
 11977              	.LBE1514:
 11978              	.LBB1515:
 11979 47d0 B178     		ldrb	r1, [r6, #2]	@ zero_extendqisi2
 11980              	.LVL1091:
 11981 47d2 2B78     		ldrb	r3, [r5, #0]	@ zero_extendqisi2
 11982 47d4 2278     		ldrb	r2, [r4, #0]	@ zero_extendqisi2
 11983 47d6 CB18     		adds	r3, r1, r3
 11984 47d8 DBB2     		uxtb	r3, r3
 11985 47da 2B70     		strb	r3, [r5, #0]
 11986 47dc 9B18     		adds	r3, r3, r2
 11987 47de 2370     		strb	r3, [r4, #0]
 11988 47e0 1248     		ldr	r0, .L368+4
 11989 47e2 FFF7FEFF 		bl	uart_transmit
 11990              	.LVL1092:
 11991              	.LBE1515:
 11992              	.LBB1516:
 11993 47e6 F178     		ldrb	r1, [r6, #3]	@ zero_extendqisi2
 11994              	.LVL1093:
 11995 47e8 2B78     		ldrb	r3, [r5, #0]	@ zero_extendqisi2
 11996 47ea 2278     		ldrb	r2, [r4, #0]	@ zero_extendqisi2
 11997 47ec CB18     		adds	r3, r1, r3
 11998 47ee DBB2     		uxtb	r3, r3
 11999 47f0 2B70     		strb	r3, [r5, #0]
 12000 47f2 9B18     		adds	r3, r3, r2
 12001 47f4 2370     		strb	r3, [r4, #0]
 12002 47f6 0D48     		ldr	r0, .L368+4
 12003 47f8 FFF7FEFF 		bl	uart_transmit
 12004              	.LVL1094:
 12005              	.LBE1516:
 12006              	.LBB1517:
 12007 47fc 124B     		ldr	r3, .L368+32
 12008 47fe 2278     		ldrb	r2, [r4, #0]	@ zero_extendqisi2
 12009 4800 1978     		ldrb	r1, [r3, #0]	@ zero_extendqisi2
 12010              	.LVL1095:
 12011 4802 2B78     		ldrb	r3, [r5, #0]	@ zero_extendqisi2
 12012 4804 0948     		ldr	r0, .L368+4
 12013 4806 CB18     		adds	r3, r1, r3
 12014 4808 DBB2     		uxtb	r3, r3
 12015 480a 2B70     		strb	r3, [r5, #0]
 12016 480c 9B18     		adds	r3, r3, r2
 12017 480e 2370     		strb	r3, [r4, #0]
 12018 4810 FFF7FEFF 		bl	uart_transmit
 12019              	.LVL1096:
 12020              	.LBE1517:
 12021 4814 2978     		ldrb	r1, [r5, #0]	@ zero_extendqisi2
 12022 4816 0548     		ldr	r0, .L368+4
 12023 4818 FFF7FEFF 		bl	uart_transmit
 12024 481c 0348     		ldr	r0, .L368+4
 12025 481e 2178     		ldrb	r1, [r4, #0]	@ zero_extendqisi2
 12026 4820 FFF7FEFF 		bl	uart_transmit
 12027 4824 16E0     		b	.L147
 12028              	.L369:
 12029 4826 00BF     		.align	2
 12030              	.L368:
 12031 4828 00000000 		.word	.LANCHOR50
 12032 482c 00000000 		.word	uart2
 12033 4830 00000000 		.word	downlink_nb_bytes
 12034 4834 00000000 		.word	downlink_nb_msgs
 12035 4838 00000000 		.word	ck_a
 12036 483c 00000000 		.word	ck_b
 12037 4840 00000000 		.word	nav_utm_east0
 12038 4844 00000000 		.word	nav_utm_north0
 12039 4848 00000000 		.word	nav_utm_zone0
 12040              	.LVL1097:
 12041              	.L224:
 12042 484c 5C4B     		ldr	r3, .L370
 12043 484e 1A78     		ldrb	r2, [r3, #0]	@ zero_extendqisi2
 12044 4850 0132     		adds	r2, r2, #1
 12045 4852 1A70     		strb	r2, [r3, #0]
 12046              	.L147:
 12047              	.LBE1136:
 12048 4854 5B4B     		ldr	r3, .L370+4
 12049 4856 1B78     		ldrb	r3, [r3, #0]	@ zero_extendqisi2
 12050 4858 022B     		cmp	r3, #2
 12051 485a 41F0C281 		bne	.L69
 12052              	.LBB1518:
 12053 485e 5A4B     		ldr	r3, .L370+8
 12054 4860 40F25D21 		movw	r1, #605
 12055 4864 1A88     		ldrh	r2, [r3, #0]
 12056 4866 0132     		adds	r2, r2, #1
 12057 4868 92B2     		uxth	r2, r2
 12058 486a B2F5967F 		cmp	r2, #300
 12059 486e 1A80     		strh	r2, [r3, #0]	@ movhi
 12060 4870 24BF     		itt	cs
 12061 4872 0022     		movcs	r2, #0	@ movhi
 12062 4874 1A80     		strhcs	r2, [r3, #0]	@ movhi
 12063 4876 554B     		ldr	r3, .L370+12
 12064 4878 1A88     		ldrh	r2, [r3, #0]
 12065 487a 0132     		adds	r2, r2, #1
 12066 487c 92B2     		uxth	r2, r2
 12067 487e B2F5997F 		cmp	r2, #306
 12068 4882 1A80     		strh	r2, [r3, #0]	@ movhi
 12069 4884 24BF     		itt	cs
 12070 4886 0022     		movcs	r2, #0	@ movhi
 12071 4888 1A80     		strhcs	r2, [r3, #0]	@ movhi
 12072 488a 514B     		ldr	r3, .L370+16
 12073 488c 1A88     		ldrh	r2, [r3, #0]
 12074 488e 0132     		adds	r2, r2, #1
 12075 4890 92B2     		uxth	r2, r2
 12076 4892 B2F59F7F 		cmp	r2, #318
 12077 4896 1A80     		strh	r2, [r3, #0]	@ movhi
 12078 4898 24BF     		itt	cs
 12079 489a 0022     		movcs	r2, #0	@ movhi
 12080 489c 1A80     		strhcs	r2, [r3, #0]	@ movhi
 12081 489e 4D4B     		ldr	r3, .L370+20
 12082 48a0 1A88     		ldrh	r2, [r3, #0]
 12083 48a2 0132     		adds	r2, r2, #1
 12084 48a4 92B2     		uxth	r2, r2
 12085 48a6 B2F5A27F 		cmp	r2, #324
 12086 48aa 1A80     		strh	r2, [r3, #0]	@ movhi
 12087 48ac 24BF     		itt	cs
 12088 48ae 0022     		movcs	r2, #0	@ movhi
 12089 48b0 1A80     		strhcs	r2, [r3, #0]	@ movhi
 12090 48b2 494B     		ldr	r3, .L370+24
 12091 48b4 1A88     		ldrh	r2, [r3, #0]
 12092 48b6 0132     		adds	r2, r2, #1
 12093 48b8 92B2     		uxth	r2, r2
 12094 48ba B2F5A57F 		cmp	r2, #330
 12095 48be 1A80     		strh	r2, [r3, #0]	@ movhi
 12096 48c0 24BF     		itt	cs
 12097 48c2 0022     		movcs	r2, #0	@ movhi
 12098 48c4 1A80     		strhcs	r2, [r3, #0]	@ movhi
 12099 48c6 454B     		ldr	r3, .L370+28
 12100 48c8 1A88     		ldrh	r2, [r3, #0]
 12101 48ca 0132     		adds	r2, r2, #1
 12102 48cc 92B2     		uxth	r2, r2
 12103 48ce B2F5AB7F 		cmp	r2, #342
 12104 48d2 1A80     		strh	r2, [r3, #0]	@ movhi
 12105 48d4 24BF     		itt	cs
 12106 48d6 0022     		movcs	r2, #0	@ movhi
 12107 48d8 1A80     		strhcs	r2, [r3, #0]	@ movhi
 12108 48da 414B     		ldr	r3, .L370+32
 12109 48dc 1A88     		ldrh	r2, [r3, #0]
 12110 48de 0132     		adds	r2, r2, #1
 12111 48e0 92B2     		uxth	r2, r2
 12112 48e2 B2F5D27F 		cmp	r2, #420
 12113 48e6 1A80     		strh	r2, [r3, #0]	@ movhi
 12114 48e8 24BF     		itt	cs
 12115 48ea 0022     		movcs	r2, #0	@ movhi
 12116 48ec 1A80     		strhcs	r2, [r3, #0]	@ movhi
 12117 48ee 3D4B     		ldr	r3, .L370+36
 12118 48f0 1A88     		ldrh	r2, [r3, #0]
 12119 48f2 0132     		adds	r2, r2, #1
 12120 48f4 92B2     		uxth	r2, r2
 12121 48f6 8A42     		cmp	r2, r1
 12122 48f8 1A80     		strh	r2, [r3, #0]	@ movhi
 12123 48fa 84BF     		itt	hi
 12124 48fc 0022     		movhi	r2, #0	@ movhi
 12125 48fe 1A80     		strhhi	r2, [r3, #0]	@ movhi
 12126 4900 394B     		ldr	r3, .L370+40
 12127 4902 1A88     		ldrh	r2, [r3, #0]
 12128 4904 0132     		adds	r2, r2, #1
 12129 4906 92B2     		uxth	r2, r2
 12130 4908 B2F5197F 		cmp	r2, #612
 12131 490c 1A80     		strh	r2, [r3, #0]	@ movhi
 12132 490e 24BF     		itt	cs
 12133 4910 0022     		movcs	r2, #0	@ movhi
 12134 4912 1A80     		strhcs	r2, [r3, #0]	@ movhi
 12135 4914 2C4B     		ldr	r3, .L370+8
 12136 4916 1B88     		ldrh	r3, [r3, #0]
 12137 4918 002B     		cmp	r3, #0
 12138 491a 77D1     		bne	.L234
 12139 491c 3348     		ldr	r0, .L370+44
 12140 491e 1721     		movs	r1, #23
 12141 4920 FFF7FEFF 		bl	uart_check_free_space
 12142 4924 0028     		cmp	r0, #0
 12143 4926 6DD0     		beq	.L235
 12144 4928 314B     		ldr	r3, .L370+48
 12145              	.LBB1519:
 12146 492a 3048     		ldr	r0, .L370+44
 12147              	.LBE1519:
 12148 492c 1A88     		ldrh	r2, [r3, #0]
 12149              	.LBB1520:
 12150 492e 9921     		movs	r1, #153
 12151              	.LBE1520:
 12152 4930 1732     		adds	r2, r2, #23
 12153 4932 1A80     		strh	r2, [r3, #0]	@ movhi
 12154 4934 2F4B     		ldr	r3, .L370+52
 12155              	.LBB1521:
 12156 4936 304D     		ldr	r5, .L370+56
 12157              	.LBE1521:
 12158 4938 1A88     		ldrh	r2, [r3, #0]
 12159              	.LBB1522:
 12160 493a 304C     		ldr	r4, .L370+60
 12161              	.LBE1522:
 12162 493c 0132     		adds	r2, r2, #1
 12163 493e 1A80     		strh	r2, [r3, #0]	@ movhi
 12164              	.LBB1523:
 12165 4940 FFF7FEFF 		bl	uart_transmit
 12166 4944 2948     		ldr	r0, .L370+44
 12167 4946 1721     		movs	r1, #23
 12168 4948 FFF7FEFF 		bl	uart_transmit
 12169              	.LBE1523:
 12170 494c 1823     		movs	r3, #24
 12171 494e 2B70     		strb	r3, [r5, #0]
 12172 4950 1733     		adds	r3, r3, #23
 12173 4952 2370     		strb	r3, [r4, #0]
 12174 4954 2548     		ldr	r0, .L370+44
 12175 4956 0121     		movs	r1, #1
 12176 4958 FFF7FEFF 		bl	uart_transmit
 12177 495c 2B78     		ldrb	r3, [r5, #0]	@ zero_extendqisi2
 12178 495e 2278     		ldrb	r2, [r4, #0]	@ zero_extendqisi2
 12179 4960 0233     		adds	r3, r3, #2
 12180 4962 DBB2     		uxtb	r3, r3
 12181 4964 2B70     		strb	r3, [r5, #0]
 12182 4966 9B18     		adds	r3, r3, r2
 12183 4968 2370     		strb	r3, [r4, #0]
 12184 496a 2048     		ldr	r0, .L370+44
 12185 496c 0221     		movs	r1, #2
 12186 496e FFF7FEFF 		bl	uart_transmit
 12187              	.LBB1524:
 12188 4972 2B78     		ldrb	r3, [r5, #0]	@ zero_extendqisi2
 12189 4974 2278     		ldrb	r2, [r4, #0]	@ zero_extendqisi2
 12190 4976 1033     		adds	r3, r3, #16
 12191 4978 DBB2     		uxtb	r3, r3
 12192 497a 2B70     		strb	r3, [r5, #0]
 12193 497c 9B18     		adds	r3, r3, r2
 12194 497e 2370     		strb	r3, [r4, #0]
 12195 4980 1A48     		ldr	r0, .L370+44
 12196 4982 1021     		movs	r1, #16
 12197 4984 FFF7FEFF 		bl	uart_transmit
 12198 4988 1D4C     		ldr	r4, .L370+64
 425:firmwares/fixedwing/main_ap.c **** void periodic_task_ap( void ) {
 12199              		.loc 1 425 0
 12200 498a 04F11007 		add	r7, r4, #16
 12201              	.L236:
 12202              	.LBB1525:
 205:firmwares/fixedwing/main_ap.c ****     PeriodicSendAp(DefaultChannel);
 12203              		.loc 1 205 0
 12204 498e 1A4E     		ldr	r6, .L370+56
 12205              	.LVL1098:
 12206 4990 14F8011B 		ldrb	r1, [r4], #1	@ zero_extendqisi2
 12207              	.LVL1099:
 12208 4994 3378     		ldrb	r3, [r6, #0]	@ zero_extendqisi2
 12209 4996 194D     		ldr	r5, .L370+60
 12210 4998 CB18     		adds	r3, r1, r3
 12211 499a 2A78     		ldrb	r2, [r5, #0]	@ zero_extendqisi2
 12212 499c DBB2     		uxtb	r3, r3
 12213 499e 3370     		strb	r3, [r6, #0]
 12214 49a0 9B18     		adds	r3, r3, r2
 12215 49a2 2B70     		strb	r3, [r5, #0]
 12216 49a4 1148     		ldr	r0, .L370+44
 12217 49a6 FFF7FEFF 		bl	uart_transmit
 12218              	.LVL1100:
 12219              	.LBE1525:
 12220 49aa BC42     		cmp	r4, r7
 12221 49ac EFD1     		bne	.L236
 12222              	.LBE1524:
 12223 49ae 3178     		ldrb	r1, [r6, #0]	@ zero_extendqisi2
 12224 49b0 0E48     		ldr	r0, .L370+44
 12225 49b2 FFF7FEFF 		bl	uart_transmit
 12226 49b6 0D48     		ldr	r0, .L370+44
 12227 49b8 2978     		ldrb	r1, [r5, #0]	@ zero_extendqisi2
 12228 49ba FFF7FEFF 		bl	uart_transmit
 12229 49be 25E0     		b	.L234
 12230              	.L371:
 12231              		.align	2
 12232              	.L370:
 12233 49c0 00000000 		.word	downlink_nb_ovrn
 12234 49c4 00000000 		.word	telemetry_mode_Ap_DefaultChannel
 12235 49c8 00000000 		.word	.LANCHOR56
 12236 49cc 00000000 		.word	.LANCHOR57
 12237 49d0 00000000 		.word	.LANCHOR58
 12238 49d4 00000000 		.word	.LANCHOR59
 12239 49d8 00000000 		.word	.LANCHOR60
 12240 49dc 00000000 		.word	.LANCHOR61
 12241 49e0 00000000 		.word	.LANCHOR62
 12242 49e4 00000000 		.word	.LANCHOR63
 12243 49e8 00000000 		.word	.LANCHOR64
 12244 49ec 00000000 		.word	uart2
 12245 49f0 00000000 		.word	downlink_nb_bytes
 12246 49f4 00000000 		.word	downlink_nb_msgs
 12247 49f8 00000000 		.word	ck_a
 12248 49fc 00000000 		.word	ck_b
 12249 4a00 00000000 		.word	.LC0
 12250              	.LVL1101:
 12251              	.L235:
 12252 4a04 A64B     		ldr	r3, .L372+16
 12253 4a06 1A78     		ldrb	r2, [r3, #0]	@ zero_extendqisi2
 12254 4a08 0132     		adds	r2, r2, #1
 12255 4a0a 1A70     		strb	r2, [r3, #0]
 12256              	.L234:
 12257 4a0c A54B     		ldr	r3, .L372+20
 12258 4a0e 1B88     		ldrh	r3, [r3, #0]
 12259 4a10 062B     		cmp	r3, #6
 12260 4a12 40F08F82 		bne	.L237
 12261              	.LBB1526:
 12262 4a16 A44C     		ldr	r4, .L372+24
 12263 4a18 236C     		ldr	r3, [r4, #64]
 12264 4a1a A06C     		ldr	r0, [r4, #72]
 12265 4a1c 5B42     		negs	r3, r3
 12266 4a1e ADF80C30 		strh	r3, [sp, #12]	@ movhi
 12267              	.LVL1102:
 12268 4a22 FFF7FEFF 		bl	__aeabi_i2d
 12269 4a26 9AA3     		adr	r3, .L372
 12270 4a28 D3E90023 		ldrd	r2, [r3]
 12271 4a2c FFF7FEFF 		bl	__aeabi_dmul
 12272 4a30 99A3     		adr	r3, .L372+8
 12273 4a32 D3E90023 		ldrd	r2, [r3]
 12274 4a36 FFF7FEFF 		bl	__aeabi_ddiv
 12275 4a3a FFF7FEFF 		bl	__aeabi_d2iz
 12276 4a3e 2121     		movs	r1, #33
 12277 4a40 ADF80E00 		strh	r0, [sp, #14]	@ movhi
 12278              	.LVL1103:
 12279 4a44 9948     		ldr	r0, .L372+28
 12280 4a46 FFF7FEFF 		bl	uart_check_free_space
 12281 4a4a 0028     		cmp	r0, #0
 12282 4a4c 00F08881 		beq	.L238
 12283 4a50 974B     		ldr	r3, .L372+32
 12284              	.LBB1527:
 12285 4a52 9921     		movs	r1, #153
 12286              	.LBE1527:
 12287 4a54 1A88     		ldrh	r2, [r3, #0]
 12288              	.LBB1528:
 12289 4a56 9548     		ldr	r0, .L372+28
 12290              	.LBE1528:
 12291 4a58 2132     		adds	r2, r2, #33
 12292 4a5a 1A80     		strh	r2, [r3, #0]	@ movhi
 12293 4a5c 954B     		ldr	r3, .L372+36
 12294              	.LBB1529:
 12295 4a5e 964E     		ldr	r6, .L372+40
 12296              	.LVL1104:
 12297              	.LBE1529:
 12298 4a60 1A88     		ldrh	r2, [r3, #0]
 12299              	.LBB1530:
 12300 4a62 964D     		ldr	r5, .L372+44
 12301              	.LBE1530:
 12302 4a64 0132     		adds	r2, r2, #1
 12303 4a66 1A80     		strh	r2, [r3, #0]	@ movhi
 12304              	.LBB1531:
 12305 4a68 FFF7FEFF 		bl	uart_transmit
 12306 4a6c 2121     		movs	r1, #33
 12307 4a6e 8F48     		ldr	r0, .L372+28
 12308 4a70 FFF7FEFF 		bl	uart_transmit
 12309              	.LBE1531:
 12310 4a74 2223     		movs	r3, #34
 12311 4a76 3370     		strb	r3, [r6, #0]
 12312 4a78 2133     		adds	r3, r3, #33
 12313 4a7a 2B70     		strb	r3, [r5, #0]
 12314 4a7c 0121     		movs	r1, #1
 12315 4a7e 8B48     		ldr	r0, .L372+28
 12316 4a80 FFF7FEFF 		bl	uart_transmit
 12317 4a84 3378     		ldrb	r3, [r6, #0]	@ zero_extendqisi2
 12318 4a86 2A78     		ldrb	r2, [r5, #0]	@ zero_extendqisi2
 12319 4a88 0833     		adds	r3, r3, #8
 12320 4a8a DBB2     		uxtb	r3, r3
 12321 4a8c 3370     		strb	r3, [r6, #0]
 12322 4a8e 9B18     		adds	r3, r3, r2
 12323 4a90 2B70     		strb	r3, [r5, #0]
 12324 4a92 0821     		movs	r1, #8
 12325 4a94 8548     		ldr	r0, .L372+28
 12326 4a96 FFF7FEFF 		bl	uart_transmit
 12327              	.LBB1532:
 12328 4a9a 94F85710 		ldrb	r1, [r4, #87]	@ zero_extendqisi2
 12329              	.LVL1105:
 12330 4a9e 3378     		ldrb	r3, [r6, #0]	@ zero_extendqisi2
 12331 4aa0 2A78     		ldrb	r2, [r5, #0]	@ zero_extendqisi2
 12332 4aa2 CB18     		adds	r3, r1, r3
 12333 4aa4 DBB2     		uxtb	r3, r3
 12334 4aa6 3370     		strb	r3, [r6, #0]
 12335 4aa8 9B18     		adds	r3, r3, r2
 12336 4aaa 2B70     		strb	r3, [r5, #0]
 12337 4aac 7F48     		ldr	r0, .L372+28
 12338 4aae FFF7FEFF 		bl	uart_transmit
 12339              	.LVL1106:
 12340              	.LBE1532:
 12341              	.LBB1533:
 12342 4ab2 217F     		ldrb	r1, [r4, #28]	@ zero_extendqisi2
 12343              	.LVL1107:
 12344 4ab4 3378     		ldrb	r3, [r6, #0]	@ zero_extendqisi2
 12345 4ab6 2A78     		ldrb	r2, [r5, #0]	@ zero_extendqisi2
 12346 4ab8 CB18     		adds	r3, r1, r3
 12347 4aba DBB2     		uxtb	r3, r3
 12348 4abc 3370     		strb	r3, [r6, #0]
 12349 4abe 9B18     		adds	r3, r3, r2
 12350 4ac0 04F11C07 		add	r7, r4, #28
 12351 4ac4 2B70     		strb	r3, [r5, #0]
 12352 4ac6 7948     		ldr	r0, .L372+28
 12353 4ac8 FFF7FEFF 		bl	uart_transmit
 12354              	.LVL1108:
 12355              	.LBE1533:
 12356              	.LBB1534:
 12357 4acc 7978     		ldrb	r1, [r7, #1]	@ zero_extendqisi2
 12358              	.LVL1109:
 12359 4ace 3378     		ldrb	r3, [r6, #0]	@ zero_extendqisi2
 12360 4ad0 2A78     		ldrb	r2, [r5, #0]	@ zero_extendqisi2
 12361 4ad2 CB18     		adds	r3, r1, r3
 12362 4ad4 DBB2     		uxtb	r3, r3
 12363 4ad6 3370     		strb	r3, [r6, #0]
 12364 4ad8 9B18     		adds	r3, r3, r2
 12365 4ada 2B70     		strb	r3, [r5, #0]
 12366 4adc 7348     		ldr	r0, .L372+28
 12367 4ade FFF7FEFF 		bl	uart_transmit
 12368              	.LVL1110:
 12369              	.LBE1534:
 12370              	.LBB1535:
 12371 4ae2 B978     		ldrb	r1, [r7, #2]	@ zero_extendqisi2
 12372              	.LVL1111:
 12373 4ae4 3378     		ldrb	r3, [r6, #0]	@ zero_extendqisi2
 12374 4ae6 2A78     		ldrb	r2, [r5, #0]	@ zero_extendqisi2
 12375 4ae8 CB18     		adds	r3, r1, r3
 12376 4aea DBB2     		uxtb	r3, r3
 12377 4aec 3370     		strb	r3, [r6, #0]
 12378 4aee 9B18     		adds	r3, r3, r2
 12379 4af0 2B70     		strb	r3, [r5, #0]
 12380 4af2 6E48     		ldr	r0, .L372+28
 12381 4af4 FFF7FEFF 		bl	uart_transmit
 12382              	.LVL1112:
 12383              	.LBE1535:
 12384              	.LBB1536:
 12385 4af8 F978     		ldrb	r1, [r7, #3]	@ zero_extendqisi2
 12386              	.LVL1113:
 12387 4afa 3378     		ldrb	r3, [r6, #0]	@ zero_extendqisi2
 12388 4afc 2A78     		ldrb	r2, [r5, #0]	@ zero_extendqisi2
 12389 4afe CB18     		adds	r3, r1, r3
 12390 4b00 DBB2     		uxtb	r3, r3
 12391 4b02 3370     		strb	r3, [r6, #0]
 12392 4b04 9B18     		adds	r3, r3, r2
 12393 4b06 2B70     		strb	r3, [r5, #0]
 12394 4b08 6848     		ldr	r0, .L372+28
 12395 4b0a FFF7FEFF 		bl	uart_transmit
 12396              	.LVL1114:
 12397              	.LBE1536:
 12398              	.LBB1537:
 12399 4b0e 217E     		ldrb	r1, [r4, #24]	@ zero_extendqisi2
 12400              	.LVL1115:
 12401 4b10 3378     		ldrb	r3, [r6, #0]	@ zero_extendqisi2
 12402 4b12 2A78     		ldrb	r2, [r5, #0]	@ zero_extendqisi2
 12403 4b14 CB18     		adds	r3, r1, r3
 12404 4b16 DBB2     		uxtb	r3, r3
 12405 4b18 3370     		strb	r3, [r6, #0]
 12406 4b1a 9B18     		adds	r3, r3, r2
 12407 4b1c 04F11807 		add	r7, r4, #24
 12408 4b20 2B70     		strb	r3, [r5, #0]
 12409 4b22 6248     		ldr	r0, .L372+28
 12410 4b24 FFF7FEFF 		bl	uart_transmit
 12411              	.LVL1116:
 12412              	.LBE1537:
 12413              	.LBB1538:
 12414 4b28 7978     		ldrb	r1, [r7, #1]	@ zero_extendqisi2
 12415              	.LVL1117:
 12416 4b2a 3378     		ldrb	r3, [r6, #0]	@ zero_extendqisi2
 12417 4b2c 2A78     		ldrb	r2, [r5, #0]	@ zero_extendqisi2
 12418 4b2e CB18     		adds	r3, r1, r3
 12419 4b30 DBB2     		uxtb	r3, r3
 12420 4b32 3370     		strb	r3, [r6, #0]
 12421 4b34 9B18     		adds	r3, r3, r2
 12422 4b36 2B70     		strb	r3, [r5, #0]
 12423 4b38 5C48     		ldr	r0, .L372+28
 12424 4b3a FFF7FEFF 		bl	uart_transmit
 12425              	.LVL1118:
 12426              	.LBE1538:
 12427              	.LBB1539:
 12428 4b3e B978     		ldrb	r1, [r7, #2]	@ zero_extendqisi2
 12429              	.LVL1119:
 12430 4b40 3378     		ldrb	r3, [r6, #0]	@ zero_extendqisi2
 12431 4b42 2A78     		ldrb	r2, [r5, #0]	@ zero_extendqisi2
 12432 4b44 CB18     		adds	r3, r1, r3
 12433 4b46 DBB2     		uxtb	r3, r3
 12434 4b48 3370     		strb	r3, [r6, #0]
 12435 4b4a 9B18     		adds	r3, r3, r2
 12436 4b4c 2B70     		strb	r3, [r5, #0]
 12437 4b4e 5748     		ldr	r0, .L372+28
 12438 4b50 FFF7FEFF 		bl	uart_transmit
 12439              	.LVL1120:
 12440              	.LBE1539:
 12441              	.LBB1540:
 12442 4b54 F978     		ldrb	r1, [r7, #3]	@ zero_extendqisi2
 12443              	.LVL1121:
 12444 4b56 3378     		ldrb	r3, [r6, #0]	@ zero_extendqisi2
 12445 4b58 2A78     		ldrb	r2, [r5, #0]	@ zero_extendqisi2
 12446 4b5a CB18     		adds	r3, r1, r3
 12447 4b5c DBB2     		uxtb	r3, r3
 12448 4b5e 3370     		strb	r3, [r6, #0]
 12449 4b60 9B18     		adds	r3, r3, r2
 12450 4b62 2B70     		strb	r3, [r5, #0]
 12451 4b64 5148     		ldr	r0, .L372+28
 12452 4b66 FFF7FEFF 		bl	uart_transmit
 12453              	.LVL1122:
 12454              	.LBE1540:
 12455              	.LBB1541:
 12456 4b6a 9DF80E10 		ldrb	r1, [sp, #14]	@ zero_extendqisi2
 12457              	.LVL1123:
 12458 4b6e 3378     		ldrb	r3, [r6, #0]	@ zero_extendqisi2
 12459 4b70 2A78     		ldrb	r2, [r5, #0]	@ zero_extendqisi2
 12460 4b72 CB18     		adds	r3, r1, r3
 12461 4b74 DBB2     		uxtb	r3, r3
 12462 4b76 3370     		strb	r3, [r6, #0]
 12463 4b78 9B18     		adds	r3, r3, r2
 12464 4b7a 2B70     		strb	r3, [r5, #0]
 12465 4b7c 4B48     		ldr	r0, .L372+28
 12466 4b7e FFF7FEFF 		bl	uart_transmit
 12467              	.LVL1124:
 12468              	.LBE1541:
 12469              	.LBB1542:
 12470 4b82 0DF10E03 		add	r3, sp, #14
 12471 4b86 5978     		ldrb	r1, [r3, #1]	@ zero_extendqisi2
 12472              	.LVL1125:
 12473 4b88 3378     		ldrb	r3, [r6, #0]	@ zero_extendqisi2
 12474 4b8a 2A78     		ldrb	r2, [r5, #0]	@ zero_extendqisi2
 12475 4b8c CB18     		adds	r3, r1, r3
 12476 4b8e DBB2     		uxtb	r3, r3
 12477 4b90 3370     		strb	r3, [r6, #0]
 12478 4b92 9B18     		adds	r3, r3, r2
 12479 4b94 2B70     		strb	r3, [r5, #0]
 12480 4b96 4548     		ldr	r0, .L372+28
 12481 4b98 FFF7FEFF 		bl	uart_transmit
 12482              	.LVL1126:
 12483              	.LBE1542:
 12484              	.LBB1543:
 12485 4b9c 94F82810 		ldrb	r1, [r4, #40]	@ zero_extendqisi2
 12486              	.LVL1127:
 12487 4ba0 3378     		ldrb	r3, [r6, #0]	@ zero_extendqisi2
 12488 4ba2 2A78     		ldrb	r2, [r5, #0]	@ zero_extendqisi2
 12489 4ba4 CB18     		adds	r3, r1, r3
 12490 4ba6 DBB2     		uxtb	r3, r3
 12491 4ba8 3370     		strb	r3, [r6, #0]
 12492 4baa 9B18     		adds	r3, r3, r2
 12493 4bac 04F12807 		add	r7, r4, #40
 12494 4bb0 2B70     		strb	r3, [r5, #0]
 12495 4bb2 3E48     		ldr	r0, .L372+28
 12496 4bb4 FFF7FEFF 		bl	uart_transmit
 12497              	.LVL1128:
 12498              	.LBE1543:
 12499              	.LBB1544:
 12500 4bb8 7978     		ldrb	r1, [r7, #1]	@ zero_extendqisi2
 12501              	.LVL1129:
 12502 4bba 3378     		ldrb	r3, [r6, #0]	@ zero_extendqisi2
 12503 4bbc 2A78     		ldrb	r2, [r5, #0]	@ zero_extendqisi2
 12504 4bbe CB18     		adds	r3, r1, r3
 12505 4bc0 DBB2     		uxtb	r3, r3
 12506 4bc2 3370     		strb	r3, [r6, #0]
 12507 4bc4 9B18     		adds	r3, r3, r2
 12508 4bc6 2B70     		strb	r3, [r5, #0]
 12509 4bc8 3848     		ldr	r0, .L372+28
 12510 4bca FFF7FEFF 		bl	uart_transmit
 12511              	.LVL1130:
 12512              	.LBE1544:
 12513              	.LBB1545:
 12514 4bce B978     		ldrb	r1, [r7, #2]	@ zero_extendqisi2
 12515              	.LVL1131:
 12516 4bd0 3378     		ldrb	r3, [r6, #0]	@ zero_extendqisi2
 12517 4bd2 2A78     		ldrb	r2, [r5, #0]	@ zero_extendqisi2
 12518 4bd4 CB18     		adds	r3, r1, r3
 12519 4bd6 DBB2     		uxtb	r3, r3
 12520 4bd8 3370     		strb	r3, [r6, #0]
 12521 4bda 9B18     		adds	r3, r3, r2
 12522 4bdc 2B70     		strb	r3, [r5, #0]
 12523 4bde 3348     		ldr	r0, .L372+28
 12524 4be0 FFF7FEFF 		bl	uart_transmit
 12525              	.LVL1132:
 12526              	.LBE1545:
 12527              	.LBB1546:
 12528 4be4 F978     		ldrb	r1, [r7, #3]	@ zero_extendqisi2
 12529              	.LVL1133:
 12530 4be6 3378     		ldrb	r3, [r6, #0]	@ zero_extendqisi2
 12531 4be8 2A78     		ldrb	r2, [r5, #0]	@ zero_extendqisi2
 12532 4bea CB18     		adds	r3, r1, r3
 12533 4bec DBB2     		uxtb	r3, r3
 12534 4bee 3370     		strb	r3, [r6, #0]
 12535 4bf0 9B18     		adds	r3, r3, r2
 12536 4bf2 2B70     		strb	r3, [r5, #0]
 12537 4bf4 2D48     		ldr	r0, .L372+28
 12538 4bf6 FFF7FEFF 		bl	uart_transmit
 12539              	.LVL1134:
 12540              	.LBE1546:
 12541              	.LBB1547:
 12542 4bfa 94F84410 		ldrb	r1, [r4, #68]	@ zero_extendqisi2
 12543              	.LVL1135:
 12544 4bfe 3378     		ldrb	r3, [r6, #0]	@ zero_extendqisi2
 12545 4c00 2A78     		ldrb	r2, [r5, #0]	@ zero_extendqisi2
 12546 4c02 CB18     		adds	r3, r1, r3
 12547 4c04 DBB2     		uxtb	r3, r3
 12548 4c06 3370     		strb	r3, [r6, #0]
 12549 4c08 9B18     		adds	r3, r3, r2
 12550 4c0a 04F14407 		add	r7, r4, #68
 12551 4c0e 2B70     		strb	r3, [r5, #0]
 12552 4c10 2648     		ldr	r0, .L372+28
 12553 4c12 FFF7FEFF 		bl	uart_transmit
 12554              	.LVL1136:
 12555              	.LBE1547:
 12556              	.LBB1548:
 12557 4c16 7978     		ldrb	r1, [r7, #1]	@ zero_extendqisi2
 12558              	.LVL1137:
 12559 4c18 3378     		ldrb	r3, [r6, #0]	@ zero_extendqisi2
 12560 4c1a 2A78     		ldrb	r2, [r5, #0]	@ zero_extendqisi2
 12561 4c1c CB18     		adds	r3, r1, r3
 12562 4c1e DBB2     		uxtb	r3, r3
 12563 4c20 3370     		strb	r3, [r6, #0]
 12564 4c22 9B18     		adds	r3, r3, r2
 12565 4c24 2B70     		strb	r3, [r5, #0]
 12566 4c26 2148     		ldr	r0, .L372+28
 12567 4c28 FFF7FEFF 		bl	uart_transmit
 12568              	.LVL1138:
 12569              	.LBE1548:
 12570              	.LBB1549:
 12571 4c2c 9DF80C10 		ldrb	r1, [sp, #12]	@ zero_extendqisi2
 12572              	.LVL1139:
 12573 4c30 3378     		ldrb	r3, [r6, #0]	@ zero_extendqisi2
 12574 4c32 2A78     		ldrb	r2, [r5, #0]	@ zero_extendqisi2
 12575 4c34 CB18     		adds	r3, r1, r3
 12576 4c36 DBB2     		uxtb	r3, r3
 12577 4c38 3370     		strb	r3, [r6, #0]
 12578 4c3a 9B18     		adds	r3, r3, r2
 12579 4c3c 2B70     		strb	r3, [r5, #0]
 12580 4c3e 1B48     		ldr	r0, .L372+28
 12581 4c40 FFF7FEFF 		bl	uart_transmit
 12582              	.LVL1140:
 12583              	.LBE1549:
 12584              	.LBB1550:
 12585 4c44 03AB     		add	r3, sp, #12
 12586 4c46 5978     		ldrb	r1, [r3, #1]	@ zero_extendqisi2
 12587              	.LVL1141:
 12588 4c48 3378     		ldrb	r3, [r6, #0]	@ zero_extendqisi2
 12589 4c4a 2A78     		ldrb	r2, [r5, #0]	@ zero_extendqisi2
 12590 4c4c CB18     		adds	r3, r1, r3
 12591 4c4e DBB2     		uxtb	r3, r3
 12592 4c50 3370     		strb	r3, [r6, #0]
 12593 4c52 9B18     		adds	r3, r3, r2
 12594 4c54 2B70     		strb	r3, [r5, #0]
 12595 4c56 1548     		ldr	r0, .L372+28
 12596 4c58 FFF7FEFF 		bl	uart_transmit
 12597              	.LVL1142:
 12598              	.LBE1550:
 12599              	.LBB1551:
 12600 4c5c 94F85810 		ldrb	r1, [r4, #88]	@ zero_extendqisi2
 12601              	.LVL1143:
 12602 4c60 3378     		ldrb	r3, [r6, #0]	@ zero_extendqisi2
 12603 4c62 2A78     		ldrb	r2, [r5, #0]	@ zero_extendqisi2
 12604 4c64 CB18     		adds	r3, r1, r3
 12605 4c66 DBB2     		uxtb	r3, r3
 12606 4c68 3370     		strb	r3, [r6, #0]
 12607 4c6a 9B18     		adds	r3, r3, r2
 12608 4c6c 04F15807 		add	r7, r4, #88
 12609 4c70 2B70     		strb	r3, [r5, #0]
 12610 4c72 0E48     		ldr	r0, .L372+28
 12611 4c74 FFF7FEFF 		bl	uart_transmit
 12612              	.LVL1144:
 12613              	.LBE1551:
 12614              	.LBB1552:
 12615 4c78 7978     		ldrb	r1, [r7, #1]	@ zero_extendqisi2
 12616              	.LVL1145:
 12617 4c7a 3378     		ldrb	r3, [r6, #0]	@ zero_extendqisi2
 12618 4c7c 2A78     		ldrb	r2, [r5, #0]	@ zero_extendqisi2
 12619 4c7e CB18     		adds	r3, r1, r3
 12620 4c80 DBB2     		uxtb	r3, r3
 12621 4c82 3370     		strb	r3, [r6, #0]
 12622 4c84 9B18     		adds	r3, r3, r2
 12623 4c86 2B70     		strb	r3, [r5, #0]
 12624 4c88 0848     		ldr	r0, .L372+28
 12625 4c8a FFF7FEFF 		bl	uart_transmit
 12626 4c8e 17E0     		b	.L373
 12627              	.L374:
 12628              		.align	3
 12629              	.L372:
 12630 4c90 F8C1631A 		.word	442745336
 12631 4c94 DCA54C40 		.word	1078765020
 12632 4c98 00000000 		.word	0
 12633 4c9c 80842E41 		.word	1093567616
 12634 4ca0 00000000 		.word	downlink_nb_ovrn
 12635 4ca4 00000000 		.word	.LANCHOR57
 12636 4ca8 00000000 		.word	gps
 12637 4cac 00000000 		.word	uart2
 12638 4cb0 00000000 		.word	downlink_nb_bytes
 12639 4cb4 00000000 		.word	downlink_nb_msgs
 12640 4cb8 00000000 		.word	ck_a
 12641 4cbc 00000000 		.word	ck_b
 12642              	.L373:
 12643              	.LVL1146:
 12644              	.LBE1552:
 12645              	.LBB1553:
 12646 4cc0 94F85C10 		ldrb	r1, [r4, #92]	@ zero_extendqisi2
 12647              	.LVL1147:
 12648 4cc4 3378     		ldrb	r3, [r6, #0]	@ zero_extendqisi2
 12649 4cc6 2A78     		ldrb	r2, [r5, #0]	@ zero_extendqisi2
 12650 4cc8 CB18     		adds	r3, r1, r3
 12651 4cca DBB2     		uxtb	r3, r3
 12652 4ccc 3370     		strb	r3, [r6, #0]
 12653 4cce 9B18     		adds	r3, r3, r2
 12654 4cd0 04F15C07 		add	r7, r4, #92
 12655 4cd4 2B70     		strb	r3, [r5, #0]
 12656 4cd6 8B48     		ldr	r0, .L375
 12657 4cd8 FFF7FEFF 		bl	uart_transmit
 12658              	.LVL1148:
 12659              	.LBE1553:
 12660              	.LBB1554:
 12661 4cdc 7978     		ldrb	r1, [r7, #1]	@ zero_extendqisi2
 12662              	.LVL1149:
 12663 4cde 3378     		ldrb	r3, [r6, #0]	@ zero_extendqisi2
 12664 4ce0 2A78     		ldrb	r2, [r5, #0]	@ zero_extendqisi2
 12665 4ce2 CB18     		adds	r3, r1, r3
 12666 4ce4 DBB2     		uxtb	r3, r3
 12667 4ce6 3370     		strb	r3, [r6, #0]
 12668 4ce8 9B18     		adds	r3, r3, r2
 12669 4cea 2B70     		strb	r3, [r5, #0]
 12670 4cec 8548     		ldr	r0, .L375
 12671 4cee FFF7FEFF 		bl	uart_transmit
 12672              	.LVL1150:
 12673              	.LBE1554:
 12674              	.LBB1555:
 12675 4cf2 B978     		ldrb	r1, [r7, #2]	@ zero_extendqisi2
 12676              	.LVL1151:
 12677 4cf4 3378     		ldrb	r3, [r6, #0]	@ zero_extendqisi2
 12678 4cf6 2A78     		ldrb	r2, [r5, #0]	@ zero_extendqisi2
 12679 4cf8 CB18     		adds	r3, r1, r3
 12680 4cfa DBB2     		uxtb	r3, r3
 12681 4cfc 3370     		strb	r3, [r6, #0]
 12682 4cfe 9B18     		adds	r3, r3, r2
 12683 4d00 2B70     		strb	r3, [r5, #0]
 12684 4d02 8048     		ldr	r0, .L375
 12685 4d04 FFF7FEFF 		bl	uart_transmit
 12686              	.LVL1152:
 12687              	.LBE1555:
 12688              	.LBB1556:
 12689 4d08 F978     		ldrb	r1, [r7, #3]	@ zero_extendqisi2
 12690              	.LVL1153:
 12691 4d0a 3378     		ldrb	r3, [r6, #0]	@ zero_extendqisi2
 12692 4d0c 2A78     		ldrb	r2, [r5, #0]	@ zero_extendqisi2
 12693 4d0e CB18     		adds	r3, r1, r3
 12694 4d10 DBB2     		uxtb	r3, r3
 12695 4d12 3370     		strb	r3, [r6, #0]
 12696 4d14 9B18     		adds	r3, r3, r2
 12697 4d16 2B70     		strb	r3, [r5, #0]
 12698 4d18 7A48     		ldr	r0, .L375
 12699 4d1a FFF7FEFF 		bl	uart_transmit
 12700              	.LVL1154:
 12701              	.LBE1556:
 12702              	.LBB1557:
 12703 4d1e 94F82410 		ldrb	r1, [r4, #36]	@ zero_extendqisi2
 12704              	.LVL1155:
 12705 4d22 3378     		ldrb	r3, [r6, #0]	@ zero_extendqisi2
 12706 4d24 2A78     		ldrb	r2, [r5, #0]	@ zero_extendqisi2
 12707 4d26 CB18     		adds	r3, r1, r3
 12708 4d28 DBB2     		uxtb	r3, r3
 12709 4d2a 3370     		strb	r3, [r6, #0]
 12710 4d2c 9B18     		adds	r3, r3, r2
 12711 4d2e 2B70     		strb	r3, [r5, #0]
 12712 4d30 7448     		ldr	r0, .L375
 12713 4d32 FFF7FEFF 		bl	uart_transmit
 12714              	.LVL1156:
 12715              	.LBE1557:
 12716              	.LBB1558:
 12717 4d36 744B     		ldr	r3, .L375+4
 12718 4d38 2A78     		ldrb	r2, [r5, #0]	@ zero_extendqisi2
 12719 4d3a 1978     		ldrb	r1, [r3, #0]	@ zero_extendqisi2
 12720              	.LVL1157:
 12721 4d3c 3378     		ldrb	r3, [r6, #0]	@ zero_extendqisi2
 12722 4d3e 7148     		ldr	r0, .L375
 12723 4d40 CB18     		adds	r3, r1, r3
 12724 4d42 DBB2     		uxtb	r3, r3
 12725 4d44 3370     		strb	r3, [r6, #0]
 12726 4d46 9B18     		adds	r3, r3, r2
 12727 4d48 2B70     		strb	r3, [r5, #0]
 12728 4d4a FFF7FEFF 		bl	uart_transmit
 12729              	.LVL1158:
 12730              	.LBE1558:
 12731 4d4e 3178     		ldrb	r1, [r6, #0]	@ zero_extendqisi2
 12732 4d50 6C48     		ldr	r0, .L375
 12733 4d52 FFF7FEFF 		bl	uart_transmit
 12734 4d56 6B48     		ldr	r0, .L375
 12735 4d58 2978     		ldrb	r1, [r5, #0]	@ zero_extendqisi2
 12736 4d5a FFF7FEFF 		bl	uart_transmit
 12737 4d5e 03E0     		b	.L239
 12738              	.LVL1159:
 12739              	.L238:
 12740 4d60 6A4B     		ldr	r3, .L375+8
 12741 4d62 1A78     		ldrb	r2, [r3, #0]	@ zero_extendqisi2
 12742 4d64 0132     		adds	r2, r2, #1
 12743 4d66 1A70     		strb	r2, [r3, #0]
 12744              	.L239:
 12745 4d68 694A     		ldr	r2, .L375+12
 12746 4d6a 92F85730 		ldrb	r3, [r2, #87]	@ zero_extendqisi2
 12747 4d6e 032B     		cmp	r3, #3
 12748 4d70 07D0     		beq	.L240
 12749 4d72 654B     		ldr	r3, .L375+4
 12750 4d74 92F86020 		ldrb	r2, [r2, #96]	@ zero_extendqisi2
 12751 4d78 1978     		ldrb	r1, [r3, #0]	@ zero_extendqisi2
 12752 4d7a 9142     		cmp	r1, r2
 12753 4d7c 01D3     		bcc	.L240
 12754 4d7e 0022     		movs	r2, #0
 12755 4d80 1A70     		strb	r2, [r3, #0]
 12756              	.L240:
 12757 4d82 634B     		ldr	r3, .L375+12
 12758 4d84 93F86020 		ldrb	r2, [r3, #96]	@ zero_extendqisi2
 12759 4d88 5F4B     		ldr	r3, .L375+4
 12760 4d8a 1978     		ldrb	r1, [r3, #0]	@ zero_extendqisi2
 12761 4d8c B1EB420F 		cmp	r1, r2, lsl #1
 12762 4d90 01DB     		blt	.L241
 12763 4d92 0021     		movs	r1, #0
 12764 4d94 1970     		strb	r1, [r3, #0]
 12765              	.L241:
 12766 4d96 5C4E     		ldr	r6, .L375+4
 12767              	.LVL1160:
 12768 4d98 3378     		ldrb	r3, [r6, #0]	@ zero_extendqisi2
 12769 4d9a 9342     		cmp	r3, r2
 12770 4d9c 80F0C680 		bcs	.L242
 12771 4da0 5B4F     		ldr	r7, .L375+12
 12772 4da2 07EBC303 		add	r3, r7, r3, lsl #3
 12773 4da6 93F86530 		ldrb	r3, [r3, #101]	@ zero_extendqisi2
 12774 4daa 002B     		cmp	r3, #0
 12775 4dac 00F0BE80 		beq	.L242
 12776 4db0 5448     		ldr	r0, .L375
 12777 4db2 0E21     		movs	r1, #14
 12778 4db4 FFF7FEFF 		bl	uart_check_free_space
 12779 4db8 0028     		cmp	r0, #0
 12780 4dba 00F0B380 		beq	.L243
 12781 4dbe 554B     		ldr	r3, .L375+16
 12782              	.LBB1559:
 12783 4dc0 9921     		movs	r1, #153
 12784              	.LBE1559:
 12785 4dc2 1A88     		ldrh	r2, [r3, #0]
 12786              	.LBB1560:
 12787 4dc4 4F48     		ldr	r0, .L375
 12788              	.LBE1560:
 12789 4dc6 0E32     		adds	r2, r2, #14
 12790 4dc8 1A80     		strh	r2, [r3, #0]	@ movhi
 12791 4dca 534B     		ldr	r3, .L375+20
 12792              	.LBB1561:
 12793 4dcc 534D     		ldr	r5, .L375+24
 12794              	.LBE1561:
 12795 4dce 1A88     		ldrh	r2, [r3, #0]
 12796              	.LBB1562:
 12797 4dd0 534C     		ldr	r4, .L375+28
 12798              	.LBE1562:
 12799 4dd2 0132     		adds	r2, r2, #1
 12800 4dd4 1A80     		strh	r2, [r3, #0]	@ movhi
 12801              	.LBB1563:
 12802 4dd6 FFF7FEFF 		bl	uart_transmit
 12803 4dda 0E21     		movs	r1, #14
 12804 4ddc 4948     		ldr	r0, .L375
 12805 4dde FFF7FEFF 		bl	uart_transmit
 12806              	.LBE1563:
 12807 4de2 0F23     		movs	r3, #15
 12808 4de4 2B70     		strb	r3, [r5, #0]
 12809 4de6 0E33     		adds	r3, r3, #14
 12810 4de8 2370     		strb	r3, [r4, #0]
 12811 4dea 0121     		movs	r1, #1
 12812 4dec 4548     		ldr	r0, .L375
 12813 4dee FFF7FEFF 		bl	uart_transmit
 12814 4df2 2B78     		ldrb	r3, [r5, #0]	@ zero_extendqisi2
 12815 4df4 2278     		ldrb	r2, [r4, #0]	@ zero_extendqisi2
 12816 4df6 1933     		adds	r3, r3, #25
 12817 4df8 DBB2     		uxtb	r3, r3
 12818 4dfa 2B70     		strb	r3, [r5, #0]
 12819 4dfc 9B18     		adds	r3, r3, r2
 12820 4dfe 2370     		strb	r3, [r4, #0]
 12821 4e00 1921     		movs	r1, #25
 12822 4e02 4048     		ldr	r0, .L375
 12823 4e04 FFF7FEFF 		bl	uart_transmit
 12824              	.LBB1564:
 12825 4e08 3178     		ldrb	r1, [r6, #0]	@ zero_extendqisi2
 12826              	.LVL1161:
 12827 4e0a 2B78     		ldrb	r3, [r5, #0]	@ zero_extendqisi2
 12828 4e0c 2278     		ldrb	r2, [r4, #0]	@ zero_extendqisi2
 12829 4e0e CB18     		adds	r3, r1, r3
 12830 4e10 DBB2     		uxtb	r3, r3
 12831 4e12 2B70     		strb	r3, [r5, #0]
 12832 4e14 9B18     		adds	r3, r3, r2
 12833 4e16 2370     		strb	r3, [r4, #0]
 12834 4e18 3A48     		ldr	r0, .L375
 12835 4e1a FFF7FEFF 		bl	uart_transmit
 12836              	.LVL1162:
 12837              	.LBE1564:
 12838              	.LBB1565:
 12839 4e1e 3378     		ldrb	r3, [r6, #0]	@ zero_extendqisi2
 12840 4e20 2278     		ldrb	r2, [r4, #0]	@ zero_extendqisi2
 12841 4e22 07EBC303 		add	r3, r7, r3, lsl #3
 12842 4e26 93F86210 		ldrb	r1, [r3, #98]	@ zero_extendqisi2
 12843              	.LVL1163:
 12844 4e2a 2B78     		ldrb	r3, [r5, #0]	@ zero_extendqisi2
 12845 4e2c 3548     		ldr	r0, .L375
 12846 4e2e CB18     		adds	r3, r1, r3
 12847 4e30 DBB2     		uxtb	r3, r3
 12848 4e32 2B70     		strb	r3, [r5, #0]
 12849 4e34 9B18     		adds	r3, r3, r2
 12850 4e36 2370     		strb	r3, [r4, #0]
 12851 4e38 FFF7FEFF 		bl	uart_transmit
 12852              	.LVL1164:
 12853              	.LBE1565:
 12854              	.LBB1566:
 12855 4e3c 3378     		ldrb	r3, [r6, #0]	@ zero_extendqisi2
 12856 4e3e 2278     		ldrb	r2, [r4, #0]	@ zero_extendqisi2
 12857 4e40 07EBC303 		add	r3, r7, r3, lsl #3
 12858 4e44 93F86310 		ldrb	r1, [r3, #99]	@ zero_extendqisi2
 12859              	.LVL1165:
 12860 4e48 2B78     		ldrb	r3, [r5, #0]	@ zero_extendqisi2
 12861 4e4a 2E48     		ldr	r0, .L375
 12862 4e4c CB18     		adds	r3, r1, r3
 12863 4e4e DBB2     		uxtb	r3, r3
 12864 4e50 2B70     		strb	r3, [r5, #0]
 12865 4e52 9B18     		adds	r3, r3, r2
 12866 4e54 2370     		strb	r3, [r4, #0]
 12867 4e56 FFF7FEFF 		bl	uart_transmit
 12868              	.LVL1166:
 12869              	.LBE1566:
 12870              	.LBB1567:
 12871 4e5a 3378     		ldrb	r3, [r6, #0]	@ zero_extendqisi2
 12872 4e5c 2278     		ldrb	r2, [r4, #0]	@ zero_extendqisi2
 12873 4e5e 07EBC303 		add	r3, r7, r3, lsl #3
 12874 4e62 93F86410 		ldrb	r1, [r3, #100]	@ zero_extendqisi2
 12875              	.LVL1167:
 12876 4e66 2B78     		ldrb	r3, [r5, #0]	@ zero_extendqisi2
 12877 4e68 2648     		ldr	r0, .L375
 12878 4e6a CB18     		adds	r3, r1, r3
 12879 4e6c DBB2     		uxtb	r3, r3
 12880 4e6e 2B70     		strb	r3, [r5, #0]
 12881 4e70 9B18     		adds	r3, r3, r2
 12882 4e72 2370     		strb	r3, [r4, #0]
 12883 4e74 FFF7FEFF 		bl	uart_transmit
 12884              	.LVL1168:
 12885              	.LBE1567:
 12886              	.LBB1568:
 12887 4e78 3378     		ldrb	r3, [r6, #0]	@ zero_extendqisi2
 12888 4e7a 2278     		ldrb	r2, [r4, #0]	@ zero_extendqisi2
 12889 4e7c 07EBC303 		add	r3, r7, r3, lsl #3
 12890 4e80 93F86510 		ldrb	r1, [r3, #101]	@ zero_extendqisi2
 12891              	.LVL1169:
 12892 4e84 2B78     		ldrb	r3, [r5, #0]	@ zero_extendqisi2
 12893 4e86 1F48     		ldr	r0, .L375
 12894 4e88 CB18     		adds	r3, r1, r3
 12895 4e8a DBB2     		uxtb	r3, r3
 12896 4e8c 2B70     		strb	r3, [r5, #0]
 12897 4e8e 9B18     		adds	r3, r3, r2
 12898 4e90 2370     		strb	r3, [r4, #0]
 12899 4e92 FFF7FEFF 		bl	uart_transmit
 12900              	.LVL1170:
 12901              	.LBE1568:
 12902              	.LBB1569:
 12903 4e96 3378     		ldrb	r3, [r6, #0]	@ zero_extendqisi2
 12904 4e98 2278     		ldrb	r2, [r4, #0]	@ zero_extendqisi2
 12905 4e9a 07EBC303 		add	r3, r7, r3, lsl #3
 12906 4e9e 93F86610 		ldrb	r1, [r3, #102]	@ zero_extendqisi2
 12907              	.LVL1171:
 12908 4ea2 2B78     		ldrb	r3, [r5, #0]	@ zero_extendqisi2
 12909 4ea4 1748     		ldr	r0, .L375
 12910 4ea6 CB18     		adds	r3, r1, r3
 12911 4ea8 DBB2     		uxtb	r3, r3
 12912 4eaa 2B70     		strb	r3, [r5, #0]
 12913 4eac 9B18     		adds	r3, r3, r2
 12914 4eae 2370     		strb	r3, [r4, #0]
 12915 4eb0 FFF7FEFF 		bl	uart_transmit
 12916              	.LVL1172:
 12917              	.LBE1569:
 12918              	.LBB1570:
 12919 4eb4 3378     		ldrb	r3, [r6, #0]	@ zero_extendqisi2
 12920 4eb6 2278     		ldrb	r2, [r4, #0]	@ zero_extendqisi2
 12921 4eb8 07EBC303 		add	r3, r7, r3, lsl #3
 12922 4ebc 93F86810 		ldrb	r1, [r3, #104]	@ zero_extendqisi2
 12923              	.LVL1173:
 12924 4ec0 2B78     		ldrb	r3, [r5, #0]	@ zero_extendqisi2
 12925 4ec2 1048     		ldr	r0, .L375
 12926 4ec4 CB18     		adds	r3, r1, r3
 12927 4ec6 DBB2     		uxtb	r3, r3
 12928 4ec8 2B70     		strb	r3, [r5, #0]
 12929 4eca 9B18     		adds	r3, r3, r2
 12930 4ecc 2370     		strb	r3, [r4, #0]
 12931 4ece FFF7FEFF 		bl	uart_transmit
 12932              	.LVL1174:
 12933              	.LBE1570:
 12934              	.LBB1571:
 12935 4ed2 3378     		ldrb	r3, [r6, #0]	@ zero_extendqisi2
 12936 4ed4 2278     		ldrb	r2, [r4, #0]	@ zero_extendqisi2
 12937 4ed6 07EBC307 		add	r7, r7, r3, lsl #3
 12938 4eda 97F86910 		ldrb	r1, [r7, #105]	@ zero_extendqisi2
 12939              	.LVL1175:
 12940 4ede 2B78     		ldrb	r3, [r5, #0]	@ zero_extendqisi2
 12941 4ee0 0848     		ldr	r0, .L375
 12942 4ee2 CB18     		adds	r3, r1, r3
 12943 4ee4 DBB2     		uxtb	r3, r3
 12944 4ee6 2B70     		strb	r3, [r5, #0]
 12945 4ee8 9B18     		adds	r3, r3, r2
 12946 4eea 2370     		strb	r3, [r4, #0]
 12947 4eec FFF7FEFF 		bl	uart_transmit
 12948              	.LVL1176:
 12949              	.LBE1571:
 12950 4ef0 2978     		ldrb	r1, [r5, #0]	@ zero_extendqisi2
 12951 4ef2 0448     		ldr	r0, .L375
 12952 4ef4 FFF7FEFF 		bl	uart_transmit
 12953 4ef8 0248     		ldr	r0, .L375
 12954 4efa 2178     		ldrb	r1, [r4, #0]	@ zero_extendqisi2
 12955 4efc FFF7FEFF 		bl	uart_transmit
 12956 4f00 14E0     		b	.L242
 12957              	.L376:
 12958 4f02 00BF     		.align	2
 12959              	.L375:
 12960 4f04 00000000 		.word	uart2
 12961 4f08 00000000 		.word	.LANCHOR65
 12962 4f0c 00000000 		.word	downlink_nb_ovrn
 12963 4f10 00000000 		.word	gps
 12964 4f14 00000000 		.word	downlink_nb_bytes
 12965 4f18 00000000 		.word	downlink_nb_msgs
 12966 4f1c 00000000 		.word	ck_a
 12967 4f20 00000000 		.word	ck_b
 12968              	.L243:
 12969 4f24 4D4B     		ldr	r3, .L377
 12970 4f26 1A78     		ldrb	r2, [r3, #0]	@ zero_extendqisi2
 12971 4f28 0132     		adds	r2, r2, #1
 12972 4f2a 1A70     		strb	r2, [r3, #0]
 12973              	.L242:
 12974 4f2c 4C4B     		ldr	r3, .L377+4
 12975 4f2e 1A78     		ldrb	r2, [r3, #0]	@ zero_extendqisi2
 12976 4f30 0132     		adds	r2, r2, #1
 12977 4f32 1A70     		strb	r2, [r3, #0]
 12978              	.LVL1177:
 12979              	.L237:
 12980              	.LBE1526:
 12981 4f34 4B4B     		ldr	r3, .L377+8
 12982 4f36 1B88     		ldrh	r3, [r3, #0]
 12983 4f38 0C2B     		cmp	r3, #12
 12984 4f3a 40F0A780 		bne	.L244
 12985 4f3e 4A48     		ldr	r0, .L377+12
 12986 4f40 0E21     		movs	r1, #14
 12987 4f42 FFF7FEFF 		bl	uart_check_free_space
 12988 4f46 0028     		cmp	r0, #0
 12989 4f48 00F09C80 		beq	.L245
 12990 4f4c 474B     		ldr	r3, .L377+16
 12991              	.LBB1572:
 12992 4f4e 9921     		movs	r1, #153
 12993              	.LBE1572:
 12994 4f50 1A88     		ldrh	r2, [r3, #0]
 12995              	.LBB1573:
 12996 4f52 4548     		ldr	r0, .L377+12
 12997              	.LBE1573:
 12998 4f54 0E32     		adds	r2, r2, #14
 12999 4f56 1A80     		strh	r2, [r3, #0]	@ movhi
 13000 4f58 454B     		ldr	r3, .L377+20
 13001              	.LBB1574:
 13002 4f5a 464D     		ldr	r5, .L377+24
 13003              	.LBE1574:
 13004 4f5c 1A88     		ldrh	r2, [r3, #0]
 13005              	.LBB1575:
 13006 4f5e 464C     		ldr	r4, .L377+28
 13007              	.LBE1575:
 13008 4f60 0132     		adds	r2, r2, #1
 13009 4f62 1A80     		strh	r2, [r3, #0]	@ movhi
 13010              	.LBB1576:
 13011 4f64 FFF7FEFF 		bl	uart_transmit
 13012 4f68 0E21     		movs	r1, #14
 13013 4f6a 3F48     		ldr	r0, .L377+12
 13014 4f6c FFF7FEFF 		bl	uart_transmit
 13015              	.LBE1576:
 13016 4f70 0F23     		movs	r3, #15
 13017 4f72 2B70     		strb	r3, [r5, #0]
 13018 4f74 0E33     		adds	r3, r3, #14
 13019 4f76 2370     		strb	r3, [r4, #0]
 13020 4f78 0121     		movs	r1, #1
 13021 4f7a 3B48     		ldr	r0, .L377+12
 13022 4f7c FFF7FEFF 		bl	uart_transmit
 13023 4f80 2B78     		ldrb	r3, [r5, #0]	@ zero_extendqisi2
 13024 4f82 2278     		ldrb	r2, [r4, #0]	@ zero_extendqisi2
 13025 4f84 2A33     		adds	r3, r3, #42
 13026 4f86 DBB2     		uxtb	r3, r3
 13027              	.LBB1577:
 13028 4f88 3C4E     		ldr	r6, .L377+32
 13029              	.LVL1178:
 13030              	.LBE1577:
 13031 4f8a 2B70     		strb	r3, [r5, #0]
 13032 4f8c 9B18     		adds	r3, r3, r2
 13033 4f8e 2370     		strb	r3, [r4, #0]
 13034 4f90 2A21     		movs	r1, #42
 13035 4f92 3548     		ldr	r0, .L377+12
 13036 4f94 FFF7FEFF 		bl	uart_transmit
 13037              	.LBB1578:
 13038 4f98 3178     		ldrb	r1, [r6, #0]	@ zero_extendqisi2
 13039              	.LVL1179:
 13040 4f9a 2B78     		ldrb	r3, [r5, #0]	@ zero_extendqisi2
 13041 4f9c 2278     		ldrb	r2, [r4, #0]	@ zero_extendqisi2
 13042 4f9e CB18     		adds	r3, r1, r3
 13043 4fa0 DBB2     		uxtb	r3, r3
 13044 4fa2 2B70     		strb	r3, [r5, #0]
 13045 4fa4 9B18     		adds	r3, r3, r2
 13046 4fa6 2370     		strb	r3, [r4, #0]
 13047 4fa8 2F48     		ldr	r0, .L377+12
 13048 4faa FFF7FEFF 		bl	uart_transmit
 13049              	.LVL1180:
 13050              	.LBE1578:
 13051              	.LBB1579:
 13052 4fae 7178     		ldrb	r1, [r6, #1]	@ zero_extendqisi2
 13053              	.LVL1181:
 13054 4fb0 2B78     		ldrb	r3, [r5, #0]	@ zero_extendqisi2
 13055 4fb2 2278     		ldrb	r2, [r4, #0]	@ zero_extendqisi2
 13056 4fb4 CB18     		adds	r3, r1, r3
 13057 4fb6 DBB2     		uxtb	r3, r3
 13058 4fb8 2B70     		strb	r3, [r5, #0]
 13059 4fba 9B18     		adds	r3, r3, r2
 13060 4fbc 2370     		strb	r3, [r4, #0]
 13061 4fbe 2A48     		ldr	r0, .L377+12
 13062 4fc0 FFF7FEFF 		bl	uart_transmit
 13063              	.LVL1182:
 13064              	.LBE1579:
 13065              	.LBB1580:
 13066 4fc4 B178     		ldrb	r1, [r6, #2]	@ zero_extendqisi2
 13067              	.LVL1183:
 13068 4fc6 2B78     		ldrb	r3, [r5, #0]	@ zero_extendqisi2
 13069 4fc8 2278     		ldrb	r2, [r4, #0]	@ zero_extendqisi2
 13070 4fca CB18     		adds	r3, r1, r3
 13071 4fcc DBB2     		uxtb	r3, r3
 13072 4fce 2B70     		strb	r3, [r5, #0]
 13073 4fd0 9B18     		adds	r3, r3, r2
 13074 4fd2 2370     		strb	r3, [r4, #0]
 13075 4fd4 2448     		ldr	r0, .L377+12
 13076 4fd6 FFF7FEFF 		bl	uart_transmit
 13077              	.LVL1184:
 13078              	.LBE1580:
 13079              	.LBB1581:
 13080 4fda F178     		ldrb	r1, [r6, #3]	@ zero_extendqisi2
 13081              	.LVL1185:
 13082 4fdc 2B78     		ldrb	r3, [r5, #0]	@ zero_extendqisi2
 13083 4fde 2278     		ldrb	r2, [r4, #0]	@ zero_extendqisi2
 13084 4fe0 CB18     		adds	r3, r1, r3
 13085 4fe2 DBB2     		uxtb	r3, r3
 13086              	.LBE1581:
 13087              	.LBB1582:
 13088 4fe4 264E     		ldr	r6, .L377+36
 13089              	.LBE1582:
 13090              	.LBB1583:
 13091 4fe6 2B70     		strb	r3, [r5, #0]
 13092 4fe8 9B18     		adds	r3, r3, r2
 13093 4fea 2370     		strb	r3, [r4, #0]
 13094 4fec 1E48     		ldr	r0, .L377+12
 13095 4fee FFF7FEFF 		bl	uart_transmit
 13096              	.LVL1186:
 13097              	.LBE1583:
 13098              	.LBB1584:
 13099 4ff2 3178     		ldrb	r1, [r6, #0]	@ zero_extendqisi2
 13100              	.LVL1187:
 13101 4ff4 2B78     		ldrb	r3, [r5, #0]	@ zero_extendqisi2
 13102 4ff6 2278     		ldrb	r2, [r4, #0]	@ zero_extendqisi2
 13103 4ff8 CB18     		adds	r3, r1, r3
 13104 4ffa DBB2     		uxtb	r3, r3
 13105 4ffc 2B70     		strb	r3, [r5, #0]
 13106 4ffe 9B18     		adds	r3, r3, r2
 13107 5000 2370     		strb	r3, [r4, #0]
 13108 5002 1948     		ldr	r0, .L377+12
 13109 5004 FFF7FEFF 		bl	uart_transmit
 13110              	.LVL1188:
 13111              	.LBE1584:
 13112              	.LBB1585:
 13113 5008 7178     		ldrb	r1, [r6, #1]	@ zero_extendqisi2
 13114              	.LVL1189:
 13115 500a 2B78     		ldrb	r3, [r5, #0]	@ zero_extendqisi2
 13116 500c 2278     		ldrb	r2, [r4, #0]	@ zero_extendqisi2
 13117 500e CB18     		adds	r3, r1, r3
 13118 5010 DBB2     		uxtb	r3, r3
 13119 5012 2B70     		strb	r3, [r5, #0]
 13120 5014 9B18     		adds	r3, r3, r2
 13121 5016 2370     		strb	r3, [r4, #0]
 13122 5018 1348     		ldr	r0, .L377+12
 13123 501a FFF7FEFF 		bl	uart_transmit
 13124              	.LVL1190:
 13125              	.LBE1585:
 13126              	.LBB1586:
 13127 501e B178     		ldrb	r1, [r6, #2]	@ zero_extendqisi2
 13128              	.LVL1191:
 13129 5020 2B78     		ldrb	r3, [r5, #0]	@ zero_extendqisi2
 13130 5022 2278     		ldrb	r2, [r4, #0]	@ zero_extendqisi2
 13131 5024 CB18     		adds	r3, r1, r3
 13132 5026 DBB2     		uxtb	r3, r3
 13133 5028 2B70     		strb	r3, [r5, #0]
 13134 502a 9B18     		adds	r3, r3, r2
 13135 502c 2370     		strb	r3, [r4, #0]
 13136 502e 0E48     		ldr	r0, .L377+12
 13137 5030 FFF7FEFF 		bl	uart_transmit
 13138              	.LVL1192:
 13139              	.LBE1586:
 13140              	.LBB1587:
 13141 5034 F178     		ldrb	r1, [r6, #3]	@ zero_extendqisi2
 13142              	.LVL1193:
 13143 5036 2B78     		ldrb	r3, [r5, #0]	@ zero_extendqisi2
 13144 5038 2278     		ldrb	r2, [r4, #0]	@ zero_extendqisi2
 13145 503a CB18     		adds	r3, r1, r3
 13146 503c DBB2     		uxtb	r3, r3
 13147 503e 2B70     		strb	r3, [r5, #0]
 13148 5040 9B18     		adds	r3, r3, r2
 13149 5042 2370     		strb	r3, [r4, #0]
 13150 5044 0848     		ldr	r0, .L377+12
 13151 5046 FFF7FEFF 		bl	uart_transmit
 13152              	.LVL1194:
 13153              	.LBE1587:
 13154 504a 2978     		ldrb	r1, [r5, #0]	@ zero_extendqisi2
 13155 504c 0648     		ldr	r0, .L377+12
 13156 504e FFF7FEFF 		bl	uart_transmit
 13157 5052 0548     		ldr	r0, .L377+12
 13158 5054 2178     		ldrb	r1, [r4, #0]	@ zero_extendqisi2
 13159 5056 FFF7FEFF 		bl	uart_transmit
 13160 505a 17E0     		b	.L244
 13161              	.L378:
 13162              		.align	2
 13163              	.L377:
 13164 505c 00000000 		.word	downlink_nb_ovrn
 13165 5060 00000000 		.word	.LANCHOR65
 13166 5064 00000000 		.word	.LANCHOR58
 13167 5068 00000000 		.word	uart2
 13168 506c 00000000 		.word	downlink_nb_bytes
 13169 5070 00000000 		.word	downlink_nb_msgs
 13170 5074 00000000 		.word	ck_a
 13171 5078 00000000 		.word	ck_b
 13172 507c 00000000 		.word	estimator_z
 13173 5080 00000000 		.word	estimator_z_dot
 13174              	.LVL1195:
 13175              	.L245:
 13176 5084 9A4B     		ldr	r3, .L379+8
 13177 5086 1A78     		ldrb	r2, [r3, #0]	@ zero_extendqisi2
 13178 5088 0132     		adds	r2, r2, #1
 13179 508a 1A70     		strb	r2, [r3, #0]
 13180              	.L244:
 13181 508c 994B     		ldr	r3, .L379+12
 13182 508e 1B88     		ldrh	r3, [r3, #0]
 13183 5090 122B     		cmp	r3, #18
 13184 5092 40F04F81 		bne	.L246
 13185              	.LBB1588:
 13186 5096 984B     		ldr	r3, .L379+16
 13187 5098 9848     		ldr	r0, .L379+20
 13188 509a 1A21     		movs	r1, #26
 13189 509c 1C68     		ldr	r4, [r3, #0]	@ float
 13190 509e FFF7FEFF 		bl	uart_check_free_space
 13191 50a2 0028     		cmp	r0, #0
 13192 50a4 00F04281 		beq	.L247
 13193 50a8 24F00040 		bic	r0, r4, #-2147483648
 13194 50ac FFF7FEFF 		bl	__aeabi_f2d
 13195 50b0 8DA3     		adr	r3, .L379
 13196 50b2 D3E90023 		ldrd	r2, [r3]
 13197 50b6 FFF7FEFF 		bl	__aeabi_ddiv
 13198 50ba FFF7FEFF 		bl	__aeabi_d2uiz
 13199 50be 904B     		ldr	r3, .L379+24
 13200 50c0 C7B2     		uxtb	r7, r0
 13201 50c2 1A88     		ldrh	r2, [r3, #0]
 13202              	.LBB1589:
 13203 50c4 9921     		movs	r1, #153
 13204              	.LBE1589:
 13205 50c6 1A32     		adds	r2, r2, #26
 13206 50c8 1A80     		strh	r2, [r3, #0]	@ movhi
 13207 50ca 8E4B     		ldr	r3, .L379+28
 13208              	.LBB1590:
 13209 50cc 8B48     		ldr	r0, .L379+20
 13210              	.LBE1590:
 13211 50ce 1A88     		ldrh	r2, [r3, #0]
 13212              	.LBB1591:
 13213 50d0 8D4D     		ldr	r5, .L379+32
 13214              	.LBE1591:
 13215 50d2 0132     		adds	r2, r2, #1
 13216 50d4 1A80     		strh	r2, [r3, #0]	@ movhi
 13217              	.LBB1592:
 13218 50d6 FFF7FEFF 		bl	uart_transmit
 13219 50da 1A21     		movs	r1, #26
 13220 50dc 8748     		ldr	r0, .L379+20
 13221 50de 8B4C     		ldr	r4, .L379+36
 13222 50e0 FFF7FEFF 		bl	uart_transmit
 13223              	.LBE1592:
 13224 50e4 1B23     		movs	r3, #27
 13225 50e6 2B70     		strb	r3, [r5, #0]
 13226 50e8 1A33     		adds	r3, r3, #26
 13227 50ea 2370     		strb	r3, [r4, #0]
 13228 50ec 0121     		movs	r1, #1
 13229 50ee 8348     		ldr	r0, .L379+20
 13230 50f0 FFF7FEFF 		bl	uart_transmit
 13231 50f4 2B78     		ldrb	r3, [r5, #0]	@ zero_extendqisi2
 13232 50f6 2278     		ldrb	r2, [r4, #0]	@ zero_extendqisi2
 13233 50f8 0A33     		adds	r3, r3, #10
 13234 50fa DBB2     		uxtb	r3, r3
 13235 50fc 2B70     		strb	r3, [r5, #0]
 13236 50fe 9B18     		adds	r3, r3, r2
 13237 5100 2370     		strb	r3, [r4, #0]
 13238 5102 0A21     		movs	r1, #10
 13239 5104 7D48     		ldr	r0, .L379+20
 13240 5106 FFF7FEFF 		bl	uart_transmit
 13241              	.LBB1593:
 13242 510a 814B     		ldr	r3, .L379+40
 13243 510c 2278     		ldrb	r2, [r4, #0]	@ zero_extendqisi2
 13244 510e 1978     		ldrb	r1, [r3, #0]	@ zero_extendqisi2
 13245              	.LVL1196:
 13246 5110 2B78     		ldrb	r3, [r5, #0]	@ zero_extendqisi2
 13247 5112 7A48     		ldr	r0, .L379+20
 13248 5114 CB18     		adds	r3, r1, r3
 13249 5116 DBB2     		uxtb	r3, r3
 13250 5118 2B70     		strb	r3, [r5, #0]
 13251 511a 9B18     		adds	r3, r3, r2
 13252 511c 2370     		strb	r3, [r4, #0]
 13253 511e FFF7FEFF 		bl	uart_transmit
 13254              	.LVL1197:
 13255              	.LBE1593:
 13256              	.LBB1594:
 13257 5122 7C4B     		ldr	r3, .L379+44
 13258 5124 2278     		ldrb	r2, [r4, #0]	@ zero_extendqisi2
 13259 5126 1978     		ldrb	r1, [r3, #0]	@ zero_extendqisi2
 13260              	.LVL1198:
 13261 5128 2B78     		ldrb	r3, [r5, #0]	@ zero_extendqisi2
 13262              	.LBE1594:
 13263              	.LBB1595:
 13264 512a 7B4E     		ldr	r6, .L379+48
 13265              	.LVL1199:
 13266              	.LBE1595:
 13267              	.LBB1596:
 13268 512c CB18     		adds	r3, r1, r3
 13269 512e DBB2     		uxtb	r3, r3
 13270 5130 2B70     		strb	r3, [r5, #0]
 13271 5132 9B18     		adds	r3, r3, r2
 13272 5134 2370     		strb	r3, [r4, #0]
 13273 5136 7148     		ldr	r0, .L379+20
 13274 5138 FFF7FEFF 		bl	uart_transmit
 13275              	.LVL1200:
 13276              	.LBE1596:
 13277              	.LBB1597:
 13278 513c 3178     		ldrb	r1, [r6, #0]	@ zero_extendqisi2
 13279              	.LVL1201:
 13280 513e 2B78     		ldrb	r3, [r5, #0]	@ zero_extendqisi2
 13281 5140 2278     		ldrb	r2, [r4, #0]	@ zero_extendqisi2
 13282 5142 CB18     		adds	r3, r1, r3
 13283 5144 DBB2     		uxtb	r3, r3
 13284 5146 2B70     		strb	r3, [r5, #0]
 13285 5148 9B18     		adds	r3, r3, r2
 13286 514a 2370     		strb	r3, [r4, #0]
 13287 514c 6B48     		ldr	r0, .L379+20
 13288 514e FFF7FEFF 		bl	uart_transmit
 13289              	.LVL1202:
 13290              	.LBE1597:
 13291              	.LBB1598:
 13292 5152 7178     		ldrb	r1, [r6, #1]	@ zero_extendqisi2
 13293              	.LVL1203:
 13294 5154 2B78     		ldrb	r3, [r5, #0]	@ zero_extendqisi2
 13295 5156 2278     		ldrb	r2, [r4, #0]	@ zero_extendqisi2
 13296 5158 CB18     		adds	r3, r1, r3
 13297 515a DBB2     		uxtb	r3, r3
 13298 515c 2B70     		strb	r3, [r5, #0]
 13299 515e 9B18     		adds	r3, r3, r2
 13300 5160 2370     		strb	r3, [r4, #0]
 13301 5162 6648     		ldr	r0, .L379+20
 13302 5164 FFF7FEFF 		bl	uart_transmit
 13303              	.LVL1204:
 13304              	.LBE1598:
 13305              	.LBB1599:
 13306 5168 B178     		ldrb	r1, [r6, #2]	@ zero_extendqisi2
 13307              	.LVL1205:
 13308 516a 2B78     		ldrb	r3, [r5, #0]	@ zero_extendqisi2
 13309 516c 2278     		ldrb	r2, [r4, #0]	@ zero_extendqisi2
 13310 516e CB18     		adds	r3, r1, r3
 13311 5170 DBB2     		uxtb	r3, r3
 13312 5172 2B70     		strb	r3, [r5, #0]
 13313 5174 9B18     		adds	r3, r3, r2
 13314 5176 2370     		strb	r3, [r4, #0]
 13315 5178 6048     		ldr	r0, .L379+20
 13316 517a FFF7FEFF 		bl	uart_transmit
 13317              	.LVL1206:
 13318              	.LBE1599:
 13319              	.LBB1600:
 13320 517e F178     		ldrb	r1, [r6, #3]	@ zero_extendqisi2
 13321              	.LVL1207:
 13322 5180 2B78     		ldrb	r3, [r5, #0]	@ zero_extendqisi2
 13323 5182 2278     		ldrb	r2, [r4, #0]	@ zero_extendqisi2
 13324 5184 CB18     		adds	r3, r1, r3
 13325 5186 DBB2     		uxtb	r3, r3
 13326              	.LBE1600:
 13327              	.LBB1601:
 13328 5188 644E     		ldr	r6, .L379+52
 13329              	.LBE1601:
 13330              	.LBB1602:
 13331 518a 2B70     		strb	r3, [r5, #0]
 13332 518c 9B18     		adds	r3, r3, r2
 13333 518e 2370     		strb	r3, [r4, #0]
 13334 5190 5A48     		ldr	r0, .L379+20
 13335 5192 FFF7FEFF 		bl	uart_transmit
 13336              	.LVL1208:
 13337              	.LBE1602:
 13338              	.LBB1603:
 13339 5196 3178     		ldrb	r1, [r6, #0]	@ zero_extendqisi2
 13340              	.LVL1209:
 13341 5198 2B78     		ldrb	r3, [r5, #0]	@ zero_extendqisi2
 13342 519a 2278     		ldrb	r2, [r4, #0]	@ zero_extendqisi2
 13343 519c CB18     		adds	r3, r1, r3
 13344 519e DBB2     		uxtb	r3, r3
 13345 51a0 2B70     		strb	r3, [r5, #0]
 13346 51a2 9B18     		adds	r3, r3, r2
 13347 51a4 2370     		strb	r3, [r4, #0]
 13348 51a6 5548     		ldr	r0, .L379+20
 13349 51a8 FFF7FEFF 		bl	uart_transmit
 13350              	.LVL1210:
 13351              	.LBE1603:
 13352              	.LBB1604:
 13353 51ac 7178     		ldrb	r1, [r6, #1]	@ zero_extendqisi2
 13354              	.LVL1211:
 13355 51ae 2B78     		ldrb	r3, [r5, #0]	@ zero_extendqisi2
 13356 51b0 2278     		ldrb	r2, [r4, #0]	@ zero_extendqisi2
 13357 51b2 CB18     		adds	r3, r1, r3
 13358 51b4 DBB2     		uxtb	r3, r3
 13359 51b6 2B70     		strb	r3, [r5, #0]
 13360 51b8 9B18     		adds	r3, r3, r2
 13361 51ba 2370     		strb	r3, [r4, #0]
 13362 51bc 4F48     		ldr	r0, .L379+20
 13363 51be FFF7FEFF 		bl	uart_transmit
 13364              	.LVL1212:
 13365              	.LBE1604:
 13366              	.LBB1605:
 13367 51c2 B178     		ldrb	r1, [r6, #2]	@ zero_extendqisi2
 13368              	.LVL1213:
 13369 51c4 2B78     		ldrb	r3, [r5, #0]	@ zero_extendqisi2
 13370 51c6 2278     		ldrb	r2, [r4, #0]	@ zero_extendqisi2
 13371 51c8 CB18     		adds	r3, r1, r3
 13372 51ca DBB2     		uxtb	r3, r3
 13373 51cc 2B70     		strb	r3, [r5, #0]
 13374 51ce 9B18     		adds	r3, r3, r2
 13375 51d0 2370     		strb	r3, [r4, #0]
 13376 51d2 4A48     		ldr	r0, .L379+20
 13377 51d4 FFF7FEFF 		bl	uart_transmit
 13378              	.LVL1214:
 13379              	.LBE1605:
 13380              	.LBB1606:
 13381 51d8 F178     		ldrb	r1, [r6, #3]	@ zero_extendqisi2
 13382              	.LVL1215:
 13383 51da 2B78     		ldrb	r3, [r5, #0]	@ zero_extendqisi2
 13384 51dc 2278     		ldrb	r2, [r4, #0]	@ zero_extendqisi2
 13385 51de CB18     		adds	r3, r1, r3
 13386 51e0 DBB2     		uxtb	r3, r3
 13387              	.LBE1606:
 13388              	.LBB1607:
 13389 51e2 4F4E     		ldr	r6, .L379+56
 13390              	.LBE1607:
 13391              	.LBB1608:
 13392 51e4 2B70     		strb	r3, [r5, #0]
 13393 51e6 9B18     		adds	r3, r3, r2
 13394 51e8 2370     		strb	r3, [r4, #0]
 13395 51ea 4448     		ldr	r0, .L379+20
 13396 51ec FFF7FEFF 		bl	uart_transmit
 13397              	.LVL1216:
 13398              	.LBE1608:
 13399              	.LBB1609:
 13400 51f0 3178     		ldrb	r1, [r6, #0]	@ zero_extendqisi2
 13401              	.LVL1217:
 13402 51f2 2B78     		ldrb	r3, [r5, #0]	@ zero_extendqisi2
 13403 51f4 2278     		ldrb	r2, [r4, #0]	@ zero_extendqisi2
 13404 51f6 CB18     		adds	r3, r1, r3
 13405 51f8 DBB2     		uxtb	r3, r3
 13406 51fa 2B70     		strb	r3, [r5, #0]
 13407 51fc 9B18     		adds	r3, r3, r2
 13408 51fe 2370     		strb	r3, [r4, #0]
 13409 5200 3E48     		ldr	r0, .L379+20
 13410 5202 FFF7FEFF 		bl	uart_transmit
 13411              	.LVL1218:
 13412              	.LBE1609:
 13413              	.LBB1610:
 13414 5206 7178     		ldrb	r1, [r6, #1]	@ zero_extendqisi2
 13415              	.LVL1219:
 13416 5208 2B78     		ldrb	r3, [r5, #0]	@ zero_extendqisi2
 13417 520a 2278     		ldrb	r2, [r4, #0]	@ zero_extendqisi2
 13418 520c CB18     		adds	r3, r1, r3
 13419 520e DBB2     		uxtb	r3, r3
 13420 5210 2B70     		strb	r3, [r5, #0]
 13421 5212 9B18     		adds	r3, r3, r2
 13422 5214 2370     		strb	r3, [r4, #0]
 13423 5216 3948     		ldr	r0, .L379+20
 13424 5218 FFF7FEFF 		bl	uart_transmit
 13425              	.LVL1220:
 13426              	.LBE1610:
 13427              	.LBB1611:
 13428 521c B178     		ldrb	r1, [r6, #2]	@ zero_extendqisi2
 13429              	.LVL1221:
 13430 521e 2B78     		ldrb	r3, [r5, #0]	@ zero_extendqisi2
 13431 5220 2278     		ldrb	r2, [r4, #0]	@ zero_extendqisi2
 13432 5222 CB18     		adds	r3, r1, r3
 13433 5224 DBB2     		uxtb	r3, r3
 13434 5226 2B70     		strb	r3, [r5, #0]
 13435 5228 9B18     		adds	r3, r3, r2
 13436 522a 2370     		strb	r3, [r4, #0]
 13437 522c 3348     		ldr	r0, .L379+20
 13438 522e FFF7FEFF 		bl	uart_transmit
 13439              	.LVL1222:
 13440              	.LBE1611:
 13441              	.LBB1612:
 13442 5232 F178     		ldrb	r1, [r6, #3]	@ zero_extendqisi2
 13443              	.LVL1223:
 13444 5234 2B78     		ldrb	r3, [r5, #0]	@ zero_extendqisi2
 13445 5236 2278     		ldrb	r2, [r4, #0]	@ zero_extendqisi2
 13446 5238 CB18     		adds	r3, r1, r3
 13447 523a DBB2     		uxtb	r3, r3
 13448              	.LBE1612:
 13449              	.LBB1613:
 13450 523c 394E     		ldr	r6, .L379+60
 13451              	.LBE1613:
 13452              	.LBB1614:
 13453 523e 2B70     		strb	r3, [r5, #0]
 13454 5240 9B18     		adds	r3, r3, r2
 13455 5242 2370     		strb	r3, [r4, #0]
 13456 5244 2D48     		ldr	r0, .L379+20
 13457 5246 FFF7FEFF 		bl	uart_transmit
 13458              	.LVL1224:
 13459              	.LBE1614:
 13460              	.LBB1615:
 13461 524a 3178     		ldrb	r1, [r6, #0]	@ zero_extendqisi2
 13462              	.LVL1225:
 13463 524c 2B78     		ldrb	r3, [r5, #0]	@ zero_extendqisi2
 13464 524e 2278     		ldrb	r2, [r4, #0]	@ zero_extendqisi2
 13465 5250 CB18     		adds	r3, r1, r3
 13466 5252 DBB2     		uxtb	r3, r3
 13467 5254 2B70     		strb	r3, [r5, #0]
 13468 5256 9B18     		adds	r3, r3, r2
 13469 5258 2370     		strb	r3, [r4, #0]
 13470 525a 2848     		ldr	r0, .L379+20
 13471 525c FFF7FEFF 		bl	uart_transmit
 13472              	.LVL1226:
 13473              	.LBE1615:
 13474              	.LBB1616:
 13475 5260 7178     		ldrb	r1, [r6, #1]	@ zero_extendqisi2
 13476              	.LVL1227:
 13477 5262 2B78     		ldrb	r3, [r5, #0]	@ zero_extendqisi2
 13478 5264 2278     		ldrb	r2, [r4, #0]	@ zero_extendqisi2
 13479 5266 CB18     		adds	r3, r1, r3
 13480 5268 DBB2     		uxtb	r3, r3
 13481 526a 2B70     		strb	r3, [r5, #0]
 13482 526c 9B18     		adds	r3, r3, r2
 13483 526e 2370     		strb	r3, [r4, #0]
 13484 5270 2248     		ldr	r0, .L379+20
 13485 5272 FFF7FEFF 		bl	uart_transmit
 13486              	.LVL1228:
 13487              	.LBE1616:
 13488              	.LBB1617:
 13489 5276 B178     		ldrb	r1, [r6, #2]	@ zero_extendqisi2
 13490              	.LVL1229:
 13491 5278 2B78     		ldrb	r3, [r5, #0]	@ zero_extendqisi2
 13492 527a 2278     		ldrb	r2, [r4, #0]	@ zero_extendqisi2
 13493 527c CB18     		adds	r3, r1, r3
 13494 527e DBB2     		uxtb	r3, r3
 13495 5280 2B70     		strb	r3, [r5, #0]
 13496 5282 9B18     		adds	r3, r3, r2
 13497 5284 2370     		strb	r3, [r4, #0]
 13498 5286 1D48     		ldr	r0, .L379+20
 13499 5288 FFF7FEFF 		bl	uart_transmit
 13500              	.LVL1230:
 13501              	.LBE1617:
 13502              	.LBB1618:
 13503 528c F178     		ldrb	r1, [r6, #3]	@ zero_extendqisi2
 13504              	.LVL1231:
 13505 528e 2B78     		ldrb	r3, [r5, #0]	@ zero_extendqisi2
 13506 5290 2278     		ldrb	r2, [r4, #0]	@ zero_extendqisi2
 13507 5292 CB18     		adds	r3, r1, r3
 13508 5294 DBB2     		uxtb	r3, r3
 13509 5296 2B70     		strb	r3, [r5, #0]
 13510 5298 9B18     		adds	r3, r3, r2
 13511 529a 2370     		strb	r3, [r4, #0]
 13512 529c 1748     		ldr	r0, .L379+20
 13513 529e FFF7FEFF 		bl	uart_transmit
 13514              	.LVL1232:
 13515              	.LBE1618:
 13516              	.LBB1619:
 13517 52a2 2B78     		ldrb	r3, [r5, #0]	@ zero_extendqisi2
 13518 52a4 2278     		ldrb	r2, [r4, #0]	@ zero_extendqisi2
 13519 52a6 FB18     		adds	r3, r7, r3
 13520 52a8 DBB2     		uxtb	r3, r3
 13521 52aa 2B70     		strb	r3, [r5, #0]
 13522 52ac 9B18     		adds	r3, r3, r2
 13523 52ae 2370     		strb	r3, [r4, #0]
 13524 52b0 3946     		mov	r1, r7
 13525 52b2 1248     		ldr	r0, .L379+20
 13526 52b4 FFF7FEFF 		bl	uart_transmit
 13527              	.LBE1619:
 13528              	.LBB1620:
 13529 52b8 1B4B     		ldr	r3, .L379+64
 13530 52ba 2278     		ldrb	r2, [r4, #0]	@ zero_extendqisi2
 13531 52bc 1978     		ldrb	r1, [r3, #0]	@ zero_extendqisi2
 13532              	.LVL1233:
 13533 52be 2B78     		ldrb	r3, [r5, #0]	@ zero_extendqisi2
 13534 52c0 0E48     		ldr	r0, .L379+20
 13535 52c2 CB18     		adds	r3, r1, r3
 13536 52c4 DBB2     		uxtb	r3, r3
 13537 52c6 2B70     		strb	r3, [r5, #0]
 13538 52c8 9B18     		adds	r3, r3, r2
 13539 52ca 2370     		strb	r3, [r4, #0]
 13540 52cc FFF7FEFF 		bl	uart_transmit
 13541              	.LVL1234:
 13542              	.LBE1620:
 13543 52d0 2978     		ldrb	r1, [r5, #0]	@ zero_extendqisi2
 13544 52d2 0A48     		ldr	r0, .L379+20
 13545 52d4 FFF7FEFF 		bl	uart_transmit
 13546 52d8 0848     		ldr	r0, .L379+20
 13547 52da 2178     		ldrb	r1, [r4, #0]	@ zero_extendqisi2
 13548 52dc FFF7FEFF 		bl	uart_transmit
 13549 52e0 28E0     		b	.L246
 13550              	.L380:
 13551 52e2 00BFAFF3 		.align	3
 13551      0080
 13552              	.L379:
 13553 52e8 182D4454 		.word	1413754136
 13554 52ec FB211940 		.word	1075388923
 13555 52f0 00000000 		.word	downlink_nb_ovrn
 13556 52f4 00000000 		.word	.LANCHOR59
 13557 52f8 00000000 		.word	nav_circle_radians
 13558 52fc 00000000 		.word	uart2
 13559 5300 00000000 		.word	downlink_nb_bytes
 13560 5304 00000000 		.word	downlink_nb_msgs
 13561 5308 00000000 		.word	ck_a
 13562 530c 00000000 		.word	ck_b
 13563 5310 00000000 		.word	nav_block
 13564 5314 00000000 		.word	nav_stage
 13565 5318 00000000 		.word	estimator_x
 13566 531c 00000000 		.word	estimator_y
 13567 5320 00000000 		.word	dist2_to_wp
 13568 5324 00000000 		.word	dist2_to_home
 13569 5328 00000000 		.word	nav_oval_count
 13570              	.LVL1235:
 13571              	.L247:
 13572 532c 8A4B     		ldr	r3, .L381+8
 13573 532e 1A78     		ldrb	r2, [r3, #0]	@ zero_extendqisi2
 13574 5330 0132     		adds	r2, r2, #1
 13575 5332 1A70     		strb	r2, [r3, #0]
 13576              	.L246:
 13577              	.LBE1588:
 13578 5334 894B     		ldr	r3, .L381+12
 13579 5336 1B88     		ldrh	r3, [r3, #0]
 13580 5338 182B     		cmp	r3, #24
 13581 533a 7FD1     		bne	.L248
 13582 533c 8848     		ldr	r0, .L381+16
 13583 533e 0C21     		movs	r1, #12
 13584 5340 FFF7FEFF 		bl	uart_check_free_space
 13585 5344 0028     		cmp	r0, #0
 13586 5346 75D0     		beq	.L249
 13587 5348 864B     		ldr	r3, .L381+20
 13588              	.LBB1621:
 13589 534a 8548     		ldr	r0, .L381+16
 13590              	.LBE1621:
 13591 534c 1A88     		ldrh	r2, [r3, #0]
 13592              	.LBB1622:
 13593 534e 9921     		movs	r1, #153
 13594              	.LBE1622:
 13595 5350 0C32     		adds	r2, r2, #12
 13596 5352 1A80     		strh	r2, [r3, #0]	@ movhi
 13597 5354 844B     		ldr	r3, .L381+24
 13598              	.LBB1623:
 13599 5356 854D     		ldr	r5, .L381+28
 13600              	.LBE1623:
 13601 5358 1A88     		ldrh	r2, [r3, #0]
 13602              	.LBB1624:
 13603 535a 854C     		ldr	r4, .L381+32
 13604              	.LBE1624:
 13605 535c 0132     		adds	r2, r2, #1
 13606 535e 1A80     		strh	r2, [r3, #0]	@ movhi
 13607              	.LBB1625:
 13608 5360 FFF7FEFF 		bl	uart_transmit
 13609 5364 7E48     		ldr	r0, .L381+16
 13610 5366 0C21     		movs	r1, #12
 13611 5368 FFF7FEFF 		bl	uart_transmit
 13612              	.LBE1625:
 13613 536c 0D23     		movs	r3, #13
 13614 536e 2B70     		strb	r3, [r5, #0]
 13615 5370 0C33     		adds	r3, r3, #12
 13616 5372 2370     		strb	r3, [r4, #0]
 13617 5374 7A48     		ldr	r0, .L381+16
 13618 5376 0121     		movs	r1, #1
 13619 5378 FFF7FEFF 		bl	uart_transmit
 13620 537c 2B78     		ldrb	r3, [r5, #0]	@ zero_extendqisi2
 13621 537e 2278     		ldrb	r2, [r4, #0]	@ zero_extendqisi2
 13622 5380 0B33     		adds	r3, r3, #11
 13623 5382 DBB2     		uxtb	r3, r3
 13624 5384 2B70     		strb	r3, [r5, #0]
 13625 5386 9B18     		adds	r3, r3, r2
 13626 5388 2370     		strb	r3, [r4, #0]
 13627 538a 7548     		ldr	r0, .L381+16
 13628 538c 0B21     		movs	r1, #11
 13629 538e FFF7FEFF 		bl	uart_transmit
 13630              	.LBB1626:
 13631 5392 784B     		ldr	r3, .L381+36
 13632 5394 2278     		ldrb	r2, [r4, #0]	@ zero_extendqisi2
 13633 5396 1978     		ldrb	r1, [r3, #0]	@ zero_extendqisi2
 13634              	.LVL1236:
 13635 5398 2B78     		ldrb	r3, [r5, #0]	@ zero_extendqisi2
 13636 539a 7148     		ldr	r0, .L381+16
 13637 539c CB18     		adds	r3, r1, r3
 13638 539e DBB2     		uxtb	r3, r3
 13639 53a0 2B70     		strb	r3, [r5, #0]
 13640 53a2 9B18     		adds	r3, r3, r2
 13641 53a4 2370     		strb	r3, [r4, #0]
 13642 53a6 FFF7FEFF 		bl	uart_transmit
 13643              	.LVL1237:
 13644              	.LBE1626:
 13645              	.LBB1627:
 13646 53aa 734B     		ldr	r3, .L381+40
 13647 53ac 2278     		ldrb	r2, [r4, #0]	@ zero_extendqisi2
 13648 53ae 1978     		ldrb	r1, [r3, #0]	@ zero_extendqisi2
 13649              	.LVL1238:
 13650 53b0 2B78     		ldrb	r3, [r5, #0]	@ zero_extendqisi2
 13651 53b2 6B48     		ldr	r0, .L381+16
 13652 53b4 CB18     		adds	r3, r1, r3
 13653 53b6 DBB2     		uxtb	r3, r3
 13654 53b8 2B70     		strb	r3, [r5, #0]
 13655 53ba 9B18     		adds	r3, r3, r2
 13656 53bc 2370     		strb	r3, [r4, #0]
 13657 53be FFF7FEFF 		bl	uart_transmit
 13658              	.LVL1239:
 13659              	.LBE1627:
 13660              	.LBB1628:
 13661 53c2 6E4B     		ldr	r3, .L381+44
 13662 53c4 2278     		ldrb	r2, [r4, #0]	@ zero_extendqisi2
 13663 53c6 1978     		ldrb	r1, [r3, #0]	@ zero_extendqisi2
 13664              	.LVL1240:
 13665 53c8 2B78     		ldrb	r3, [r5, #0]	@ zero_extendqisi2
 13666 53ca 6548     		ldr	r0, .L381+16
 13667 53cc CB18     		adds	r3, r1, r3
 13668 53ce DBB2     		uxtb	r3, r3
 13669 53d0 2B70     		strb	r3, [r5, #0]
 13670 53d2 9B18     		adds	r3, r3, r2
 13671 53d4 2370     		strb	r3, [r4, #0]
 13672 53d6 FFF7FEFF 		bl	uart_transmit
 13673              	.LVL1241:
 13674              	.LBE1628:
 13675              	.LBB1629:
 13676 53da 694B     		ldr	r3, .L381+48
 13677 53dc 2278     		ldrb	r2, [r4, #0]	@ zero_extendqisi2
 13678 53de 1978     		ldrb	r1, [r3, #0]	@ zero_extendqisi2
 13679              	.LVL1242:
 13680 53e0 2B78     		ldrb	r3, [r5, #0]	@ zero_extendqisi2
 13681 53e2 5F48     		ldr	r0, .L381+16
 13682 53e4 CB18     		adds	r3, r1, r3
 13683 53e6 DBB2     		uxtb	r3, r3
 13684 53e8 2B70     		strb	r3, [r5, #0]
 13685 53ea 9B18     		adds	r3, r3, r2
 13686 53ec 2370     		strb	r3, [r4, #0]
 13687 53ee FFF7FEFF 		bl	uart_transmit
 13688              	.LVL1243:
 13689              	.LBE1629:
 13690              	.LBB1630:
 13691 53f2 644B     		ldr	r3, .L381+52
 13692 53f4 2278     		ldrb	r2, [r4, #0]	@ zero_extendqisi2
 13693 53f6 1978     		ldrb	r1, [r3, #0]	@ zero_extendqisi2
 13694              	.LVL1244:
 13695 53f8 2B78     		ldrb	r3, [r5, #0]	@ zero_extendqisi2
 13696 53fa 5948     		ldr	r0, .L381+16
 13697 53fc CB18     		adds	r3, r1, r3
 13698 53fe DBB2     		uxtb	r3, r3
 13699 5400 2B70     		strb	r3, [r5, #0]
 13700 5402 9B18     		adds	r3, r3, r2
 13701 5404 2370     		strb	r3, [r4, #0]
 13702 5406 FFF7FEFF 		bl	uart_transmit
 13703              	.LVL1245:
 13704              	.LBE1630:
 13705              	.LBB1631:
 13706 540a 5F4B     		ldr	r3, .L381+56
 13707 540c 2278     		ldrb	r2, [r4, #0]	@ zero_extendqisi2
 13708 540e 1978     		ldrb	r1, [r3, #0]	@ zero_extendqisi2
 13709              	.LVL1246:
 13710 5410 2B78     		ldrb	r3, [r5, #0]	@ zero_extendqisi2
 13711 5412 5348     		ldr	r0, .L381+16
 13712 5414 CB18     		adds	r3, r1, r3
 13713 5416 DBB2     		uxtb	r3, r3
 13714 5418 2B70     		strb	r3, [r5, #0]
 13715 541a 9B18     		adds	r3, r3, r2
 13716 541c 2370     		strb	r3, [r4, #0]
 13717 541e FFF7FEFF 		bl	uart_transmit
 13718              	.LVL1247:
 13719              	.LBE1631:
 13720 5422 2978     		ldrb	r1, [r5, #0]	@ zero_extendqisi2
 13721 5424 4E48     		ldr	r0, .L381+16
 13722 5426 FFF7FEFF 		bl	uart_transmit
 13723 542a 4D48     		ldr	r0, .L381+16
 13724 542c 2178     		ldrb	r1, [r4, #0]	@ zero_extendqisi2
 13725 542e FFF7FEFF 		bl	uart_transmit
 13726 5432 03E0     		b	.L248
 13727              	.L249:
 13728 5434 484B     		ldr	r3, .L381+8
 13729 5436 1A78     		ldrb	r2, [r3, #0]	@ zero_extendqisi2
 13730 5438 0132     		adds	r2, r2, #1
 13731 543a 1A70     		strb	r2, [r3, #0]
 13732              	.L248:
 13733 543c 534B     		ldr	r3, .L381+60
 13734 543e 1D88     		ldrh	r5, [r3, #0]
 13735 5440 1E2D     		cmp	r5, #30
 13736 5442 40F0AA80 		bne	.L250
 13737              	.LBB1632:
 13738 5446 524E     		ldr	r6, .L381+64
 13739              	.LVL1248:
 13740 5448 464C     		ldr	r4, .L381+20
 13741 544a 3088     		ldrh	r0, [r6, #0]
 13742 544c 2788     		ldrh	r7, [r4, #0]
 13743 544e 381A     		subs	r0, r7, r0
 13744 5450 FFF7FEFF 		bl	__aeabi_i2d
 13745 5454 3EA3     		adr	r3, .L381
 13746 5456 D3E90023 		ldrd	r2, [r3]
 13747 545a FFF7FEFF 		bl	__aeabi_ddiv
 13748 545e FFF7FEFF 		bl	__aeabi_d2uiz
 13749 5462 3780     		strh	r7, [r6, #0]	@ movhi
 13750 5464 ADF80E00 		strh	r0, [sp, #14]	@ movhi
 13751              	.LVL1249:
 13752 5468 0B21     		movs	r1, #11
 13753 546a 3D48     		ldr	r0, .L381+16
 13754 546c FFF7FEFF 		bl	uart_check_free_space
 13755 5470 394F     		ldr	r7, .L381+8
 13756 5472 0028     		cmp	r0, #0
 13757 5474 00F08E80 		beq	.L251
 13758 5478 2388     		ldrh	r3, [r4, #0]
 13759 547a DFF8EC80 		ldr	r8, .L381+24
 13760 547e 0B33     		adds	r3, r3, #11
 13761 5480 2380     		strh	r3, [r4, #0]	@ movhi
 13762 5482 B8F80030 		ldrh	r3, [r8, #0]
 13763              	.LBB1633:
 13764 5486 9921     		movs	r1, #153
 13765              	.LBE1633:
 13766 5488 0133     		adds	r3, r3, #1
 13767 548a A8F80030 		strh	r3, [r8, #0]	@ movhi
 13768              	.LBB1634:
 13769 548e 3448     		ldr	r0, .L381+16
 13770 5490 364E     		ldr	r6, .L381+28
 13771 5492 FFF7FEFF 		bl	uart_transmit
 13772 5496 0B21     		movs	r1, #11
 13773 5498 3148     		ldr	r0, .L381+16
 13774 549a 354C     		ldr	r4, .L381+32
 13775 549c FFF7FEFF 		bl	uart_transmit
 13776              	.LBE1634:
 13777 54a0 0C23     		movs	r3, #12
 13778 54a2 3370     		strb	r3, [r6, #0]
 13779 54a4 0B33     		adds	r3, r3, #11
 13780 54a6 2370     		strb	r3, [r4, #0]
 13781 54a8 0121     		movs	r1, #1
 13782 54aa 2D48     		ldr	r0, .L381+16
 13783 54ac FFF7FEFF 		bl	uart_transmit
 13784 54b0 3378     		ldrb	r3, [r6, #0]	@ zero_extendqisi2
 13785 54b2 2278     		ldrb	r2, [r4, #0]	@ zero_extendqisi2
 13786 54b4 1E33     		adds	r3, r3, #30
 13787 54b6 DBB2     		uxtb	r3, r3
 13788 54b8 3370     		strb	r3, [r6, #0]
 13789 54ba 9B18     		adds	r3, r3, r2
 13790 54bc 2370     		strb	r3, [r4, #0]
 13791 54be 2946     		mov	r1, r5
 13792 54c0 2748     		ldr	r0, .L381+16
 13793 54c2 FFF7FEFF 		bl	uart_transmit
 13794              	.LBB1635:
 13795 54c6 3978     		ldrb	r1, [r7, #0]	@ zero_extendqisi2
 13796              	.LVL1250:
 13797 54c8 3378     		ldrb	r3, [r6, #0]	@ zero_extendqisi2
 13798 54ca 2278     		ldrb	r2, [r4, #0]	@ zero_extendqisi2
 13799 54cc CB18     		adds	r3, r1, r3
 13800 54ce DBB2     		uxtb	r3, r3
 13801 54d0 3370     		strb	r3, [r6, #0]
 13802 54d2 9B18     		adds	r3, r3, r2
 13803 54d4 2370     		strb	r3, [r4, #0]
 13804 54d6 2248     		ldr	r0, .L381+16
 13805 54d8 FFF7FEFF 		bl	uart_transmit
 13806              	.LVL1251:
 13807              	.LBE1635:
 13808              	.LBB1636:
 13809 54dc 9DF80E10 		ldrb	r1, [sp, #14]	@ zero_extendqisi2
 13810              	.LVL1252:
 13811 54e0 3378     		ldrb	r3, [r6, #0]	@ zero_extendqisi2
 13812 54e2 2278     		ldrb	r2, [r4, #0]	@ zero_extendqisi2
 13813 54e4 CB18     		adds	r3, r1, r3
 13814 54e6 DBB2     		uxtb	r3, r3
 13815 54e8 3370     		strb	r3, [r6, #0]
 13816 54ea 9B18     		adds	r3, r3, r2
 13817 54ec 2370     		strb	r3, [r4, #0]
 13818 54ee 1C48     		ldr	r0, .L381+16
 13819 54f0 FFF7FEFF 		bl	uart_transmit
 13820              	.LVL1253:
 13821              	.LBE1636:
 13822              	.LBB1637:
 13823 54f4 0DF10E03 		add	r3, sp, #14
 13824 54f8 5978     		ldrb	r1, [r3, #1]	@ zero_extendqisi2
 13825              	.LVL1254:
 13826 54fa 3378     		ldrb	r3, [r6, #0]	@ zero_extendqisi2
 13827 54fc 2278     		ldrb	r2, [r4, #0]	@ zero_extendqisi2
 13828 54fe CB18     		adds	r3, r1, r3
 13829 5500 DBB2     		uxtb	r3, r3
 13830 5502 3370     		strb	r3, [r6, #0]
 13831 5504 9B18     		adds	r3, r3, r2
 13832 5506 2370     		strb	r3, [r4, #0]
 13833 5508 1548     		ldr	r0, .L381+16
 13834 550a FFF7FEFF 		bl	uart_transmit
 13835              	.LVL1255:
 13836              	.LBE1637:
 13837              	.LBB1638:
 13838 550e 98F80010 		ldrb	r1, [r8, #0]	@ zero_extendqisi2
 13839              	.LVL1256:
 13840 5512 3378     		ldrb	r3, [r6, #0]	@ zero_extendqisi2
 13841 5514 2278     		ldrb	r2, [r4, #0]	@ zero_extendqisi2
 13842 5516 CB18     		adds	r3, r1, r3
 13843 5518 DBB2     		uxtb	r3, r3
 13844 551a 3370     		strb	r3, [r6, #0]
 13845 551c 9B18     		adds	r3, r3, r2
 13846 551e 2370     		strb	r3, [r4, #0]
 13847 5520 0F48     		ldr	r0, .L381+16
 13848 5522 FFF7FEFF 		bl	uart_transmit
 13849              	.LVL1257:
 13850              	.LBE1638:
 13851              	.LBB1639:
 13852 5526 98F80110 		ldrb	r1, [r8, #1]	@ zero_extendqisi2
 13853              	.LVL1258:
 13854 552a 3378     		ldrb	r3, [r6, #0]	@ zero_extendqisi2
 13855 552c 2278     		ldrb	r2, [r4, #0]	@ zero_extendqisi2
 13856 552e CB18     		adds	r3, r1, r3
 13857 5530 DBB2     		uxtb	r3, r3
 13858 5532 3370     		strb	r3, [r6, #0]
 13859 5534 9B18     		adds	r3, r3, r2
 13860 5536 2370     		strb	r3, [r4, #0]
 13861 5538 0948     		ldr	r0, .L381+16
 13862 553a FFF7FEFF 		bl	uart_transmit
 13863              	.LVL1259:
 13864              	.LBE1639:
 13865 553e 3178     		ldrb	r1, [r6, #0]	@ zero_extendqisi2
 13866 5540 0748     		ldr	r0, .L381+16
 13867 5542 FFF7FEFF 		bl	uart_transmit
 13868 5546 0648     		ldr	r0, .L381+16
 13869 5548 2178     		ldrb	r1, [r4, #0]	@ zero_extendqisi2
 13870 554a FFF7FEFF 		bl	uart_transmit
 13871 554e 24E0     		b	.L250
 13872              	.L382:
 13873              		.align	3
 13874              	.L381:
 13875 5550 66666666 		.word	1717986918
 13876 5554 66661440 		.word	1075078758
 13877 5558 00000000 		.word	downlink_nb_ovrn
 13878 555c 00000000 		.word	.LANCHOR60
 13879 5560 00000000 		.word	uart2
 13880 5564 00000000 		.word	downlink_nb_bytes
 13881 5568 00000000 		.word	downlink_nb_msgs
 13882 556c 00000000 		.word	ck_a
 13883 5570 00000000 		.word	ck_b
 13884 5574 00000000 		.word	.LANCHOR2
 13885 5578 00000000 		.word	v_ctl_mode
 13886 557c 00000000 		.word	.LANCHOR4
 13887 5580 00000000 		.word	horizontal_mode
 13888 5584 00000000 		.word	.LANCHOR5
 13889 5588 00000000 		.word	.LANCHOR6
 13890 558c 00000000 		.word	.LANCHOR61
 13891 5590 00000000 		.word	.LANCHOR66
 13892              	.L251:
 13893 5594 3B78     		ldrb	r3, [r7, #0]	@ zero_extendqisi2
 13894 5596 0133     		adds	r3, r3, #1
 13895 5598 3B70     		strb	r3, [r7, #0]
 13896              	.LVL1260:
 13897              	.L250:
 13898              	.LBE1632:
 13899 559a 364B     		ldr	r3, .L383
 13900 559c 1B88     		ldrh	r3, [r3, #0]
 13901 559e 242B     		cmp	r3, #36
 13902 55a0 7CD1     		bne	.L252
 13903              	.LBB1640:
 13904 55a2 354B     		ldr	r3, .L383+4
 13905 55a4 3548     		ldr	r0, .L383+8
 13906 55a6 93F89860 		ldrb	r6, [r3, #152]	@ zero_extendqisi2
 13907              	.LVL1261:
 13908 55aa 354B     		ldr	r3, .L383+12
 13909 55ac 002E     		cmp	r6, #0
 13910 55ae 14BF     		ite	ne
 13911 55b0 0326     		movne	r6, #3
 13912 55b2 0226     		moveq	r6, #2
 13913              	.LVL1262:
 13914 55b4 1B78     		ldrb	r3, [r3, #0]	@ zero_extendqisi2
 13915 55b6 0921     		movs	r1, #9
 13916 55b8 0A2B     		cmp	r3, #10
 13917 55ba 88BF     		it	hi
 13918 55bc 0526     		movhi	r6, #5
 13919              	.LVL1263:
 13920 55be 4FF00003 		mov	r3, #0	@ movhi
 13921 55c2 ADF80E30 		strh	r3, [sp, #14]	@ movhi
 13922              	.LVL1264:
 13923 55c6 FFF7FEFF 		bl	uart_check_free_space
 13924 55ca 0028     		cmp	r0, #0
 13925 55cc 62D0     		beq	.L256
 13926 55ce 2D4B     		ldr	r3, .L383+16
 13927              	.LBB1641:
 13928 55d0 9921     		movs	r1, #153
 13929              	.LBE1641:
 13930 55d2 1A88     		ldrh	r2, [r3, #0]
 13931              	.LBB1642:
 13932 55d4 2948     		ldr	r0, .L383+8
 13933              	.LBE1642:
 13934 55d6 0932     		adds	r2, r2, #9
 13935 55d8 1A80     		strh	r2, [r3, #0]	@ movhi
 13936 55da 2B4B     		ldr	r3, .L383+20
 13937              	.LBB1643:
 13938 55dc 2B4D     		ldr	r5, .L383+24
 13939              	.LBE1643:
 13940 55de 1A88     		ldrh	r2, [r3, #0]
 13941              	.LBB1644:
 13942 55e0 2B4C     		ldr	r4, .L383+28
 13943              	.LBE1644:
 13944 55e2 0132     		adds	r2, r2, #1
 13945 55e4 1A80     		strh	r2, [r3, #0]	@ movhi
 13946              	.LBB1645:
 13947 55e6 FFF7FEFF 		bl	uart_transmit
 13948 55ea 0921     		movs	r1, #9
 13949 55ec 2348     		ldr	r0, .L383+8
 13950 55ee FFF7FEFF 		bl	uart_transmit
 13951              	.LBE1645:
 13952 55f2 0A23     		movs	r3, #10
 13953 55f4 2B70     		strb	r3, [r5, #0]
 13954 55f6 0933     		adds	r3, r3, #9
 13955 55f8 2370     		strb	r3, [r4, #0]
 13956 55fa 0121     		movs	r1, #1
 13957 55fc 1F48     		ldr	r0, .L383+8
 13958 55fe FFF7FEFF 		bl	uart_transmit
 13959 5602 2B78     		ldrb	r3, [r5, #0]	@ zero_extendqisi2
 13960 5604 2278     		ldrb	r2, [r4, #0]	@ zero_extendqisi2
 13961 5606 183B     		subs	r3, r3, #24
 13962 5608 DBB2     		uxtb	r3, r3
 13963 560a 2B70     		strb	r3, [r5, #0]
 13964 560c 9B18     		adds	r3, r3, r2
 13965 560e 2370     		strb	r3, [r4, #0]
 13966 5610 E821     		movs	r1, #232
 13967 5612 1A48     		ldr	r0, .L383+8
 13968 5614 FFF7FEFF 		bl	uart_transmit
 13969              	.LBB1646:
 13970 5618 2B78     		ldrb	r3, [r5, #0]	@ zero_extendqisi2
 13971 561a 2278     		ldrb	r2, [r4, #0]	@ zero_extendqisi2
 13972 561c F318     		adds	r3, r6, r3
 13973 561e DBB2     		uxtb	r3, r3
 13974 5620 2B70     		strb	r3, [r5, #0]
 13975 5622 9B18     		adds	r3, r3, r2
 13976 5624 2370     		strb	r3, [r4, #0]
 13977 5626 3146     		mov	r1, r6
 13978 5628 1448     		ldr	r0, .L383+8
 13979 562a FFF7FEFF 		bl	uart_transmit
 13980              	.LBE1646:
 13981              	.LBB1647:
 13982 562e 9DF80E10 		ldrb	r1, [sp, #14]	@ zero_extendqisi2
 13983              	.LVL1265:
 13984 5632 2B78     		ldrb	r3, [r5, #0]	@ zero_extendqisi2
 13985 5634 2278     		ldrb	r2, [r4, #0]	@ zero_extendqisi2
 13986 5636 CB18     		adds	r3, r1, r3
 13987 5638 DBB2     		uxtb	r3, r3
 13988 563a 2B70     		strb	r3, [r5, #0]
 13989 563c 9B18     		adds	r3, r3, r2
 13990 563e 2370     		strb	r3, [r4, #0]
 13991 5640 0E48     		ldr	r0, .L383+8
 13992 5642 FFF7FEFF 		bl	uart_transmit
 13993              	.LVL1266:
 13994              	.LBE1647:
 13995              	.LBB1648:
 13996 5646 0DF10E03 		add	r3, sp, #14
 13997 564a 5978     		ldrb	r1, [r3, #1]	@ zero_extendqisi2
 13998              	.LVL1267:
 13999 564c 2B78     		ldrb	r3, [r5, #0]	@ zero_extendqisi2
 14000 564e 2278     		ldrb	r2, [r4, #0]	@ zero_extendqisi2
 14001 5650 CB18     		adds	r3, r1, r3
 14002 5652 DBB2     		uxtb	r3, r3
 14003 5654 2B70     		strb	r3, [r5, #0]
 14004 5656 9B18     		adds	r3, r3, r2
 14005 5658 2370     		strb	r3, [r4, #0]
 14006 565a 0848     		ldr	r0, .L383+8
 14007 565c FFF7FEFF 		bl	uart_transmit
 14008              	.LVL1268:
 14009              	.LBE1648:
 14010 5660 2978     		ldrb	r1, [r5, #0]	@ zero_extendqisi2
 14011 5662 0648     		ldr	r0, .L383+8
 14012 5664 FFF7FEFF 		bl	uart_transmit
 14013 5668 0448     		ldr	r0, .L383+8
 14014 566a 2178     		ldrb	r1, [r4, #0]	@ zero_extendqisi2
 14015 566c FFF7FEFF 		bl	uart_transmit
 14016 5670 14E0     		b	.L252
 14017              	.L384:
 14018 5672 00BF     		.align	2
 14019              	.L383:
 14020 5674 00000000 		.word	.LANCHOR62
 14021 5678 00000000 		.word	ahrs
 14022 567c 00000000 		.word	uart2
 14023 5680 00000000 		.word	.LANCHOR0
 14024 5684 00000000 		.word	downlink_nb_bytes
 14025 5688 00000000 		.word	downlink_nb_msgs
 14026 568c 00000000 		.word	ck_a
 14027 5690 00000000 		.word	ck_b
 14028              	.L256:
 14029 5694 774B     		ldr	r3, .L385
 14030 5696 1A78     		ldrb	r2, [r3, #0]	@ zero_extendqisi2
 14031 5698 0132     		adds	r2, r2, #1
 14032 569a 1A70     		strb	r2, [r3, #0]
 14033              	.LVL1269:
 14034              	.L252:
 14035              	.LBE1640:
 14036 569c 764B     		ldr	r3, .L385+4
 14037 569e 1B88     		ldrh	r3, [r3, #0]
 14038 56a0 2A2B     		cmp	r3, #42
 14039 56a2 40F00981 		bne	.L257
 14040              	.LBB1649:
 14041 56a6 754B     		ldr	r3, .L385+8
 14042 56a8 1A68     		ldr	r2, [r3, #0]
 14043 56aa 0A23     		movs	r3, #10
 14044 56ac 92FBF3F3 		sdiv	r3, r2, r3
 14045 56b0 ADF80E30 		strh	r3, [sp, #14]	@ movhi
 14046              	.LVL1270:
 14047              	.LBB1650:
 14048 56b4 724B     		ldr	r3, .L385+12
 14049 56b6 1868     		ldr	r0, [r3, #0]	@ float
 14050 56b8 FFF7FEFF 		bl	__aeabi_f2iz
 14051 56bc 1421     		movs	r1, #20
 14052 56be ADF80C00 		strh	r0, [sp, #12]	@ movhi
 14053              	.LVL1271:
 14054 56c2 7048     		ldr	r0, .L385+16
 14055 56c4 FFF7FEFF 		bl	uart_check_free_space
 14056 56c8 0028     		cmp	r0, #0
 14057 56ca 00F0F180 		beq	.L258
 14058 56ce 6E4B     		ldr	r3, .L385+20
 14059              	.LBB1651:
 14060 56d0 9921     		movs	r1, #153
 14061              	.LBE1651:
 14062 56d2 1A88     		ldrh	r2, [r3, #0]
 14063              	.LBB1652:
 14064 56d4 6B48     		ldr	r0, .L385+16
 14065              	.LBE1652:
 14066 56d6 1432     		adds	r2, r2, #20
 14067 56d8 1A80     		strh	r2, [r3, #0]	@ movhi
 14068 56da 6C4B     		ldr	r3, .L385+24
 14069              	.LBB1653:
 14070 56dc 6C4D     		ldr	r5, .L385+28
 14071              	.LBE1653:
 14072 56de 1A88     		ldrh	r2, [r3, #0]
 14073              	.LBB1654:
 14074 56e0 6C4C     		ldr	r4, .L385+32
 14075              	.LBE1654:
 14076 56e2 0132     		adds	r2, r2, #1
 14077 56e4 1A80     		strh	r2, [r3, #0]	@ movhi
 14078              	.LBB1655:
 14079 56e6 FFF7FEFF 		bl	uart_transmit
 14080 56ea 1421     		movs	r1, #20
 14081 56ec 6548     		ldr	r0, .L385+16
 14082 56ee FFF7FEFF 		bl	uart_transmit
 14083              	.LBE1655:
 14084 56f2 1523     		movs	r3, #21
 14085 56f4 2B70     		strb	r3, [r5, #0]
 14086 56f6 1433     		adds	r3, r3, #20
 14087 56f8 2370     		strb	r3, [r4, #0]
 14088 56fa 0121     		movs	r1, #1
 14089 56fc 6148     		ldr	r0, .L385+16
 14090 56fe FFF7FEFF 		bl	uart_transmit
 14091 5702 2B78     		ldrb	r3, [r5, #0]	@ zero_extendqisi2
 14092 5704 2278     		ldrb	r2, [r4, #0]	@ zero_extendqisi2
 14093 5706 0C33     		adds	r3, r3, #12
 14094 5708 DBB2     		uxtb	r3, r3
 14095 570a 2B70     		strb	r3, [r5, #0]
 14096              	.LBB1656:
 14097 570c 624E     		ldr	r6, .L385+36
 14098              	.LVL1272:
 14099              	.LBE1656:
 14100 570e 9B18     		adds	r3, r3, r2
 14101 5710 2370     		strb	r3, [r4, #0]
 14102 5712 0C21     		movs	r1, #12
 14103 5714 5B48     		ldr	r0, .L385+16
 14104 5716 FFF7FEFF 		bl	uart_transmit
 14105              	.LBB1657:
 14106 571a 3178     		ldrb	r1, [r6, #0]	@ zero_extendqisi2
 14107              	.LVL1273:
 14108 571c 2B78     		ldrb	r3, [r5, #0]	@ zero_extendqisi2
 14109 571e 2278     		ldrb	r2, [r4, #0]	@ zero_extendqisi2
 14110 5720 CB18     		adds	r3, r1, r3
 14111 5722 DBB2     		uxtb	r3, r3
 14112 5724 2B70     		strb	r3, [r5, #0]
 14113 5726 9B18     		adds	r3, r3, r2
 14114 5728 2370     		strb	r3, [r4, #0]
 14115 572a 5648     		ldr	r0, .L385+16
 14116 572c FFF7FEFF 		bl	uart_transmit
 14117              	.LVL1274:
 14118              	.LBE1657:
 14119              	.LBB1658:
 14120 5730 7178     		ldrb	r1, [r6, #1]	@ zero_extendqisi2
 14121              	.LVL1275:
 14122 5732 2B78     		ldrb	r3, [r5, #0]	@ zero_extendqisi2
 14123 5734 2278     		ldrb	r2, [r4, #0]	@ zero_extendqisi2
 14124 5736 CB18     		adds	r3, r1, r3
 14125 5738 DBB2     		uxtb	r3, r3
 14126 573a 2B70     		strb	r3, [r5, #0]
 14127 573c 9B18     		adds	r3, r3, r2
 14128 573e 2370     		strb	r3, [r4, #0]
 14129 5740 5048     		ldr	r0, .L385+16
 14130 5742 FFF7FEFF 		bl	uart_transmit
 14131              	.LVL1276:
 14132              	.LBE1658:
 14133              	.LBB1659:
 14134 5746 554B     		ldr	r3, .L385+40
 14135 5748 2278     		ldrb	r2, [r4, #0]	@ zero_extendqisi2
 14136 574a 1978     		ldrb	r1, [r3, #0]	@ zero_extendqisi2
 14137              	.LVL1277:
 14138 574c 2B78     		ldrb	r3, [r5, #0]	@ zero_extendqisi2
 14139 574e 4D48     		ldr	r0, .L385+16
 14140 5750 CB18     		adds	r3, r1, r3
 14141 5752 DBB2     		uxtb	r3, r3
 14142 5754 2B70     		strb	r3, [r5, #0]
 14143 5756 9B18     		adds	r3, r3, r2
 14144 5758 2370     		strb	r3, [r4, #0]
 14145 575a FFF7FEFF 		bl	uart_transmit
 14146              	.LVL1278:
 14147              	.LBE1659:
 14148              	.LBB1660:
 14149 575e 9DF80E10 		ldrb	r1, [sp, #14]	@ zero_extendqisi2
 14150              	.LVL1279:
 14151 5762 2B78     		ldrb	r3, [r5, #0]	@ zero_extendqisi2
 14152 5764 2278     		ldrb	r2, [r4, #0]	@ zero_extendqisi2
 14153 5766 CB18     		adds	r3, r1, r3
 14154 5768 DBB2     		uxtb	r3, r3
 14155 576a 2B70     		strb	r3, [r5, #0]
 14156 576c 9B18     		adds	r3, r3, r2
 14157 576e 2370     		strb	r3, [r4, #0]
 14158 5770 4448     		ldr	r0, .L385+16
 14159 5772 FFF7FEFF 		bl	uart_transmit
 14160              	.LVL1280:
 14161              	.LBE1660:
 14162              	.LBB1661:
 14163 5776 0DF10E03 		add	r3, sp, #14
 14164 577a 5978     		ldrb	r1, [r3, #1]	@ zero_extendqisi2
 14165              	.LVL1281:
 14166 577c 2B78     		ldrb	r3, [r5, #0]	@ zero_extendqisi2
 14167 577e 2278     		ldrb	r2, [r4, #0]	@ zero_extendqisi2
 14168 5780 CB18     		adds	r3, r1, r3
 14169 5782 DBB2     		uxtb	r3, r3
 14170 5784 2B70     		strb	r3, [r5, #0]
 14171              	.LBE1661:
 14172              	.LBB1662:
 14173 5786 464E     		ldr	r6, .L385+44
 14174              	.LBE1662:
 14175              	.LBB1663:
 14176 5788 9B18     		adds	r3, r3, r2
 14177 578a 2370     		strb	r3, [r4, #0]
 14178 578c 3D48     		ldr	r0, .L385+16
 14179 578e FFF7FEFF 		bl	uart_transmit
 14180              	.LVL1282:
 14181              	.LBE1663:
 14182              	.LBB1664:
 14183 5792 3178     		ldrb	r1, [r6, #0]	@ zero_extendqisi2
 14184              	.LVL1283:
 14185 5794 2B78     		ldrb	r3, [r5, #0]	@ zero_extendqisi2
 14186 5796 2278     		ldrb	r2, [r4, #0]	@ zero_extendqisi2
 14187 5798 CB18     		adds	r3, r1, r3
 14188 579a DBB2     		uxtb	r3, r3
 14189 579c 2B70     		strb	r3, [r5, #0]
 14190 579e 9B18     		adds	r3, r3, r2
 14191 57a0 2370     		strb	r3, [r4, #0]
 14192 57a2 3848     		ldr	r0, .L385+16
 14193 57a4 FFF7FEFF 		bl	uart_transmit
 14194              	.LVL1284:
 14195              	.LBE1664:
 14196              	.LBB1665:
 14197 57a8 7178     		ldrb	r1, [r6, #1]	@ zero_extendqisi2
 14198              	.LVL1285:
 14199 57aa 2B78     		ldrb	r3, [r5, #0]	@ zero_extendqisi2
 14200 57ac 2278     		ldrb	r2, [r4, #0]	@ zero_extendqisi2
 14201 57ae CB18     		adds	r3, r1, r3
 14202 57b0 DBB2     		uxtb	r3, r3
 14203 57b2 2B70     		strb	r3, [r5, #0]
 14204 57b4 9B18     		adds	r3, r3, r2
 14205 57b6 2370     		strb	r3, [r4, #0]
 14206 57b8 3248     		ldr	r0, .L385+16
 14207 57ba FFF7FEFF 		bl	uart_transmit
 14208              	.LVL1286:
 14209              	.LBE1665:
 14210              	.LBB1666:
 14211 57be 394B     		ldr	r3, .L385+48
 14212 57c0 2278     		ldrb	r2, [r4, #0]	@ zero_extendqisi2
 14213 57c2 1978     		ldrb	r1, [r3, #0]	@ zero_extendqisi2
 14214              	.LVL1287:
 14215 57c4 2B78     		ldrb	r3, [r5, #0]	@ zero_extendqisi2
 14216              	.LBE1666:
 14217              	.LBB1667:
 14218 57c6 384E     		ldr	r6, .L385+52
 14219              	.LBE1667:
 14220              	.LBB1668:
 14221 57c8 CB18     		adds	r3, r1, r3
 14222 57ca DBB2     		uxtb	r3, r3
 14223 57cc 2B70     		strb	r3, [r5, #0]
 14224 57ce 9B18     		adds	r3, r3, r2
 14225 57d0 2370     		strb	r3, [r4, #0]
 14226 57d2 2C48     		ldr	r0, .L385+16
 14227 57d4 FFF7FEFF 		bl	uart_transmit
 14228              	.LVL1288:
 14229              	.LBE1668:
 14230              	.LBB1669:
 14231 57d8 3178     		ldrb	r1, [r6, #0]	@ zero_extendqisi2
 14232              	.LVL1289:
 14233 57da 2B78     		ldrb	r3, [r5, #0]	@ zero_extendqisi2
 14234 57dc 2278     		ldrb	r2, [r4, #0]	@ zero_extendqisi2
 14235 57de CB18     		adds	r3, r1, r3
 14236 57e0 DBB2     		uxtb	r3, r3
 14237 57e2 2B70     		strb	r3, [r5, #0]
 14238 57e4 9B18     		adds	r3, r3, r2
 14239 57e6 2370     		strb	r3, [r4, #0]
 14240 57e8 2648     		ldr	r0, .L385+16
 14241 57ea FFF7FEFF 		bl	uart_transmit
 14242              	.LVL1290:
 14243              	.LBE1669:
 14244              	.LBB1670:
 14245 57ee 7178     		ldrb	r1, [r6, #1]	@ zero_extendqisi2
 14246              	.LVL1291:
 14247 57f0 2B78     		ldrb	r3, [r5, #0]	@ zero_extendqisi2
 14248 57f2 2278     		ldrb	r2, [r4, #0]	@ zero_extendqisi2
 14249 57f4 CB18     		adds	r3, r1, r3
 14250 57f6 DBB2     		uxtb	r3, r3
 14251 57f8 2B70     		strb	r3, [r5, #0]
 14252              	.LBE1670:
 14253              	.LBB1671:
 14254 57fa 2C4E     		ldr	r6, .L385+56
 14255              	.LBE1671:
 14256              	.LBB1672:
 14257 57fc 9B18     		adds	r3, r3, r2
 14258 57fe 2370     		strb	r3, [r4, #0]
 14259 5800 2048     		ldr	r0, .L385+16
 14260 5802 FFF7FEFF 		bl	uart_transmit
 14261              	.LVL1292:
 14262              	.LBE1672:
 14263              	.LBB1673:
 14264 5806 3178     		ldrb	r1, [r6, #0]	@ zero_extendqisi2
 14265              	.LVL1293:
 14266 5808 2B78     		ldrb	r3, [r5, #0]	@ zero_extendqisi2
 14267 580a 2278     		ldrb	r2, [r4, #0]	@ zero_extendqisi2
 14268 580c CB18     		adds	r3, r1, r3
 14269 580e DBB2     		uxtb	r3, r3
 14270 5810 2B70     		strb	r3, [r5, #0]
 14271 5812 9B18     		adds	r3, r3, r2
 14272 5814 2370     		strb	r3, [r4, #0]
 14273 5816 1B48     		ldr	r0, .L385+16
 14274 5818 FFF7FEFF 		bl	uart_transmit
 14275              	.LVL1294:
 14276              	.LBE1673:
 14277              	.LBB1674:
 14278 581c 7178     		ldrb	r1, [r6, #1]	@ zero_extendqisi2
 14279              	.LVL1295:
 14280 581e 2B78     		ldrb	r3, [r5, #0]	@ zero_extendqisi2
 14281 5820 2278     		ldrb	r2, [r4, #0]	@ zero_extendqisi2
 14282 5822 CB18     		adds	r3, r1, r3
 14283 5824 DBB2     		uxtb	r3, r3
 14284 5826 2B70     		strb	r3, [r5, #0]
 14285 5828 9B18     		adds	r3, r3, r2
 14286 582a 2370     		strb	r3, [r4, #0]
 14287 582c 1548     		ldr	r0, .L385+16
 14288 582e FFF7FEFF 		bl	uart_transmit
 14289              	.LVL1296:
 14290              	.LBE1674:
 14291              	.LBB1675:
 14292 5832 9DF80C10 		ldrb	r1, [sp, #12]	@ zero_extendqisi2
 14293              	.LVL1297:
 14294 5836 2B78     		ldrb	r3, [r5, #0]	@ zero_extendqisi2
 14295 5838 2278     		ldrb	r2, [r4, #0]	@ zero_extendqisi2
 14296 583a CB18     		adds	r3, r1, r3
 14297 583c DBB2     		uxtb	r3, r3
 14298 583e 2B70     		strb	r3, [r5, #0]
 14299 5840 9B18     		adds	r3, r3, r2
 14300 5842 2370     		strb	r3, [r4, #0]
 14301 5844 0F48     		ldr	r0, .L385+16
 14302 5846 FFF7FEFF 		bl	uart_transmit
 14303              	.LVL1298:
 14304              	.LBE1675:
 14305              	.LBB1676:
 14306 584a 03AB     		add	r3, sp, #12
 14307 584c 5978     		ldrb	r1, [r3, #1]	@ zero_extendqisi2
 14308              	.LVL1299:
 14309 584e 2B78     		ldrb	r3, [r5, #0]	@ zero_extendqisi2
 14310 5850 2278     		ldrb	r2, [r4, #0]	@ zero_extendqisi2
 14311 5852 CB18     		adds	r3, r1, r3
 14312 5854 DBB2     		uxtb	r3, r3
 14313 5856 2B70     		strb	r3, [r5, #0]
 14314 5858 9B18     		adds	r3, r3, r2
 14315 585a 2370     		strb	r3, [r4, #0]
 14316 585c 0948     		ldr	r0, .L385+16
 14317 585e FFF7FEFF 		bl	uart_transmit
 14318              	.LVL1300:
 14319              	.LBE1676:
 14320 5862 2978     		ldrb	r1, [r5, #0]	@ zero_extendqisi2
 14321 5864 0748     		ldr	r0, .L385+16
 14322 5866 FFF7FEFF 		bl	uart_transmit
 14323 586a 0648     		ldr	r0, .L385+16
 14324 586c 2178     		ldrb	r1, [r4, #0]	@ zero_extendqisi2
 14325 586e FFF7FEFF 		bl	uart_transmit
 14326 5872 21E0     		b	.L257
 14327              	.L386:
 14328              		.align	2
 14329              	.L385:
 14330 5874 00000000 		.word	downlink_nb_ovrn
 14331 5878 00000000 		.word	.LANCHOR63
 14332 587c 00000000 		.word	.LANCHOR11
 14333 5880 00000000 		.word	.LANCHOR10
 14334 5884 00000000 		.word	uart2
 14335 5888 00000000 		.word	downlink_nb_bytes
 14336 588c 00000000 		.word	downlink_nb_msgs
 14337 5890 00000000 		.word	ck_a
 14338 5894 00000000 		.word	ck_b
 14339 5898 00000000 		.word	v_ctl_throttle_slewed
 14340 589c 00000000 		.word	.LANCHOR8
 14341 58a0 00000000 		.word	estimator_flight_time
 14342 58a4 00000000 		.word	.LANCHOR9
 14343 58a8 00000000 		.word	block_time
 14344 58ac 00000000 		.word	stage_time
 14345              	.LVL1301:
 14346              	.L258:
 14347 58b0 9C4B     		ldr	r3, .L387
 14348 58b2 1A78     		ldrb	r2, [r3, #0]	@ zero_extendqisi2
 14349 58b4 0132     		adds	r2, r2, #1
 14350 58b6 1A70     		strb	r2, [r3, #0]
 14351              	.L257:
 14352              	.LBE1650:
 14353              	.LBE1649:
 14354 58b8 9B4B     		ldr	r3, .L387+4
 14355 58ba 1B88     		ldrh	r3, [r3, #0]
 14356 58bc 302B     		cmp	r3, #48
 14357 58be 40F09081 		bne	.L69
 14358 58c2 9A48     		ldr	r0, .L387+8
 14359 58c4 2221     		movs	r1, #34
 14360 58c6 FFF7FEFF 		bl	uart_check_free_space
 14361 58ca 0028     		cmp	r0, #0
 14362 58cc 00F08581 		beq	.L259
 14363 58d0 974B     		ldr	r3, .L387+12
 14364              	.LBB1677:
 14365 58d2 9921     		movs	r1, #153
 14366              	.LBE1677:
 14367 58d4 1A88     		ldrh	r2, [r3, #0]
 14368              	.LBB1678:
 14369 58d6 9548     		ldr	r0, .L387+8
 14370              	.LBE1678:
 14371 58d8 2232     		adds	r2, r2, #34
 14372 58da 1A80     		strh	r2, [r3, #0]	@ movhi
 14373 58dc 954B     		ldr	r3, .L387+16
 14374              	.LBB1679:
 14375 58de 964D     		ldr	r5, .L387+20
 14376              	.LBE1679:
 14377 58e0 1A88     		ldrh	r2, [r3, #0]
 14378              	.LBB1680:
 14379 58e2 964C     		ldr	r4, .L387+24
 14380              	.LBE1680:
 14381 58e4 0132     		adds	r2, r2, #1
 14382 58e6 1A80     		strh	r2, [r3, #0]	@ movhi
 14383              	.LBB1681:
 14384 58e8 FFF7FEFF 		bl	uart_transmit
 14385 58ec 2221     		movs	r1, #34
 14386 58ee 8F48     		ldr	r0, .L387+8
 14387 58f0 FFF7FEFF 		bl	uart_transmit
 14388              	.LBE1681:
 14389 58f4 2323     		movs	r3, #35
 14390 58f6 2B70     		strb	r3, [r5, #0]
 14391 58f8 2233     		adds	r3, r3, #34
 14392 58fa 2370     		strb	r3, [r4, #0]
 14393 58fc 0121     		movs	r1, #1
 14394 58fe 8B48     		ldr	r0, .L387+8
 14395 5900 FFF7FEFF 		bl	uart_transmit
 14396 5904 2B78     		ldrb	r3, [r5, #0]	@ zero_extendqisi2
 14397 5906 2278     		ldrb	r2, [r4, #0]	@ zero_extendqisi2
 14398 5908 1033     		adds	r3, r3, #16
 14399 590a DBB2     		uxtb	r3, r3
 14400              	.LBB1682:
 14401 590c 8C4E     		ldr	r6, .L387+28
 14402              	.LVL1302:
 14403              	.LBE1682:
 14404 590e 2B70     		strb	r3, [r5, #0]
 14405 5910 9B18     		adds	r3, r3, r2
 14406 5912 2370     		strb	r3, [r4, #0]
 14407 5914 1021     		movs	r1, #16
 14408 5916 8548     		ldr	r0, .L387+8
 14409 5918 FFF7FEFF 		bl	uart_transmit
 14410              	.LBB1683:
 14411 591c 3178     		ldrb	r1, [r6, #0]	@ zero_extendqisi2
 14412              	.LVL1303:
 14413 591e 2B78     		ldrb	r3, [r5, #0]	@ zero_extendqisi2
 14414 5920 2278     		ldrb	r2, [r4, #0]	@ zero_extendqisi2
 14415 5922 CB18     		adds	r3, r1, r3
 14416 5924 DBB2     		uxtb	r3, r3
 14417 5926 2B70     		strb	r3, [r5, #0]
 14418 5928 9B18     		adds	r3, r3, r2
 14419 592a 2370     		strb	r3, [r4, #0]
 14420 592c 7F48     		ldr	r0, .L387+8
 14421 592e FFF7FEFF 		bl	uart_transmit
 14422              	.LVL1304:
 14423              	.LBE1683:
 14424              	.LBB1684:
 14425 5932 7178     		ldrb	r1, [r6, #1]	@ zero_extendqisi2
 14426              	.LVL1305:
 14427 5934 2B78     		ldrb	r3, [r5, #0]	@ zero_extendqisi2
 14428 5936 2278     		ldrb	r2, [r4, #0]	@ zero_extendqisi2
 14429 5938 CB18     		adds	r3, r1, r3
 14430 593a DBB2     		uxtb	r3, r3
 14431 593c 2B70     		strb	r3, [r5, #0]
 14432 593e 9B18     		adds	r3, r3, r2
 14433 5940 2370     		strb	r3, [r4, #0]
 14434 5942 7A48     		ldr	r0, .L387+8
 14435 5944 FFF7FEFF 		bl	uart_transmit
 14436              	.LVL1306:
 14437              	.LBE1684:
 14438              	.LBB1685:
 14439 5948 B178     		ldrb	r1, [r6, #2]	@ zero_extendqisi2
 14440              	.LVL1307:
 14441 594a 2B78     		ldrb	r3, [r5, #0]	@ zero_extendqisi2
 14442 594c 2278     		ldrb	r2, [r4, #0]	@ zero_extendqisi2
 14443 594e CB18     		adds	r3, r1, r3
 14444 5950 DBB2     		uxtb	r3, r3
 14445 5952 2B70     		strb	r3, [r5, #0]
 14446 5954 9B18     		adds	r3, r3, r2
 14447 5956 2370     		strb	r3, [r4, #0]
 14448 5958 7448     		ldr	r0, .L387+8
 14449 595a FFF7FEFF 		bl	uart_transmit
 14450              	.LVL1308:
 14451              	.LBE1685:
 14452              	.LBB1686:
 14453 595e F178     		ldrb	r1, [r6, #3]	@ zero_extendqisi2
 14454              	.LVL1309:
 14455 5960 2B78     		ldrb	r3, [r5, #0]	@ zero_extendqisi2
 14456 5962 2278     		ldrb	r2, [r4, #0]	@ zero_extendqisi2
 14457 5964 CB18     		adds	r3, r1, r3
 14458 5966 DBB2     		uxtb	r3, r3
 14459              	.LBE1686:
 14460              	.LBB1687:
 14461 5968 764E     		ldr	r6, .L387+32
 14462              	.LBE1687:
 14463              	.LBB1688:
 14464 596a 2B70     		strb	r3, [r5, #0]
 14465 596c 9B18     		adds	r3, r3, r2
 14466 596e 2370     		strb	r3, [r4, #0]
 14467 5970 6E48     		ldr	r0, .L387+8
 14468 5972 FFF7FEFF 		bl	uart_transmit
 14469              	.LVL1310:
 14470              	.LBE1688:
 14471              	.LBB1689:
 14472 5976 3178     		ldrb	r1, [r6, #0]	@ zero_extendqisi2
 14473              	.LVL1311:
 14474 5978 2B78     		ldrb	r3, [r5, #0]	@ zero_extendqisi2
 14475 597a 2278     		ldrb	r2, [r4, #0]	@ zero_extendqisi2
 14476 597c CB18     		adds	r3, r1, r3
 14477 597e DBB2     		uxtb	r3, r3
 14478 5980 2B70     		strb	r3, [r5, #0]
 14479 5982 9B18     		adds	r3, r3, r2
 14480 5984 2370     		strb	r3, [r4, #0]
 14481 5986 6948     		ldr	r0, .L387+8
 14482 5988 FFF7FEFF 		bl	uart_transmit
 14483              	.LVL1312:
 14484              	.LBE1689:
 14485              	.LBB1690:
 14486 598c 7178     		ldrb	r1, [r6, #1]	@ zero_extendqisi2
 14487              	.LVL1313:
 14488 598e 2B78     		ldrb	r3, [r5, #0]	@ zero_extendqisi2
 14489 5990 2278     		ldrb	r2, [r4, #0]	@ zero_extendqisi2
 14490 5992 CB18     		adds	r3, r1, r3
 14491 5994 DBB2     		uxtb	r3, r3
 14492 5996 2B70     		strb	r3, [r5, #0]
 14493 5998 9B18     		adds	r3, r3, r2
 14494 599a 2370     		strb	r3, [r4, #0]
 14495 599c 6348     		ldr	r0, .L387+8
 14496 599e FFF7FEFF 		bl	uart_transmit
 14497              	.LVL1314:
 14498              	.LBE1690:
 14499              	.LBB1691:
 14500 59a2 B178     		ldrb	r1, [r6, #2]	@ zero_extendqisi2
 14501              	.LVL1315:
 14502 59a4 2B78     		ldrb	r3, [r5, #0]	@ zero_extendqisi2
 14503 59a6 2278     		ldrb	r2, [r4, #0]	@ zero_extendqisi2
 14504 59a8 CB18     		adds	r3, r1, r3
 14505 59aa DBB2     		uxtb	r3, r3
 14506 59ac 2B70     		strb	r3, [r5, #0]
 14507 59ae 9B18     		adds	r3, r3, r2
 14508 59b0 2370     		strb	r3, [r4, #0]
 14509 59b2 5E48     		ldr	r0, .L387+8
 14510 59b4 FFF7FEFF 		bl	uart_transmit
 14511              	.LVL1316:
 14512              	.LBE1691:
 14513              	.LBB1692:
 14514 59b8 F178     		ldrb	r1, [r6, #3]	@ zero_extendqisi2
 14515              	.LVL1317:
 14516 59ba 2B78     		ldrb	r3, [r5, #0]	@ zero_extendqisi2
 14517 59bc 2278     		ldrb	r2, [r4, #0]	@ zero_extendqisi2
 14518 59be CB18     		adds	r3, r1, r3
 14519 59c0 DBB2     		uxtb	r3, r3
 14520              	.LBE1692:
 14521              	.LBB1693:
 14522 59c2 614E     		ldr	r6, .L387+36
 14523              	.LBE1693:
 14524              	.LBB1694:
 14525 59c4 2B70     		strb	r3, [r5, #0]
 14526 59c6 9B18     		adds	r3, r3, r2
 14527 59c8 2370     		strb	r3, [r4, #0]
 14528 59ca 5848     		ldr	r0, .L387+8
 14529 59cc FFF7FEFF 		bl	uart_transmit
 14530              	.LVL1318:
 14531              	.LBE1694:
 14532              	.LBB1695:
 14533 59d0 3178     		ldrb	r1, [r6, #0]	@ zero_extendqisi2
 14534              	.LVL1319:
 14535 59d2 2B78     		ldrb	r3, [r5, #0]	@ zero_extendqisi2
 14536 59d4 2278     		ldrb	r2, [r4, #0]	@ zero_extendqisi2
 14537 59d6 CB18     		adds	r3, r1, r3
 14538 59d8 DBB2     		uxtb	r3, r3
 14539 59da 2B70     		strb	r3, [r5, #0]
 14540 59dc 9B18     		adds	r3, r3, r2
 14541 59de 2370     		strb	r3, [r4, #0]
 14542 59e0 5248     		ldr	r0, .L387+8
 14543 59e2 FFF7FEFF 		bl	uart_transmit
 14544              	.LVL1320:
 14545              	.LBE1695:
 14546              	.LBB1696:
 14547 59e6 7178     		ldrb	r1, [r6, #1]	@ zero_extendqisi2
 14548              	.LVL1321:
 14549 59e8 2B78     		ldrb	r3, [r5, #0]	@ zero_extendqisi2
 14550 59ea 2278     		ldrb	r2, [r4, #0]	@ zero_extendqisi2
 14551 59ec CB18     		adds	r3, r1, r3
 14552 59ee DBB2     		uxtb	r3, r3
 14553 59f0 2B70     		strb	r3, [r5, #0]
 14554 59f2 9B18     		adds	r3, r3, r2
 14555 59f4 2370     		strb	r3, [r4, #0]
 14556 59f6 4D48     		ldr	r0, .L387+8
 14557 59f8 FFF7FEFF 		bl	uart_transmit
 14558              	.LVL1322:
 14559              	.LBE1696:
 14560              	.LBB1697:
 14561 59fc B178     		ldrb	r1, [r6, #2]	@ zero_extendqisi2
 14562              	.LVL1323:
 14563 59fe 2B78     		ldrb	r3, [r5, #0]	@ zero_extendqisi2
 14564 5a00 2278     		ldrb	r2, [r4, #0]	@ zero_extendqisi2
 14565 5a02 CB18     		adds	r3, r1, r3
 14566 5a04 DBB2     		uxtb	r3, r3
 14567 5a06 2B70     		strb	r3, [r5, #0]
 14568 5a08 9B18     		adds	r3, r3, r2
 14569 5a0a 2370     		strb	r3, [r4, #0]
 14570 5a0c 4748     		ldr	r0, .L387+8
 14571 5a0e FFF7FEFF 		bl	uart_transmit
 14572              	.LVL1324:
 14573              	.LBE1697:
 14574              	.LBB1698:
 14575 5a12 F178     		ldrb	r1, [r6, #3]	@ zero_extendqisi2
 14576              	.LVL1325:
 14577 5a14 2B78     		ldrb	r3, [r5, #0]	@ zero_extendqisi2
 14578 5a16 2278     		ldrb	r2, [r4, #0]	@ zero_extendqisi2
 14579 5a18 CB18     		adds	r3, r1, r3
 14580 5a1a DBB2     		uxtb	r3, r3
 14581              	.LBE1698:
 14582              	.LBB1699:
 14583 5a1c 4B4E     		ldr	r6, .L387+40
 14584              	.LBE1699:
 14585              	.LBB1700:
 14586 5a1e 2B70     		strb	r3, [r5, #0]
 14587 5a20 9B18     		adds	r3, r3, r2
 14588 5a22 2370     		strb	r3, [r4, #0]
 14589 5a24 4148     		ldr	r0, .L387+8
 14590 5a26 FFF7FEFF 		bl	uart_transmit
 14591              	.LVL1326:
 14592              	.LBE1700:
 14593              	.LBB1701:
 14594 5a2a 3178     		ldrb	r1, [r6, #0]	@ zero_extendqisi2
 14595              	.LVL1327:
 14596 5a2c 2B78     		ldrb	r3, [r5, #0]	@ zero_extendqisi2
 14597 5a2e 2278     		ldrb	r2, [r4, #0]	@ zero_extendqisi2
 14598 5a30 CB18     		adds	r3, r1, r3
 14599 5a32 DBB2     		uxtb	r3, r3
 14600 5a34 2B70     		strb	r3, [r5, #0]
 14601 5a36 9B18     		adds	r3, r3, r2
 14602 5a38 2370     		strb	r3, [r4, #0]
 14603 5a3a 3C48     		ldr	r0, .L387+8
 14604 5a3c FFF7FEFF 		bl	uart_transmit
 14605              	.LVL1328:
 14606              	.LBE1701:
 14607              	.LBB1702:
 14608 5a40 7178     		ldrb	r1, [r6, #1]	@ zero_extendqisi2
 14609              	.LVL1329:
 14610 5a42 2B78     		ldrb	r3, [r5, #0]	@ zero_extendqisi2
 14611 5a44 2278     		ldrb	r2, [r4, #0]	@ zero_extendqisi2
 14612 5a46 CB18     		adds	r3, r1, r3
 14613 5a48 DBB2     		uxtb	r3, r3
 14614 5a4a 2B70     		strb	r3, [r5, #0]
 14615 5a4c 9B18     		adds	r3, r3, r2
 14616 5a4e 2370     		strb	r3, [r4, #0]
 14617 5a50 3648     		ldr	r0, .L387+8
 14618 5a52 FFF7FEFF 		bl	uart_transmit
 14619              	.LVL1330:
 14620              	.LBE1702:
 14621              	.LBB1703:
 14622 5a56 B178     		ldrb	r1, [r6, #2]	@ zero_extendqisi2
 14623              	.LVL1331:
 14624 5a58 2B78     		ldrb	r3, [r5, #0]	@ zero_extendqisi2
 14625 5a5a 2278     		ldrb	r2, [r4, #0]	@ zero_extendqisi2
 14626 5a5c CB18     		adds	r3, r1, r3
 14627 5a5e DBB2     		uxtb	r3, r3
 14628 5a60 2B70     		strb	r3, [r5, #0]
 14629 5a62 9B18     		adds	r3, r3, r2
 14630 5a64 2370     		strb	r3, [r4, #0]
 14631 5a66 3148     		ldr	r0, .L387+8
 14632 5a68 FFF7FEFF 		bl	uart_transmit
 14633              	.LVL1332:
 14634              	.LBE1703:
 14635              	.LBB1704:
 14636 5a6c F178     		ldrb	r1, [r6, #3]	@ zero_extendqisi2
 14637              	.LVL1333:
 14638 5a6e 2B78     		ldrb	r3, [r5, #0]	@ zero_extendqisi2
 14639 5a70 2278     		ldrb	r2, [r4, #0]	@ zero_extendqisi2
 14640 5a72 CB18     		adds	r3, r1, r3
 14641 5a74 DBB2     		uxtb	r3, r3
 14642              	.LBE1704:
 14643              	.LBB1705:
 14644 5a76 364E     		ldr	r6, .L387+44
 14645              	.LBE1705:
 14646              	.LBB1706:
 14647 5a78 2B70     		strb	r3, [r5, #0]
 14648 5a7a 9B18     		adds	r3, r3, r2
 14649 5a7c 2370     		strb	r3, [r4, #0]
 14650 5a7e 2B48     		ldr	r0, .L387+8
 14651 5a80 FFF7FEFF 		bl	uart_transmit
 14652              	.LVL1334:
 14653              	.LBE1706:
 14654              	.LBB1707:
 14655 5a84 3178     		ldrb	r1, [r6, #0]	@ zero_extendqisi2
 14656              	.LVL1335:
 14657 5a86 2B78     		ldrb	r3, [r5, #0]	@ zero_extendqisi2
 14658 5a88 2278     		ldrb	r2, [r4, #0]	@ zero_extendqisi2
 14659 5a8a CB18     		adds	r3, r1, r3
 14660 5a8c DBB2     		uxtb	r3, r3
 14661 5a8e 2B70     		strb	r3, [r5, #0]
 14662 5a90 9B18     		adds	r3, r3, r2
 14663 5a92 2370     		strb	r3, [r4, #0]
 14664 5a94 2548     		ldr	r0, .L387+8
 14665 5a96 FFF7FEFF 		bl	uart_transmit
 14666              	.LVL1336:
 14667              	.LBE1707:
 14668              	.LBB1708:
 14669 5a9a 7178     		ldrb	r1, [r6, #1]	@ zero_extendqisi2
 14670              	.LVL1337:
 14671 5a9c 2B78     		ldrb	r3, [r5, #0]	@ zero_extendqisi2
 14672 5a9e 2278     		ldrb	r2, [r4, #0]	@ zero_extendqisi2
 14673 5aa0 CB18     		adds	r3, r1, r3
 14674 5aa2 DBB2     		uxtb	r3, r3
 14675 5aa4 2B70     		strb	r3, [r5, #0]
 14676 5aa6 9B18     		adds	r3, r3, r2
 14677 5aa8 2370     		strb	r3, [r4, #0]
 14678 5aaa 2048     		ldr	r0, .L387+8
 14679 5aac FFF7FEFF 		bl	uart_transmit
 14680              	.LVL1338:
 14681              	.LBE1708:
 14682              	.LBB1709:
 14683 5ab0 B178     		ldrb	r1, [r6, #2]	@ zero_extendqisi2
 14684              	.LVL1339:
 14685 5ab2 2B78     		ldrb	r3, [r5, #0]	@ zero_extendqisi2
 14686 5ab4 2278     		ldrb	r2, [r4, #0]	@ zero_extendqisi2
 14687 5ab6 CB18     		adds	r3, r1, r3
 14688 5ab8 DBB2     		uxtb	r3, r3
 14689 5aba 2B70     		strb	r3, [r5, #0]
 14690 5abc 9B18     		adds	r3, r3, r2
 14691 5abe 2370     		strb	r3, [r4, #0]
 14692 5ac0 1A48     		ldr	r0, .L387+8
 14693 5ac2 FFF7FEFF 		bl	uart_transmit
 14694              	.LVL1340:
 14695              	.LBE1709:
 14696              	.LBB1710:
 14697 5ac6 F178     		ldrb	r1, [r6, #3]	@ zero_extendqisi2
 14698              	.LVL1341:
 14699 5ac8 2B78     		ldrb	r3, [r5, #0]	@ zero_extendqisi2
 14700 5aca 2278     		ldrb	r2, [r4, #0]	@ zero_extendqisi2
 14701 5acc CB18     		adds	r3, r1, r3
 14702 5ace DBB2     		uxtb	r3, r3
 14703              	.LBE1710:
 14704              	.LBB1711:
 14705 5ad0 204E     		ldr	r6, .L387+48
 14706              	.LBE1711:
 14707              	.LBB1712:
 14708 5ad2 2B70     		strb	r3, [r5, #0]
 14709 5ad4 9B18     		adds	r3, r3, r2
 14710 5ad6 2370     		strb	r3, [r4, #0]
 14711 5ad8 1448     		ldr	r0, .L387+8
 14712 5ada FFF7FEFF 		bl	uart_transmit
 14713              	.LVL1342:
 14714              	.LBE1712:
 14715              	.LBB1713:
 14716 5ade 3178     		ldrb	r1, [r6, #0]	@ zero_extendqisi2
 14717              	.LVL1343:
 14718 5ae0 2B78     		ldrb	r3, [r5, #0]	@ zero_extendqisi2
 14719 5ae2 2278     		ldrb	r2, [r4, #0]	@ zero_extendqisi2
 14720 5ae4 CB18     		adds	r3, r1, r3
 14721 5ae6 DBB2     		uxtb	r3, r3
 14722 5ae8 2B70     		strb	r3, [r5, #0]
 14723 5aea 9B18     		adds	r3, r3, r2
 14724 5aec 2370     		strb	r3, [r4, #0]
 14725 5aee 0F48     		ldr	r0, .L387+8
 14726 5af0 FFF7FEFF 		bl	uart_transmit
 14727              	.LVL1344:
 14728              	.LBE1713:
 14729              	.LBB1714:
 14730 5af4 7178     		ldrb	r1, [r6, #1]	@ zero_extendqisi2
 14731              	.LVL1345:
 14732 5af6 2B78     		ldrb	r3, [r5, #0]	@ zero_extendqisi2
 14733 5af8 2278     		ldrb	r2, [r4, #0]	@ zero_extendqisi2
 14734 5afa CB18     		adds	r3, r1, r3
 14735 5afc DBB2     		uxtb	r3, r3
 14736 5afe 2B70     		strb	r3, [r5, #0]
 14737 5b00 9B18     		adds	r3, r3, r2
 14738 5b02 2370     		strb	r3, [r4, #0]
 14739 5b04 0948     		ldr	r0, .L387+8
 14740 5b06 FFF7FEFF 		bl	uart_transmit
 14741              	.LVL1346:
 14742              	.LBE1714:
 14743              	.LBB1715:
 14744 5b0a B178     		ldrb	r1, [r6, #2]	@ zero_extendqisi2
 14745              	.LVL1347:
 14746 5b0c 2B78     		ldrb	r3, [r5, #0]	@ zero_extendqisi2
 14747 5b0e 2278     		ldrb	r2, [r4, #0]	@ zero_extendqisi2
 14748 5b10 CB18     		adds	r3, r1, r3
 14749 5b12 DBB2     		uxtb	r3, r3
 14750 5b14 2B70     		strb	r3, [r5, #0]
 14751 5b16 9B18     		adds	r3, r3, r2
 14752 5b18 2370     		strb	r3, [r4, #0]
 14753 5b1a 0448     		ldr	r0, .L387+8
 14754 5b1c FFF7FEFF 		bl	uart_transmit
 14755 5b20 1AE0     		b	.L388
 14756              	.L389:
 14757 5b22 00BF     		.align	2
 14758              	.L387:
 14759 5b24 00000000 		.word	downlink_nb_ovrn
 14760 5b28 00000000 		.word	.LANCHOR64
 14761 5b2c 00000000 		.word	uart2
 14762 5b30 00000000 		.word	downlink_nb_bytes
 14763 5b34 00000000 		.word	downlink_nb_msgs
 14764 5b38 00000000 		.word	ck_a
 14765 5b3c 00000000 		.word	ck_b
 14766 5b40 00000000 		.word	h_ctl_roll_setpoint
 14767 5b44 00000000 		.word	h_ctl_pitch_loop_setpoint
 14768 5b48 00000000 		.word	h_ctl_course_setpoint
 14769 5b4c 00000000 		.word	desired_x
 14770 5b50 00000000 		.word	desired_y
 14771 5b54 00000000 		.word	v_ctl_altitude_setpoint
 14772              	.L388:
 14773              	.LVL1348:
 14774              	.LBE1715:
 14775              	.LBB1716:
 14776 5b58 F178     		ldrb	r1, [r6, #3]	@ zero_extendqisi2
 14777              	.LVL1349:
 14778 5b5a 2B78     		ldrb	r3, [r5, #0]	@ zero_extendqisi2
 14779 5b5c 2278     		ldrb	r2, [r4, #0]	@ zero_extendqisi2
 14780 5b5e CB18     		adds	r3, r1, r3
 14781 5b60 DBB2     		uxtb	r3, r3
 14782              	.LBE1716:
 14783              	.LBB1717:
 14784 5b62 704E     		ldr	r6, .L390
 14785              	.LBE1717:
 14786              	.LBB1718:
 14787 5b64 2B70     		strb	r3, [r5, #0]
 14788 5b66 9B18     		adds	r3, r3, r2
 14789 5b68 2370     		strb	r3, [r4, #0]
 14790 5b6a 6F48     		ldr	r0, .L390+4
 14791 5b6c FFF7FEFF 		bl	uart_transmit
 14792              	.LVL1350:
 14793              	.LBE1718:
 14794              	.LBB1719:
 14795 5b70 3178     		ldrb	r1, [r6, #0]	@ zero_extendqisi2
 14796              	.LVL1351:
 14797 5b72 2B78     		ldrb	r3, [r5, #0]	@ zero_extendqisi2
 14798 5b74 2278     		ldrb	r2, [r4, #0]	@ zero_extendqisi2
 14799 5b76 CB18     		adds	r3, r1, r3
 14800 5b78 DBB2     		uxtb	r3, r3
 14801 5b7a 2B70     		strb	r3, [r5, #0]
 14802 5b7c 9B18     		adds	r3, r3, r2
 14803 5b7e 2370     		strb	r3, [r4, #0]
 14804 5b80 6948     		ldr	r0, .L390+4
 14805 5b82 FFF7FEFF 		bl	uart_transmit
 14806              	.LVL1352:
 14807              	.LBE1719:
 14808              	.LBB1720:
 14809 5b86 7178     		ldrb	r1, [r6, #1]	@ zero_extendqisi2
 14810              	.LVL1353:
 14811 5b88 2B78     		ldrb	r3, [r5, #0]	@ zero_extendqisi2
 14812 5b8a 2278     		ldrb	r2, [r4, #0]	@ zero_extendqisi2
 14813 5b8c CB18     		adds	r3, r1, r3
 14814 5b8e DBB2     		uxtb	r3, r3
 14815 5b90 2B70     		strb	r3, [r5, #0]
 14816 5b92 9B18     		adds	r3, r3, r2
 14817 5b94 2370     		strb	r3, [r4, #0]
 14818 5b96 6448     		ldr	r0, .L390+4
 14819 5b98 FFF7FEFF 		bl	uart_transmit
 14820              	.LVL1354:
 14821              	.LBE1720:
 14822              	.LBB1721:
 14823 5b9c B178     		ldrb	r1, [r6, #2]	@ zero_extendqisi2
 14824              	.LVL1355:
 14825 5b9e 2B78     		ldrb	r3, [r5, #0]	@ zero_extendqisi2
 14826 5ba0 2278     		ldrb	r2, [r4, #0]	@ zero_extendqisi2
 14827 5ba2 CB18     		adds	r3, r1, r3
 14828 5ba4 DBB2     		uxtb	r3, r3
 14829 5ba6 2B70     		strb	r3, [r5, #0]
 14830 5ba8 9B18     		adds	r3, r3, r2
 14831 5baa 2370     		strb	r3, [r4, #0]
 14832 5bac 5E48     		ldr	r0, .L390+4
 14833 5bae FFF7FEFF 		bl	uart_transmit
 14834              	.LVL1356:
 14835              	.LBE1721:
 14836              	.LBB1722:
 14837 5bb2 F178     		ldrb	r1, [r6, #3]	@ zero_extendqisi2
 14838              	.LVL1357:
 14839 5bb4 2B78     		ldrb	r3, [r5, #0]	@ zero_extendqisi2
 14840 5bb6 2278     		ldrb	r2, [r4, #0]	@ zero_extendqisi2
 14841 5bb8 CB18     		adds	r3, r1, r3
 14842 5bba DBB2     		uxtb	r3, r3
 14843 5bbc 2B70     		strb	r3, [r5, #0]
 14844 5bbe 9B18     		adds	r3, r3, r2
 14845 5bc0 2370     		strb	r3, [r4, #0]
 14846 5bc2 5948     		ldr	r0, .L390+4
 14847 5bc4 FFF7FEFF 		bl	uart_transmit
 14848              	.LVL1358:
 14849              	.LBE1722:
 14850 5bc8 2978     		ldrb	r1, [r5, #0]	@ zero_extendqisi2
 14851 5bca 5748     		ldr	r0, .L390+4
 14852 5bcc FFF7FEFF 		bl	uart_transmit
 14853 5bd0 5548     		ldr	r0, .L390+4
 14854 5bd2 2178     		ldrb	r1, [r4, #0]	@ zero_extendqisi2
 14855 5bd4 FFF7FEFF 		bl	uart_transmit
 14856 5bd8 03E0     		b	.L69
 14857              	.LVL1359:
 14858              	.L259:
 14859 5bda 544B     		ldr	r3, .L390+8
 14860 5bdc 1A78     		ldrb	r2, [r3, #0]	@ zero_extendqisi2
 14861 5bde 0132     		adds	r2, r2, #1
 14862              	.L289:
 14863 5be0 1A70     		strb	r2, [r3, #0]
 14864              	.L69:
 14865              	.LBE1518:
 14866              	.LBE739:
 14867              	.LBE738:
 471:firmwares/fixedwing/main_ap.c ****   if (!_1Hz) {
 14868              		.loc 1 471 0
 14869 5be2 534B     		ldr	r3, .L390+12
 14870 5be4 1B78     		ldrb	r3, [r3, #0]	@ zero_extendqisi2
 14871 5be6 002B     		cmp	r3, #0
 14872 5be8 2ED1     		bne	.L260
 14873              	.LBB1723:
 472:firmwares/fixedwing/main_ap.c ****     if (estimator_flight_time) estimator_flight_time++;
 14874              		.loc 1 472 0
 14875 5bea 524B     		ldr	r3, .L390+16
 14876 5bec 1A88     		ldrh	r2, [r3, #0]
 14877 5bee 0AB1     		cbz	r2, .L261
 14878 5bf0 0132     		adds	r2, r2, #1
 14879 5bf2 1A80     		strh	r2, [r3, #0]	@ movhi
 14880              	.L261:
 474:firmwares/fixedwing/main_ap.c ****     datalink_time++;
 14881              		.loc 1 474 0
 14882 5bf4 504B     		ldr	r3, .L390+20
 14883 5bf6 1A88     		ldrh	r2, [r3, #0]
 14884 5bf8 0132     		adds	r2, r2, #1
 14885 5bfa 1A80     		strh	r2, [r3, #0]	@ movhi
 478:firmwares/fixedwing/main_ap.c ****     if (vsupply < LOW_BATTERY_DECIVOLT) t++; else t = 0;
 14886              		.loc 1 478 0
 14887 5bfc 4F4B     		ldr	r3, .L390+24
 14888 5bfe 1878     		ldrb	r0, [r3, #0]	@ zero_extendqisi2
 14889 5c00 FFF7FEFF 		bl	__aeabi_i2d
 14890 5c04 0022     		movs	r2, #0
 14891 5c06 4E4B     		ldr	r3, .L390+28
 14892 5c08 FFF7FEFF 		bl	__aeabi_dcmplt
 14893 5c0c 4D4B     		ldr	r3, .L390+32
 14894 5c0e 0246     		mov	r2, r0
 14895 5c10 08B1     		cbz	r0, .L277
 14896 5c12 1A78     		ldrb	r2, [r3, #0]	@ zero_extendqisi2
 14897 5c14 0132     		adds	r2, r2, #1
 14898              	.L277:
 14899 5c16 1A70     		strb	r2, [r3, #0]
 479:firmwares/fixedwing/main_ap.c ****     kill_throttle |= (t >= LOW_BATTERY_DELAY);
 14900              		.loc 1 479 0
 14901 5c18 4A4B     		ldr	r3, .L390+32
 14902 5c1a 1C78     		ldrb	r4, [r3, #0]	@ zero_extendqisi2
 14903 5c1c 4A4B     		ldr	r3, .L390+36
 14904 5c1e 1B78     		ldrb	r3, [r3, #0]	@ zero_extendqisi2
 14905 5c20 042C     		cmp	r4, #4
 14906 5c22 94BF     		ite	ls
 14907 5c24 1C46     		movls	r4, r3
 14908 5c26 43F00104 		orrhi	r4, r3, #1
 480:firmwares/fixedwing/main_ap.c ****     kill_throttle |= launch && (dist2_to_home > Square(KILL_MODE_DISTANCE));
 14909              		.loc 1 480 0
 14910 5c2a 484B     		ldr	r3, .L390+40
 14911 5c2c 1878     		ldrb	r0, [r3, #0]	@ zero_extendqisi2
 14912 5c2e 38B1     		cbz	r0, .L266
 14913 5c30 474B     		ldr	r3, .L390+44
 14914 5c32 4849     		ldr	r1, .L390+48
 14915 5c34 1868     		ldr	r0, [r3, #0]	@ float
 14916 5c36 FFF7FEFF 		bl	__aeabi_fcmpgt
 14917 5c3a 0038     		subs	r0, r0, #0
 14918 5c3c 18BF     		it	ne
 14919 5c3e 0120     		movne	r0, #1
 14920              	.L266:
 14921 5c40 414B     		ldr	r3, .L390+36
 14922 5c42 40EA0404 		orr	r4, r0, r4
 14923 5c46 1C70     		strb	r4, [r3, #0]
 14924              	.L260:
 14925              	.LBE1723:
 483:firmwares/fixedwing/main_ap.c ****   switch(_4Hz) {
 14926              		.loc 1 483 0
 14927 5c48 434B     		ldr	r3, .L390+52
 14928 5c4a 1E78     		ldrb	r6, [r3, #0]	@ zero_extendqisi2
 14929              	.LVL1360:
 14930 5c4c 16B1     		cbz	r6, .L270
 14931 5c4e 012E     		cmp	r6, #1
 14932 5c50 62D1     		bne	.L269
 14933 5c52 04E0     		b	.L297
 14934              	.L270:
 485:firmwares/fixedwing/main_ap.c ****     estimator_propagate_state();
 14935              		.loc 1 485 0
 14936 5c54 FFF7FEFF 		bl	estimator_propagate_state
 489:firmwares/fixedwing/main_ap.c ****     navigation_task();
 14937              		.loc 1 489 0
 14938 5c58 FFF7FEFF 		bl	navigation_task
 490:firmwares/fixedwing/main_ap.c ****     break;
 14939              		.loc 1 490 0
 14940 5c5c 5CE0     		b	.L269
 14941              	.L297:
 492:firmwares/fixedwing/main_ap.c ****     if (!estimator_flight_time &&
 14942              		.loc 1 492 0
 14943 5c5e 354C     		ldr	r4, .L390+16
 14944 5c60 2388     		ldrh	r3, [r4, #0]
 14945 5c62 002B     		cmp	r3, #0
 14946 5c64 58D1     		bne	.L269
 14947 5c66 3D4B     		ldr	r3, .L390+56
 14948 5c68 3D49     		ldr	r1, .L390+60
 14949 5c6a 1868     		ldr	r0, [r3, #0]	@ float
 14950 5c6c FFF7FEFF 		bl	__aeabi_fcmpgt
 14951 5c70 0028     		cmp	r0, #0
 14952 5c72 51D0     		beq	.L269
 495:firmwares/fixedwing/main_ap.c ****       launch = TRUE; /* Not set in non auto launch */
 14953              		.loc 1 495 0
 14954 5c74 354B     		ldr	r3, .L390+40
 494:firmwares/fixedwing/main_ap.c ****       estimator_flight_time = 1;
 14955              		.loc 1 494 0
 14956 5c76 2680     		strh	r6, [r4, #0]	@ movhi
 495:firmwares/fixedwing/main_ap.c ****       launch = TRUE; /* Not set in non auto launch */
 14957              		.loc 1 495 0
 14958 5c78 1E70     		strb	r6, [r3, #0]
 496:firmwares/fixedwing/main_ap.c ****       DOWNLINK_SEND_TAKEOFF(DefaultChannel, &cpu_time_sec);
 14959              		.loc 1 496 0
 14960 5c7a 2B48     		ldr	r0, .L390+4
 14961 5c7c 0821     		movs	r1, #8
 14962 5c7e FFF7FEFF 		bl	uart_check_free_space
 14963 5c82 0028     		cmp	r0, #0
 14964 5c84 44D0     		beq	.L273
 14965 5c86 374B     		ldr	r3, .L390+64
 14966              	.LBB1724:
 14967 5c88 9921     		movs	r1, #153
 14968              	.LBE1724:
 14969 5c8a 1A88     		ldrh	r2, [r3, #0]
 14970              	.LBB1725:
 14971 5c8c 2648     		ldr	r0, .L390+4
 14972              	.LBE1725:
 14973 5c8e 0832     		adds	r2, r2, #8
 14974 5c90 1A80     		strh	r2, [r3, #0]	@ movhi
 14975 5c92 354B     		ldr	r3, .L390+68
 14976              	.LBB1726:
 14977 5c94 354D     		ldr	r5, .L390+72
 14978              	.LBE1726:
 14979 5c96 1A88     		ldrh	r2, [r3, #0]
 14980              	.LBB1727:
 14981 5c98 354C     		ldr	r4, .L390+76
 14982              	.LBE1727:
 14983 5c9a 0132     		adds	r2, r2, #1
 14984 5c9c 1A80     		strh	r2, [r3, #0]	@ movhi
 14985              	.LBB1728:
 14986 5c9e FFF7FEFF 		bl	uart_transmit
 14987 5ca2 0821     		movs	r1, #8
 14988 5ca4 2048     		ldr	r0, .L390+4
 14989 5ca6 FFF7FEFF 		bl	uart_transmit
 14990              	.LBE1728:
 14991 5caa 0923     		movs	r3, #9
 14992 5cac 2B70     		strb	r3, [r5, #0]
 14993 5cae 0833     		adds	r3, r3, #8
 14994 5cb0 2370     		strb	r3, [r4, #0]
 14995 5cb2 3146     		mov	r1, r6
 14996 5cb4 1C48     		ldr	r0, .L390+4
 14997 5cb6 FFF7FEFF 		bl	uart_transmit
 14998 5cba 2B78     		ldrb	r3, [r5, #0]	@ zero_extendqisi2
 14999 5cbc 2278     		ldrb	r2, [r4, #0]	@ zero_extendqisi2
 15000 5cbe 0433     		adds	r3, r3, #4
 15001 5cc0 DBB2     		uxtb	r3, r3
 15002              	.LVL1361:
 15003 5cc2 2B70     		strb	r3, [r5, #0]
 15004              	.LBB1729:
 15005 5cc4 2B4E     		ldr	r6, .L390+80
 15006              	.LBE1729:
 15007 5cc6 9B18     		adds	r3, r3, r2
 15008              	.LVL1362:
 15009 5cc8 2370     		strb	r3, [r4, #0]
 15010 5cca 0421     		movs	r1, #4
 15011 5ccc 1648     		ldr	r0, .L390+4
 15012 5cce FFF7FEFF 		bl	uart_transmit
 15013              	.LBB1730:
 15014 5cd2 3178     		ldrb	r1, [r6, #0]	@ zero_extendqisi2
 15015              	.LVL1363:
 15016 5cd4 2B78     		ldrb	r3, [r5, #0]	@ zero_extendqisi2
 15017 5cd6 2278     		ldrb	r2, [r4, #0]	@ zero_extendqisi2
 15018 5cd8 CB18     		adds	r3, r1, r3
 15019 5cda DBB2     		uxtb	r3, r3
 15020              	.LVL1364:
 15021 5cdc 2B70     		strb	r3, [r5, #0]
 15022 5cde 9B18     		adds	r3, r3, r2
 15023              	.LVL1365:
 15024 5ce0 2370     		strb	r3, [r4, #0]
 15025 5ce2 1148     		ldr	r0, .L390+4
 15026 5ce4 FFF7FEFF 		bl	uart_transmit
 15027              	.LVL1366:
 15028              	.LBE1730:
 15029              	.LBB1731:
 15030 5ce8 7178     		ldrb	r1, [r6, #1]	@ zero_extendqisi2
 15031              	.LVL1367:
 15032 5cea 2B78     		ldrb	r3, [r5, #0]	@ zero_extendqisi2
 15033 5cec 2278     		ldrb	r2, [r4, #0]	@ zero_extendqisi2
 15034 5cee CB18     		adds	r3, r1, r3
 15035 5cf0 DBB2     		uxtb	r3, r3
 15036              	.LVL1368:
 15037 5cf2 2B70     		strb	r3, [r5, #0]
 15038 5cf4 9B18     		adds	r3, r3, r2
 15039              	.LVL1369:
 15040 5cf6 2370     		strb	r3, [r4, #0]
 15041 5cf8 0B48     		ldr	r0, .L390+4
 15042 5cfa FFF7FEFF 		bl	uart_transmit
 15043              	.LVL1370:
 15044              	.LBE1731:
 15045 5cfe 2978     		ldrb	r1, [r5, #0]	@ zero_extendqisi2
 15046 5d00 0948     		ldr	r0, .L390+4
 15047 5d02 FFF7FEFF 		bl	uart_transmit
 15048 5d06 0848     		ldr	r0, .L390+4
 15049 5d08 2178     		ldrb	r1, [r4, #0]	@ zero_extendqisi2
 15050 5d0a FFF7FEFF 		bl	uart_transmit
 15051 5d0e 03E0     		b	.L269
 15052              	.L273:
 15053 5d10 064B     		ldr	r3, .L390+8
 15054 5d12 1A78     		ldrb	r2, [r3, #0]	@ zero_extendqisi2
 15055 5d14 0132     		adds	r2, r2, #1
 15056 5d16 1A70     		strb	r2, [r3, #0]
 15057              	.L269:
 526:firmwares/fixedwing/main_ap.c ****       attitude_loop();
 15058              		.loc 1 526 0
 15059 5d18 FFF7FEFF 		bl	attitude_loop
 15060              	.L274:
 533:firmwares/fixedwing/main_ap.c **** }
 15061              		.loc 1 533 0
 15062 5d1c 05B0     		add	sp, sp, #20
 15063 5d1e BDE8F085 		pop	{r4, r5, r6, r7, r8, sl, pc}
 15064              	.L391:
 15065 5d22 00BF     		.align	2
 15066              	.L390:
 15067 5d24 00000000 		.word	v_ctl_climb_setpoint
 15068 5d28 00000000 		.word	uart2
 15069 5d2c 00000000 		.word	downlink_nb_ovrn
 15070 5d30 00000000 		.word	.LANCHOR16
 15071 5d34 00000000 		.word	estimator_flight_time
 15072 5d38 00000000 		.word	datalink_time
 15073 5d3c 00000000 		.word	.LANCHOR8
 15074 5d40 0000F03F 		.word	1072693248
 15075 5d44 00000000 		.word	.LANCHOR67
 15076 5d48 00000000 		.word	.LANCHOR9
 15077 5d4c 00000000 		.word	.LANCHOR1
 15078 5d50 00000000 		.word	dist2_to_home
 15079 5d54 C87E9A4A 		.word	1251638984
 15080 5d58 00000000 		.word	.LANCHOR15
 15081 5d5c 00000000 		.word	estimator_hspeed_mod
 15082 5d60 0000A040 		.word	1084227584
 15083 5d64 00000000 		.word	downlink_nb_bytes
 15084 5d68 00000000 		.word	downlink_nb_msgs
 15085 5d6c 00000000 		.word	ck_a
 15086 5d70 00000000 		.word	ck_b
 15087 5d74 00000000 		.word	cpu_time_sec
 15088              		.cfi_endproc
 15089              	.LFE61:
 15091              		.section	.text.init_ap,"ax",%progbits
 15092              		.align	1
 15093              		.global	init_ap
 15094              		.thumb
 15095              		.thumb_func
 15097              	init_ap:
 15098              	.LFB62:
 536:firmwares/fixedwing/main_ap.c **** void init_ap( void ) {
 15099              		.loc 1 536 0
 15100              		.cfi_startproc
 15101              		@ args = 0, pretend = 0, frame = 0
 15102              		@ frame_needed = 0, uses_anonymous_args = 0
 15103 0000 10B5     		push	{r4, lr}
 15104              	.LCFI6:
 15105              		.cfi_def_cfa_offset 8
 547:firmwares/fixedwing/main_ap.c ****   gps_init();
 15106              		.loc 1 547 0
 15107              		.cfi_offset 14, -4
 15108              		.cfi_offset 4, -8
 15109 0002 FFF7FEFF 		bl	gps_init
 555:firmwares/fixedwing/main_ap.c ****   imu_init();
 15110              		.loc 1 555 0
 15111 0006 FFF7FEFF 		bl	imu_init
 559:firmwares/fixedwing/main_ap.c ****   ahrs_aligner_init();
 15112              		.loc 1 559 0
 15113 000a FFF7FEFF 		bl	ahrs_aligner_init
 563:firmwares/fixedwing/main_ap.c ****   ahrs_init();
 15114              		.loc 1 563 0
 15115 000e FFF7FEFF 		bl	ahrs_init
 575:firmwares/fixedwing/main_ap.c ****   h_ctl_init();
 15116              		.loc 1 575 0
 15117 0012 FFF7FEFF 		bl	h_ctl_init
 576:firmwares/fixedwing/main_ap.c ****   v_ctl_init();
 15118              		.loc 1 576 0
 15119 0016 FFF7FEFF 		bl	v_ctl_init
 577:firmwares/fixedwing/main_ap.c ****   estimator_init();
 15120              		.loc 1 577 0
 15121 001a FFF7FEFF 		bl	estimator_init
 579:firmwares/fixedwing/main_ap.c ****   alt_kalman_init();
 15122              		.loc 1 579 0
 15123 001e FFF7FEFF 		bl	alt_kalman_init
 581:firmwares/fixedwing/main_ap.c ****   nav_init();
 15124              		.loc 1 581 0
 15125 0022 FFF7FEFF 		bl	nav_init
 585:firmwares/fixedwing/main_ap.c ****   settings_init();
 15126              		.loc 1 585 0
 15127 0026 FFF7FEFF 		bl	settings_init
 15128 002a 184B     		ldr	r3, .L397
 15129 002c 184A     		ldr	r2, .L397+4
 15130 002e 1B68     		ldr	r3, [r3, #0]
 15131 0030 1188     		ldrh	r1, [r2, #0]
 15132 0032 1F22     		movs	r2, #31
 15133              	.LVL1371:
 15134              	.L395:
 15135              	.LBB1736:
 15136              	.LBB1737:
 15137              		.file 3 "/home/woz/lisa-m-team4938/paparazzi/sw/airborne/arch/stm32/sys_time_hw.h"
   1:/home/woz/lisa-m-team4938/paparazzi/sw/airborne/arch/stm32/sys_time_hw.h **** /*
   2:/home/woz/lisa-m-team4938/paparazzi/sw/airborne/arch/stm32/sys_time_hw.h ****  * Paparazzi $Id$
   3:/home/woz/lisa-m-team4938/paparazzi/sw/airborne/arch/stm32/sys_time_hw.h ****  *
   4:/home/woz/lisa-m-team4938/paparazzi/sw/airborne/arch/stm32/sys_time_hw.h ****  * Copyright (C) 2009-2010 The Paparazzi Team
   5:/home/woz/lisa-m-team4938/paparazzi/sw/airborne/arch/stm32/sys_time_hw.h ****  *
   6:/home/woz/lisa-m-team4938/paparazzi/sw/airborne/arch/stm32/sys_time_hw.h ****  * This file is part of paparazzi.
   7:/home/woz/lisa-m-team4938/paparazzi/sw/airborne/arch/stm32/sys_time_hw.h ****  *
   8:/home/woz/lisa-m-team4938/paparazzi/sw/airborne/arch/stm32/sys_time_hw.h ****  * paparazzi is free software; you can redistribute it and/or modify
   9:/home/woz/lisa-m-team4938/paparazzi/sw/airborne/arch/stm32/sys_time_hw.h ****  * it under the terms of the GNU General Public License as published by
  10:/home/woz/lisa-m-team4938/paparazzi/sw/airborne/arch/stm32/sys_time_hw.h ****  * the Free Software Foundation; either version 2, or (at your option)
  11:/home/woz/lisa-m-team4938/paparazzi/sw/airborne/arch/stm32/sys_time_hw.h ****  * any later version.
  12:/home/woz/lisa-m-team4938/paparazzi/sw/airborne/arch/stm32/sys_time_hw.h ****  *
  13:/home/woz/lisa-m-team4938/paparazzi/sw/airborne/arch/stm32/sys_time_hw.h ****  * paparazzi is distributed in the hope that it will be useful,
  14:/home/woz/lisa-m-team4938/paparazzi/sw/airborne/arch/stm32/sys_time_hw.h ****  * but WITHOUT ANY WARRANTY; without even the implied warranty of
  15:/home/woz/lisa-m-team4938/paparazzi/sw/airborne/arch/stm32/sys_time_hw.h ****  * MERCHANTABILITY or FITNESS FOR A PARTICULAR PURPOSE.  See the
  16:/home/woz/lisa-m-team4938/paparazzi/sw/airborne/arch/stm32/sys_time_hw.h ****  * GNU General Public License for more details.
  17:/home/woz/lisa-m-team4938/paparazzi/sw/airborne/arch/stm32/sys_time_hw.h ****  *
  18:/home/woz/lisa-m-team4938/paparazzi/sw/airborne/arch/stm32/sys_time_hw.h ****  * You should have received a copy of the GNU General Public License
  19:/home/woz/lisa-m-team4938/paparazzi/sw/airborne/arch/stm32/sys_time_hw.h ****  * along with paparazzi; see the file COPYING.  If not, write to
  20:/home/woz/lisa-m-team4938/paparazzi/sw/airborne/arch/stm32/sys_time_hw.h ****  * the Free Software Foundation, 59 Temple Place - Suite 330,
  21:/home/woz/lisa-m-team4938/paparazzi/sw/airborne/arch/stm32/sys_time_hw.h ****  * Boston, MA 02111-1307, USA.
  22:/home/woz/lisa-m-team4938/paparazzi/sw/airborne/arch/stm32/sys_time_hw.h ****  *
  23:/home/woz/lisa-m-team4938/paparazzi/sw/airborne/arch/stm32/sys_time_hw.h ****  */
  24:/home/woz/lisa-m-team4938/paparazzi/sw/airborne/arch/stm32/sys_time_hw.h **** 
  25:/home/woz/lisa-m-team4938/paparazzi/sw/airborne/arch/stm32/sys_time_hw.h **** /*
  26:/home/woz/lisa-m-team4938/paparazzi/sw/airborne/arch/stm32/sys_time_hw.h ****  *\brief STM32 timing functions
  27:/home/woz/lisa-m-team4938/paparazzi/sw/airborne/arch/stm32/sys_time_hw.h ****  *
  28:/home/woz/lisa-m-team4938/paparazzi/sw/airborne/arch/stm32/sys_time_hw.h ****  */
  29:/home/woz/lisa-m-team4938/paparazzi/sw/airborne/arch/stm32/sys_time_hw.h **** 
  30:/home/woz/lisa-m-team4938/paparazzi/sw/airborne/arch/stm32/sys_time_hw.h **** #ifndef SYS_TIME_HW_H
  31:/home/woz/lisa-m-team4938/paparazzi/sw/airborne/arch/stm32/sys_time_hw.h **** #define SYS_TIME_HW_H
  32:/home/woz/lisa-m-team4938/paparazzi/sw/airborne/arch/stm32/sys_time_hw.h **** 
  33:/home/woz/lisa-m-team4938/paparazzi/sw/airborne/arch/stm32/sys_time_hw.h **** #include "sys_time.h"
  34:/home/woz/lisa-m-team4938/paparazzi/sw/airborne/arch/stm32/sys_time_hw.h **** 
  35:/home/woz/lisa-m-team4938/paparazzi/sw/airborne/arch/stm32/sys_time_hw.h **** #include <stm32/gpio.h>
  36:/home/woz/lisa-m-team4938/paparazzi/sw/airborne/arch/stm32/sys_time_hw.h **** #include <stm32/rcc.h>
  37:/home/woz/lisa-m-team4938/paparazzi/sw/airborne/arch/stm32/sys_time_hw.h **** #include "std.h"
  38:/home/woz/lisa-m-team4938/paparazzi/sw/airborne/arch/stm32/sys_time_hw.h **** #ifdef SYS_TIME_LED
  39:/home/woz/lisa-m-team4938/paparazzi/sw/airborne/arch/stm32/sys_time_hw.h **** #include "led.h"
  40:/home/woz/lisa-m-team4938/paparazzi/sw/airborne/arch/stm32/sys_time_hw.h **** #endif
  41:/home/woz/lisa-m-team4938/paparazzi/sw/airborne/arch/stm32/sys_time_hw.h **** 
  42:/home/woz/lisa-m-team4938/paparazzi/sw/airborne/arch/stm32/sys_time_hw.h **** #define InitSysTimePeriodic()
  43:/home/woz/lisa-m-team4938/paparazzi/sw/airborne/arch/stm32/sys_time_hw.h **** 
  44:/home/woz/lisa-m-team4938/paparazzi/sw/airborne/arch/stm32/sys_time_hw.h **** extern void sys_time_init( void );
  45:/home/woz/lisa-m-team4938/paparazzi/sw/airborne/arch/stm32/sys_time_hw.h **** extern void sys_tick_irq_handler(void);
  46:/home/woz/lisa-m-team4938/paparazzi/sw/airborne/arch/stm32/sys_time_hw.h **** 
  47:/home/woz/lisa-m-team4938/paparazzi/sw/airborne/arch/stm32/sys_time_hw.h **** extern volatile bool_t sys_time_period_elapsed;
  48:/home/woz/lisa-m-team4938/paparazzi/sw/airborne/arch/stm32/sys_time_hw.h **** extern uint32_t cpu_time_ticks;
  49:/home/woz/lisa-m-team4938/paparazzi/sw/airborne/arch/stm32/sys_time_hw.h **** 
  50:/home/woz/lisa-m-team4938/paparazzi/sw/airborne/arch/stm32/sys_time_hw.h **** #define SYS_TICS_OF_SEC(s)        (uint32_t)((s) * AHB_CLK + 0.5)
  51:/home/woz/lisa-m-team4938/paparazzi/sw/airborne/arch/stm32/sys_time_hw.h **** #define SIGNED_SYS_TICS_OF_SEC(s)  (int32_t)((s) * AHB_CLK + 0.5)
  52:/home/woz/lisa-m-team4938/paparazzi/sw/airborne/arch/stm32/sys_time_hw.h **** 
  53:/home/woz/lisa-m-team4938/paparazzi/sw/airborne/arch/stm32/sys_time_hw.h **** static inline bool_t sys_time_periodic( void ) {
  54:/home/woz/lisa-m-team4938/paparazzi/sw/airborne/arch/stm32/sys_time_hw.h ****   if (sys_time_period_elapsed) {
  55:/home/woz/lisa-m-team4938/paparazzi/sw/airborne/arch/stm32/sys_time_hw.h ****     sys_time_period_elapsed = FALSE;
  56:/home/woz/lisa-m-team4938/paparazzi/sw/airborne/arch/stm32/sys_time_hw.h ****     cpu_time_ticks += PERIODIC_TASK_PERIOD;
  57:/home/woz/lisa-m-team4938/paparazzi/sw/airborne/arch/stm32/sys_time_hw.h ****     if (cpu_time_ticks >= TIME_TICKS_PER_SEC) {
  58:/home/woz/lisa-m-team4938/paparazzi/sw/airborne/arch/stm32/sys_time_hw.h ****       cpu_time_ticks -= TIME_TICKS_PER_SEC;
  59:/home/woz/lisa-m-team4938/paparazzi/sw/airborne/arch/stm32/sys_time_hw.h ****       cpu_time_sec++;
  60:/home/woz/lisa-m-team4938/paparazzi/sw/airborne/arch/stm32/sys_time_hw.h **** #ifdef SYS_TIME_LED
  61:/home/woz/lisa-m-team4938/paparazzi/sw/airborne/arch/stm32/sys_time_hw.h ****       LED_TOGGLE(SYS_TIME_LED);
  62:/home/woz/lisa-m-team4938/paparazzi/sw/airborne/arch/stm32/sys_time_hw.h **** #endif
  63:/home/woz/lisa-m-team4938/paparazzi/sw/airborne/arch/stm32/sys_time_hw.h ****     }
  64:/home/woz/lisa-m-team4938/paparazzi/sw/airborne/arch/stm32/sys_time_hw.h ****     return TRUE;
  65:/home/woz/lisa-m-team4938/paparazzi/sw/airborne/arch/stm32/sys_time_hw.h ****   }
  66:/home/woz/lisa-m-team4938/paparazzi/sw/airborne/arch/stm32/sys_time_hw.h ****   else
  67:/home/woz/lisa-m-team4938/paparazzi/sw/airborne/arch/stm32/sys_time_hw.h ****     return FALSE;
  68:/home/woz/lisa-m-team4938/paparazzi/sw/airborne/arch/stm32/sys_time_hw.h **** }
  69:/home/woz/lisa-m-team4938/paparazzi/sw/airborne/arch/stm32/sys_time_hw.h **** 
  70:/home/woz/lisa-m-team4938/paparazzi/sw/airborne/arch/stm32/sys_time_hw.h **** /** Busy wait, in microseconds */
  71:/home/woz/lisa-m-team4938/paparazzi/sw/airborne/arch/stm32/sys_time_hw.h **** /* for now empty shell */
  72:/home/woz/lisa-m-team4938/paparazzi/sw/airborne/arch/stm32/sys_time_hw.h **** static inline void sys_time_usleep(uint32_t us) {
  73:/home/woz/lisa-m-team4938/paparazzi/sw/airborne/arch/stm32/sys_time_hw.h ****   uint32_t ready = SYS_TICS_OF_SEC((((float)us) / 1000000.)) / PERIODIC_TASK_PERIOD + 1;
  74:/home/woz/lisa-m-team4938/paparazzi/sw/airborne/arch/stm32/sys_time_hw.h ****   while (ready > 0)
  75:/home/woz/lisa-m-team4938/paparazzi/sw/airborne/arch/stm32/sys_time_hw.h ****   {
  76:/home/woz/lisa-m-team4938/paparazzi/sw/airborne/arch/stm32/sys_time_hw.h ****     if (sys_time_period_elapsed) ready--;
 15138              		.loc 3 76 0
 15139 0034 1748     		ldr	r0, .L397+8
 15140 0036 0078     		ldrb	r0, [r0, #0]	@ zero_extendqisi2
 15141 0038 00B1     		cbz	r0, .L393
 15142 003a 013A     		subs	r2, r2, #1
 15143              	.L393:
 15144              	.LBB1738:
 15145              	.LBB1739:
  54:/home/woz/lisa-m-team4938/paparazzi/sw/airborne/arch/stm32/sys_time_hw.h ****   if (sys_time_period_elapsed) {
 15146              		.loc 3 54 0
 15147 003c 1548     		ldr	r0, .L397+8
 15148 003e 0478     		ldrb	r4, [r0, #0]	@ zero_extendqisi2
 15149 0040 BCB1     		cbz	r4, .L394
  55:/home/woz/lisa-m-team4938/paparazzi/sw/airborne/arch/stm32/sys_time_hw.h ****     sys_time_period_elapsed = FALSE;
 15150              		.loc 3 55 0
 15151 0042 4FF0000C 		mov	ip, #0
 15152 0046 80F800C0 		strb	ip, [r0, #0]
  56:/home/woz/lisa-m-team4938/paparazzi/sw/airborne/arch/stm32/sys_time_hw.h ****     cpu_time_ticks += PERIODIC_TASK_PERIOD;
 15153              		.loc 3 56 0
 15154 004a 03F59213 		add	r3, r3, #1196032
  57:/home/woz/lisa-m-team4938/paparazzi/sw/airborne/arch/stm32/sys_time_hw.h ****     if (cpu_time_ticks >= TIME_TICKS_PER_SEC) {
 15155              		.loc 3 57 0
 15156 004e 1248     		ldr	r0, .L397+12
  56:/home/woz/lisa-m-team4938/paparazzi/sw/airborne/arch/stm32/sys_time_hw.h ****     cpu_time_ticks += PERIODIC_TASK_PERIOD;
 15157              		.loc 3 56 0
 15158 0050 03F57863 		add	r3, r3, #3968
  57:/home/woz/lisa-m-team4938/paparazzi/sw/airborne/arch/stm32/sys_time_hw.h ****     if (cpu_time_ticks >= TIME_TICKS_PER_SEC) {
 15159              		.loc 3 57 0
 15160 0054 8342     		cmp	r3, r0
 15161 0056 0CD9     		bls	.L394
  61:/home/woz/lisa-m-team4938/paparazzi/sw/airborne/arch/stm32/sys_time_hw.h ****       LED_TOGGLE(SYS_TIME_LED);
 15162              		.loc 3 61 0
 15163 0058 1048     		ldr	r0, .L397+16
  58:/home/woz/lisa-m-team4938/paparazzi/sw/airborne/arch/stm32/sys_time_hw.h ****       cpu_time_ticks -= TIME_TICKS_PER_SEC;
 15164              		.loc 3 58 0
 15165 005a A3F18863 		sub	r3, r3, #71303168
  61:/home/woz/lisa-m-team4938/paparazzi/sw/airborne/arch/stm32/sys_time_hw.h ****       LED_TOGGLE(SYS_TIME_LED);
 15166              		.loc 3 61 0
 15167 005e C468     		ldr	r4, [r0, #12]
  58:/home/woz/lisa-m-team4938/paparazzi/sw/airborne/arch/stm32/sys_time_hw.h ****       cpu_time_ticks -= TIME_TICKS_PER_SEC;
 15168              		.loc 3 58 0
 15169 0060 A3F52A23 		sub	r3, r3, #696320
  59:/home/woz/lisa-m-team4938/paparazzi/sw/airborne/arch/stm32/sys_time_hw.h ****       cpu_time_sec++;
 15170              		.loc 3 59 0
 15171 0064 0131     		adds	r1, r1, #1
  61:/home/woz/lisa-m-team4938/paparazzi/sw/airborne/arch/stm32/sys_time_hw.h ****       LED_TOGGLE(SYS_TIME_LED);
 15172              		.loc 3 61 0
 15173 0066 84F01004 		eor	r4, r4, #16
  58:/home/woz/lisa-m-team4938/paparazzi/sw/airborne/arch/stm32/sys_time_hw.h ****       cpu_time_ticks -= TIME_TICKS_PER_SEC;
 15174              		.loc 3 58 0
 15175 006a A3F50073 		sub	r3, r3, #512
  59:/home/woz/lisa-m-team4938/paparazzi/sw/airborne/arch/stm32/sys_time_hw.h ****       cpu_time_sec++;
 15176              		.loc 3 59 0
 15177 006e 89B2     		uxth	r1, r1
  61:/home/woz/lisa-m-team4938/paparazzi/sw/airborne/arch/stm32/sys_time_hw.h ****       LED_TOGGLE(SYS_TIME_LED);
 15178              		.loc 3 61 0
 15179 0070 C460     		str	r4, [r0, #12]
 15180              	.L394:
 15181              	.LBE1739:
 15182              	.LBE1738:
  74:/home/woz/lisa-m-team4938/paparazzi/sw/airborne/arch/stm32/sys_time_hw.h ****   while (ready > 0)
 15183              		.loc 3 74 0
 15184 0072 002A     		cmp	r2, #0
 15185 0074 DED1     		bne	.L395
 15186 0076 0548     		ldr	r0, .L397
 15187 0078 0360     		str	r3, [r0, #0]
 15188 007a 054B     		ldr	r3, .L397+4
 15189 007c 1980     		strh	r1, [r3, #0]	@ movhi
 15190              	.LBE1737:
 15191              	.LBE1736:
 605:firmwares/fixedwing/main_ap.c ****   power_switch = FALSE;
 15192              		.loc 1 605 0
 15193 007e 084B     		ldr	r3, .L397+20
 15194 0080 1A70     		strb	r2, [r3, #0]
 612:firmwares/fixedwing/main_ap.c **** }
 15195              		.loc 1 612 0
 15196 0082 BDE81040 		pop	{r4, lr}
 610:firmwares/fixedwing/main_ap.c ****   traffic_info_init();
 15197              		.loc 1 610 0
 15198 0086 FFF7FEBF 		b	traffic_info_init
 15199              	.LVL1372:
 15200              	.L398:
 15201 008a 00BF     		.align	2
 15202              	.L397:
 15203 008c 00000000 		.word	cpu_time_ticks
 15204 0090 00000000 		.word	cpu_time_sec
 15205 0094 00000000 		.word	sys_time_period_elapsed
 15206 0098 FFA14A04 		.word	71999999
 15207 009c 000C0140 		.word	1073810432
 15208 00a0 00000000 		.word	.LANCHOR68
 15209              		.cfi_endproc
 15210              	.LFE62:
 15212              		.section	.text.event_task_ap,"ax",%progbits
 15213              		.align	1
 15214              		.global	event_task_ap
 15215              		.thumb
 15216              		.thumb_func
 15218              	event_task_ap:
 15219              	.LFB63:
 616:firmwares/fixedwing/main_ap.c **** void event_task_ap( void ) {
 15220              		.loc 1 616 0
 15221              		.cfi_startproc
 15222              		@ args = 0, pretend = 0, frame = 0
 15223              		@ frame_needed = 0, uses_anonymous_args = 0
 15224 0000 2DE9F041 		push	{r4, r5, r6, r7, r8, lr}
 15225              	.LCFI7:
 15226              		.cfi_def_cfa_offset 24
 15227              	.LBB1774:
 15228              	.LBB1775:
 116:./subsystems/imu/imu_aspirin.h **** 
 117:./subsystems/imu/imu_aspirin.h **** static inline void gyro_copy_i2c(void)
 118:./subsystems/imu/imu_aspirin.h **** {
 119:./subsystems/imu/imu_aspirin.h ****   int16_t gp = imu_aspirin.i2c_trans_gyro.buf[0]<<8 | imu_aspirin.i2c_trans_gyro.buf[1];
 120:./subsystems/imu/imu_aspirin.h ****   int16_t gq = imu_aspirin.i2c_trans_gyro.buf[2]<<8 | imu_aspirin.i2c_trans_gyro.buf[3];
 121:./subsystems/imu/imu_aspirin.h ****   int16_t gr = imu_aspirin.i2c_trans_gyro.buf[4]<<8 | imu_aspirin.i2c_trans_gyro.buf[5];
 122:./subsystems/imu/imu_aspirin.h ****   RATES_ASSIGN(imu.gyro_unscaled, gp, gq, gr);
 123:./subsystems/imu/imu_aspirin.h **** }
 124:./subsystems/imu/imu_aspirin.h **** 
 125:./subsystems/imu/imu_aspirin.h **** static inline void accel_copy_spi(void)
 126:./subsystems/imu/imu_aspirin.h **** {
 127:./subsystems/imu/imu_aspirin.h ****   const int16_t ax = imu_aspirin.accel_rx_buf[1] | (imu_aspirin.accel_rx_buf[2]<<8);
 128:./subsystems/imu/imu_aspirin.h ****   const int16_t ay = imu_aspirin.accel_rx_buf[3] | (imu_aspirin.accel_rx_buf[4]<<8);
 129:./subsystems/imu/imu_aspirin.h ****   const int16_t az = imu_aspirin.accel_rx_buf[5] | (imu_aspirin.accel_rx_buf[6]<<8);
 130:./subsystems/imu/imu_aspirin.h ****   VECT3_ASSIGN(imu.accel_unscaled, ax, ay, az);
 131:./subsystems/imu/imu_aspirin.h **** }
 132:./subsystems/imu/imu_aspirin.h **** 
 133:./subsystems/imu/imu_aspirin.h **** static inline void imu_gyro_event(void (* _gyro_handler)(void))
 134:./subsystems/imu/imu_aspirin.h **** {
 135:./subsystems/imu/imu_aspirin.h **** 
 136:./subsystems/imu/imu_aspirin.h **** }
 137:./subsystems/imu/imu_aspirin.h **** 
 138:./subsystems/imu/imu_aspirin.h **** static inline void imu_aspirin_event(void (* _gyro_handler)(void), void (* _accel_handler)(void), v
 139:./subsystems/imu/imu_aspirin.h **** {
 140:./subsystems/imu/imu_aspirin.h ****   if (imu_aspirin.status == AspirinStatusUninit) return;
 15229              		.loc 2 140 0
 15230 0004 9B4C     		ldr	r4, .L458
 15231              		.cfi_offset 14, -4
 15232              		.cfi_offset 8, -8
 15233              		.cfi_offset 7, -12
 15234              		.cfi_offset 6, -16
 15235              		.cfi_offset 5, -20
 15236              		.cfi_offset 4, -24
 15237 0006 2378     		ldrb	r3, [r4, #0]	@ zero_extendqisi2
 15238 0008 002B     		cmp	r3, #0
 15239 000a 00F09580 		beq	.L400
 141:./subsystems/imu/imu_aspirin.h **** 
 142:./subsystems/imu/imu_aspirin.h ****   imu_aspirin_arch_int_disable();
 15240              		.loc 2 142 0
 15241 000e FFF7FEFF 		bl	imu_aspirin_arch_int_disable
 143:./subsystems/imu/imu_aspirin.h ****   if (imu_aspirin.accel_available) {
 15242              		.loc 2 143 0
 15243 0012 94F84E30 		ldrb	r3, [r4, #78]	@ zero_extendqisi2
 15244 0016 E3B1     		cbz	r3, .L401
 144:./subsystems/imu/imu_aspirin.h ****     imu_aspirin.time_since_last_accel_reading = 0;
 15245              		.loc 2 144 0
 15246 0018 0023     		movs	r3, #0
 145:./subsystems/imu/imu_aspirin.h ****     imu_aspirin.accel_available = FALSE;
 15247              		.loc 2 145 0
 15248 001a 84F84E30 		strb	r3, [r4, #78]
 15249              	.LBB1776:
 15250              	.LBB1777:
 127:./subsystems/imu/imu_aspirin.h ****   const int16_t ax = imu_aspirin.accel_rx_buf[1] | (imu_aspirin.accel_rx_buf[2]<<8);
 15251              		.loc 2 127 0
 15252 001e 94F857E0 		ldrb	lr, [r4, #87]	@ zero_extendqisi2
 15253 0022 94F85850 		ldrb	r5, [r4, #88]	@ zero_extendqisi2
 128:./subsystems/imu/imu_aspirin.h ****   const int16_t ay = imu_aspirin.accel_rx_buf[3] | (imu_aspirin.accel_rx_buf[4]<<8);
 15254              		.loc 2 128 0
 15255 0026 94F85900 		ldrb	r0, [r4, #89]	@ zero_extendqisi2
 15256 002a 94F85AC0 		ldrb	ip, [r4, #90]	@ zero_extendqisi2
 129:./subsystems/imu/imu_aspirin.h ****   const int16_t az = imu_aspirin.accel_rx_buf[5] | (imu_aspirin.accel_rx_buf[6]<<8);
 15257              		.loc 2 129 0
 15258 002e 94F85B20 		ldrb	r2, [r4, #91]	@ zero_extendqisi2
 15259 0032 94F85C10 		ldrb	r1, [r4, #92]	@ zero_extendqisi2
 15260              	.LBE1777:
 15261              	.LBE1776:
 144:./subsystems/imu/imu_aspirin.h ****     imu_aspirin.time_since_last_accel_reading = 0;
 15262              		.loc 2 144 0
 15263 0036 6366     		str	r3, [r4, #100]
 15264              	.LBB1779:
 15265              	.LBB1778:
 130:./subsystems/imu/imu_aspirin.h ****   VECT3_ASSIGN(imu.accel_unscaled, ax, ay, az);
 15266              		.loc 2 130 0
 15267 0038 40EA0C20 		orr	r0, r0, ip, lsl #8
 15268 003c 8E4B     		ldr	r3, .L458+4
 15269 003e 4EEA0524 		orr	r4, lr, r5, lsl #8
 15270 0042 42EA0122 		orr	r2, r2, r1, lsl #8
 15271 0046 24B2     		sxth	r4, r4
 15272 0048 00B2     		sxth	r0, r0
 15273 004a 12B2     		sxth	r2, r2
 15274 004c DC66     		str	r4, [r3, #108]
 15275 004e 1867     		str	r0, [r3, #112]
 15276 0050 5A67     		str	r2, [r3, #116]
 15277              	.L401:
 15278              	.LBE1778:
 15279              	.LBE1779:
 146:./subsystems/imu/imu_aspirin.h ****     accel_copy_spi();
 147:./subsystems/imu/imu_aspirin.h ****     _accel_handler();
 148:./subsystems/imu/imu_aspirin.h ****   }
 149:./subsystems/imu/imu_aspirin.h ****   imu_aspirin_arch_int_enable();
 150:./subsystems/imu/imu_aspirin.h **** 
 151:./subsystems/imu/imu_aspirin.h ****   // Reset everything if we've been waiting too long
 152:./subsystems/imu/imu_aspirin.h ****   if (imu_aspirin.time_since_last_reading > ASPIRIN_GYRO_TIMEOUT) {
 15280              		.loc 2 152 0
 15281 0052 884C     		ldr	r4, .L458
 149:./subsystems/imu/imu_aspirin.h ****   imu_aspirin_arch_int_enable();
 15282              		.loc 2 149 0
 15283 0054 FFF7FEFF 		bl	imu_aspirin_arch_int_enable
 15284              		.loc 2 152 0
 15285 0058 236E     		ldr	r3, [r4, #96]
 15286 005a 032B     		cmp	r3, #3
 15287 005c 06D9     		bls	.L402
 153:./subsystems/imu/imu_aspirin.h ****     i2c2_er_irq_handler();
 15288              		.loc 2 153 0
 15289 005e FFF7FEFF 		bl	i2c2_er_irq_handler
 154:./subsystems/imu/imu_aspirin.h ****     gyro_read_i2c();
 15290              		.loc 2 154 0
 15291 0062 FFF7FEFF 		bl	gyro_read_i2c
 155:./subsystems/imu/imu_aspirin.h ****     imu_aspirin.time_since_last_reading = 0;
 15292              		.loc 2 155 0
 15293 0066 0023     		movs	r3, #0
 15294 0068 2366     		str	r3, [r4, #96]
 15295 006a 65E0     		b	.L400
 15296              	.L402:
 156:./subsystems/imu/imu_aspirin.h ****     return;
 157:./subsystems/imu/imu_aspirin.h ****   }
 158:./subsystems/imu/imu_aspirin.h **** 
 159:./subsystems/imu/imu_aspirin.h ****   // Try again later if transaction is in progress
 160:./subsystems/imu/imu_aspirin.h ****   if (imu_aspirin.i2c_trans_gyro.status == I2CTransPending || imu_aspirin.i2c_trans_gyro.status == 
 15297              		.loc 2 160 0
 15298 006c 94F82730 		ldrb	r3, [r4, #39]	@ zero_extendqisi2
 15299 0070 002B     		cmp	r3, #0
 15300 0072 61D0     		beq	.L400
 15301 0074 94F82730 		ldrb	r3, [r4, #39]	@ zero_extendqisi2
 15302 0078 012B     		cmp	r3, #1
 15303 007a 5DD0     		beq	.L400
 161:./subsystems/imu/imu_aspirin.h ****   {
 162:./subsystems/imu/imu_aspirin.h ****     return;
 163:./subsystems/imu/imu_aspirin.h ****   }
 164:./subsystems/imu/imu_aspirin.h **** 
 165:./subsystems/imu/imu_aspirin.h ****   ImuMagEvent(_mag_handler);
 15304              		.loc 2 165 0
 15305 007c 7F4C     		ldr	r4, .L458+8
 15306 007e FFF7FEFF 		bl	hmc5843_idle_task
 15307 0082 94F82F30 		ldrb	r3, [r4, #47]	@ zero_extendqisi2
 15308 0086 7BB1     		cbz	r3, .L403
 15309 0088 7B4B     		ldr	r3, .L458+4
 15310 008a B4F93020 		ldrsh	r2, [r4, #48]
 15311 008e 9A67     		str	r2, [r3, #120]
 15312 0090 B4F93220 		ldrsh	r2, [r4, #50]
 15313 0094 DA67     		str	r2, [r3, #124]
 15314 0096 B4F93420 		ldrsh	r2, [r4, #52]
 15315 009a C3F88020 		str	r2, [r3, #128]
 15316 009e FFF7FEFF 		bl	on_mag_event
 15317 00a2 0023     		movs	r3, #0
 15318 00a4 84F82F30 		strb	r3, [r4, #47]
 15319              	.L403:
 166:./subsystems/imu/imu_aspirin.h **** 
 167:./subsystems/imu/imu_aspirin.h ****   // Try back later if things are not idle
 168:./subsystems/imu/imu_aspirin.h ****   if ((i2c2.status != I2CIdle) || !i2c_idle(&i2c2)) {
 15320              		.loc 2 168 0
 15321 00a8 754D     		ldr	r5, .L458+12
 15322 00aa 95F82230 		ldrb	r3, [r5, #34]	@ zero_extendqisi2
 15323 00ae 1E46     		mov	r6, r3
 15324 00b0 002B     		cmp	r3, #0
 15325 00b2 41D1     		bne	.L400
 15326 00b4 2846     		mov	r0, r5
 15327 00b6 FFF7FEFF 		bl	i2c_idle
 15328 00ba 0028     		cmp	r0, #0
 15329 00bc 3CD0     		beq	.L400
 169:./subsystems/imu/imu_aspirin.h ****     return;
 170:./subsystems/imu/imu_aspirin.h ****   }
 171:./subsystems/imu/imu_aspirin.h **** 
 172:./subsystems/imu/imu_aspirin.h ****   if (imu_aspirin.reading_gyro) {
 15330              		.loc 2 172 0
 15331 00be 6D4C     		ldr	r4, .L458
 15332 00c0 94F86930 		ldrb	r3, [r4, #105]	@ zero_extendqisi2
 15333 00c4 1BB3     		cbz	r3, .L404
 173:./subsystems/imu/imu_aspirin.h ****     if (imu_aspirin.i2c_trans_gyro.status == I2CTransSuccess) {
 15334              		.loc 2 173 0
 15335 00c6 94F82730 		ldrb	r3, [r4, #39]	@ zero_extendqisi2
 15336 00ca 022B     		cmp	r3, #2
 15337 00cc 1AD1     		bne	.L405
 15338              	.LBB1780:
 15339              	.LBB1781:
 119:./subsystems/imu/imu_aspirin.h ****   int16_t gp = imu_aspirin.i2c_trans_gyro.buf[0]<<8 | imu_aspirin.i2c_trans_gyro.buf[1];
 15340              		.loc 2 119 0
 15341 00ce E779     		ldrb	r7, [r4, #7]	@ zero_extendqisi2
 15342 00d0 257A     		ldrb	r5, [r4, #8]	@ zero_extendqisi2
 120:./subsystems/imu/imu_aspirin.h ****   int16_t gq = imu_aspirin.i2c_trans_gyro.buf[2]<<8 | imu_aspirin.i2c_trans_gyro.buf[3];
 15343              		.loc 2 120 0
 15344 00d2 94F809C0 		ldrb	ip, [r4, #9]	@ zero_extendqisi2
 15345 00d6 A07A     		ldrb	r0, [r4, #10]	@ zero_extendqisi2
 121:./subsystems/imu/imu_aspirin.h ****   int16_t gr = imu_aspirin.i2c_trans_gyro.buf[4]<<8 | imu_aspirin.i2c_trans_gyro.buf[5];
 15346              		.loc 2 121 0
 15347 00d8 E17A     		ldrb	r1, [r4, #11]	@ zero_extendqisi2
 15348 00da 227B     		ldrb	r2, [r4, #12]	@ zero_extendqisi2
 122:./subsystems/imu/imu_aspirin.h ****   RATES_ASSIGN(imu.gyro_unscaled, gp, gq, gr);
 15349              		.loc 2 122 0
 15350 00dc 664B     		ldr	r3, .L458+4
 15351 00de 45EA0725 		orr	r5, r5, r7, lsl #8
 15352 00e2 40EA0C20 		orr	r0, r0, ip, lsl #8
 15353 00e6 42EA0122 		orr	r2, r2, r1, lsl #8
 15354 00ea 2DB2     		sxth	r5, r5
 15355 00ec 00B2     		sxth	r0, r0
 15356 00ee 12B2     		sxth	r2, r2
 15357 00f0 1D66     		str	r5, [r3, #96]
 15358 00f2 5866     		str	r0, [r3, #100]
 15359 00f4 9A66     		str	r2, [r3, #104]
 15360              	.LBE1781:
 15361              	.LBE1780:
 174:./subsystems/imu/imu_aspirin.h ****       gyro_copy_i2c();
 175:./subsystems/imu/imu_aspirin.h ****       if (imu_aspirin.gyro_available_blaaa) {
 15362              		.loc 2 175 0
 15363 00f6 94F86A30 		ldrb	r3, [r4, #106]	@ zero_extendqisi2
 15364 00fa 1BB1     		cbz	r3, .L405
 176:./subsystems/imu/imu_aspirin.h ****         imu_aspirin.gyro_available_blaaa = FALSE;
 15365              		.loc 2 176 0
 15366 00fc 84F86A60 		strb	r6, [r4, #106]
 177:./subsystems/imu/imu_aspirin.h ****         _gyro_handler();
 15367              		.loc 2 177 0
 15368 0100 FFF7FEFF 		bl	on_gyro_event
 15369              	.L405:
 178:./subsystems/imu/imu_aspirin.h ****       }
 179:./subsystems/imu/imu_aspirin.h ****     }
 180:./subsystems/imu/imu_aspirin.h ****     imu_aspirin.reading_gyro = 0;
 15370              		.loc 2 180 0
 15371 0104 5B4B     		ldr	r3, .L458
 15372 0106 0022     		movs	r2, #0
 15373 0108 83F86920 		strb	r2, [r3, #105]
 15374 010c 14E0     		b	.L400
 15375              	.L404:
 15376              	.LBB1782:
 15377              	.LBB1783:
 15378              		.file 4 "/home/woz/lisa-m-team4938/paparazzi/sw/airborne/arch/stm32/subsystems/imu/imu_aspirin_arc
   1:/home/woz/lisa-m-team4938/paparazzi/sw/airborne/arch/stm32/subsystems/imu/imu_aspirin_arch.h **** #ifndef IMU_ASPIRIN_ARCH_H
   2:/home/woz/lisa-m-team4938/paparazzi/sw/airborne/arch/stm32/subsystems/imu/imu_aspirin_arch.h **** #define IMU_ASPIRIN_ARCH_H
   3:/home/woz/lisa-m-team4938/paparazzi/sw/airborne/arch/stm32/subsystems/imu/imu_aspirin_arch.h **** 
   4:/home/woz/lisa-m-team4938/paparazzi/sw/airborne/arch/stm32/subsystems/imu/imu_aspirin_arch.h **** #include "subsystems/imu.h"
   5:/home/woz/lisa-m-team4938/paparazzi/sw/airborne/arch/stm32/subsystems/imu/imu_aspirin_arch.h **** #include <stm32/gpio.h>
   6:/home/woz/lisa-m-team4938/paparazzi/sw/airborne/arch/stm32/subsystems/imu/imu_aspirin_arch.h **** 
   7:/home/woz/lisa-m-team4938/paparazzi/sw/airborne/arch/stm32/subsystems/imu/imu_aspirin_arch.h **** extern void imu_aspirin_arch_int_enable(void);
   8:/home/woz/lisa-m-team4938/paparazzi/sw/airborne/arch/stm32/subsystems/imu/imu_aspirin_arch.h **** extern void imu_aspirin_arch_int_disable(void);
   9:/home/woz/lisa-m-team4938/paparazzi/sw/airborne/arch/stm32/subsystems/imu/imu_aspirin_arch.h **** extern void adxl345_write_to_reg(uint8_t addr, uint8_t val);
  10:/home/woz/lisa-m-team4938/paparazzi/sw/airborne/arch/stm32/subsystems/imu/imu_aspirin_arch.h **** extern void adxl345_clear_rx_buf(void);
  11:/home/woz/lisa-m-team4938/paparazzi/sw/airborne/arch/stm32/subsystems/imu/imu_aspirin_arch.h **** extern void adxl345_start_reading_data(void);
  12:/home/woz/lisa-m-team4938/paparazzi/sw/airborne/arch/stm32/subsystems/imu/imu_aspirin_arch.h **** 
  13:/home/woz/lisa-m-team4938/paparazzi/sw/airborne/arch/stm32/subsystems/imu/imu_aspirin_arch.h **** static inline int imu_aspirin_eoc(void)
  14:/home/woz/lisa-m-team4938/paparazzi/sw/airborne/arch/stm32/subsystems/imu/imu_aspirin_arch.h **** {
  15:/home/woz/lisa-m-team4938/paparazzi/sw/airborne/arch/stm32/subsystems/imu/imu_aspirin_arch.h ****   return !GPIO_ReadInputDataBit(GPIOC, GPIO_Pin_14);
 15379              		.loc 4 15 0
 15380 010e 5D48     		ldr	r0, .L458+16
 15381 0110 4FF48041 		mov	r1, #16384
 15382 0114 FFF7FEFF 		bl	GPIO_ReadInputDataBit
 15383              	.LBE1783:
 15384              	.LBE1782:
 181:./subsystems/imu/imu_aspirin.h ****     return;
 182:./subsystems/imu/imu_aspirin.h ****   }
 183:./subsystems/imu/imu_aspirin.h **** 
 184:./subsystems/imu/imu_aspirin.h ****   // If we're not already waiting for read, and conversion is complete, schedule a read
 185:./subsystems/imu/imu_aspirin.h ****   if (!imu_aspirin.reading_gyro && imu_aspirin_eoc() && i2c2.status == I2CIdle && i2c_idle(&i2c2)) 
 15385              		.loc 2 185 0
 15386 0118 70B9     		cbnz	r0, .L400
 15387 011a 95F82230 		ldrb	r3, [r5, #34]	@ zero_extendqisi2
 15388 011e 1E46     		mov	r6, r3
 15389 0120 53B9     		cbnz	r3, .L400
 15390 0122 2846     		mov	r0, r5
 15391 0124 FFF7FEFF 		bl	i2c_idle
 15392 0128 30B1     		cbz	r0, .L400
 186:./subsystems/imu/imu_aspirin.h ****     if (imu_aspirin.i2c_trans_gyro.status == I2CTransSuccess) {
 15393              		.loc 2 186 0
 15394 012a 94F82730 		ldrb	r3, [r4, #39]	@ zero_extendqisi2
 15395 012e 022B     		cmp	r3, #2
 187:./subsystems/imu/imu_aspirin.h ****       imu_aspirin.time_since_last_reading = 0;
 15396              		.loc 2 187 0
 15397 0130 08BF     		it	eq
 15398 0132 2666     		streq	r6, [r4, #96]
 188:./subsystems/imu/imu_aspirin.h ****     }
 189:./subsystems/imu/imu_aspirin.h ****     gyro_read_i2c();
 15399              		.loc 2 189 0
 15400 0134 FFF7FEFF 		bl	gyro_read_i2c
 15401              	.L400:
 15402              	.LBE1775:
 15403              	.LBE1774:
 627:firmwares/fixedwing/main_ap.c ****   GpsEvent(on_gps_solution);
 15404              		.loc 1 627 0
 15405 0138 534B     		ldr	r3, .L458+20
 15406 013a B3F88020 		ldrh	r2, [r3, #128]
 15407 013e B3F88230 		ldrh	r3, [r3, #130]
 15408 0142 9A42     		cmp	r2, r3
 15409 0144 08D1     		bne	.L407
 15410 0146 12E0     		b	.L408
 15411              	.L409:
 15412              	.LBB1784:
 15413 0148 985C     		ldrb	r0, [r3, r2]	@ zero_extendqisi2
 15414              	.LVL1373:
 15415 014a 0132     		adds	r2, r2, #1
 15416 014c 02F07F02 		and	r2, r2, #127
 15417 0150 A3F88220 		strh	r2, [r3, #130]	@ movhi
 15418              	.LBE1784:
 15419 0154 FFF7FEFF 		bl	gps_ubx_parse
 15420              	.LVL1374:
 15421              	.L407:
 15422 0158 4B4B     		ldr	r3, .L458+20
 15423 015a B3F88220 		ldrh	r2, [r3, #130]
 15424 015e B3F88010 		ldrh	r1, [r3, #128]
 15425 0162 9142     		cmp	r1, r2
 15426 0164 03D0     		beq	.L408
 15427 0166 4949     		ldr	r1, .L458+24
 15428 0168 0978     		ldrb	r1, [r1, #0]	@ zero_extendqisi2
 15429 016a 0029     		cmp	r1, #0
 15430 016c ECD0     		beq	.L409
 15431              	.L408:
 15432 016e 474C     		ldr	r4, .L458+24
 15433 0170 2378     		ldrb	r3, [r4, #0]	@ zero_extendqisi2
 15434 0172 03B3     		cbz	r3, .L410
 15435 0174 FFF7FEFF 		bl	gps_ubx_read_message
 15436 0178 94F80831 		ldrb	r3, [r4, #264]	@ zero_extendqisi2
 15437 017c 012B     		cmp	r3, #1
 15438 017e 17D1     		bne	.L411
 15439 0180 94F80731 		ldrb	r3, [r4, #263]	@ zero_extendqisi2
 15440 0184 122B     		cmp	r3, #18
 15441 0186 04D0     		beq	.L412
 15442 0188 062B     		cmp	r3, #6
 15443 018a 11D1     		bne	.L411
 15444 018c 94F81531 		ldrb	r3, [r4, #277]	@ zero_extendqisi2
 15445 0190 73B9     		cbnz	r3, .L411
 15446              	.L412:
 15447 0192 3F4B     		ldr	r3, .L458+28
 15448 0194 93F85720 		ldrb	r2, [r3, #87]	@ zero_extendqisi2
 15449 0198 032A     		cmp	r2, #3
 15450 019a 07D1     		bne	.L413
 15451 019c 3D4A     		ldr	r2, .L458+32
 15452 019e 1268     		ldr	r2, [r2, #0]
 15453 01a0 C3F8E420 		str	r2, [r3, #228]
 15454 01a4 3C4A     		ldr	r2, .L458+36
 15455 01a6 1288     		ldrh	r2, [r2, #0]
 15456 01a8 A3F8E820 		strh	r2, [r3, #232]	@ movhi
 15457              	.L413:
 15458              	.LBB1785:
 15459              	.LBB1786:
 660:firmwares/fixedwing/main_ap.c ****   estimator_update_state_gps();
 15460              		.loc 1 660 0
 15461 01ac FFF7FEFF 		bl	estimator_update_state_gps
 15462              	.L411:
 15463              	.LBE1786:
 15464              	.LBE1785:
 627:firmwares/fixedwing/main_ap.c ****   GpsEvent(on_gps_solution);
 15465              		.loc 1 627 0
 15466 01b0 364B     		ldr	r3, .L458+24
 15467 01b2 0022     		movs	r2, #0
 15468 01b4 1A70     		strb	r2, [r3, #0]
 15469              	.L410:
 631:firmwares/fixedwing/main_ap.c ****   DatalinkEvent();
 15470              		.loc 1 631 0
 15471 01b6 394B     		ldr	r3, .L458+40
 15472 01b8 B3F88070 		ldrh	r7, [r3, #128]
 15473 01bc B3F88240 		ldrh	r4, [r3, #130]
 15474 01c0 A742     		cmp	r7, r4
 15475 01c2 00F0AA80 		beq	.L414
 15476 01c6 364B     		ldr	r3, .L458+44
 15477 01c8 1A78     		ldrb	r2, [r3, #0]	@ zero_extendqisi2
 15478 01ca 364B     		ldr	r3, .L458+48
 15479 01cc 1E78     		ldrb	r6, [r3, #0]	@ zero_extendqisi2
 15480 01ce 364B     		ldr	r3, .L458+52
 15481 01d0 1978     		ldrb	r1, [r3, #0]	@ zero_extendqisi2
 15482              	.LVL1375:
 15483 01d2 364B     		ldr	r3, .L458+56
 15484 01d4 1878     		ldrb	r0, [r3, #0]	@ zero_extendqisi2
 15485              	.LVL1376:
 15486 01d6 364B     		ldr	r3, .L458+60
 15487 01d8 93F800C0 		ldrb	ip, [r3, #0]	@ zero_extendqisi2
 15488 01dc 354B     		ldr	r3, .L458+64
 15489 01de 1D78     		ldrb	r5, [r3, #0]	@ zero_extendqisi2
 15490 01e0 41E0     		b	.L415
 15491              	.LVL1377:
 15492              	.L429:
 15493              	.LBB1787:
 15494 01e2 1B5D     		ldrb	r3, [r3, r4]	@ zero_extendqisi2
 15495              	.LVL1378:
 15496 01e4 0134     		adds	r4, r4, #1
 15497 01e6 04F07F04 		and	r4, r4, #127
 15498              	.LBE1787:
 15499              	.LBB1788:
 15500              	.LBB1789:
 15501              		.file 5 "./pprz_transport.h"
   1:./pprz_transport.h **** /*
   2:./pprz_transport.h ****  * Paparazzi $Id$
   3:./pprz_transport.h ****  *
   4:./pprz_transport.h ****  * Copyright (C) 2003  Pascal Brisset, Antoine Drouin
   5:./pprz_transport.h ****  *
   6:./pprz_transport.h ****  * This file is part of paparazzi.
   7:./pprz_transport.h ****  *
   8:./pprz_transport.h ****  * paparazzi is free software; you can redistribute it and/or modify
   9:./pprz_transport.h ****  * it under the terms of the GNU General Public License as published by
  10:./pprz_transport.h ****  * the Free Software Foundation; either version 2, or (at your option)
  11:./pprz_transport.h ****  * any later version.
  12:./pprz_transport.h ****  *
  13:./pprz_transport.h ****  * paparazzi is distributed in the hope that it will be useful,
  14:./pprz_transport.h ****  * but WITHOUT ANY WARRANTY; without even the implied warranty of
  15:./pprz_transport.h ****  * MERCHANTABILITY or FITNESS FOR A PARTICULAR PURPOSE.  See the
  16:./pprz_transport.h ****  * GNU General Public License for more details.
  17:./pprz_transport.h ****  *
  18:./pprz_transport.h ****  * You should have received a copy of the GNU General Public License
  19:./pprz_transport.h ****  * along with paparazzi; see the file COPYING.  If not, write to
  20:./pprz_transport.h ****  * the Free Software Foundation, 59 Temple Place - Suite 330,
  21:./pprz_transport.h ****  * Boston, MA 02111-1307, USA.
  22:./pprz_transport.h ****  *
  23:./pprz_transport.h ****  */
  24:./pprz_transport.h **** 
  25:./pprz_transport.h **** /** \file pprz_transport.h
  26:./pprz_transport.h ****  *  \brief Building and parsing Paparazzi frames
  27:./pprz_transport.h ****  *
  28:./pprz_transport.h ****  *  Pprz frame:
  29:./pprz_transport.h ****  *
  30:./pprz_transport.h ****  *   |STX|length|... payload=(length-4) bytes ...|Checksum A|Checksum B|
  31:./pprz_transport.h ****  *
  32:./pprz_transport.h ****  *   where checksum is computed over length and payload:
  33:./pprz_transport.h ****  *     ck_A = ck_B = length
  34:./pprz_transport.h ****  *     for each byte b in payload
  35:./pprz_transport.h ****  *       ck_A += b; ck_b += ck_A
  36:./pprz_transport.h ****  */
  37:./pprz_transport.h **** 
  38:./pprz_transport.h **** #ifndef PPRZ_TRANSPORT_H
  39:./pprz_transport.h **** #define PPRZ_TRANSPORT_H
  40:./pprz_transport.h **** 
  41:./pprz_transport.h **** #include <inttypes.h>
  42:./pprz_transport.h **** #include "std.h"
  43:./pprz_transport.h **** #include "datalink.h"
  44:./pprz_transport.h **** 
  45:./pprz_transport.h **** extern uint8_t ck_a, ck_b;
  46:./pprz_transport.h **** 
  47:./pprz_transport.h **** #define STX  0x99
  48:./pprz_transport.h **** 
  49:./pprz_transport.h **** /** 4 = STX + len + ck_a + ck_b */
  50:./pprz_transport.h **** #define PprzTransportSizeOf(_payload) (_payload+4)
  51:./pprz_transport.h **** 
  52:./pprz_transport.h **** #define __Link(dev, _x) dev##_x
  53:./pprz_transport.h **** #define _Link(dev, _x)  __Link(dev, _x)
  54:./pprz_transport.h **** #define Link(_x) _Link(DOWNLINK_DEVICE, _x)
  55:./pprz_transport.h **** 
  56:./pprz_transport.h **** #define PprzTransportCheckFreeSpace(_x) Link(CheckFreeSpace(_x))
  57:./pprz_transport.h **** 
  58:./pprz_transport.h **** #define PprzTransportPut1Byte(_x) Link(Transmit(_x))
  59:./pprz_transport.h **** #define PprzTransportSendMessage() Link(SendMessage())
  60:./pprz_transport.h **** 
  61:./pprz_transport.h **** #define PprzTransportHeader(payload_len) { \
  62:./pprz_transport.h ****   PprzTransportPut1Byte(STX);				\
  63:./pprz_transport.h ****   uint8_t msg_len = PprzTransportSizeOf(payload_len);	\
  64:./pprz_transport.h ****   PprzTransportPut1Byte(msg_len);			\
  65:./pprz_transport.h ****   ck_a = msg_len; ck_b = msg_len;			\
  66:./pprz_transport.h **** }
  67:./pprz_transport.h **** 
  68:./pprz_transport.h **** #define PprzTransportTrailer() { \
  69:./pprz_transport.h ****   PprzTransportPut1Byte(ck_a);	\
  70:./pprz_transport.h ****   PprzTransportPut1Byte(ck_b);	\
  71:./pprz_transport.h ****   PprzTransportSendMessage() \
  72:./pprz_transport.h **** }
  73:./pprz_transport.h **** 
  74:./pprz_transport.h **** #define PprzTransportPutUint8(_byte) { \
  75:./pprz_transport.h ****     ck_a += _byte;			  \
  76:./pprz_transport.h ****     ck_b += ck_a;			  \
  77:./pprz_transport.h ****     PprzTransportPut1Byte(_byte);		  \
  78:./pprz_transport.h ****  }
  79:./pprz_transport.h **** 
  80:./pprz_transport.h **** #define PprzTransportPutNamedUint8(_name, _byte) PprzTransportPutUint8(_byte)
  81:./pprz_transport.h **** 
  82:./pprz_transport.h **** #define PprzTransportPut1ByteByAddr(_byte) {	 \
  83:./pprz_transport.h ****     uint8_t _x = *(_byte);		 \
  84:./pprz_transport.h ****     PprzTransportPutUint8(_x);	 \
  85:./pprz_transport.h ****   }
  86:./pprz_transport.h **** 
  87:./pprz_transport.h **** #define PprzTransportPut2ByteByAddr(_byte) { \
  88:./pprz_transport.h ****     PprzTransportPut1ByteByAddr(_byte);	\
  89:./pprz_transport.h ****     PprzTransportPut1ByteByAddr((const uint8_t*)_byte+1);	\
  90:./pprz_transport.h ****   }
  91:./pprz_transport.h **** 
  92:./pprz_transport.h **** #define PprzTransportPut4ByteByAddr(_byte) { \
  93:./pprz_transport.h ****     PprzTransportPut2ByteByAddr(_byte);	\
  94:./pprz_transport.h ****     PprzTransportPut2ByteByAddr((const uint8_t*)_byte+2);	\
  95:./pprz_transport.h ****   }
  96:./pprz_transport.h **** 
  97:./pprz_transport.h **** #ifdef __IEEE_BIG_ENDIAN /* From machine/ieeefp.h */
  98:./pprz_transport.h **** #define PprzTransportPutDoubleByAddr(_byte) { \
  99:./pprz_transport.h ****     PprzTransportPut4ByteByAddr((const uint8_t*)_byte+4);	\
 100:./pprz_transport.h ****     PprzTransportPut4ByteByAddr((const uint8_t*)_byte);	\
 101:./pprz_transport.h ****   }
 102:./pprz_transport.h **** #else
 103:./pprz_transport.h **** #define PprzTransportPutDoubleByAddr(_byte) { \
 104:./pprz_transport.h ****     PprzTransportPut4ByteByAddr((const uint8_t*)_byte);	\
 105:./pprz_transport.h ****     PprzTransportPut4ByteByAddr((const uint8_t*)_byte+4);	\
 106:./pprz_transport.h ****   }
 107:./pprz_transport.h **** #endif
 108:./pprz_transport.h **** 
 109:./pprz_transport.h **** 
 110:./pprz_transport.h **** #define PprzTransportPutInt8ByAddr(_x) PprzTransportPut1ByteByAddr(_x)
 111:./pprz_transport.h **** #define PprzTransportPutUint8ByAddr(_x) PprzTransportPut1ByteByAddr((const uint8_t*)_x)
 112:./pprz_transport.h **** #define PprzTransportPutInt16ByAddr(_x) PprzTransportPut2ByteByAddr((const uint8_t*)_x)
 113:./pprz_transport.h **** #define PprzTransportPutUint16ByAddr(_x) PprzTransportPut2ByteByAddr((const uint8_t*)_x)
 114:./pprz_transport.h **** #define PprzTransportPutInt32ByAddr(_x) PprzTransportPut4ByteByAddr((const uint8_t*)_x)
 115:./pprz_transport.h **** #define PprzTransportPutUint32ByAddr(_x) PprzTransportPut4ByteByAddr((const uint8_t*)_x)
 116:./pprz_transport.h **** #define PprzTransportPutFloatByAddr(_x) PprzTransportPut4ByteByAddr((const uint8_t*)_x)
 117:./pprz_transport.h **** 
 118:./pprz_transport.h **** #define PprzTransportPutArray(_put, _n, _x) { \
 119:./pprz_transport.h ****   uint8_t _i; \
 120:./pprz_transport.h ****   PprzTransportPutUint8(_n); \
 121:./pprz_transport.h ****   for(_i = 0; _i < _n; _i++) { \
 122:./pprz_transport.h ****     _put(&_x[_i]); \
 123:./pprz_transport.h ****   } \
 124:./pprz_transport.h **** }
 125:./pprz_transport.h **** 
 126:./pprz_transport.h **** #define PprzTransportPutFloatArray(_n, _x) PprzTransportPutArray(PprzTransportPutFloatByAddr, _n, _
 127:./pprz_transport.h **** #define PprzTransportPutDoubleArray(_n, _x) PprzTransportPutArray(PprzTransportPutDoubleByAddr, _n,
 128:./pprz_transport.h **** 
 129:./pprz_transport.h **** #define PprzTransportPutInt16Array(_n, _x) PprzTransportPutArray(PprzTransportPutInt16ByAddr, _n, _
 130:./pprz_transport.h **** #define PprzTransportPutUint16Array(_n, _x) PprzTransportPutArray(PprzTransportPutUint16ByAddr, _n,
 131:./pprz_transport.h **** 
 132:./pprz_transport.h **** #define PprzTransportPutInt32Array(_n, _x) PprzTransportPutArray(PprzTransportPutInt32ByAddr, _n, _
 133:./pprz_transport.h **** #define PprzTransportPutUint32Array(_n, _x) PprzTransportPutArray(PprzTransportPutUint32ByAddr, _n,
 134:./pprz_transport.h **** 
 135:./pprz_transport.h **** #define PprzTransportPutUint8Array(_n, _x) PprzTransportPutArray(PprzTransportPutUint8ByAddr, _n, _
 136:./pprz_transport.h **** 
 137:./pprz_transport.h **** 
 138:./pprz_transport.h **** /** Receiving pprz messages */
 139:./pprz_transport.h **** 
 140:./pprz_transport.h **** #define UNINIT 0
 141:./pprz_transport.h **** #define GOT_STX 1
 142:./pprz_transport.h **** #define GOT_LENGTH 2
 143:./pprz_transport.h **** #define GOT_PAYLOAD 3
 144:./pprz_transport.h **** #define GOT_CRC1 4
 145:./pprz_transport.h **** 
 146:./pprz_transport.h **** 
 147:./pprz_transport.h **** #define PPRZ_PAYLOAD_LEN 256
 148:./pprz_transport.h **** extern uint8_t pprz_payload[PPRZ_PAYLOAD_LEN];
 149:./pprz_transport.h **** 
 150:./pprz_transport.h **** extern volatile bool_t pprz_msg_received;
 151:./pprz_transport.h **** extern uint8_t pprz_ovrn, pprz_error;
 152:./pprz_transport.h **** extern volatile uint8_t pprz_payload_len;
 153:./pprz_transport.h **** 
 154:./pprz_transport.h **** static inline void parse_pprz( uint8_t c ) {
 155:./pprz_transport.h ****   static uint8_t pprz_status = UNINIT;
 156:./pprz_transport.h ****   static uint8_t _ck_a, _ck_b, payload_idx;
 157:./pprz_transport.h **** 
 158:./pprz_transport.h ****   switch (pprz_status) {
 15502              		.loc 5 158 0
 15503 01ea 042A     		cmp	r2, #4
 15504 01ec 36D8     		bhi	.L416
 15505 01ee DFE802F0 		tbb	[pc, r2]
 15506              	.L422:
 15507 01f2 03       		.byte	(.L417-.L422)/2
 15508 01f3 08       		.byte	(.L418-.L422)/2
 15509 01f4 17       		.byte	(.L419-.L422)/2
 15510 01f5 29       		.byte	(.L420-.L422)/2
 15511 01f6 2F       		.byte	(.L421-.L422)/2
 15512 01f7 00       		.align	1
 15513              	.L417:
 159:./pprz_transport.h ****   case UNINIT:
 160:./pprz_transport.h ****     if (c == STX)
 15514              		.loc 5 160 0
 15515 01f8 992B     		cmp	r3, #153
 15516 01fa 08BF     		it	eq
 15517 01fc 0122     		moveq	r2, #1
 15518 01fe 0B46     		mov	r3, r1
 15519 0200 30E0     		b	.L424
 15520              	.LVL1379:
 15521              	.L418:
 161:./pprz_transport.h ****       pprz_status++;
 162:./pprz_transport.h ****     break;
 163:./pprz_transport.h ****   case GOT_STX:
 164:./pprz_transport.h ****     if (pprz_msg_received) {
 15522              		.loc 5 164 0
 15523 0202 2D4A     		ldr	r2, .L458+68
 15524 0204 1278     		ldrb	r2, [r2, #0]	@ zero_extendqisi2
 15525 0206 9046     		mov	r8, r2
 15526 0208 12B1     		cbz	r2, .L425
 165:./pprz_transport.h ****       pprz_ovrn++;
 15527              		.loc 5 165 0
 15528 020a 0136     		adds	r6, r6, #1
 15529 020c F6B2     		uxtb	r6, r6
 15530 020e 25E0     		b	.L416
 15531              	.L425:
 166:./pprz_transport.h ****       goto error;
 167:./pprz_transport.h ****     }
 168:./pprz_transport.h ****     pprz_payload_len = c-4; /* Counting STX, LENGTH and CRC1 and CRC2 */
 15532              		.loc 5 168 0
 15533 0210 2A4A     		ldr	r2, .L458+72
 15534 0212 191F     		subs	r1, r3, #4
 15535 0214 C9B2     		uxtb	r1, r1
 15536 0216 1170     		strb	r1, [r2, #0]
 15537 0218 1846     		mov	r0, r3
 15538 021a C446     		mov	ip, r8
 15539 021c 0222     		movs	r2, #2
 15540 021e 21E0     		b	.L424
 15541              	.LVL1380:
 15542              	.L419:
 169:./pprz_transport.h ****     _ck_a = _ck_b = c;
 170:./pprz_transport.h ****     pprz_status++;
 171:./pprz_transport.h ****     payload_idx = 0;
 172:./pprz_transport.h ****     break;
 173:./pprz_transport.h ****   case GOT_LENGTH:
 174:./pprz_transport.h ****     pprz_payload[payload_idx] = c;
 175:./pprz_transport.h ****     _ck_a += c; _ck_b += _ck_a;
 15543              		.loc 5 175 0
 15544 0220 1818     		adds	r0, r3, r0
 174:./pprz_transport.h ****     pprz_payload[payload_idx] = c;
 15545              		.loc 5 174 0
 15546 0222 DFF89C80 		ldr	r8, .L458+76
 15547              		.loc 5 175 0
 15548 0226 C0B2     		uxtb	r0, r0
 15549              	.LVL1381:
 174:./pprz_transport.h ****     pprz_payload[payload_idx] = c;
 15550              		.loc 5 174 0
 15551 0228 08F80C30 		strb	r3, [r8, ip]
 15552              		.loc 5 175 0
 15553 022c 4318     		adds	r3, r0, r1
 176:./pprz_transport.h ****     payload_idx++;
 177:./pprz_transport.h ****     if (payload_idx == pprz_payload_len)
 15554              		.loc 5 177 0
 15555 022e 2349     		ldr	r1, .L458+72
 176:./pprz_transport.h ****     payload_idx++;
 15556              		.loc 5 176 0
 15557 0230 0CF1010C 		add	ip, ip, #1
 15558              		.loc 5 177 0
 15559 0234 0978     		ldrb	r1, [r1, #0]	@ zero_extendqisi2
 176:./pprz_transport.h ****     payload_idx++;
 15560              		.loc 5 176 0
 15561 0236 5FFA8CFC 		uxtb	ip, ip
 175:./pprz_transport.h ****     _ck_a += c; _ck_b += _ck_a;
 15562              		.loc 5 175 0
 15563 023a DBB2     		uxtb	r3, r3
 15564              	.LVL1382:
 15565              		.loc 5 177 0
 15566 023c 8C45     		cmp	ip, r1
 15567 023e 08BF     		it	eq
 15568 0240 0322     		moveq	r2, #3
 15569 0242 0FE0     		b	.L424
 15570              	.L420:
 178:./pprz_transport.h ****       pprz_status++;
 179:./pprz_transport.h ****     break;
 180:./pprz_transport.h ****   case GOT_PAYLOAD:
 181:./pprz_transport.h ****     if (c != _ck_a)
 15571              		.loc 5 181 0
 15572 0244 8342     		cmp	r3, r0
 15573 0246 09D1     		bne	.L416
 15574              	.LVL1383:
 15575 0248 1846     		mov	r0, r3
 15576 024a 0422     		movs	r2, #4
 15577 024c 0B46     		mov	r3, r1
 15578 024e 09E0     		b	.L424
 15579              	.LVL1384:
 15580              	.L421:
 182:./pprz_transport.h ****       goto error;
 183:./pprz_transport.h ****     pprz_status++;
 184:./pprz_transport.h ****     break;
 185:./pprz_transport.h ****   case GOT_CRC1:
 186:./pprz_transport.h ****     if (c != _ck_b)
 15581              		.loc 5 186 0
 15582 0250 8B42     		cmp	r3, r1
 15583 0252 03D1     		bne	.L416
 15584              	.LVL1385:
 187:./pprz_transport.h ****       goto error;
 188:./pprz_transport.h ****     pprz_msg_received = TRUE;
 15585              		.loc 5 188 0
 15586 0254 184B     		ldr	r3, .L458+68
 15587 0256 0122     		movs	r2, #1
 15588 0258 1A70     		strb	r2, [r3, #0]
 15589 025a 01E0     		b	.L426
 15590              	.LVL1386:
 15591              	.L416:
 189:./pprz_transport.h ****     goto restart;
 190:./pprz_transport.h ****   default:
 191:./pprz_transport.h ****     goto error;
 192:./pprz_transport.h ****   }
 193:./pprz_transport.h ****   return;
 194:./pprz_transport.h ****  error:
 195:./pprz_transport.h ****   pprz_error++;
 15592              		.loc 5 195 0
 15593 025c 0135     		adds	r5, r5, #1
 15594 025e EDB2     		uxtb	r5, r5
 15595              	.LVL1387:
 15596              	.L426:
 15597 0260 0B46     		mov	r3, r1
 15598 0262 0022     		movs	r2, #0
 15599              	.LVL1388:
 15600              	.L424:
 15601 0264 1946     		mov	r1, r3
 15602              	.LVL1389:
 15603              	.L415:
 15604              	.LBE1789:
 15605              	.LBE1788:
 631:firmwares/fixedwing/main_ap.c ****   DatalinkEvent();
 15606              		.loc 1 631 0
 15607 0266 A742     		cmp	r7, r4
 15608 0268 2CD1     		bne	.L427
 15609 026a 0C4B     		ldr	r3, .L458+40
 15610 026c A3F88270 		strh	r7, [r3, #130]	@ movhi
 15611 0270 31E0     		b	.L457
 15612              	.L459:
 15613 0272 00BF     		.align	2
 15614              	.L458:
 15615 0274 00000000 		.word	imu_aspirin
 15616 0278 00000000 		.word	imu
 15617 027c 00000000 		.word	hmc5843
 15618 0280 00000000 		.word	i2c2
 15619 0284 00100140 		.word	1073811456
 15620 0288 00000000 		.word	uart1
 15621 028c 00000000 		.word	gps_ubx
 15622 0290 00000000 		.word	gps
 15623 0294 00000000 		.word	cpu_time_ticks
 15624 0298 00000000 		.word	cpu_time_sec
 15625 029c 00000000 		.word	uart2
 15626 02a0 00000000 		.word	.LANCHOR69
 15627 02a4 00000000 		.word	pprz_ovrn
 15628 02a8 00000000 		.word	.LANCHOR70
 15629 02ac 00000000 		.word	.LANCHOR71
 15630 02b0 00000000 		.word	.LANCHOR72
 15631 02b4 00000000 		.word	pprz_error
 15632 02b8 00000000 		.word	pprz_msg_received
 15633 02bc 00000000 		.word	pprz_payload_len
 15634 02c0 00000000 		.word	pprz_payload
 15635              	.LVL1390:
 15636              	.L427:
 15637 02c4 864B     		ldr	r3, .L460
 15638 02c6 93F80080 		ldrb	r8, [r3, #0]	@ zero_extendqisi2
 15639 02ca 864B     		ldr	r3, .L460+4
 15640 02cc B8F1000F 		cmp	r8, #0
 15641 02d0 87D0     		beq	.L429
 15642 02d2 A3F88240 		strh	r4, [r3, #130]	@ movhi
 15643              	.L457:
 15644 02d6 844B     		ldr	r3, .L460+8
 15645 02d8 1A70     		strb	r2, [r3, #0]
 15646 02da 844B     		ldr	r3, .L460+12
 15647 02dc 1E70     		strb	r6, [r3, #0]
 15648 02de 844B     		ldr	r3, .L460+16
 15649 02e0 1970     		strb	r1, [r3, #0]
 15650 02e2 844B     		ldr	r3, .L460+20
 15651 02e4 1870     		strb	r0, [r3, #0]
 15652 02e6 844B     		ldr	r3, .L460+24
 15653 02e8 83F800C0 		strb	ip, [r3, #0]
 15654 02ec 834B     		ldr	r3, .L460+28
 15655 02ee 1D70     		strb	r5, [r3, #0]
 15656 02f0 7B4B     		ldr	r3, .L460
 15657 02f2 1B78     		ldrb	r3, [r3, #0]	@ zero_extendqisi2
 15658 02f4 8BB1     		cbz	r3, .L414
 15659 02f6 0023     		movs	r3, #0
 15660              	.LVL1391:
 15661 02f8 05E0     		b	.L430
 15662              	.L431:
 15663              	.LBB1790:
 15664              	.LBB1791:
 196:./pprz_transport.h ****  restart:
 197:./pprz_transport.h ****   pprz_status = UNINIT;
 198:./pprz_transport.h ****   return;
 199:./pprz_transport.h **** }
 200:./pprz_transport.h **** 
 201:./pprz_transport.h **** static inline void pprz_parse_payload(void) {
 202:./pprz_transport.h ****   uint8_t i;
 203:./pprz_transport.h ****   for(i = 0; i < pprz_payload_len; i++)
 204:./pprz_transport.h ****     dl_buffer[i] = pprz_payload[i];
 15665              		.loc 5 204 0
 15666 02fa 814A     		ldr	r2, .L460+32
 15667 02fc D15C     		ldrb	r1, [r2, r3]	@ zero_extendqisi2
 15668 02fe 814A     		ldr	r2, .L460+36
 15669 0300 D154     		strb	r1, [r2, r3]
 203:./pprz_transport.h ****   for(i = 0; i < pprz_payload_len; i++)
 15670              		.loc 5 203 0
 15671 0302 0133     		adds	r3, r3, #1
 15672              	.LVL1392:
 15673 0304 DBB2     		uxtb	r3, r3
 15674              	.LVL1393:
 15675              	.L430:
 15676 0306 804A     		ldr	r2, .L460+40
 15677 0308 1278     		ldrb	r2, [r2, #0]	@ zero_extendqisi2
 15678 030a 9342     		cmp	r3, r2
 15679 030c F5D3     		bcc	.L431
 205:./pprz_transport.h ****   dl_msg_available = TRUE;
 15680              		.loc 5 205 0
 15681 030e 7F4B     		ldr	r3, .L460+44
 15682              	.LVL1394:
 15683 0310 0122     		movs	r2, #1
 15684 0312 1A70     		strb	r2, [r3, #0]
 15685              	.LBE1791:
 15686              	.LBE1790:
 631:firmwares/fixedwing/main_ap.c ****   DatalinkEvent();
 15687              		.loc 1 631 0
 15688 0314 724B     		ldr	r3, .L460
 15689 0316 013A     		subs	r2, r2, #1
 15690 0318 1A70     		strb	r2, [r3, #0]
 15691              	.L414:
 15692 031a 7C4C     		ldr	r4, .L460+44
 15693 031c 2378     		ldrb	r3, [r4, #0]	@ zero_extendqisi2
 15694 031e 1BB1     		cbz	r3, .L432
 15695 0320 FFF7FEFF 		bl	dl_parse_msg
 15696              	.LVL1395:
 15697 0324 0023     		movs	r3, #0
 15698 0326 2370     		strb	r3, [r4, #0]
 15699              	.LVL1396:
 15700              	.L432:
 638:firmwares/fixedwing/main_ap.c ****   if (inter_mcu_received_fbw) {
 15701              		.loc 1 638 0
 15702 0328 794B     		ldr	r3, .L460+48
 15703 032a 1A78     		ldrb	r2, [r3, #0]	@ zero_extendqisi2
 15704 032c 002A     		cmp	r2, #0
 15705 032e 00F05081 		beq	.L454
 640:firmwares/fixedwing/main_ap.c ****     inter_mcu_received_fbw = FALSE;
 15706              		.loc 1 640 0
 15707 0332 0022     		movs	r2, #0
 15708 0334 1A70     		strb	r2, [r3, #0]
 15709              	.LBB1792:
 15710              	.LBB1793:
 218:firmwares/fixedwing/main_ap.c ****   uint8_t really_lost = bit_is_set(fbw_state->status, STATUS_RADIO_REALLY_LOST) && (pprz_mode == PP
 15711              		.loc 1 218 0
 15712 0336 774B     		ldr	r3, .L460+52
 15713 0338 1B68     		ldr	r3, [r3, #0]
 15714 033a DA7B     		ldrb	r2, [r3, #15]	@ zero_extendqisi2
 15715 033c 5208     		lsrs	r2, r2, #1
 15716 033e 12F00102 		ands	r2, r2, #1
 15717 0342 05D0     		beq	.L435
 15718 0344 744B     		ldr	r3, .L460+56
 15719 0346 1A78     		ldrb	r2, [r3, #0]	@ zero_extendqisi2
 15720 0348 012A     		cmp	r2, #1
 15721 034a 8CBF     		ite	hi
 15722 034c 0022     		movhi	r2, #0
 15723 034e 0122     		movls	r2, #1
 15724              	.L435:
 219:firmwares/fixedwing/main_ap.c ****   if (pprz_mode != PPRZ_MODE_HOME && pprz_mode != PPRZ_MODE_GPS_OUT_OF_ORDER && launch) {
 15725              		.loc 1 219 0
 15726 0350 7149     		ldr	r1, .L460+56
 15727 0352 0B78     		ldrb	r3, [r1, #0]	@ zero_extendqisi2
 15728 0354 033B     		subs	r3, r3, #3
 15729 0356 DBB2     		uxtb	r3, r3
 15730 0358 012B     		cmp	r3, #1
 15731 035a 0ED9     		bls	.L436
 15732 035c 6F4B     		ldr	r3, .L460+60
 15733 035e 1B78     		ldrb	r3, [r3, #0]	@ zero_extendqisi2
 15734 0360 5BB1     		cbz	r3, .L436
 220:firmwares/fixedwing/main_ap.c ****     if  (too_far_from_home) {
 15735              		.loc 1 220 0
 15736 0362 6F4B     		ldr	r3, .L460+64
 15737 0364 1B78     		ldrb	r3, [r3, #0]	@ zero_extendqisi2
 15738 0366 13B1     		cbz	r3, .L438
 221:firmwares/fixedwing/main_ap.c ****       pprz_mode = PPRZ_MODE_HOME;
 15739              		.loc 1 221 0
 15740 0368 0323     		movs	r3, #3
 15741 036a 0B70     		strb	r3, [r1, #0]
 15742 036c 023B     		subs	r3, r3, #2
 15743              	.LVL1397:
 15744              	.L438:
 224:firmwares/fixedwing/main_ap.c ****     if  (really_lost) {
 15745              		.loc 1 224 0
 15746 036e 2AB1     		cbz	r2, .L439
 225:firmwares/fixedwing/main_ap.c ****       pprz_mode = RC_LOST_MODE;
 15747              		.loc 1 225 0
 15748 0370 694B     		ldr	r3, .L460+56
 15749              	.LVL1398:
 15750 0372 0322     		movs	r2, #3
 15751 0374 1A70     		strb	r2, [r3, #0]
 15752 0376 0123     		movs	r3, #1
 15753              	.LVL1399:
 15754 0378 00E0     		b	.L439
 15755              	.LVL1400:
 15756              	.L436:
 15757 037a 0023     		movs	r3, #0
 15758              	.LVL1401:
 15759              	.L439:
 229:firmwares/fixedwing/main_ap.c ****   if (bit_is_set(fbw_state->status, AVERAGED_CHANNELS_SENT)) {
 15760              		.loc 1 229 0
 15761 037c 654A     		ldr	r2, .L460+52
 15762 037e 1268     		ldr	r2, [r2, #0]
 15763 0380 D17B     		ldrb	r1, [r2, #15]	@ zero_extendqisi2
 15764 0382 11F0100F 		tst	r1, #16
 15765 0386 1DD0     		beq	.L440
 15766              	.LBB1794:
 15767              	.LBB1795:
 15768              	.LBB1796:
 142:firmwares/fixedwing/main_ap.c ****   if ((pprz_mode != PPRZ_MODE_HOME &&
 15769              		.loc 1 142 0
 15770 0388 6349     		ldr	r1, .L460+56
 15771 038a 0978     		ldrb	r1, [r1, #0]	@ zero_extendqisi2
 15772 038c C81E     		subs	r0, r1, #3
 15773              	.LVL1402:
 15774 038e C0B2     		uxtb	r0, r0
 15775 0390 0128     		cmp	r0, #1
 15776 0392 01D8     		bhi	.L441
 15777 0394 0022     		movs	r2, #0
 15778              	.LVL1403:
 15779 0396 13E0     		b	.L442
 15780              	.LVL1404:
 15781              	.L441:
 15782              	.LBB1797:
 148:firmwares/fixedwing/main_ap.c ****     return ModeUpdate(pprz_mode, PPRZ_MODE_OF_PULSE(fbw_state->channels[RADIO_MODE], fbw_state->sta
 15783              		.loc 1 148 0
 15784 0398 B2F90C20 		ldrsh	r2, [r2, #12]
 15785 039c B2F5965F 		cmp	r2, #4800
 15786 03a0 01DD     		ble	.L443
 15787 03a2 0222     		movs	r2, #2
 15788              	.LVL1405:
 15789 03a4 04E0     		b	.L444
 15790              	.LVL1406:
 15791              	.L443:
 15792 03a6 12F5965F 		cmn	r2, #4800
 15793 03aa D4BF     		ite	le
 15794 03ac 0022     		movle	r2, #0
 15795 03ae 0122     		movgt	r2, #1
 15796              	.LVL1407:
 15797              	.L444:
 15798 03b0 9142     		cmp	r1, r2
 15799 03b2 01D1     		bne	.L445
 15800 03b4 0022     		movs	r2, #0
 15801              	.LVL1408:
 15802 03b6 02E0     		b	.L446
 15803              	.LVL1409:
 15804              	.L445:
 15805 03b8 5749     		ldr	r1, .L460+56
 15806 03ba 0A70     		strb	r2, [r1, #0]
 15807 03bc 0122     		movs	r2, #1
 15808              	.LVL1410:
 15809              	.L446:
 15810              	.LBE1797:
 15811 03be D2B2     		uxtb	r2, r2
 15812              	.LVL1411:
 15813              	.L442:
 15814              	.LBE1796:
 15815              	.LBE1795:
 231:firmwares/fixedwing/main_ap.c ****     mode_changed |= pprz_mode_changed;
 15816              		.loc 1 231 0
 15817 03c0 42EA0303 		orr	r3, r2, r3
 15818              	.LVL1412:
 15819              	.L440:
 15820              	.LBE1794:
 15821              	.LBB1798:
 15822              	.LBB1799:
 159:firmwares/fixedwing/main_ap.c ****   uint8_t new_status = fbw_state->status;
 15823              		.loc 1 159 0
 15824 03c4 534A     		ldr	r2, .L460+52
 15825              	.LVL1413:
 160:firmwares/fixedwing/main_ap.c ****   if (mcu1_status != new_status) {
 15826              		.loc 1 160 0
 15827 03c6 5749     		ldr	r1, .L460+68
 159:firmwares/fixedwing/main_ap.c ****   uint8_t new_status = fbw_state->status;
 15828              		.loc 1 159 0
 15829 03c8 1268     		ldr	r2, [r2, #0]
 160:firmwares/fixedwing/main_ap.c ****   if (mcu1_status != new_status) {
 15830              		.loc 1 160 0
 15831 03ca 0878     		ldrb	r0, [r1, #0]	@ zero_extendqisi2
 15832              	.LVL1414:
 159:firmwares/fixedwing/main_ap.c ****   uint8_t new_status = fbw_state->status;
 15833              		.loc 1 159 0
 15834 03cc D27B     		ldrb	r2, [r2, #15]	@ zero_extendqisi2
 15835              	.LVL1415:
 160:firmwares/fixedwing/main_ap.c ****   if (mcu1_status != new_status) {
 15836              		.loc 1 160 0
 15837 03ce 9042     		cmp	r0, r2
 15838 03d0 05D0     		beq	.L456
 15839              	.LBB1800:
 161:firmwares/fixedwing/main_ap.c ****     bool_t changed = ((mcu1_status&MASK_FBW_CHANGED) != (new_status&MASK_FBW_CHANGED));
 15840              		.loc 1 161 0
 15841 03d2 82EA0000 		eor	r0, r2, r0
 15842              	.LBE1800:
 15843              	.LBE1799:
 15844              	.LBE1798:
 239:firmwares/fixedwing/main_ap.c ****   if ( mode_changed )
 15845              		.loc 1 239 0
 15846 03d6 10F00F0F 		tst	r0, #15
 15847              	.LBB1803:
 15848              	.LBB1802:
 15849              	.LBB1801:
 162:firmwares/fixedwing/main_ap.c ****     mcu1_status = new_status;
 15850              		.loc 1 162 0
 15851 03da 0A70     		strb	r2, [r1, #0]
 15852              	.LBE1801:
 15853              	.LBE1802:
 15854              	.LBE1803:
 239:firmwares/fixedwing/main_ap.c ****   if ( mode_changed )
 15855              		.loc 1 239 0
 15856 03dc 02D1     		bne	.L455
 15857              	.L456:
 15858 03de 002B     		cmp	r3, #0
 15859 03e0 00F0B680 		beq	.L449
 15860              	.L455:
 240:firmwares/fixedwing/main_ap.c ****     PERIODIC_SEND_PPRZ_MODE(DefaultChannel);
 15861              		.loc 1 240 0
 15862 03e4 3F48     		ldr	r0, .L460+4
 15863 03e6 0C21     		movs	r1, #12
 15864 03e8 FFF7FEFF 		bl	uart_check_free_space
 15865              	.LVL1416:
 15866 03ec 0028     		cmp	r0, #0
 15867 03ee 00F0AB80 		beq	.L451
 15868 03f2 4D4B     		ldr	r3, .L460+72
 15869              	.LBB1804:
 15870 03f4 3B48     		ldr	r0, .L460+4
 15871              	.LBE1804:
 15872 03f6 1A88     		ldrh	r2, [r3, #0]
 15873              	.LBB1805:
 15874 03f8 9921     		movs	r1, #153
 15875              	.LBE1805:
 15876 03fa 0C32     		adds	r2, r2, #12
 15877 03fc 1A80     		strh	r2, [r3, #0]	@ movhi
 15878 03fe 4B4B     		ldr	r3, .L460+76
 15879              	.LBB1806:
 15880 0400 4B4D     		ldr	r5, .L460+80
 15881              	.LBE1806:
 15882 0402 1A88     		ldrh	r2, [r3, #0]
 15883              	.LBB1807:
 15884 0404 4B4C     		ldr	r4, .L460+84
 15885              	.LBE1807:
 15886 0406 0132     		adds	r2, r2, #1
 15887 0408 1A80     		strh	r2, [r3, #0]	@ movhi
 15888              	.LBB1808:
 15889 040a FFF7FEFF 		bl	uart_transmit
 15890 040e 3548     		ldr	r0, .L460+4
 15891 0410 0C21     		movs	r1, #12
 15892 0412 FFF7FEFF 		bl	uart_transmit
 15893              	.LBE1808:
 15894 0416 0D23     		movs	r3, #13
 15895 0418 2B70     		strb	r3, [r5, #0]
 15896 041a 0C33     		adds	r3, r3, #12
 15897 041c 2370     		strb	r3, [r4, #0]
 15898 041e 3148     		ldr	r0, .L460+4
 15899 0420 0121     		movs	r1, #1
 15900 0422 FFF7FEFF 		bl	uart_transmit
 15901 0426 2B78     		ldrb	r3, [r5, #0]	@ zero_extendqisi2
 15902 0428 2278     		ldrb	r2, [r4, #0]	@ zero_extendqisi2
 15903 042a 0B33     		adds	r3, r3, #11
 15904 042c DBB2     		uxtb	r3, r3
 15905 042e 2B70     		strb	r3, [r5, #0]
 15906 0430 9B18     		adds	r3, r3, r2
 15907 0432 2370     		strb	r3, [r4, #0]
 15908 0434 2B48     		ldr	r0, .L460+4
 15909 0436 0B21     		movs	r1, #11
 15910 0438 FFF7FEFF 		bl	uart_transmit
 15911              	.LBB1809:
 15912 043c 364B     		ldr	r3, .L460+56
 15913 043e 2278     		ldrb	r2, [r4, #0]	@ zero_extendqisi2
 15914 0440 1978     		ldrb	r1, [r3, #0]	@ zero_extendqisi2
 15915              	.LVL1417:
 15916 0442 2B78     		ldrb	r3, [r5, #0]	@ zero_extendqisi2
 15917 0444 2748     		ldr	r0, .L460+4
 15918 0446 CB18     		adds	r3, r1, r3
 15919 0448 DBB2     		uxtb	r3, r3
 15920 044a 2B70     		strb	r3, [r5, #0]
 15921 044c 9B18     		adds	r3, r3, r2
 15922 044e 2370     		strb	r3, [r4, #0]
 15923 0450 FFF7FEFF 		bl	uart_transmit
 15924              	.LVL1418:
 15925              	.LBE1809:
 15926              	.LBB1810:
 15927 0454 384B     		ldr	r3, .L460+88
 15928 0456 2278     		ldrb	r2, [r4, #0]	@ zero_extendqisi2
 15929 0458 1978     		ldrb	r1, [r3, #0]	@ zero_extendqisi2
 15930              	.LVL1419:
 15931 045a 2B78     		ldrb	r3, [r5, #0]	@ zero_extendqisi2
 15932 045c 2148     		ldr	r0, .L460+4
 15933 045e CB18     		adds	r3, r1, r3
 15934 0460 DBB2     		uxtb	r3, r3
 15935 0462 2B70     		strb	r3, [r5, #0]
 15936 0464 9B18     		adds	r3, r3, r2
 15937 0466 2370     		strb	r3, [r4, #0]
 15938 0468 FFF7FEFF 		bl	uart_transmit
 15939              	.LVL1420:
 15940              	.LBE1810:
 15941              	.LBB1811:
 15942 046c 334B     		ldr	r3, .L460+92
 15943 046e 2278     		ldrb	r2, [r4, #0]	@ zero_extendqisi2
 15944 0470 1978     		ldrb	r1, [r3, #0]	@ zero_extendqisi2
 15945              	.LVL1421:
 15946 0472 2B78     		ldrb	r3, [r5, #0]	@ zero_extendqisi2
 15947 0474 1B48     		ldr	r0, .L460+4
 15948 0476 CB18     		adds	r3, r1, r3
 15949 0478 DBB2     		uxtb	r3, r3
 15950 047a 2B70     		strb	r3, [r5, #0]
 15951 047c 9B18     		adds	r3, r3, r2
 15952 047e 2370     		strb	r3, [r4, #0]
 15953 0480 FFF7FEFF 		bl	uart_transmit
 15954              	.LVL1422:
 15955              	.LBE1811:
 15956              	.LBB1812:
 15957 0484 2E4B     		ldr	r3, .L460+96
 15958 0486 2278     		ldrb	r2, [r4, #0]	@ zero_extendqisi2
 15959 0488 1978     		ldrb	r1, [r3, #0]	@ zero_extendqisi2
 15960              	.LVL1423:
 15961 048a 2B78     		ldrb	r3, [r5, #0]	@ zero_extendqisi2
 15962 048c 1548     		ldr	r0, .L460+4
 15963 048e CB18     		adds	r3, r1, r3
 15964 0490 DBB2     		uxtb	r3, r3
 15965 0492 2B70     		strb	r3, [r5, #0]
 15966 0494 9B18     		adds	r3, r3, r2
 15967 0496 2370     		strb	r3, [r4, #0]
 15968 0498 FFF7FEFF 		bl	uart_transmit
 15969              	.LVL1424:
 15970              	.LBE1812:
 15971              	.LBB1813:
 15972 049c 294B     		ldr	r3, .L460+100
 15973 049e 2278     		ldrb	r2, [r4, #0]	@ zero_extendqisi2
 15974 04a0 1978     		ldrb	r1, [r3, #0]	@ zero_extendqisi2
 15975              	.LVL1425:
 15976 04a2 2B78     		ldrb	r3, [r5, #0]	@ zero_extendqisi2
 15977 04a4 0F48     		ldr	r0, .L460+4
 15978 04a6 CB18     		adds	r3, r1, r3
 15979 04a8 DBB2     		uxtb	r3, r3
 15980 04aa 2B70     		strb	r3, [r5, #0]
 15981 04ac 9B18     		adds	r3, r3, r2
 15982 04ae 2370     		strb	r3, [r4, #0]
 15983 04b0 FFF7FEFF 		bl	uart_transmit
 15984              	.LVL1426:
 15985              	.LBE1813:
 15986              	.LBB1814:
 15987 04b4 1B4B     		ldr	r3, .L460+68
 15988 04b6 2278     		ldrb	r2, [r4, #0]	@ zero_extendqisi2
 15989 04b8 1978     		ldrb	r1, [r3, #0]	@ zero_extendqisi2
 15990              	.LVL1427:
 15991 04ba 2B78     		ldrb	r3, [r5, #0]	@ zero_extendqisi2
 15992 04bc 0948     		ldr	r0, .L460+4
 15993 04be CB18     		adds	r3, r1, r3
 15994 04c0 DBB2     		uxtb	r3, r3
 15995 04c2 2B70     		strb	r3, [r5, #0]
 15996 04c4 9B18     		adds	r3, r3, r2
 15997 04c6 2370     		strb	r3, [r4, #0]
 15998 04c8 FFF7FEFF 		bl	uart_transmit
 15999              	.LVL1428:
 16000              	.LBE1814:
 16001 04cc 2978     		ldrb	r1, [r5, #0]	@ zero_extendqisi2
 16002 04ce 0548     		ldr	r0, .L460+4
 16003 04d0 FFF7FEFF 		bl	uart_transmit
 16004 04d4 0348     		ldr	r0, .L460+4
 16005 04d6 2178     		ldrb	r1, [r4, #0]	@ zero_extendqisi2
 16006 04d8 FFF7FEFF 		bl	uart_transmit
 16007 04dc 38E0     		b	.L449
 16008              	.L461:
 16009 04de 00BF     		.align	2
 16010              	.L460:
 16011 04e0 00000000 		.word	pprz_msg_received
 16012 04e4 00000000 		.word	uart2
 16013 04e8 00000000 		.word	.LANCHOR69
 16014 04ec 00000000 		.word	pprz_ovrn
 16015 04f0 00000000 		.word	.LANCHOR70
 16016 04f4 00000000 		.word	.LANCHOR71
 16017 04f8 00000000 		.word	.LANCHOR72
 16018 04fc 00000000 		.word	pprz_error
 16019 0500 00000000 		.word	pprz_payload
 16020 0504 00000000 		.word	dl_buffer
 16021 0508 00000000 		.word	pprz_payload_len
 16022 050c 00000000 		.word	dl_msg_available
 16023 0510 00000000 		.word	inter_mcu_received_fbw
 16024 0514 00000000 		.word	fbw_state
 16025 0518 00000000 		.word	.LANCHOR2
 16026 051c 00000000 		.word	.LANCHOR1
 16027 0520 00000000 		.word	too_far_from_home
 16028 0524 00000000 		.word	.LANCHOR6
 16029 0528 00000000 		.word	downlink_nb_bytes
 16030 052c 00000000 		.word	downlink_nb_msgs
 16031 0530 00000000 		.word	ck_a
 16032 0534 00000000 		.word	ck_b
 16033 0538 00000000 		.word	v_ctl_mode
 16034 053c 00000000 		.word	.LANCHOR4
 16035 0540 00000000 		.word	horizontal_mode
 16036 0544 00000000 		.word	.LANCHOR5
 16037              	.L451:
 16038 0548 234B     		ldr	r3, .L462
 16039 054a 1A78     		ldrb	r2, [r3, #0]	@ zero_extendqisi2
 16040 054c 0132     		adds	r2, r2, #1
 16041 054e 1A70     		strb	r2, [r3, #0]
 16042              	.LVL1429:
 16043              	.L449:
 246:firmwares/fixedwing/main_ap.c ****   if (pprz_mode == PPRZ_MODE_AUTO1) {
 16044              		.loc 1 246 0
 16045 0550 224B     		ldr	r3, .L462+4
 16046              	.LVL1430:
 16047 0552 1B78     		ldrb	r3, [r3, #0]	@ zero_extendqisi2
 16048 0554 012B     		cmp	r3, #1
 16049 0556 19D1     		bne	.L452
 248:firmwares/fixedwing/main_ap.c ****     h_ctl_roll_setpoint = FLOAT_OF_PPRZ(fbw_state->channels[RADIO_ROLL], 0., -AUTO1_MAX_ROLL);
 16050              		.loc 1 248 0
 16051 0558 214B     		ldr	r3, .L462+8
 16052 055a 1C68     		ldr	r4, [r3, #0]
 16053 055c B4F90000 		ldrsh	r0, [r4, #0]
 16054 0560 FFF7FEFF 		bl	__aeabi_i2f
 16055              	.LVL1431:
 16056 0564 1F49     		ldr	r1, .L462+12
 16057 0566 FFF7FEFF 		bl	__aeabi_fdiv
 16058 056a 0021     		movs	r1, #0
 16059 056c FFF7FEFF 		bl	__aeabi_fadd
 16060 0570 1D4B     		ldr	r3, .L462+16
 16061 0572 1860     		str	r0, [r3, #0]	@ float
 251:firmwares/fixedwing/main_ap.c ****     h_ctl_pitch_setpoint = FLOAT_OF_PPRZ(fbw_state->channels[RADIO_PITCH], 0., AUTO1_MAX_PITCH);
 16062              		.loc 1 251 0
 16063 0574 B4F90200 		ldrsh	r0, [r4, #2]
 16064 0578 FFF7FEFF 		bl	__aeabi_i2f
 16065 057c 1B49     		ldr	r1, .L462+20
 16066 057e FFF7FEFF 		bl	__aeabi_fdiv
 16067 0582 0021     		movs	r1, #0
 16068 0584 FFF7FEFF 		bl	__aeabi_fadd
 16069 0588 194B     		ldr	r3, .L462+24
 16070 058a 1860     		str	r0, [r3, #0]	@ float
 16071              	.LVL1432:
 16072              	.L452:
 256:firmwares/fixedwing/main_ap.c ****   if (pprz_mode == PPRZ_MODE_MANUAL || pprz_mode == PPRZ_MODE_AUTO1) {
 16073              		.loc 1 256 0
 16074 058c 134B     		ldr	r3, .L462+4
 16075 058e 1B78     		ldrb	r3, [r3, #0]	@ zero_extendqisi2
 16076 0590 012B     		cmp	r3, #1
 16077 0592 04D8     		bhi	.L453
 257:firmwares/fixedwing/main_ap.c ****     v_ctl_throttle_setpoint = fbw_state->channels[RADIO_THROTTLE];
 16078              		.loc 1 257 0
 16079 0594 124B     		ldr	r3, .L462+8
 16080 0596 1A68     		ldr	r2, [r3, #0]
 16081              	.LVL1433:
 16082 0598 164B     		ldr	r3, .L462+28
 16083 059a D288     		ldrh	r2, [r2, #6]
 16084 059c 1A80     		strh	r2, [r3, #0]	@ movhi
 16085              	.LVL1434:
 16086              	.L453:
 261:firmwares/fixedwing/main_ap.c ****   mcu1_ppm_cpt = fbw_state->ppm_cpt;
 16087              		.loc 1 261 0
 16088 059e 104B     		ldr	r3, .L462+8
 16089 05a0 154A     		ldr	r2, .L462+32
 16090              	.LVL1435:
 16091 05a2 1B68     		ldr	r3, [r3, #0]
 16092 05a4 997B     		ldrb	r1, [r3, #14]	@ zero_extendqisi2
 16093 05a6 1170     		strb	r1, [r2, #0]
 265:firmwares/fixedwing/main_ap.c ****   vsupply = fbw_state->vsupply;
 16094              		.loc 1 265 0
 16095 05a8 597C     		ldrb	r1, [r3, #17]	@ zero_extendqisi2
 16096 05aa 144A     		ldr	r2, .L462+36
 16097 05ac 1170     		strb	r1, [r2, #0]
 266:firmwares/fixedwing/main_ap.c ****   current = fbw_state->current;
 16098              		.loc 1 266 0
 16099 05ae 5969     		ldr	r1, [r3, #20]
 16100 05b0 134A     		ldr	r2, .L462+40
 16101 05b2 1160     		str	r1, [r2, #0]
 269:firmwares/fixedwing/main_ap.c ****   if (!estimator_flight_time) {
 16102              		.loc 1 269 0
 16103 05b4 134A     		ldr	r2, .L462+44
 16104 05b6 1288     		ldrh	r2, [r2, #0]
 16105 05b8 5AB9     		cbnz	r2, .L454
 270:firmwares/fixedwing/main_ap.c ****     if (pprz_mode == PPRZ_MODE_AUTO2 && fbw_state->channels[RADIO_THROTTLE] > THROTTLE_THRESHOLD_TA
 16106              		.loc 1 270 0
 16107 05ba 084A     		ldr	r2, .L462+4
 16108 05bc 1278     		ldrb	r2, [r2, #0]	@ zero_extendqisi2
 16109 05be 022A     		cmp	r2, #2
 16110 05c0 07D1     		bne	.L454
 16111 05c2 B3F90630 		ldrsh	r3, [r3, #6]
 16112 05c6 B3F5075F 		cmp	r3, #8640
 16113 05ca 02DD     		ble	.L454
 271:firmwares/fixedwing/main_ap.c ****       launch = TRUE;
 16114              		.loc 1 271 0
 16115 05cc 0E4B     		ldr	r3, .L462+48
 16116 05ce 013A     		subs	r2, r2, #1
 16117 05d0 1A70     		strb	r2, [r3, #0]
 16118              	.LVL1436:
 16119              	.L454:
 16120 05d2 BDE8F081 		pop	{r4, r5, r6, r7, r8, pc}
 16121              	.L463:
 16122 05d6 00BF     		.align	2
 16123              	.L462:
 16124 05d8 00000000 		.word	downlink_nb_ovrn
 16125 05dc 00000000 		.word	.LANCHOR2
 16126 05e0 00000000 		.word	fbw_state
 16127 05e4 000016C6 		.word	-971636736
 16128 05e8 00000000 		.word	h_ctl_roll_setpoint
 16129 05ec 00001646 		.word	1175846912
 16130 05f0 00000000 		.word	h_ctl_pitch_setpoint
 16131 05f4 00000000 		.word	v_ctl_throttle_setpoint
 16132 05f8 00000000 		.word	.LANCHOR73
 16133 05fc 00000000 		.word	.LANCHOR8
 16134 0600 00000000 		.word	.LANCHOR11
 16135 0604 00000000 		.word	estimator_flight_time
 16136 0608 00000000 		.word	.LANCHOR1
 16137              	.LBE1793:
 16138              	.LBE1792:
 16139              		.cfi_endproc
 16140              	.LFE63:
 16142              		.global	ahrs_timeout_counter
 16143              		.global	rc_settings_mode
 16144              		.global	fatal_error_nb
 16145              		.global	pprz_mode
 16146              		.global	lateral_mode
 16147              		.global	kill_throttle
 16148              		.global	launch
 16149              		.global	gps_lost
 16150              		.global	ac_ident
 16151              		.global	vsupply
 16152              		.global	energy
 16153              		.global	slider_1_val
 16154              		.global	slider_2_val
 16155              		.global	power_switch
 16156              		.section	.bss.i.5719,"aw",%nobits
 16157              		.set	.LANCHOR65,. + 0
 16160              	i.5719:
 16161 0000 00       		.space	1
 16162              		.section	.bss.rc_settings_mode,"aw",%nobits
 16163              		.set	.LANCHOR5,. + 0
 16166              	rc_settings_mode:
 16167 0000 00       		.space	1
 16168              		.section	.bss.vsupply,"aw",%nobits
 16169              		.set	.LANCHOR8,. + 0
 16172              	vsupply:
 16173 0000 00       		.space	1
 16174              		.section	.bss.slider_2_val,"aw",%nobits
 16175              		.align	2
 16178              	slider_2_val:
 16179 0000 00000000 		.space	4
 16180              		.section	.bss.i180.5423,"aw",%nobits
 16181              		.set	.LANCHOR42,. + 0
 16184              	i180.5423:
 16185 0000 00       		.space	1
 16186              		.section	.bss.last_pprz_mode.7493,"aw",%nobits
 16187              		.set	.LANCHOR3,. + 0
 16190              	last_pprz_mode.7493:
 16191 0000 00       		.space	1
 16192              		.section	.bss._4Hz.7697,"aw",%nobits
 16193              		.set	.LANCHOR15,. + 0
 16196              	_4Hz.7697:
 16197 0000 00       		.space	1
 16198              		.section	.bss.i.5517,"aw",%nobits
 16199              		.set	.LANCHOR54,. + 0
 16202              	i.5517:
 16203 0000 00       		.space	1
 16204              		.section	.bss.i84.5420,"aw",%nobits
 16205              		.set	.LANCHOR39,. + 0
 16208              	i84.5420:
 16209 0000 00       		.space	1
 16210              		.section	.bss.i.5127,"aw",%nobits
 16211              		.set	.LANCHOR32,. + 0
 16214              	i.5127:
 16215 0000 00       		.space	1
 16216              		.section	.bss.mcu1_ppm_cpt,"aw",%nobits
 16217              		.set	.LANCHOR73,. + 0
 16220              	mcu1_ppm_cpt:
 16221 0000 00       		.space	1
 16222              		.section	.bss.t.7699,"aw",%nobits
 16223              		.set	.LANCHOR67,. + 0
 16226              	t.7699:
 16227 0000 00       		.space	1
 16228              		.section	.bss.ahrs_timeout_counter,"aw",%nobits
 16229              		.set	.LANCHOR0,. + 0
 16232              	ahrs_timeout_counter:
 16233 0000 00       		.space	1
 16234              		.section	.bss.slider_1_val,"aw",%nobits
 16235              		.align	2
 16238              	slider_1_val:
 16239 0000 00000000 		.space	4
 16240              		.section	.bss.i78.5419,"aw",%nobits
 16241              		.set	.LANCHOR38,. + 0
 16244              	i78.5419:
 16245 0000 00       		.space	1
 16246              		.section	.bss._20Hz.7695,"aw",%nobits
 16247              		.set	.LANCHOR13,. + 0
 16250              	_20Hz.7695:
 16251 0000 00       		.space	1
 16252              		.section	.bss.launch,"aw",%nobits
 16253              		.set	.LANCHOR1,. + 0
 16256              	launch:
 16257 0000 00       		.space	1
 16258              		.section	.data.ac_ident,"aw",%progbits
 16261              	ac_ident:
 16262 0000 01       		.byte	1
 16263              		.section	.bss.i312.5430,"aw",%nobits
 16264              		.align	1
 16265              		.set	.LANCHOR49,. + 0
 16268              	i312.5430:
 16269 0000 0000     		.space	2
 16270              		.section	.bss.i342.5709,"aw",%nobits
 16271              		.align	1
 16272              		.set	.LANCHOR61,. + 0
 16275              	i342.5709:
 16276 0000 0000     		.space	2
 16277              		.section	.bss.i72.5119,"aw",%nobits
 16278              		.set	.LANCHOR24,. + 0
 16281              	i72.5119:
 16282 0000 00       		.space	1
 16283              		.section	.bss.i30.5115,"aw",%nobits
 16284              		.set	.LANCHOR20,. + 0
 16287              	i30.5115:
 16288 0000 00       		.space	1
 16289              		.section	.bss.i324.5707,"aw",%nobits
 16290              		.align	1
 16291              		.set	.LANCHOR59,. + 0
 16294              	i324.5707:
 16295 0000 0000     		.space	2
 16296              		.section	.data.pprz_mode,"aw",%progbits
 16297              		.set	.LANCHOR2,. + 0
 16300              	pprz_mode:
 16301 0000 02       		.byte	2
 16302              		.section	.bss.i90.5120,"aw",%nobits
 16303              		.set	.LANCHOR25,. + 0
 16306              	i90.5120:
 16307 0000 00       		.space	1
 16308              		.section	.bss.lateral_mode,"aw",%nobits
 16309              		.set	.LANCHOR4,. + 0
 16312              	lateral_mode:
 16313 0000 00       		.space	1
 16314              		.section	.bss.mcu1_status,"aw",%nobits
 16315              		.set	.LANCHOR6,. + 0
 16318              	mcu1_status:
 16319 0000 00       		.space	1
 16320              		.section	.data.boot.5110,"aw",%progbits
 16321              		.set	.LANCHOR17,. + 0
 16324              	boot.5110:
 16325 0000 01       		.byte	1
 16326              		.section	.bss.i90.5421,"aw",%nobits
 16327              		.set	.LANCHOR40,. + 0
 16330              	i90.5421:
 16331 0000 00       		.space	1
 16332              		.section	.bss.energy,"aw",%nobits
 16333              		.align	2
 16334              		.set	.LANCHOR10,. + 0
 16337              	energy:
 16338 0000 00000000 		.space	4
 16339              		.section	.bss.last.5797,"aw",%nobits
 16340              		.align	1
 16341              		.set	.LANCHOR66,. + 0
 16344              	last.5797:
 16345 0000 0000     		.space	2
 16346              		.section	.bss.i126.5122,"aw",%nobits
 16347              		.set	.LANCHOR27,. + 0
 16350              	i126.5122:
 16351 0000 00       		.space	1
 16352              		.section	.bss.gps_lost,"aw",%nobits
 16353              		.set	.LANCHOR7,. + 0
 16356              	gps_lost:
 16357 0000 00       		.space	1
 16358              		.section	.bss.i420.5710,"aw",%nobits
 16359              		.align	1
 16360              		.set	.LANCHOR62,. + 0
 16363              	i420.5710:
 16364 0000 0000     		.space	2
 16365              		.section	.bss.fatal_error_nb,"aw",%nobits
 16368              	fatal_error_nb:
 16369 0000 00       		.space	1
 16370              		.section	.bss.i243.5427,"aw",%nobits
 16371              		.set	.LANCHOR46,. + 0
 16374              	i243.5427:
 16375 0000 00       		.space	1
 16376              		.section	.bss.i66.5118,"aw",%nobits
 16377              		.set	.LANCHOR23,. + 0
 16380              	i66.5118:
 16381 0000 00       		.space	1
 16382              		.section	.bss.i.5305,"aw",%nobits
 16383              		.set	.LANCHOR34,. + 0
 16386              	i.5305:
 16387 0000 00       		.space	1
 16388              		.section	.bss.i66.5418,"aw",%nobits
 16389              		.set	.LANCHOR37,. + 0
 16392              	i66.5418:
 16393 0000 00       		.space	1
 16394              		.section	.bss.i240.5426,"aw",%nobits
 16395              		.set	.LANCHOR45,. + 0
 16398              	i240.5426:
 16399 0000 00       		.space	1
 16400              		.section	.bss.i63.5117,"aw",%nobits
 16401              		.set	.LANCHOR22,. + 0
 16404              	i63.5117:
 16405 0000 00       		.space	1
 16406              		.section	.bss.last.5686,"aw",%nobits
 16407              		.align	1
 16408              		.set	.LANCHOR55,. + 0
 16411              	last.5686:
 16412 0000 0000     		.space	2
 16413              		.section	.bss.i120.5121,"aw",%nobits
 16414              		.set	.LANCHOR26,. + 0
 16417              	i120.5121:
 16418 0000 00       		.space	1
 16419              		.section	.bss.i63.5417,"aw",%nobits
 16420              		.set	.LANCHOR36,. + 0
 16423              	i63.5417:
 16424 0000 00       		.space	1
 16425              		.section	.bss.i60.5116,"aw",%nobits
 16426              		.set	.LANCHOR21,. + 0
 16429              	i60.5116:
 16430 0000 00       		.space	1
 16431              		.section	.bss.last.5399,"aw",%nobits
 16432              		.align	1
 16433              		.set	.LANCHOR35,. + 0
 16436              	last.5399:
 16437 0000 0000     		.space	2
 16438              		.section	.bss._ck_a.2892,"aw",%nobits
 16439              		.set	.LANCHOR71,. + 0
 16442              	_ck_a.2892:
 16443 0000 00       		.space	1
 16444              		.section	.bss.i612.5712,"aw",%nobits
 16445              		.align	1
 16446              		.set	.LANCHOR64,. + 0
 16449              	i612.5712:
 16450 0000 0000     		.space	2
 16451              		.section	.bss.kill_throttle,"aw",%nobits
 16452              		.set	.LANCHOR9,. + 0
 16455              	kill_throttle:
 16456 0000 00       		.space	1
 16457              		.section	.bss.i306.5705,"aw",%nobits
 16458              		.align	1
 16459              		.set	.LANCHOR57,. + 0
 16462              	i306.5705:
 16463 0000 0000     		.space	2
 16464              		.section	.bss.i318.5706,"aw",%nobits
 16465              		.align	1
 16466              		.set	.LANCHOR58,. + 0
 16469              	i318.5706:
 16470 0000 0000     		.space	2
 16471              		.section	.bss.i540.5431,"aw",%nobits
 16472              		.align	1
 16473              		.set	.LANCHOR50,. + 0
 16476              	i540.5431:
 16477 0000 0000     		.space	2
 16478              		.section	.bss._10Hz.7696,"aw",%nobits
 16479              		.set	.LANCHOR14,. + 0
 16482              	_10Hz.7696:
 16483 0000 00       		.space	1
 16484              		.section	.rodata.version,"a",%progbits
 16485              		.align	1
 16486              		.set	.LANCHOR18,. + 0
 16489              	version:
 16490 0000 0100     		.short	1
 16491              		.section	.bss.i306.5429,"aw",%nobits
 16492              		.align	1
 16493              		.set	.LANCHOR48,. + 0
 16496              	i306.5429:
 16497 0000 0000     		.space	2
 16498              		.section	.bss.i126.5422,"aw",%nobits
 16499              		.set	.LANCHOR41,. + 0
 16502              	i126.5422:
 16503 0000 00       		.space	1
 16504              		.section	.bss.i330.5708,"aw",%nobits
 16505              		.align	1
 16506              		.set	.LANCHOR60,. + 0
 16509              	i330.5708:
 16510 0000 0000     		.space	2
 16511              		.section	.bss.i150.5123,"aw",%nobits
 16512              		.set	.LANCHOR28,. + 0
 16515              	i150.5123:
 16516 0000 00       		.space	1
 16517              		.section	.bss.power_switch,"aw",%nobits
 16518              		.set	.LANCHOR68,. + 0
 16521              	power_switch:
 16522 0000 00       		.space	1
 16523              		.section	.bss.i15.5114,"aw",%nobits
 16524              		.set	.LANCHOR19,. + 0
 16527              	i15.5114:
 16528 0000 00       		.space	1
 16529              		.section	.bss._1Hz.7698,"aw",%nobits
 16530              		.set	.LANCHOR16,. + 0
 16533              	_1Hz.7698:
 16534 0000 00       		.space	1
 16535              		.section	.bss._60Hz.7694,"aw",%nobits
 16536              		.set	.LANCHOR12,. + 0
 16539              	_60Hz.7694:
 16540 0000 00       		.space	1
 16541              		.section	.bss.i606.5711,"aw",%nobits
 16542              		.align	1
 16543              		.set	.LANCHOR63,. + 0
 16546              	i606.5711:
 16547 0000 0000     		.space	2
 16548              		.section	.bss.i.5499,"aw",%nobits
 16549              		.set	.LANCHOR53,. + 0
 16552              	i.5499:
 16553 0000 00       		.space	1
 16554              		.section	.bss.i606.5432,"aw",%nobits
 16555              		.align	1
 16556              		.set	.LANCHOR51,. + 0
 16559              	i606.5432:
 16560 0000 0000     		.space	2
 16561              		.section	.bss._ck_b.2893,"aw",%nobits
 16562              		.set	.LANCHOR70,. + 0
 16565              	_ck_b.2893:
 16566 0000 00       		.space	1
 16567              		.section	.bss.current,"aw",%nobits
 16568              		.align	2
 16569              		.set	.LANCHOR11,. + 0
 16572              	current:
 16573 0000 00000000 		.space	4
 16574              		.section	.bss.i192.5425,"aw",%nobits
 16575              		.set	.LANCHOR44,. + 0
 16578              	i192.5425:
 16579 0000 00       		.space	1
 16580              		.section	.bss.i.5433,"aw",%nobits
 16581              		.set	.LANCHOR52,. + 0
 16584              	i.5433:
 16585 0000 00       		.space	1
 16586              		.section	.bss.payload_idx.2894,"aw",%nobits
 16587              		.set	.LANCHOR72,. + 0
 16590              	payload_idx.2894:
 16591 0000 00       		.space	1
 16592              		.section	.bss.i300.5124,"aw",%nobits
 16593              		.align	1
 16594              		.set	.LANCHOR29,. + 0
 16597              	i300.5124:
 16598 0000 0000     		.space	2
 16599              		.section	.bss.i306.5125,"aw",%nobits
 16600              		.align	1
 16601              		.set	.LANCHOR30,. + 0
 16604              	i306.5125:
 16605 0000 0000     		.space	2
 16606              		.section	.bss.i300.5704,"aw",%nobits
 16607              		.align	1
 16608              		.set	.LANCHOR56,. + 0
 16611              	i300.5704:
 16612 0000 0000     		.space	2
 16613              		.section	.rodata.str1.1,"aMS",%progbits,1
 16614              	.LC0:
 16615 0000 8390BA51 		.ascii	"\203\220\272Qi\341\253\213\345\010_\324\375\270\357"
 16615      69E1AB8B 
 16615      E5085FD4 
 16615      FDB8EF
 16616 000f FC00     		.ascii	"\374\000"
 16617              		.section	.bss.pprz_status.2891,"aw",%nobits
 16618              		.set	.LANCHOR69,. + 0
 16621              	pprz_status.2891:
 16622 0000 00       		.space	1
 16623              		.section	.bss.i540.5126,"aw",%nobits
 16624              		.align	1
 16625              		.set	.LANCHOR31,. + 0
 16628              	i540.5126:
 16629 0000 0000     		.space	2
 16630              		.section	.bss.i.5189,"aw",%nobits
 16631              		.set	.LANCHOR33,. + 0
 16634              	i.5189:
 16635 0000 00       		.space	1
 16636              		.section	.bss.i300.5428,"aw",%nobits
 16637              		.align	1
 16638              		.set	.LANCHOR47,. + 0
 16641              	i300.5428:
 16642 0000 0000     		.space	2
 16643              		.section	.bss.i183.5424,"aw",%nobits
 16644              		.set	.LANCHOR43,. + 0
 16647              	i183.5424:
 16648 0000 00       		.space	1
 16649              		.text
 16650              	.Letext0:
DEFINED SYMBOLS
                            *ABS*:00000000 main_ap.c
     /tmp/ccdsuXbM.s:24     .text.on_accel_event:00000000 $t
     /tmp/ccdsuXbM.s:28     .text.on_accel_event:00000000 on_accel_event
     /tmp/ccdsuXbM.s:42     .text.gyro_read_i2c:00000000 $t
     /tmp/ccdsuXbM.s:46     .text.gyro_read_i2c:00000000 gyro_read_i2c
     /tmp/ccdsuXbM.s:76     .text.gyro_read_i2c:00000018 $d
     /tmp/ccdsuXbM.s:82     .text.on_mag_event:00000000 $t
     /tmp/ccdsuXbM.s:86     .text.on_mag_event:00000000 on_mag_event
     /tmp/ccdsuXbM.s:132    .text.on_mag_event:00000058 $d
     /tmp/ccdsuXbM.s:138    .text.on_gyro_event:00000000 $t
     /tmp/ccdsuXbM.s:142    .text.on_gyro_event:00000000 on_gyro_event
     /tmp/ccdsuXbM.s:304    .text.on_gyro_event:00000150 $d
     /tmp/ccdsuXbM.s:326    .text.navigation_task:00000000 $t
     /tmp/ccdsuXbM.s:330    .text.navigation_task:00000000 navigation_task
     /tmp/ccdsuXbM.s:736    .text.navigation_task:00000268 $d
     /tmp/ccdsuXbM.s:755    .text.navigation_task:000002ac $t
     /tmp/ccdsuXbM.s:1168   .text.navigation_task:00000500 $d
     /tmp/ccdsuXbM.s:1185   .text.navigation_task:0000053c $t
     /tmp/ccdsuXbM.s:1330   .text.navigation_task:00000648 $d
     /tmp/ccdsuXbM.s:1351   .text.attitude_loop:00000000 $t
     /tmp/ccdsuXbM.s:1355   .text.attitude_loop:00000000 attitude_loop
     /tmp/ccdsuXbM.s:1393   .text.attitude_loop:00000028 $d
     /tmp/ccdsuXbM.s:1404   .text.periodic_task_ap:00000000 $t
     /tmp/ccdsuXbM.s:1409   .text.periodic_task_ap:00000000 periodic_task_ap
     /tmp/ccdsuXbM.s:1614   .text.periodic_task_ap:00000124 $d
     /tmp/ccdsuXbM.s:1630   .text.periodic_task_ap:0000015c $t
     /tmp/ccdsuXbM.s:1970   .text.periodic_task_ap:000003c8 $d
     /tmp/ccdsuXbM.s:1995   .text.periodic_task_ap:00000428 $t
     /tmp/ccdsuXbM.s:2255   .text.periodic_task_ap:000005dc $d
     /tmp/ccdsuXbM.s:2258   .text.periodic_task_ap:000005e4 $t
     /tmp/ccdsuXbM.s:2477   .text.periodic_task_ap:00000788 $d
     /tmp/ccdsuXbM.s:2486   .text.periodic_task_ap:000007a8 $t
     /tmp/ccdsuXbM.s:2852   .text.periodic_task_ap:000009f8 $d
     /tmp/ccdsuXbM.s:2867   .text.periodic_task_ap:00000a2c $t
     /tmp/ccdsuXbM.s:3151   .text.periodic_task_ap:00000c24 $d
     /tmp/ccdsuXbM.s:3165   .text.periodic_task_ap:00000c50 $t
     /tmp/ccdsuXbM.s:3545   .text.periodic_task_ap:00000eb8 $d
     /tmp/ccdsuXbM.s:3563   .text.periodic_task_ap:00000efc $t
     /tmp/ccdsuXbM.s:3751   .text.periodic_task_ap:00001028 $d
     /tmp/ccdsuXbM.s:3764   .text.periodic_task_ap:00001054 $t
     /tmp/ccdsuXbM.s:4178   .text.periodic_task_ap:000012cc $d
     /tmp/ccdsuXbM.s:4190   .text.periodic_task_ap:000012f8 $t
     /tmp/ccdsuXbM.s:4558   .text.periodic_task_ap:0000154c $d
     /tmp/ccdsuXbM.s:4575   .text.periodic_task_ap:0000158c $t
     /tmp/ccdsuXbM.s:4911   .text.periodic_task_ap:000017a4 $d
     /tmp/ccdsuXbM.s:4956   .text.periodic_task_ap:000017d8 $d
     /tmp/ccdsuXbM.s:4980   .text.periodic_task_ap:00001834 $t
     /tmp/ccdsuXbM.s:5359   .text.periodic_task_ap:00001aa8 $d
     /tmp/ccdsuXbM.s:5371   .text.periodic_task_ap:00001ad4 $t
     /tmp/ccdsuXbM.s:5495   .text.periodic_task_ap:00001b9c $d
     /tmp/ccdsuXbM.s:5507   .text.periodic_task_ap:00001bc0 $t
     /tmp/ccdsuXbM.s:5814   .text.periodic_task_ap:00001da4 $d
     /tmp/ccdsuXbM.s:5825   .text.periodic_task_ap:00001dcc $t
     /tmp/ccdsuXbM.s:6118   .text.periodic_task_ap:00001fc4 $d
     /tmp/ccdsuXbM.s:6131   .text.periodic_task_ap:00001ff4 $t
     /tmp/ccdsuXbM.s:6485   .text.periodic_task_ap:00002258 $d
     /tmp/ccdsuXbM.s:6504   .text.periodic_task_ap:00002298 $t
     /tmp/ccdsuXbM.s:6854   .text.periodic_task_ap:000024f0 $d
     /tmp/ccdsuXbM.s:6870   .text.periodic_task_ap:00002528 $t
     /tmp/ccdsuXbM.s:7199   .text.periodic_task_ap:00002788 $d
     /tmp/ccdsuXbM.s:7229   .text.periodic_task_ap:000027f8 $t
     /tmp/ccdsuXbM.s:7537   .text.periodic_task_ap:000029fc $d
     /tmp/ccdsuXbM.s:7541   .text.periodic_task_ap:00002a04 $t
     /tmp/ccdsuXbM.s:7761   .text.periodic_task_ap:00002ba8 $d
     /tmp/ccdsuXbM.s:7770   .text.periodic_task_ap:00002bc8 $t
     /tmp/ccdsuXbM.s:8076   .text.periodic_task_ap:00002db0 $d
     /tmp/ccdsuXbM.s:8094   .text.periodic_task_ap:00002df0 $t
     /tmp/ccdsuXbM.s:8284   .text.periodic_task_ap:00002f20 $d
     /tmp/ccdsuXbM.s:8295   .text.periodic_task_ap:00002f44 $t
     /tmp/ccdsuXbM.s:8628   .text.periodic_task_ap:00003194 $d
     /tmp/ccdsuXbM.s:8654   .text.periodic_task_ap:000031b0 $d
     /tmp/ccdsuXbM.s:8673   .text.periodic_task_ap:000031f8 $t
     /tmp/ccdsuXbM.s:8842   .text.periodic_task_ap:00003308 $d
     /tmp/ccdsuXbM.s:8858   .text.periodic_task_ap:00003340 $t
     /tmp/ccdsuXbM.s:9178   .text.periodic_task_ap:00003538 $d
     /tmp/ccdsuXbM.s:9193   .text.periodic_task_ap:0000356c $t
     /tmp/ccdsuXbM.s:9570   .text.periodic_task_ap:000037d0 $d
     /tmp/ccdsuXbM.s:9589   .text.periodic_task_ap:00003814 $t
     /tmp/ccdsuXbM.s:9843   .text.periodic_task_ap:000039a8 $d
     /tmp/ccdsuXbM.s:9856   .text.periodic_task_ap:000039d4 $t
     /tmp/ccdsuXbM.s:10170  .text.periodic_task_ap:00003bc4 $d
     /tmp/ccdsuXbM.s:10184  .text.periodic_task_ap:00003bf4 $t
     /tmp/ccdsuXbM.s:10433  .text.periodic_task_ap:00003d80 $d
     /tmp/ccdsuXbM.s:10445  .text.periodic_task_ap:00003da8 $t
     /tmp/ccdsuXbM.s:10855  .text.periodic_task_ap:0000401c $d
     /tmp/ccdsuXbM.s:10872  .text.periodic_task_ap:00004050 $t
     /tmp/ccdsuXbM.s:11208  .text.periodic_task_ap:00004284 $d
     /tmp/ccdsuXbM.s:11225  .text.periodic_task_ap:000042c0 $t
     /tmp/ccdsuXbM.s:11531  .text.periodic_task_ap:000044b8 $d
     /tmp/ccdsuXbM.s:11542  .text.periodic_task_ap:000044d8 $t
     /tmp/ccdsuXbM.s:11814  .text.periodic_task_ap:000046b0 $d
     /tmp/ccdsuXbM.s:11827  .text.periodic_task_ap:000046e0 $t
     /tmp/ccdsuXbM.s:12031  .text.periodic_task_ap:00004828 $d
     /tmp/ccdsuXbM.s:12042  .text.periodic_task_ap:0000484c $t
     /tmp/ccdsuXbM.s:12233  .text.periodic_task_ap:000049c0 $d
     /tmp/ccdsuXbM.s:12252  .text.periodic_task_ap:00004a04 $t
     /tmp/ccdsuXbM.s:12630  .text.periodic_task_ap:00004c90 $d
     /tmp/ccdsuXbM.s:12646  .text.periodic_task_ap:00004cc0 $t
     /tmp/ccdsuXbM.s:12960  .text.periodic_task_ap:00004f04 $d
     /tmp/ccdsuXbM.s:12969  .text.periodic_task_ap:00004f24 $t
     /tmp/ccdsuXbM.s:13164  .text.periodic_task_ap:0000505c $d
     /tmp/ccdsuXbM.s:13176  .text.periodic_task_ap:00005084 $t
     /tmp/ccdsuXbM.s:13553  .text.periodic_task_ap:000052e8 $d
     /tmp/ccdsuXbM.s:13572  .text.periodic_task_ap:0000532c $t
     /tmp/ccdsuXbM.s:13875  .text.periodic_task_ap:00005550 $d
     /tmp/ccdsuXbM.s:13893  .text.periodic_task_ap:00005594 $t
     /tmp/ccdsuXbM.s:14020  .text.periodic_task_ap:00005674 $d
     /tmp/ccdsuXbM.s:14029  .text.periodic_task_ap:00005694 $t
     /tmp/ccdsuXbM.s:14330  .text.periodic_task_ap:00005874 $d
     /tmp/ccdsuXbM.s:14347  .text.periodic_task_ap:000058b0 $t
     /tmp/ccdsuXbM.s:14759  .text.periodic_task_ap:00005b24 $d
     /tmp/ccdsuXbM.s:14776  .text.periodic_task_ap:00005b58 $t
     /tmp/ccdsuXbM.s:15067  .text.periodic_task_ap:00005d24 $d
     /tmp/ccdsuXbM.s:15092  .text.init_ap:00000000 $t
     /tmp/ccdsuXbM.s:15097  .text.init_ap:00000000 init_ap
     /tmp/ccdsuXbM.s:15203  .text.init_ap:0000008c $d
     /tmp/ccdsuXbM.s:15213  .text.event_task_ap:00000000 $t
     /tmp/ccdsuXbM.s:15218  .text.event_task_ap:00000000 event_task_ap
     /tmp/ccdsuXbM.s:15507  .text.event_task_ap:000001f2 $d
     /tmp/ccdsuXbM.s:15615  .text.event_task_ap:00000274 $d
     /tmp/ccdsuXbM.s:15637  .text.event_task_ap:000002c4 $t
     /tmp/ccdsuXbM.s:16011  .text.event_task_ap:000004e0 $d
     /tmp/ccdsuXbM.s:16038  .text.event_task_ap:00000548 $t
     /tmp/ccdsuXbM.s:16124  .text.event_task_ap:000005d8 $d
     /tmp/ccdsuXbM.s:16232  .bss.ahrs_timeout_counter:00000000 ahrs_timeout_counter
     /tmp/ccdsuXbM.s:16166  .bss.rc_settings_mode:00000000 rc_settings_mode
     /tmp/ccdsuXbM.s:16368  .bss.fatal_error_nb:00000000 fatal_error_nb
     /tmp/ccdsuXbM.s:16300  .data.pprz_mode:00000000 pprz_mode
     /tmp/ccdsuXbM.s:16312  .bss.lateral_mode:00000000 lateral_mode
     /tmp/ccdsuXbM.s:16455  .bss.kill_throttle:00000000 kill_throttle
     /tmp/ccdsuXbM.s:16256  .bss.launch:00000000 launch
     /tmp/ccdsuXbM.s:16356  .bss.gps_lost:00000000 gps_lost
     /tmp/ccdsuXbM.s:16261  .data.ac_ident:00000000 ac_ident
     /tmp/ccdsuXbM.s:16172  .bss.vsupply:00000000 vsupply
     /tmp/ccdsuXbM.s:16337  .bss.energy:00000000 energy
     /tmp/ccdsuXbM.s:16238  .bss.slider_1_val:00000000 slider_1_val
     /tmp/ccdsuXbM.s:16178  .bss.slider_2_val:00000000 slider_2_val
     /tmp/ccdsuXbM.s:16521  .bss.power_switch:00000000 power_switch
     /tmp/ccdsuXbM.s:16160  .bss.i.5719:00000000 i.5719
     /tmp/ccdsuXbM.s:16161  .bss.i.5719:00000000 $d
     /tmp/ccdsuXbM.s:16167  .bss.rc_settings_mode:00000000 $d
     /tmp/ccdsuXbM.s:16173  .bss.vsupply:00000000 $d
     /tmp/ccdsuXbM.s:16175  .bss.slider_2_val:00000000 $d
     /tmp/ccdsuXbM.s:16184  .bss.i180.5423:00000000 i180.5423
     /tmp/ccdsuXbM.s:16185  .bss.i180.5423:00000000 $d
     /tmp/ccdsuXbM.s:16190  .bss.last_pprz_mode.7493:00000000 last_pprz_mode.7493
     /tmp/ccdsuXbM.s:16191  .bss.last_pprz_mode.7493:00000000 $d
     /tmp/ccdsuXbM.s:16196  .bss._4Hz.7697:00000000 _4Hz.7697
     /tmp/ccdsuXbM.s:16197  .bss._4Hz.7697:00000000 $d
     /tmp/ccdsuXbM.s:16202  .bss.i.5517:00000000 i.5517
     /tmp/ccdsuXbM.s:16203  .bss.i.5517:00000000 $d
     /tmp/ccdsuXbM.s:16208  .bss.i84.5420:00000000 i84.5420
     /tmp/ccdsuXbM.s:16209  .bss.i84.5420:00000000 $d
     /tmp/ccdsuXbM.s:16214  .bss.i.5127:00000000 i.5127
     /tmp/ccdsuXbM.s:16215  .bss.i.5127:00000000 $d
     /tmp/ccdsuXbM.s:16220  .bss.mcu1_ppm_cpt:00000000 mcu1_ppm_cpt
     /tmp/ccdsuXbM.s:16221  .bss.mcu1_ppm_cpt:00000000 $d
     /tmp/ccdsuXbM.s:16226  .bss.t.7699:00000000 t.7699
     /tmp/ccdsuXbM.s:16227  .bss.t.7699:00000000 $d
     /tmp/ccdsuXbM.s:16233  .bss.ahrs_timeout_counter:00000000 $d
     /tmp/ccdsuXbM.s:16235  .bss.slider_1_val:00000000 $d
     /tmp/ccdsuXbM.s:16244  .bss.i78.5419:00000000 i78.5419
     /tmp/ccdsuXbM.s:16245  .bss.i78.5419:00000000 $d
     /tmp/ccdsuXbM.s:16250  .bss._20Hz.7695:00000000 _20Hz.7695
     /tmp/ccdsuXbM.s:16251  .bss._20Hz.7695:00000000 $d
     /tmp/ccdsuXbM.s:16257  .bss.launch:00000000 $d
     /tmp/ccdsuXbM.s:16264  .bss.i312.5430:00000000 $d
     /tmp/ccdsuXbM.s:16268  .bss.i312.5430:00000000 i312.5430
     /tmp/ccdsuXbM.s:16271  .bss.i342.5709:00000000 $d
     /tmp/ccdsuXbM.s:16275  .bss.i342.5709:00000000 i342.5709
     /tmp/ccdsuXbM.s:16281  .bss.i72.5119:00000000 i72.5119
     /tmp/ccdsuXbM.s:16282  .bss.i72.5119:00000000 $d
     /tmp/ccdsuXbM.s:16287  .bss.i30.5115:00000000 i30.5115
     /tmp/ccdsuXbM.s:16288  .bss.i30.5115:00000000 $d
     /tmp/ccdsuXbM.s:16290  .bss.i324.5707:00000000 $d
     /tmp/ccdsuXbM.s:16294  .bss.i324.5707:00000000 i324.5707
     /tmp/ccdsuXbM.s:16306  .bss.i90.5120:00000000 i90.5120
     /tmp/ccdsuXbM.s:16307  .bss.i90.5120:00000000 $d
     /tmp/ccdsuXbM.s:16313  .bss.lateral_mode:00000000 $d
     /tmp/ccdsuXbM.s:16318  .bss.mcu1_status:00000000 mcu1_status
     /tmp/ccdsuXbM.s:16319  .bss.mcu1_status:00000000 $d
     /tmp/ccdsuXbM.s:16324  .data.boot.5110:00000000 boot.5110
     /tmp/ccdsuXbM.s:16330  .bss.i90.5421:00000000 i90.5421
     /tmp/ccdsuXbM.s:16331  .bss.i90.5421:00000000 $d
     /tmp/ccdsuXbM.s:16333  .bss.energy:00000000 $d
     /tmp/ccdsuXbM.s:16340  .bss.last.5797:00000000 $d
     /tmp/ccdsuXbM.s:16344  .bss.last.5797:00000000 last.5797
     /tmp/ccdsuXbM.s:16350  .bss.i126.5122:00000000 i126.5122
     /tmp/ccdsuXbM.s:16351  .bss.i126.5122:00000000 $d
     /tmp/ccdsuXbM.s:16357  .bss.gps_lost:00000000 $d
     /tmp/ccdsuXbM.s:16359  .bss.i420.5710:00000000 $d
     /tmp/ccdsuXbM.s:16363  .bss.i420.5710:00000000 i420.5710
     /tmp/ccdsuXbM.s:16369  .bss.fatal_error_nb:00000000 $d
     /tmp/ccdsuXbM.s:16374  .bss.i243.5427:00000000 i243.5427
     /tmp/ccdsuXbM.s:16375  .bss.i243.5427:00000000 $d
     /tmp/ccdsuXbM.s:16380  .bss.i66.5118:00000000 i66.5118
     /tmp/ccdsuXbM.s:16381  .bss.i66.5118:00000000 $d
     /tmp/ccdsuXbM.s:16386  .bss.i.5305:00000000 i.5305
     /tmp/ccdsuXbM.s:16387  .bss.i.5305:00000000 $d
     /tmp/ccdsuXbM.s:16392  .bss.i66.5418:00000000 i66.5418
     /tmp/ccdsuXbM.s:16393  .bss.i66.5418:00000000 $d
     /tmp/ccdsuXbM.s:16398  .bss.i240.5426:00000000 i240.5426
     /tmp/ccdsuXbM.s:16399  .bss.i240.5426:00000000 $d
     /tmp/ccdsuXbM.s:16404  .bss.i63.5117:00000000 i63.5117
     /tmp/ccdsuXbM.s:16405  .bss.i63.5117:00000000 $d
     /tmp/ccdsuXbM.s:16407  .bss.last.5686:00000000 $d
     /tmp/ccdsuXbM.s:16411  .bss.last.5686:00000000 last.5686
     /tmp/ccdsuXbM.s:16417  .bss.i120.5121:00000000 i120.5121
     /tmp/ccdsuXbM.s:16418  .bss.i120.5121:00000000 $d
     /tmp/ccdsuXbM.s:16423  .bss.i63.5417:00000000 i63.5417
     /tmp/ccdsuXbM.s:16424  .bss.i63.5417:00000000 $d
     /tmp/ccdsuXbM.s:16429  .bss.i60.5116:00000000 i60.5116
     /tmp/ccdsuXbM.s:16430  .bss.i60.5116:00000000 $d
     /tmp/ccdsuXbM.s:16432  .bss.last.5399:00000000 $d
     /tmp/ccdsuXbM.s:16436  .bss.last.5399:00000000 last.5399
     /tmp/ccdsuXbM.s:16442  .bss._ck_a.2892:00000000 _ck_a.2892
     /tmp/ccdsuXbM.s:16443  .bss._ck_a.2892:00000000 $d
     /tmp/ccdsuXbM.s:16445  .bss.i612.5712:00000000 $d
     /tmp/ccdsuXbM.s:16449  .bss.i612.5712:00000000 i612.5712
     /tmp/ccdsuXbM.s:16456  .bss.kill_throttle:00000000 $d
     /tmp/ccdsuXbM.s:16458  .bss.i306.5705:00000000 $d
     /tmp/ccdsuXbM.s:16462  .bss.i306.5705:00000000 i306.5705
     /tmp/ccdsuXbM.s:16465  .bss.i318.5706:00000000 $d
     /tmp/ccdsuXbM.s:16469  .bss.i318.5706:00000000 i318.5706
     /tmp/ccdsuXbM.s:16472  .bss.i540.5431:00000000 $d
     /tmp/ccdsuXbM.s:16476  .bss.i540.5431:00000000 i540.5431
     /tmp/ccdsuXbM.s:16482  .bss._10Hz.7696:00000000 _10Hz.7696
     /tmp/ccdsuXbM.s:16483  .bss._10Hz.7696:00000000 $d
     /tmp/ccdsuXbM.s:16485  .rodata.version:00000000 $d
     /tmp/ccdsuXbM.s:16489  .rodata.version:00000000 version
     /tmp/ccdsuXbM.s:16492  .bss.i306.5429:00000000 $d
     /tmp/ccdsuXbM.s:16496  .bss.i306.5429:00000000 i306.5429
     /tmp/ccdsuXbM.s:16502  .bss.i126.5422:00000000 i126.5422
     /tmp/ccdsuXbM.s:16503  .bss.i126.5422:00000000 $d
     /tmp/ccdsuXbM.s:16505  .bss.i330.5708:00000000 $d
     /tmp/ccdsuXbM.s:16509  .bss.i330.5708:00000000 i330.5708
     /tmp/ccdsuXbM.s:16515  .bss.i150.5123:00000000 i150.5123
     /tmp/ccdsuXbM.s:16516  .bss.i150.5123:00000000 $d
     /tmp/ccdsuXbM.s:16522  .bss.power_switch:00000000 $d
     /tmp/ccdsuXbM.s:16527  .bss.i15.5114:00000000 i15.5114
     /tmp/ccdsuXbM.s:16528  .bss.i15.5114:00000000 $d
     /tmp/ccdsuXbM.s:16533  .bss._1Hz.7698:00000000 _1Hz.7698
     /tmp/ccdsuXbM.s:16534  .bss._1Hz.7698:00000000 $d
     /tmp/ccdsuXbM.s:16539  .bss._60Hz.7694:00000000 _60Hz.7694
     /tmp/ccdsuXbM.s:16540  .bss._60Hz.7694:00000000 $d
     /tmp/ccdsuXbM.s:16542  .bss.i606.5711:00000000 $d
     /tmp/ccdsuXbM.s:16546  .bss.i606.5711:00000000 i606.5711
     /tmp/ccdsuXbM.s:16552  .bss.i.5499:00000000 i.5499
     /tmp/ccdsuXbM.s:16553  .bss.i.5499:00000000 $d
     /tmp/ccdsuXbM.s:16555  .bss.i606.5432:00000000 $d
     /tmp/ccdsuXbM.s:16559  .bss.i606.5432:00000000 i606.5432
     /tmp/ccdsuXbM.s:16565  .bss._ck_b.2893:00000000 _ck_b.2893
     /tmp/ccdsuXbM.s:16566  .bss._ck_b.2893:00000000 $d
     /tmp/ccdsuXbM.s:16568  .bss.current:00000000 $d
     /tmp/ccdsuXbM.s:16572  .bss.current:00000000 current
     /tmp/ccdsuXbM.s:16578  .bss.i192.5425:00000000 i192.5425
     /tmp/ccdsuXbM.s:16579  .bss.i192.5425:00000000 $d
     /tmp/ccdsuXbM.s:16584  .bss.i.5433:00000000 i.5433
     /tmp/ccdsuXbM.s:16585  .bss.i.5433:00000000 $d
     /tmp/ccdsuXbM.s:16590  .bss.payload_idx.2894:00000000 payload_idx.2894
     /tmp/ccdsuXbM.s:16591  .bss.payload_idx.2894:00000000 $d
     /tmp/ccdsuXbM.s:16593  .bss.i300.5124:00000000 $d
     /tmp/ccdsuXbM.s:16597  .bss.i300.5124:00000000 i300.5124
     /tmp/ccdsuXbM.s:16600  .bss.i306.5125:00000000 $d
     /tmp/ccdsuXbM.s:16604  .bss.i306.5125:00000000 i306.5125
     /tmp/ccdsuXbM.s:16607  .bss.i300.5704:00000000 $d
     /tmp/ccdsuXbM.s:16611  .bss.i300.5704:00000000 i300.5704
     /tmp/ccdsuXbM.s:16621  .bss.pprz_status.2891:00000000 pprz_status.2891
     /tmp/ccdsuXbM.s:16622  .bss.pprz_status.2891:00000000 $d
     /tmp/ccdsuXbM.s:16624  .bss.i540.5126:00000000 $d
     /tmp/ccdsuXbM.s:16628  .bss.i540.5126:00000000 i540.5126
     /tmp/ccdsuXbM.s:16634  .bss.i.5189:00000000 i.5189
     /tmp/ccdsuXbM.s:16635  .bss.i.5189:00000000 $d
     /tmp/ccdsuXbM.s:16637  .bss.i300.5428:00000000 $d
     /tmp/ccdsuXbM.s:16641  .bss.i300.5428:00000000 i300.5428
     /tmp/ccdsuXbM.s:16647  .bss.i183.5424:00000000 i183.5424
     /tmp/ccdsuXbM.s:16648  .bss.i183.5424:00000000 $d
                     .debug_frame:00000010 $d
     /tmp/ccdsuXbM.s:1350   .text.navigation_task:0000068c $t
     /tmp/ccdsuXbM.s:4922   .text.periodic_task_ap:000017af $d
     /tmp/ccdsuXbM.s:4922   .text.periodic_task_ap:000017b0 $t
     /tmp/ccdsuXbM.s:8639   .text.periodic_task_ap:0000319f $d
     /tmp/ccdsuXbM.s:8639   .text.periodic_task_ap:000031a0 $t
     /tmp/ccdsuXbM.s:15512  .text.event_task_ap:000001f7 $d
     /tmp/ccdsuXbM.s:15512  .text.event_task_ap:000001f8 $t

UNDEFINED SYMBOLS
i2c_submit
imu_aspirin
i2c2
ahrs_update_mag
imu
ahrs
ahrs_aligner_run
ahrs_align
ahrs_propagate
ahrs_update_accel
ahrs_update_fw_estimator
ahrs_aligner
__aeabi_f2d
__aeabi_ddiv
__aeabi_d2uiz
__aeabi_i2d
__aeabi_dcmpgt
__aeabi_ui2f
__aeabi_dmul
__aeabi_d2iz
__aeabi_fcmpgt
__aeabi_fcmplt
__aeabi_i2f
__aeabi_fdiv
__aeabi_fmul
__aeabi_fadd
uart_check_free_space
uart_transmit
common_nav_periodic_task_4Hz
nav_home
nav_without_gps
cpu_time_sec
gps
uart2
downlink_nb_bytes
downlink_nb_msgs
ck_a
ck_b
v_ctl_mode
horizontal_mode
downlink_nb_ovrn
nav_periodic_task
nav_circle_radians
nav_block
nav_stage
estimator_x
estimator_y
dist2_to_wp
dist2_to_home
nav_oval_count
v_ctl_altitude_loop
h_ctl_course_loop
v_ctl_climb_loop
nav_throttle_setpoint
v_ctl_throttle_setpoint
nav_pitch
h_ctl_pitch_setpoint
estimator_flight_time
h_ctl_attitude_loop
v_ctl_throttle_slew
ap_state
v_ctl_throttle_slewed
h_ctl_aileron_setpoint
h_ctl_elevator_setpoint
inter_mcu_received_ap
__aeabi_f2iz
__aeabi_dcmplt
imu_periodic
telemetry_mode_Ap_DefaultChannel
estimator_phi
estimator_psi
estimator_theta
estimator_z
estimator_z_dot
nb_waypoint
nav_utm_east0
waypoints
nav_utm_north0
nav_utm_zone0
nav_in_circle
nav_circle_x
nav_circle_y
nav_circle_radius
h_ctl_roll_setpoint
h_ctl_pitch_loop_setpoint
h_ctl_course_setpoint
desired_x
desired_y
v_ctl_altitude_setpoint
v_ctl_climb_setpoint
block_time
stage_time
nav_in_segment
nav_segment_x_1
nav_segment_y_1
nav_segment_x_2
nav_segment_y_2
flight_altitude
nav_course
nav_shift
nav_radius
telemetry_mode_Fbw_DefaultChannel
v_ctl_auto_throttle_sum_err
v_ctl_auto_throttle_submode
nav_survey_active
nav_survey_east
nav_survey_north
nav_survey_west
nav_survey_south
estimator_propagate_state
datalink_time
estimator_hspeed_mod
gps_init
imu_init
ahrs_aligner_init
ahrs_init
h_ctl_init
v_ctl_init
estimator_init
alt_kalman_init
nav_init
settings_init
traffic_info_init
cpu_time_ticks
sys_time_period_elapsed
imu_aspirin_arch_int_disable
imu_aspirin_arch_int_enable
i2c2_er_irq_handler
hmc5843_idle_task
i2c_idle
GPIO_ReadInputDataBit
gps_ubx_parse
gps_ubx_read_message
estimator_update_state_gps
hmc5843
uart1
gps_ubx
pprz_ovrn
pprz_error
pprz_msg_received
pprz_payload_len
pprz_payload
dl_parse_msg
dl_buffer
dl_msg_available
inter_mcu_received_fbw
fbw_state
too_far_from_home
