   1              		.syntax unified
   2              		.cpu cortex-m3
   3              		.fpu softvfp
   4              		.eabi_attribute 20, 1
   5              		.eabi_attribute 21, 1
   6              		.eabi_attribute 23, 3
   7              		.eabi_attribute 24, 1
   8              		.eabi_attribute 25, 1
   9              		.eabi_attribute 26, 1
  10              		.eabi_attribute 30, 4
  11              		.eabi_attribute 18, 4
  12              		.thumb
  13              		.file	"mcu.c"
  21              	.Ltext0:
  22              		.cfi_sections	.debug_frame
  23              		.section	.text.mcu_init,"ax",%progbits
  24              		.align	1
  25              		.global	mcu_init
  26              		.thumb
  27              		.thumb_func
  29              	mcu_init:
  30              	.LFB25:
  31              		.file 1 "mcu.c"
   1:mcu.c         **** /*
   2:mcu.c         ****  * Paparazzi microcontroller initialisation function
   3:mcu.c         ****  *
   4:mcu.c         ****  * Copyright (C) 2010 The Paparazzi team
   5:mcu.c         ****  *
   6:mcu.c         ****  * This file is part of Paparazzi.
   7:mcu.c         ****  *
   8:mcu.c         ****  * Paparazzi is free software; you can redistribute it and/or modify
   9:mcu.c         ****  * it under the terms of the GNU General Public License as published by
  10:mcu.c         ****  * the Free Software Foundation; either version 2, or (at your option)
  11:mcu.c         ****  * any later version.
  12:mcu.c         ****  *
  13:mcu.c         ****  * Paparazzi is distributed in the hope that it will be useful,
  14:mcu.c         ****  * but WITHOUT ANY WARRANTY; without even the implied warranty of
  15:mcu.c         ****  * MERCHANTABILITY or FITNESS FOR A PARTICULAR PURPOSE.  See the
  16:mcu.c         ****  * GNU General Public License for more details.
  17:mcu.c         ****  *
  18:mcu.c         ****  * You should have received a copy of the GNU General Public License
  19:mcu.c         ****  * along with Paparazzi; see the file COPYING.  If not, write to
  20:mcu.c         ****  * the Free Software Foundation, 59 Temple Place - Suite 330,
  21:mcu.c         ****  * Boston, MA 02111-1307, USA.
  22:mcu.c         ****  *
  23:mcu.c         ****  */
  24:mcu.c         **** 
  25:mcu.c         **** #include "mcu.h"
  26:mcu.c         **** 
  27:mcu.c         **** #ifdef PERIPHERALS_AUTO_INIT
  28:mcu.c         **** #ifdef USE_LED
  29:mcu.c         **** #include "led.h"
  30:mcu.c         **** #endif
  31:mcu.c         **** #if defined RADIO_CONTROL
  32:mcu.c         **** #if defined RADIO_CONTROL_LINK  || defined RADIO_CONTROL_SPEKTRUM_PRIMARY_PORT
  33:mcu.c         **** #include "subsystems/radio_control.h"
  34:mcu.c         **** #endif
  35:mcu.c         **** #endif
  36:mcu.c         **** #if defined USE_UART0 || defined USE_UART1  || defined USE_UART2 || defined USE_UART3 || defined US
  37:mcu.c         **** #include "mcu_periph/uart.h"
  38:mcu.c         **** #endif
  39:mcu.c         **** #if defined USE_I2C0  || defined USE_I2C1  || defined USE_I2C2
  40:mcu.c         **** #include "mcu_periph/i2c.h"
  41:mcu.c         **** #endif
  42:mcu.c         **** #if defined USE_ADC
  43:mcu.c         **** #include "mcu_periph/adc.h"
  44:mcu.c         **** #endif
  45:mcu.c         **** #ifdef USE_USB_SERIAL
  46:mcu.c         **** #include "mcu_periph/usb_serial.h"
  47:mcu.c         **** #endif
  48:mcu.c         **** #ifdef USE_SPI
  49:mcu.c         **** #include "mcu_periph/spi.h"
  50:mcu.c         **** #endif
  51:mcu.c         **** #ifdef USE_DAC
  52:mcu.c         **** #include "mcu_periph/dac.h"
  53:mcu.c         **** #endif
  54:mcu.c         **** #endif /* PERIPHERALS_AUTO_INIT */
  55:mcu.c         **** 
  56:mcu.c         **** void mcu_init(void) {
  32              		.loc 1 56 0
  33              		.cfi_startproc
  34              		@ args = 0, pretend = 0, frame = 8
  35              		@ frame_needed = 0, uses_anonymous_args = 0
  36 0000 2DE9F745 		push	{r0, r1, r2, r4, r5, r6, r7, r8, sl, lr}
  37              	.LCFI0:
  38              		.cfi_def_cfa_offset 40
  57:mcu.c         **** 
  58:mcu.c         ****   mcu_arch_init();
  39              		.loc 1 58 0
  40              		.cfi_offset 14, -4
  41              		.cfi_offset 10, -8
  42              		.cfi_offset 8, -12
  43              		.cfi_offset 7, -16
  44              		.cfi_offset 6, -20
  45              		.cfi_offset 5, -24
  46              		.cfi_offset 4, -28
  47              		.cfi_offset 2, -32
  48              		.cfi_offset 1, -36
  49              		.cfi_offset 0, -40
  50 0004 FFF7FEFF 		bl	mcu_arch_init
  51              	.LBB7:
  52              	.LBB8:
  53              	.LBB9:
  54              		.file 2 "led.h"
   1:led.h         **** /*
   2:led.h         ****  * $Id$
   3:led.h         ****  *
   4:led.h         ****  * Copyright (C) 2003-2005  Antoine Drouin
   5:led.h         ****  *
   6:led.h         ****  * This file is part of paparazzi.
   7:led.h         ****  *
   8:led.h         ****  * paparazzi is free software; you can redistribute it and/or modify
   9:led.h         ****  * it under the terms of the GNU General Public License as published by
  10:led.h         ****  * the Free Software Foundation; either version 2, or (at your option)
  11:led.h         ****  * any later version.
  12:led.h         ****  *
  13:led.h         ****  * paparazzi is distributed in the hope that it will be useful,
  14:led.h         ****  * but WITHOUT ANY WARRANTY; without even the implied warranty of
  15:led.h         ****  * MERCHANTABILITY or FITNESS FOR A PARTICULAR PURPOSE.  See the
  16:led.h         ****  * GNU General Public License for more details.
  17:led.h         ****  *
  18:led.h         ****  * You should have received a copy of the GNU General Public License
  19:led.h         ****  * along with paparazzi; see the file COPYING.  If not, write to
  20:led.h         ****  * the Free Software Foundation, 59 Temple Place - Suite 330,
  21:led.h         ****  * Boston, MA 02111-1307, USA.
  22:led.h         ****  *
  23:led.h         ****  */
  24:led.h         **** 
  25:led.h         **** /** \file led.h
  26:led.h         ****  *  \brief arch independent LED (Light Emitting Diodes) API
  27:led.h         ****  *
  28:led.h         ****  *
  29:led.h         ****  */
  30:led.h         **** 
  31:led.h         **** #ifndef LED_H
  32:led.h         **** #define LED_H
  33:led.h         **** 
  34:led.h         **** #if defined USE_LED
  35:led.h         **** 
  36:led.h         **** #include "led_hw.h"
  37:led.h         **** 
  38:led.h         **** static inline void led_init ( void ) {
  39:led.h         **** #ifdef LED_1_BANK
  40:led.h         ****   LED_INIT(1);
  55              		.loc 2 40 0
  56 0008 01AE     		add	r6, sp, #4
  57 000a 0920     		movs	r0, #9
  58 000c 0121     		movs	r1, #1
  59 000e 1024     		movs	r4, #16
  60 0010 FFF7FEFF 		bl	RCC_APB2PeriphClockCmd
  61 0014 0327     		movs	r7, #3
  62 0016 3146     		mov	r1, r6
  63 0018 1D48     		ldr	r0, .L3
  64 001a ADF80440 		strh	r4, [sp, #4]	@ movhi
  65 001e 8DF80740 		strb	r4, [sp, #7]
  66 0022 8DF80670 		strb	r7, [sp, #6]
  67 0026 FFF7FEFF 		bl	GPIO_Init
  68 002a 0121     		movs	r1, #1
  69 002c 1948     		ldr	r0, .L3+4
  70 002e FFF7FEFF 		bl	GPIO_PinRemapConfig
  71              	.LBE9:
  41:led.h         ****   LED_OFF(1);
  72              		.loc 2 41 0
  73 0032 174B     		ldr	r3, .L3
  42:led.h         **** #endif /* LED_1_BANK */
  43:led.h         **** 
  44:led.h         **** #ifdef LED_2_BANK
  45:led.h         ****   LED_INIT(2);
  46:led.h         ****   LED_OFF(2);
  74              		.loc 2 46 0
  75 0034 184D     		ldr	r5, .L3+8
  41:led.h         ****   LED_OFF(1);
  76              		.loc 2 41 0
  77 0036 5C61     		str	r4, [r3, #20]
  78              	.LBB10:
  45:led.h         ****   LED_INIT(2);
  79              		.loc 2 45 0
  80 0038 2046     		mov	r0, r4
  81 003a 0121     		movs	r1, #1
  82 003c FFF7FEFF 		bl	RCC_APB2PeriphClockCmd
  83 0040 4FF0200A 		mov	sl, #32
  84 0044 3146     		mov	r1, r6
  85 0046 1448     		ldr	r0, .L3+8
  86 0048 8DF80740 		strb	r4, [sp, #7]
  87 004c ADF804A0 		strh	sl, [sp, #4]	@ movhi
  88 0050 8DF80670 		strb	r7, [sp, #6]
  89 0054 FFF7FEFF 		bl	GPIO_Init
  90              	.LBE10:
  91              	.LBB11:
  47:led.h         **** #endif /* LED_2_BANK */
  48:led.h         **** 
  49:led.h         **** #ifdef LED_3_BANK
  50:led.h         ****   LED_INIT(3);
  92              		.loc 2 50 0
  93 0058 2046     		mov	r0, r4
  94 005a 0121     		movs	r1, #1
  95              	.LBE11:
  46:led.h         ****   LED_OFF(2);
  96              		.loc 2 46 0
  97 005c C5F814A0 		str	sl, [r5, #20]
  98              	.LBB12:
  99              		.loc 2 50 0
 100 0060 FFF7FEFF 		bl	RCC_APB2PeriphClockCmd
 101              	.LBE12:
 102              	.LBB13:
  40:led.h         ****   LED_INIT(1);
 103              		.loc 2 40 0
 104 0064 A046     		mov	r8, r4	@ movhi
 105              	.LBE13:
 106              	.LBB14:
 107              		.loc 2 50 0
 108 0066 2846     		mov	r0, r5
 109 0068 3146     		mov	r1, r6
 110 006a 0C3C     		subs	r4, r4, #12
 111 006c ADF80440 		strh	r4, [sp, #4]	@ movhi
 112 0070 8DF80780 		strb	r8, [sp, #7]
 113 0074 8DF80670 		strb	r7, [sp, #6]
 114 0078 FFF7FEFF 		bl	GPIO_Init
 115              	.LBE14:
  51:led.h         ****   LED_OFF(3);
 116              		.loc 2 51 0
 117 007c 6C61     		str	r4, [r5, #20]
 118              	.LBE8:
 119              	.LBE7:
  59:mcu.c         **** 
  60:mcu.c         **** #ifdef PERIPHERALS_AUTO_INIT
  61:mcu.c         **** #ifdef USE_LED
  62:mcu.c         ****   led_init();
  63:mcu.c         **** #endif
  64:mcu.c         ****   /* for now this means using spektrum */
  65:mcu.c         **** #if defined RADIO_CONTROL & defined RADIO_CONTROL_SPEKTRUM_PRIMARY_PORT & defined RADIO_CONTROL_BIN
  66:mcu.c         ****   RADIO_CONTROL_BIND_IMPL_FUNC();
  67:mcu.c         **** #endif
  68:mcu.c         **** #ifdef USE_UART0
  69:mcu.c         ****   uart0_init();
  70:mcu.c         **** #endif
  71:mcu.c         **** #ifdef USE_UART1
  72:mcu.c         ****   uart1_init();
 120              		.loc 1 72 0
 121 007e FFF7FEFF 		bl	uart1_init
  73:mcu.c         **** #endif
  74:mcu.c         **** #ifdef USE_UART2
  75:mcu.c         ****   uart2_init();
 122              		.loc 1 75 0
 123 0082 FFF7FEFF 		bl	uart2_init
  76:mcu.c         **** #endif
  77:mcu.c         **** #ifdef USE_UART3
  78:mcu.c         ****   uart3_init();
  79:mcu.c         **** #endif
  80:mcu.c         **** #ifdef USE_UART4
  81:mcu.c         ****   uart4_init();
  82:mcu.c         **** #endif
  83:mcu.c         **** #ifdef USE_UART5
  84:mcu.c         ****   uart5_init();
  85:mcu.c         **** #endif
  86:mcu.c         **** #ifdef USE_I2C0
  87:mcu.c         ****   i2c0_init();
  88:mcu.c         **** #endif
  89:mcu.c         **** #ifdef USE_I2C1
  90:mcu.c         ****   i2c1_init();
  91:mcu.c         **** #endif
  92:mcu.c         **** #ifdef USE_I2C2
  93:mcu.c         ****   i2c2_init();
  94:mcu.c         **** #endif
  95:mcu.c         **** #ifdef USE_ADC
  96:mcu.c         ****   adc_init();
 124              		.loc 1 96 0
 125 0086 FFF7FEFF 		bl	adc_init
  97:mcu.c         **** #endif
  98:mcu.c         **** #ifdef USE_USB_SERIAL
  99:mcu.c         ****   VCOM_init();
 100:mcu.c         **** #endif
 101:mcu.c         **** #ifdef USE_SPI
 102:mcu.c         ****   spi_init();
 103:mcu.c         **** #endif
 104:mcu.c         **** #ifdef USE_DAC
 105:mcu.c         ****   dac_init();
 106:mcu.c         **** #endif
 107:mcu.c         **** #endif /* PERIPHERALS_AUTO_INIT */
 108:mcu.c         **** 
 109:mcu.c         **** }
 126              		.loc 1 109 0
 127 008a BDE8FE85 		pop	{r1, r2, r3, r4, r5, r6, r7, r8, sl, pc}
 128              	.L4:
 129 008e 00BF     		.align	2
 130              	.L3:
 131 0090 000C0140 		.word	1073810432
 132 0094 00013000 		.word	3145984
 133 0098 00100140 		.word	1073811456
 134              		.cfi_endproc
 135              	.LFE25:
 137              		.text
 138              	.Letext0: