   1              		.syntax unified
   2              		.cpu cortex-m3
   3              		.fpu softvfp
   4              		.eabi_attribute 20, 1
   5              		.eabi_attribute 21, 1
   6              		.eabi_attribute 23, 3
   7              		.eabi_attribute 24, 1
   8              		.eabi_attribute 25, 1
   9              		.eabi_attribute 26, 1
  10              		.eabi_attribute 30, 4
  11              		.eabi_attribute 18, 4
  12              		.thumb
  13              		.file	"nav.c"
  21              	.Ltext0:
  22              		.cfi_sections	.debug_frame
  23              		.section	.text.nav_init_stage,"ax",%progbits
  24              		.align	1
  25              		.global	nav_init_stage
  26              		.thumb
  27              		.thumb_func
  29              	nav_init_stage:
  30              	.LFB34:
  31              		.file 1 "subsystems/nav.c"
   1:subsystems/nav.c **** /*
   2:subsystems/nav.c ****  * $Id$
   3:subsystems/nav.c ****  *
   4:subsystems/nav.c ****  * Copyright (C) 2003-2005  Pascal Brisset, Antoine Drouin
   5:subsystems/nav.c ****  *
   6:subsystems/nav.c ****  * This file is part of paparazzi.
   7:subsystems/nav.c ****  *
   8:subsystems/nav.c ****  * paparazzi is free software; you can redistribute it and/or modify
   9:subsystems/nav.c ****  * it under the terms of the GNU General Public License as published by
  10:subsystems/nav.c ****  * the Free Software Foundation; either version 2, or (at your option)
  11:subsystems/nav.c ****  * any later version.
  12:subsystems/nav.c ****  *
  13:subsystems/nav.c ****  * paparazzi is distributed in the hope that it will be useful,
  14:subsystems/nav.c ****  * but WITHOUT ANY WARRANTY; without even the implied warranty of
  15:subsystems/nav.c ****  * MERCHANTABILITY or FITNESS FOR A PARTICULAR PURPOSE.  See the
  16:subsystems/nav.c ****  * GNU General Public License for more details.
  17:subsystems/nav.c ****  *
  18:subsystems/nav.c ****  * You should have received a copy of the GNU General Public License
  19:subsystems/nav.c ****  * along with paparazzi; see the file COPYING.  If not, write to
  20:subsystems/nav.c ****  * the Free Software Foundation, 59 Temple Place - Suite 330,
  21:subsystems/nav.c ****  * Boston, MA 02111-1307, USA.
  22:subsystems/nav.c ****  *
  23:subsystems/nav.c ****  */
  24:subsystems/nav.c **** /** \file subsystems/nav.c
  25:subsystems/nav.c ****  *  \brief Regroup functions to compute navigation
  26:subsystems/nav.c ****  *
  27:subsystems/nav.c ****  */
  28:subsystems/nav.c **** 
  29:subsystems/nav.c **** #define NAV_C
  30:subsystems/nav.c **** 
  31:subsystems/nav.c **** #include <math.h>
  32:subsystems/nav.c **** 
  33:subsystems/nav.c **** #include "subsystems/nav.h"
  34:subsystems/nav.c **** #include "subsystems/gps.h"
  35:subsystems/nav.c **** #include "estimator.h"
  36:subsystems/nav.c **** #include "firmwares/fixedwing/stabilization/stabilization_attitude.h"
  37:subsystems/nav.c **** #include "firmwares/fixedwing/guidance/guidance_v.h"
  38:subsystems/nav.c **** #include "firmwares/fixedwing/autopilot.h"
  39:subsystems/nav.c **** #include "inter_mcu.h"
  40:subsystems/nav.c **** #include "subsystems/navigation/traffic_info.h"
  41:subsystems/nav.c **** 
  42:subsystems/nav.c **** #define RCLost() bit_is_set(fbw_state->status, RADIO_REALLY_LOST)
  43:subsystems/nav.c **** 
  44:subsystems/nav.c **** enum oval_status oval_status;
  45:subsystems/nav.c **** 
  46:subsystems/nav.c **** float last_x, last_y;
  47:subsystems/nav.c **** 
  48:subsystems/nav.c **** /** Index of last waypoint. Used only in "go" stage in "route" horiz mode */
  49:subsystems/nav.c **** static uint8_t last_wp __attribute__ ((unused));
  50:subsystems/nav.c **** 
  51:subsystems/nav.c **** float rc_pitch;
  52:subsystems/nav.c **** float carrot_x, carrot_y;
  53:subsystems/nav.c **** 
  54:subsystems/nav.c **** /** Status on the current circle */
  55:subsystems/nav.c **** float nav_circle_radians; /* Cumulated */
  56:subsystems/nav.c **** float nav_circle_trigo_qdr; /* Angle from center to mobile */
  57:subsystems/nav.c **** float nav_radius, nav_course, nav_climb, nav_shift;
  58:subsystems/nav.c **** 
  59:subsystems/nav.c **** 
  60:subsystems/nav.c **** /** Status on the current leg (percentage, 0. < < 1.) in route mode */
  61:subsystems/nav.c **** static float nav_leg_progress;
  62:subsystems/nav.c **** 
  63:subsystems/nav.c **** /** length of the current leg (m) */
  64:subsystems/nav.c **** static float nav_leg_length;
  65:subsystems/nav.c **** 
  66:subsystems/nav.c **** bool_t nav_in_circle = FALSE;
  67:subsystems/nav.c **** bool_t nav_in_segment = FALSE;
  68:subsystems/nav.c **** float nav_circle_x, nav_circle_y, nav_circle_radius;
  69:subsystems/nav.c **** float nav_segment_x_1, nav_segment_y_1, nav_segment_x_2, nav_segment_y_2;
  70:subsystems/nav.c **** uint8_t horizontal_mode;
  71:subsystems/nav.c **** float circle_bank = 0;
  72:subsystems/nav.c **** 
  73:subsystems/nav.c **** /** Dynamically adjustable, reset to nav_altitude when it is changing */
  74:subsystems/nav.c **** float flight_altitude;
  75:subsystems/nav.c **** 
  76:subsystems/nav.c **** float nav_glide_pitch_trim;
  77:subsystems/nav.c **** #ifndef NAV_GLIDE_PITCH_TRIM
  78:subsystems/nav.c **** #define NAV_GLIDE_PITCH_TRIM 0.
  79:subsystems/nav.c **** #endif
  80:subsystems/nav.c **** 
  81:subsystems/nav.c **** 
  82:subsystems/nav.c **** 
  83:subsystems/nav.c **** float nav_ground_speed_setpoint, nav_ground_speed_pgain;
  84:subsystems/nav.c **** 
  85:subsystems/nav.c **** /* Used in nav_survey_rectangle. Defined here for downlink and uplink */
  86:subsystems/nav.c **** float nav_survey_shift;
  87:subsystems/nav.c **** float nav_survey_west, nav_survey_east, nav_survey_north, nav_survey_south;
  88:subsystems/nav.c **** bool_t nav_survey_active;
  89:subsystems/nav.c **** 
  90:subsystems/nav.c **** int nav_mode;
  91:subsystems/nav.c **** 
  92:subsystems/nav.c **** void nav_init_stage( void ) {
  32              		.loc 1 92 0
  33              		.cfi_startproc
  34              		@ args = 0, pretend = 0, frame = 0
  35              		@ frame_needed = 0, uses_anonymous_args = 0
  36              		@ link register save eliminated.
  93:subsystems/nav.c ****   last_x = estimator_x; last_y = estimator_y;
  37              		.loc 1 93 0
  38 0000 0B4B     		ldr	r3, .L3
  94:subsystems/nav.c ****   stage_time = 0;
  95:subsystems/nav.c ****   nav_circle_radians = 0;
  39              		.loc 1 95 0
  40 0002 0C49     		ldr	r1, .L3+4
  93:subsystems/nav.c ****   last_x = estimator_x; last_y = estimator_y;
  41              		.loc 1 93 0
  42 0004 1A68     		ldr	r2, [r3, #0]	@ float
  43 0006 0C4B     		ldr	r3, .L3+8
  44 0008 1A60     		str	r2, [r3, #0]	@ float
  45 000a 0C4B     		ldr	r3, .L3+12
  46 000c 1A68     		ldr	r2, [r3, #0]	@ float
  47 000e 0C4B     		ldr	r3, .L3+16
  48 0010 1A60     		str	r2, [r3, #0]	@ float
  94:subsystems/nav.c ****   stage_time = 0;
  49              		.loc 1 94 0
  50 0012 0C4B     		ldr	r3, .L3+20
  51 0014 0022     		movs	r2, #0
  52 0016 1A80     		strh	r2, [r3, #0]	@ movhi
  53              		.loc 1 95 0
  54 0018 0023     		movs	r3, #0
  55 001a 0B60     		str	r3, [r1, #0]	@ float
  96:subsystems/nav.c ****   nav_in_circle = FALSE;
  56              		.loc 1 96 0
  57 001c 0A49     		ldr	r1, .L3+24
  58 001e 0A70     		strb	r2, [r1, #0]
  97:subsystems/nav.c ****   nav_in_segment = FALSE;
  59              		.loc 1 97 0
  60 0020 0A49     		ldr	r1, .L3+28
  61 0022 0A70     		strb	r2, [r1, #0]
  98:subsystems/nav.c ****   nav_shift = 0;
  62              		.loc 1 98 0
  63 0024 0A4A     		ldr	r2, .L3+32
  64 0026 1360     		str	r3, [r2, #0]	@ float
  99:subsystems/nav.c ****   nav_pitch = 0.;
  65              		.loc 1 99 0
  66 0028 0A4A     		ldr	r2, .L3+36
  67 002a 1360     		str	r3, [r2, #0]	@ float
 100:subsystems/nav.c **** }
  68              		.loc 1 100 0
  69 002c 7047     		bx	lr
  70              	.L4:
  71 002e 00BF     		.align	2
  72              	.L3:
  73 0030 00000000 		.word	estimator_x
  74 0034 00000000 		.word	.LANCHOR2
  75 0038 00000000 		.word	.LANCHOR0
  76 003c 00000000 		.word	estimator_y
  77 0040 00000000 		.word	.LANCHOR1
  78 0044 00000000 		.word	stage_time
  79 0048 00000000 		.word	.LANCHOR3
  80 004c 00000000 		.word	.LANCHOR4
  81 0050 00000000 		.word	.LANCHOR5
  82 0054 00000000 		.word	.LANCHOR6
  83              		.cfi_endproc
  84              	.LFE34:
  86              		.global	__aeabi_fsub
  87              		.global	__aeabi_fmul
  88              		.global	__aeabi_fadd
  89              		.global	__aeabi_fcmplt
  90              		.section	.text.nav_approaching_xy,"ax",%progbits
  91              		.align	1
  92              		.global	nav_approaching_xy
  93              		.thumb
  94              		.thumb_func
  96              	nav_approaching_xy:
  97              	.LFB40:
 101:subsystems/nav.c **** 
 102:subsystems/nav.c **** #define PowerVoltage() (vsupply/10.)
 103:subsystems/nav.c **** #define RcRoll(travel) (fbw_state->channels[RADIO_ROLL]* (float)travel /(float)MAX_PPRZ)
 104:subsystems/nav.c **** 
 105:subsystems/nav.c **** #define MIN_DX ((int16_t)(MAX_PPRZ * 0.05))
 106:subsystems/nav.c **** 
 107:subsystems/nav.c **** 
 108:subsystems/nav.c **** /** Navigates around (x, y). Clockwise iff radius > 0 */
 109:subsystems/nav.c **** void nav_circle_XY(float x, float y, float radius) {
 110:subsystems/nav.c ****   float last_trigo_qdr = nav_circle_trigo_qdr;
 111:subsystems/nav.c ****   nav_circle_trigo_qdr = atan2(estimator_y - y, estimator_x - x);
 112:subsystems/nav.c **** 
 113:subsystems/nav.c ****   if (nav_in_circle) {
 114:subsystems/nav.c ****     float trigo_diff = nav_circle_trigo_qdr - last_trigo_qdr;
 115:subsystems/nav.c ****     NormRadAngle(trigo_diff);
 116:subsystems/nav.c ****     nav_circle_radians += trigo_diff;
 117:subsystems/nav.c ****   }
 118:subsystems/nav.c **** 
 119:subsystems/nav.c ****   float dist2_center = DistanceSquare(estimator_x, estimator_y, x, y);
 120:subsystems/nav.c ****   float dist_carrot = CARROT*NOMINAL_AIRSPEED;
 121:subsystems/nav.c ****   float sign_radius = radius > 0 ? 1 : -1;
 122:subsystems/nav.c **** 
 123:subsystems/nav.c ****   radius += -nav_shift;
 124:subsystems/nav.c **** 
 125:subsystems/nav.c ****   float abs_radius = fabs(radius);
 126:subsystems/nav.c **** 
 127:subsystems/nav.c ****   /** Computes a prebank. Go straight if inside or outside the circle */
 128:subsystems/nav.c ****   circle_bank =
 129:subsystems/nav.c ****     (dist2_center > Square(abs_radius + dist_carrot)
 130:subsystems/nav.c ****       || dist2_center < Square(abs_radius - dist_carrot)) ?
 131:subsystems/nav.c ****     0 :
 132:subsystems/nav.c ****     atan(estimator_hspeed_mod*estimator_hspeed_mod / (G*radius));
 133:subsystems/nav.c **** 
 134:subsystems/nav.c ****   float carrot_angle = dist_carrot / abs_radius;
 135:subsystems/nav.c ****   carrot_angle = Min(carrot_angle, M_PI/4);
 136:subsystems/nav.c ****   carrot_angle = Max(carrot_angle, M_PI/16);
 137:subsystems/nav.c ****   float alpha_carrot = nav_circle_trigo_qdr - sign_radius * carrot_angle;
 138:subsystems/nav.c ****   horizontal_mode = HORIZONTAL_MODE_CIRCLE;
 139:subsystems/nav.c ****   float radius_carrot = abs_radius;
 140:subsystems/nav.c ****   if (nav_mode == NAV_MODE_COURSE)
 141:subsystems/nav.c ****     radius_carrot += (abs_radius / cos(carrot_angle) - abs_radius);
 142:subsystems/nav.c ****   fly_to_xy(x+cos(alpha_carrot)*radius_carrot,
 143:subsystems/nav.c **** 	    y+sin(alpha_carrot)*radius_carrot);
 144:subsystems/nav.c ****   nav_in_circle = TRUE;
 145:subsystems/nav.c ****   nav_circle_x = x;
 146:subsystems/nav.c ****   nav_circle_y = y;
 147:subsystems/nav.c ****   nav_circle_radius = radius;
 148:subsystems/nav.c **** }
 149:subsystems/nav.c **** 
 150:subsystems/nav.c **** 
 151:subsystems/nav.c **** #define NavGotoWaypoint(_wp) { \
 152:subsystems/nav.c ****   horizontal_mode = HORIZONTAL_MODE_WAYPOINT; \
 153:subsystems/nav.c ****   fly_to_xy(waypoints[_wp].x, waypoints[_wp].y); \
 154:subsystems/nav.c **** }
 155:subsystems/nav.c **** 
 156:subsystems/nav.c **** #define NavGlide(_last_wp, _wp) { \
 157:subsystems/nav.c ****   float start_alt = waypoints[_last_wp].a; \
 158:subsystems/nav.c ****   float diff_alt = waypoints[_wp].a - start_alt; \
 159:subsystems/nav.c ****   float alt = start_alt + nav_leg_progress * diff_alt; \
 160:subsystems/nav.c ****   float pre_climb = estimator_hspeed_mod * diff_alt / nav_leg_length; \
 161:subsystems/nav.c ****   NavVerticalAltitudeMode(alt, pre_climb); \
 162:subsystems/nav.c **** }
 163:subsystems/nav.c **** 
 164:subsystems/nav.c **** 
 165:subsystems/nav.c **** 
 166:subsystems/nav.c **** 
 167:subsystems/nav.c **** #define MAX_DIST_CARROT 250.
 168:subsystems/nav.c **** #define MIN_HEIGHT_CARROT 50.
 169:subsystems/nav.c **** #define MAX_HEIGHT_CARROT 150.
 170:subsystems/nav.c **** 
 171:subsystems/nav.c **** #define Goto3D(radius) { \
 172:subsystems/nav.c ****   if (pprz_mode == PPRZ_MODE_AUTO2) { \
 173:subsystems/nav.c ****     int16_t yaw = fbw_state->channels[RADIO_YAW]; \
 174:subsystems/nav.c ****     if (yaw > MIN_DX || yaw < -MIN_DX) { \
 175:subsystems/nav.c ****       carrot_x += FLOAT_OF_PPRZ(yaw, 0, -20.); \
 176:subsystems/nav.c ****       carrot_x = Min(carrot_x, MAX_DIST_CARROT); \
 177:subsystems/nav.c ****       carrot_x = Max(carrot_x, -MAX_DIST_CARROT); \
 178:subsystems/nav.c ****     } \
 179:subsystems/nav.c ****     int16_t pitch = fbw_state->channels[RADIO_PITCH]; \
 180:subsystems/nav.c ****     if (pitch > MIN_DX || pitch < -MIN_DX) { \
 181:subsystems/nav.c ****       carrot_y += FLOAT_OF_PPRZ(pitch, 0, -20.); \
 182:subsystems/nav.c ****       carrot_y = Min(carrot_y, MAX_DIST_CARROT); \
 183:subsystems/nav.c ****       carrot_y = Max(carrot_y, -MAX_DIST_CARROT); \
 184:subsystems/nav.c ****     } \
 185:subsystems/nav.c ****     v_ctl_mode = V_CTL_MODE_AUTO_ALT; \
 186:subsystems/nav.c ****     int16_t roll =  fbw_state->channels[RADIO_ROLL]; \
 187:subsystems/nav.c ****     if (roll > MIN_DX || roll < -MIN_DX) { \
 188:subsystems/nav.c ****       nav_altitude += FLOAT_OF_PPRZ(roll, 0, -1.0);	\
 189:subsystems/nav.c ****       nav_altitude = Max(nav_altitude, MIN_HEIGHT_CARROT+ground_alt); \
 190:subsystems/nav.c ****       nav_altitude = Min(nav_altitude, MAX_HEIGHT_CARROT+ground_alt); \
 191:subsystems/nav.c ****     } \
 192:subsystems/nav.c ****   } \
 193:subsystems/nav.c ****   nav_circle_XY(carrot_x, carrot_y, radius); \
 194:subsystems/nav.c **** }
 195:subsystems/nav.c **** 
 196:subsystems/nav.c **** 
 197:subsystems/nav.c **** #define NavFollow(_ac_id, _distance, _height) \
 198:subsystems/nav.c ****   nav_follow(_ac_id, _distance, _height);
 199:subsystems/nav.c **** 
 200:subsystems/nav.c **** 
 201:subsystems/nav.c **** static unit_t unit __attribute__ ((unused));
 202:subsystems/nav.c **** 
 203:subsystems/nav.c **** static inline void nav_follow(uint8_t _ac_id, float _distance, float _height);
 204:subsystems/nav.c **** 
 205:subsystems/nav.c **** #ifdef NAV_GROUND_SPEED_PGAIN
 206:subsystems/nav.c **** /** \brief Computes cruise throttle from ground speed setpoint
 207:subsystems/nav.c ****  */
 208:subsystems/nav.c **** static void nav_ground_speed_loop( void ) {
 209:subsystems/nav.c ****   if (MINIMUM_AIRSPEED < nav_ground_speed_setpoint
 210:subsystems/nav.c ****       && nav_ground_speed_setpoint < MAXIMUM_AIRSPEED) {
 211:subsystems/nav.c ****     float err = estimator_hspeed_mod - nav_ground_speed_setpoint;
 212:subsystems/nav.c ****     v_ctl_auto_throttle_cruise_throttle += nav_ground_speed_pgain*err;
 213:subsystems/nav.c ****     Bound(v_ctl_auto_throttle_cruise_throttle, V_CTL_AUTO_THROTTLE_MIN_CRUISE_THROTTLE, V_CTL_AUTO_
 214:subsystems/nav.c ****   } else {
 215:subsystems/nav.c ****     /* Reset cruise throttle to nominal value */
 216:subsystems/nav.c ****     v_ctl_auto_throttle_cruise_throttle = V_CTL_AUTO_THROTTLE_NOMINAL_CRUISE_THROTTLE;
 217:subsystems/nav.c ****   }
 218:subsystems/nav.c **** }
 219:subsystems/nav.c **** #endif
 220:subsystems/nav.c **** 
 221:subsystems/nav.c **** static float baseleg_out_qdr;
 222:subsystems/nav.c **** static inline bool_t nav_compute_baseleg(uint8_t wp_af, uint8_t wp_td, uint8_t wp_baseleg, float ra
 223:subsystems/nav.c ****   nav_radius = radius;
 224:subsystems/nav.c **** 
 225:subsystems/nav.c ****   float x_0 = waypoints[wp_td].x - waypoints[wp_af].x;
 226:subsystems/nav.c ****   float y_0 = waypoints[wp_td].y - waypoints[wp_af].y;
 227:subsystems/nav.c **** 
 228:subsystems/nav.c ****   /* Unit vector from AF to TD */
 229:subsystems/nav.c ****   float d = sqrt(x_0*x_0+y_0*y_0);
 230:subsystems/nav.c ****   float x_1 = x_0 / d;
 231:subsystems/nav.c ****   float y_1 = y_0 / d;
 232:subsystems/nav.c **** 
 233:subsystems/nav.c ****   waypoints[wp_baseleg].x = waypoints[wp_af].x + y_1 * nav_radius;
 234:subsystems/nav.c ****   waypoints[wp_baseleg].y = waypoints[wp_af].y - x_1 * nav_radius;
 235:subsystems/nav.c ****   waypoints[wp_baseleg].a = waypoints[wp_af].a;
 236:subsystems/nav.c ****   baseleg_out_qdr = M_PI - atan2(-y_1, -x_1);
 237:subsystems/nav.c ****   if (nav_radius < 0)
 238:subsystems/nav.c ****     baseleg_out_qdr += M_PI;
 239:subsystems/nav.c **** 
 240:subsystems/nav.c ****   return FALSE;
 241:subsystems/nav.c **** }
 242:subsystems/nav.c **** 
 243:subsystems/nav.c **** 
 244:subsystems/nav.c **** /* For a landing UPWIND.
 245:subsystems/nav.c ****    Computes Top Of Descent waypoint from Touch Down and Approach Fix
 246:subsystems/nav.c ****    waypoints, using glide airspeed, glide vertical speed and wind */
 247:subsystems/nav.c **** static inline bool_t compute_TOD(uint8_t _af, uint8_t _td, uint8_t _tod, float glide_airspeed, floa
 248:subsystems/nav.c ****   float td_af_x = WaypointX(_af) - WaypointX(_td);
 249:subsystems/nav.c ****   float td_af_y = WaypointY(_af) - WaypointY(_td);
 250:subsystems/nav.c ****   float td_af = sqrt( td_af_x*td_af_x + td_af_y*td_af_y);
 251:subsystems/nav.c ****   float td_tod = (WaypointAlt(_af) - WaypointAlt(_td)) / glide_vspeed * (glide_airspeed - sqrt(wind
 252:subsystems/nav.c ****   WaypointX(_tod) = WaypointX(_td) + td_af_x / td_af * td_tod;
 253:subsystems/nav.c ****   WaypointY(_tod) = WaypointY(_td) + td_af_y / td_af * td_tod;
 254:subsystems/nav.c ****   WaypointAlt(_tod) = WaypointAlt(_af);
 255:subsystems/nav.c ****   return FALSE;
 256:subsystems/nav.c **** }
 257:subsystems/nav.c **** 
 258:subsystems/nav.c **** 
 259:subsystems/nav.c **** #include "generated/flight_plan.h"
 260:subsystems/nav.c **** 
 261:subsystems/nav.c **** 
 262:subsystems/nav.c **** #ifndef LINE_START_FUNCTION
 263:subsystems/nav.c **** #define LINE_START_FUNCTION {}
 264:subsystems/nav.c **** #endif
 265:subsystems/nav.c **** #ifndef LINE_STOP_FUNCTION
 266:subsystems/nav.c **** #define LINE_STOP_FUNCTION {}
 267:subsystems/nav.c **** #endif
 268:subsystems/nav.c **** 
 269:subsystems/nav.c **** 
 270:subsystems/nav.c **** 
 271:subsystems/nav.c **** static inline void nav_follow(uint8_t _ac_id, float _distance, float _height) {
 272:subsystems/nav.c ****   struct ac_info_ * ac = get_ac_info(_ac_id);
 273:subsystems/nav.c ****   NavVerticalAutoThrottleMode(0.);
 274:subsystems/nav.c ****   NavVerticalAltitudeMode(Max(ac->alt + _height, ground_alt+SECURITY_HEIGHT), 0.);
 275:subsystems/nav.c ****   float alpha = M_PI/2 - ac->course;
 276:subsystems/nav.c ****   float ca = cos(alpha), sa = sin(alpha);
 277:subsystems/nav.c ****   float x = ac->east - _distance*ca;
 278:subsystems/nav.c ****   float y = ac->north - _distance*sa;
 279:subsystems/nav.c ****   fly_to_xy(x, y);
 280:subsystems/nav.c **** #ifdef NAV_FOLLOW_PGAIN
 281:subsystems/nav.c ****   float s = (estimator_x-x)*ca+(estimator_y-y)*sa;
 282:subsystems/nav.c ****   nav_ground_speed_setpoint = ac->gspeed + NAV_FOLLOW_PGAIN*s;
 283:subsystems/nav.c ****   nav_ground_speed_loop();
 284:subsystems/nav.c **** #endif
 285:subsystems/nav.c **** }
 286:subsystems/nav.c **** 
 287:subsystems/nav.c **** float nav_altitude = GROUND_ALT + MIN_HEIGHT_CARROT;
 288:subsystems/nav.c **** float desired_x, desired_y;
 289:subsystems/nav.c **** pprz_t nav_throttle_setpoint;
 290:subsystems/nav.c **** float nav_pitch; /* Rad */
 291:subsystems/nav.c **** float fp_pitch; /* deg */
 292:subsystems/nav.c **** 
 293:subsystems/nav.c **** 
 294:subsystems/nav.c **** /** \brief Decide if the UAV is approaching the current waypoint.
 295:subsystems/nav.c ****  *  Computes \a dist2_to_wp and compare it to square \a carrot.
 296:subsystems/nav.c ****  *  Return true if it is smaller. Else computes by scalar products if
 297:subsystems/nav.c ****  *  uav has not gone past waypoint.
 298:subsystems/nav.c ****  *  Return true if it is the case.
 299:subsystems/nav.c ****  */
 300:subsystems/nav.c **** bool_t nav_approaching_xy(float x, float y, float from_x, float from_y, float approaching_time) {
  98              		.loc 1 300 0
  99              		.cfi_startproc
 100              		@ args = 4, pretend = 0, frame = 0
 101              		@ frame_needed = 0, uses_anonymous_args = 0
 102              	.LVL0:
 103 0000 2DE9F047 		push	{r4, r5, r6, r7, r8, r9, sl, lr}
 104              	.LCFI0:
 105              		.cfi_def_cfa_offset 32
 106              		.loc 1 300 0
 107 0004 9946     		mov	r9, r3
 108              		.cfi_offset 14, -4
 109              		.cfi_offset 10, -8
 110              		.cfi_offset 9, -12
 111              		.cfi_offset 8, -16
 112              		.cfi_offset 7, -20
 113              		.cfi_offset 6, -24
 114              		.cfi_offset 5, -28
 115              		.cfi_offset 4, -32
 301:subsystems/nav.c ****   /** distance to waypoint in x */
 302:subsystems/nav.c ****   float pw_x = x - estimator_x;
 116              		.loc 1 302 0
 117 0006 244B     		ldr	r3, .L15
 118              	.LVL1:
 300:subsystems/nav.c **** bool_t nav_approaching_xy(float x, float y, float from_x, float from_y, float approaching_time) {
 119              		.loc 1 300 0
 120 0008 0C46     		mov	r4, r1
 121              		.loc 1 302 0
 122 000a 1968     		ldr	r1, [r3, #0]	@ float
 123              	.LVL2:
 300:subsystems/nav.c **** bool_t nav_approaching_xy(float x, float y, float from_x, float from_y, float approaching_time) {
 124              		.loc 1 300 0
 125 000c 1646     		mov	r6, r2
 126 000e 0546     		mov	r5, r0
 127              		.loc 1 302 0
 128 0010 FFF7FEFF 		bl	__aeabi_fsub
 129              	.LVL3:
 303:subsystems/nav.c ****   /** distance to waypoint in y */
 304:subsystems/nav.c ****   float pw_y = y - estimator_y;
 130              		.loc 1 304 0
 131 0014 214B     		ldr	r3, .L15+4
 302:subsystems/nav.c ****   float pw_x = x - estimator_x;
 132              		.loc 1 302 0
 133 0016 8046     		mov	r8, r0
 134              		.loc 1 304 0
 135 0018 1968     		ldr	r1, [r3, #0]	@ float
 136 001a 2046     		mov	r0, r4
 137 001c FFF7FEFF 		bl	__aeabi_fsub
 305:subsystems/nav.c **** 
 306:subsystems/nav.c ****   dist2_to_wp = pw_x*pw_x + pw_y *pw_y;
 138              		.loc 1 306 0
 139 0020 4146     		mov	r1, r8
 304:subsystems/nav.c ****   float pw_y = y - estimator_y;
 140              		.loc 1 304 0
 141 0022 0746     		mov	r7, r0
 142              		.loc 1 306 0
 143 0024 4046     		mov	r0, r8
 144 0026 FFF7FEFF 		bl	__aeabi_fmul
 145 002a 3946     		mov	r1, r7
 146 002c 8246     		mov	sl, r0
 147 002e 3846     		mov	r0, r7
 148 0030 FFF7FEFF 		bl	__aeabi_fmul
 149 0034 0146     		mov	r1, r0
 150 0036 5046     		mov	r0, sl
 151 0038 FFF7FEFF 		bl	__aeabi_fadd
 152 003c 184B     		ldr	r3, .L15+8
 153 003e 8246     		mov	sl, r0
 154 0040 1860     		str	r0, [r3, #0]	@ float
 307:subsystems/nav.c ****   float min_dist = approaching_time * estimator_hspeed_mod;
 155              		.loc 1 307 0
 156 0042 184B     		ldr	r3, .L15+12
 157 0044 0898     		ldr	r0, [sp, #32]	@ float
 158 0046 1968     		ldr	r1, [r3, #0]	@ float
 159 0048 FFF7FEFF 		bl	__aeabi_fmul
 308:subsystems/nav.c ****   if (dist2_to_wp < min_dist*min_dist)
 160              		.loc 1 308 0
 161 004c 0146     		mov	r1, r0
 162 004e FFF7FEFF 		bl	__aeabi_fmul
 163 0052 0146     		mov	r1, r0
 164 0054 5046     		mov	r0, sl
 165 0056 FFF7FEFF 		bl	__aeabi_fcmplt
 166 005a 10B1     		cbz	r0, .L13
 167 005c 0120     		movs	r0, #1
 168 005e BDE8F087 		pop	{r4, r5, r6, r7, r8, r9, sl, pc}
 169              	.L13:
 309:subsystems/nav.c ****     return TRUE;
 310:subsystems/nav.c **** 
 311:subsystems/nav.c ****   float scal_prod = (x - from_x) * pw_x + (y - from_y) * pw_y;
 312:subsystems/nav.c **** 
 313:subsystems/nav.c ****   return (scal_prod < 0.);
 170              		.loc 1 313 0
 171 0062 3146     		mov	r1, r6
 172 0064 2846     		mov	r0, r5
 173 0066 FFF7FEFF 		bl	__aeabi_fsub
 174 006a 4146     		mov	r1, r8
 175 006c FFF7FEFF 		bl	__aeabi_fmul
 176 0070 4946     		mov	r1, r9
 177 0072 0546     		mov	r5, r0
 178              	.LVL4:
 179 0074 2046     		mov	r0, r4
 180 0076 FFF7FEFF 		bl	__aeabi_fsub
 181 007a 3946     		mov	r1, r7
 182 007c FFF7FEFF 		bl	__aeabi_fmul
 183 0080 0146     		mov	r1, r0
 184 0082 2846     		mov	r0, r5
 185 0084 FFF7FEFF 		bl	__aeabi_fadd
 186 0088 0021     		movs	r1, #0
 187 008a FFF7FEFF 		bl	__aeabi_fcmplt
 188 008e 0038     		subs	r0, r0, #0
 189 0090 18BF     		it	ne
 190 0092 0120     		movne	r0, #1
 314:subsystems/nav.c **** }
 191              		.loc 1 314 0
 192 0094 BDE8F087 		pop	{r4, r5, r6, r7, r8, r9, sl, pc}
 193              	.L16:
 194              		.align	2
 195              	.L15:
 196 0098 00000000 		.word	estimator_x
 197 009c 00000000 		.word	estimator_y
 198 00a0 00000000 		.word	.LANCHOR7
 199 00a4 00000000 		.word	estimator_hspeed_mod
 200              		.cfi_endproc
 201              	.LFE40:
 203              		.global	__aeabi_fcmpgt
 204              		.section	.text.compute_dist2_to_home,"ax",%progbits
 205              		.align	1
 206              		.global	compute_dist2_to_home
 207              		.thumb
 208              		.thumb_func
 210              	compute_dist2_to_home:
 211              	.LFB45:
 212              		.file 2 "./subsystems/navigation/common_nav.c"
   1:./subsystems/navigation/common_nav.c **** /*
   2:./subsystems/navigation/common_nav.c ****  * $Id$
   3:./subsystems/navigation/common_nav.c ****  *
   4:./subsystems/navigation/common_nav.c ****  * Copyright (C) 2007-2009  ENAC, Pascal Brisset, Antoine Drouin
   5:./subsystems/navigation/common_nav.c ****  *
   6:./subsystems/navigation/common_nav.c ****  * This file is part of paparazzi.
   7:./subsystems/navigation/common_nav.c ****  *
   8:./subsystems/navigation/common_nav.c ****  * paparazzi is free software; you can redistribute it and/or modify
   9:./subsystems/navigation/common_nav.c ****  * it under the terms of the GNU General Public License as published by
  10:./subsystems/navigation/common_nav.c ****  * the Free Software Foundation; either version 2, or (at your option)
  11:./subsystems/navigation/common_nav.c ****  * any later version.
  12:./subsystems/navigation/common_nav.c ****  *
  13:./subsystems/navigation/common_nav.c ****  * paparazzi is distributed in the hope that it will be useful,
  14:./subsystems/navigation/common_nav.c ****  * but WITHOUT ANY WARRANTY; without even the implied warranty of
  15:./subsystems/navigation/common_nav.c ****  * MERCHANTABILITY or FITNESS FOR A PARTICULAR PURPOSE.  See the
  16:./subsystems/navigation/common_nav.c ****  * GNU General Public License for more details.
  17:./subsystems/navigation/common_nav.c ****  *
  18:./subsystems/navigation/common_nav.c ****  * You should have received a copy of the GNU General Public License
  19:./subsystems/navigation/common_nav.c ****  * along with paparazzi; see the file COPYING.  If not, write to
  20:./subsystems/navigation/common_nav.c ****  * the Free Software Foundation, 59 Temple Place - Suite 330,
  21:./subsystems/navigation/common_nav.c ****  * Boston, MA 02111-1307, USA.
  22:./subsystems/navigation/common_nav.c ****  *
  23:./subsystems/navigation/common_nav.c ****  */
  24:./subsystems/navigation/common_nav.c **** 
  25:./subsystems/navigation/common_nav.c **** #include "subsystems/navigation/common_nav.h"
  26:./subsystems/navigation/common_nav.c **** #include "estimator.h"
  27:./subsystems/navigation/common_nav.c **** #include "generated/flight_plan.h"
  28:./subsystems/navigation/common_nav.c **** #include "subsystems/gps.h"
  29:./subsystems/navigation/common_nav.c **** #include "math/pprz_geodetic_float.h"
  30:./subsystems/navigation/common_nav.c **** 
  31:./subsystems/navigation/common_nav.c **** float dist2_to_home;
  32:./subsystems/navigation/common_nav.c **** float dist2_to_wp;
  33:./subsystems/navigation/common_nav.c **** 
  34:./subsystems/navigation/common_nav.c **** bool_t too_far_from_home;
  35:./subsystems/navigation/common_nav.c **** 
  36:./subsystems/navigation/common_nav.c **** const uint8_t nb_waypoint = NB_WAYPOINT;
  37:./subsystems/navigation/common_nav.c **** struct point waypoints[NB_WAYPOINT] = WAYPOINTS;
  38:./subsystems/navigation/common_nav.c **** 
  39:./subsystems/navigation/common_nav.c **** float ground_alt;
  40:./subsystems/navigation/common_nav.c **** 
  41:./subsystems/navigation/common_nav.c **** int32_t nav_utm_east0 = NAV_UTM_EAST0;
  42:./subsystems/navigation/common_nav.c **** int32_t nav_utm_north0 = NAV_UTM_NORTH0;
  43:./subsystems/navigation/common_nav.c **** uint8_t nav_utm_zone0 = NAV_UTM_ZONE0;
  44:./subsystems/navigation/common_nav.c **** float max_dist_from_home = MAX_DIST_FROM_HOME;
  45:./subsystems/navigation/common_nav.c **** 
  46:./subsystems/navigation/common_nav.c **** /** \brief Computes square distance to the HOME waypoint potentially sets
  47:./subsystems/navigation/common_nav.c ****  * \a too_far_from_home
  48:./subsystems/navigation/common_nav.c ****  */
  49:./subsystems/navigation/common_nav.c **** void compute_dist2_to_home(void) {
 213              		.loc 2 49 0
 214              		.cfi_startproc
 215              		@ args = 0, pretend = 0, frame = 0
 216              		@ frame_needed = 0, uses_anonymous_args = 0
 217 0000 70B5     		push	{r4, r5, r6, lr}
 218              	.LCFI1:
 219              		.cfi_def_cfa_offset 16
  50:./subsystems/navigation/common_nav.c ****   float ph_x = waypoints[WP_HOME].x - estimator_x;
 220              		.loc 2 50 0
 221 0002 134B     		ldr	r3, .L21
 222 0004 134C     		ldr	r4, .L21+4
 223              		.cfi_offset 14, -4
 224              		.cfi_offset 6, -8
 225              		.cfi_offset 5, -12
 226              		.cfi_offset 4, -16
 227 0006 1968     		ldr	r1, [r3, #0]	@ float
 228 0008 E068     		ldr	r0, [r4, #12]	@ float
 229 000a FFF7FEFF 		bl	__aeabi_fsub
  51:./subsystems/navigation/common_nav.c ****   float ph_y = waypoints[WP_HOME].y - estimator_y;
 230              		.loc 2 51 0
 231 000e 124B     		ldr	r3, .L21+8
  50:./subsystems/navigation/common_nav.c ****   float ph_x = waypoints[WP_HOME].x - estimator_x;
 232              		.loc 2 50 0
 233 0010 0646     		mov	r6, r0
 234              		.loc 2 51 0
 235 0012 1968     		ldr	r1, [r3, #0]	@ float
 236 0014 2069     		ldr	r0, [r4, #16]	@ float
 237 0016 FFF7FEFF 		bl	__aeabi_fsub
  52:./subsystems/navigation/common_nav.c ****   dist2_to_home = ph_x*ph_x + ph_y *ph_y;
 238              		.loc 2 52 0
 239 001a 3146     		mov	r1, r6
  51:./subsystems/navigation/common_nav.c ****   float ph_y = waypoints[WP_HOME].y - estimator_y;
 240              		.loc 2 51 0
 241 001c 0546     		mov	r5, r0
 242              		.loc 2 52 0
 243 001e 3046     		mov	r0, r6
 244 0020 FFF7FEFF 		bl	__aeabi_fmul
 245 0024 2946     		mov	r1, r5
 246 0026 0446     		mov	r4, r0
 247 0028 2846     		mov	r0, r5
 248 002a FFF7FEFF 		bl	__aeabi_fmul
 249 002e 0146     		mov	r1, r0
 250 0030 2046     		mov	r0, r4
 251 0032 FFF7FEFF 		bl	__aeabi_fadd
 252 0036 094B     		ldr	r3, .L21+12
  53:./subsystems/navigation/common_nav.c ****   too_far_from_home = dist2_to_home > (MAX_DIST_FROM_HOME*MAX_DIST_FROM_HOME);
 253              		.loc 2 53 0
 254 0038 094C     		ldr	r4, .L21+16
  52:./subsystems/navigation/common_nav.c ****   dist2_to_home = ph_x*ph_x + ph_y *ph_y;
 255              		.loc 2 52 0
 256 003a 1860     		str	r0, [r3, #0]	@ float
 257              		.loc 2 53 0
 258 003c 0023     		movs	r3, #0
 259 003e 2370     		strb	r3, [r4, #0]
 260 0040 0849     		ldr	r1, .L21+20
 261 0042 FFF7FEFF 		bl	__aeabi_fcmpgt
 262 0046 08B1     		cbz	r0, .L20
 263 0048 0123     		movs	r3, #1
 264 004a 2370     		strb	r3, [r4, #0]
 265              	.L20:
 266 004c 70BD     		pop	{r4, r5, r6, pc}
 267              	.L22:
 268 004e 00BF     		.align	2
 269              	.L21:
 270 0050 00000000 		.word	estimator_x
 271 0054 00000000 		.word	.LANCHOR8
 272 0058 00000000 		.word	estimator_y
 273 005c 00000000 		.word	.LANCHOR9
 274 0060 00000000 		.word	.LANCHOR10
 275 0064 4054094A 		.word	1242125376
 276              		.cfi_endproc
 277              	.LFE45:
 279              		.section	.text.nav_update_waypoints_alt,"ax",%progbits
 280              		.align	1
 281              		.global	nav_update_waypoints_alt
 282              		.thumb
 283              		.thumb_func
 285              	nav_update_waypoints_alt:
 286              	.LFB47:
  54:./subsystems/navigation/common_nav.c **** #if defined InAirspace
  55:./subsystems/navigation/common_nav.c ****   too_far_from_home = too_far_from_home || !(InAirspace(estimator_x, estimator_y));
  56:./subsystems/navigation/common_nav.c **** #endif
  57:./subsystems/navigation/common_nav.c **** }
  58:./subsystems/navigation/common_nav.c **** 
  59:./subsystems/navigation/common_nav.c **** 
  60:./subsystems/navigation/common_nav.c **** static float previous_ground_alt;
  61:./subsystems/navigation/common_nav.c **** 
  62:./subsystems/navigation/common_nav.c **** /** Reset the geographic reference to the current GPS fix */
  63:./subsystems/navigation/common_nav.c **** unit_t nav_reset_reference( void ) {
  64:./subsystems/navigation/common_nav.c **** #ifdef GPS_USE_LATLONG
  65:./subsystems/navigation/common_nav.c ****   /* Set the real UTM zone */
  66:./subsystems/navigation/common_nav.c ****   nav_utm_zone0 = (DegOfRad(gps.lla_pos.lon/1e7)+180) / 6 + 1;
  67:./subsystems/navigation/common_nav.c **** 
  68:./subsystems/navigation/common_nav.c ****   /* Recompute UTM coordinates in this zone */
  69:./subsystems/navigation/common_nav.c ****   struct LlaCoor_f lla;
  70:./subsystems/navigation/common_nav.c ****   lla.lat = gps.lla_pos.lat/1e7;
  71:./subsystems/navigation/common_nav.c ****   lla.lon = gps.lla_pos.lon/1e7;
  72:./subsystems/navigation/common_nav.c ****   struct UtmCoor_f utm;
  73:./subsystems/navigation/common_nav.c ****   utm.zone = nav_utm_zone0;
  74:./subsystems/navigation/common_nav.c ****   utm_of_lla_f(&utm, &lla);
  75:./subsystems/navigation/common_nav.c ****   nav_utm_east0 = utm.east;
  76:./subsystems/navigation/common_nav.c ****   nav_utm_north0 = utm.north;
  77:./subsystems/navigation/common_nav.c **** #else
  78:./subsystems/navigation/common_nav.c ****   nav_utm_zone0 = gps.utm_pos.zone;
  79:./subsystems/navigation/common_nav.c ****   nav_utm_east0 = gps.utm_pos.east/100;
  80:./subsystems/navigation/common_nav.c ****   nav_utm_north0 = gps.utm_pos.north/100;
  81:./subsystems/navigation/common_nav.c **** #endif
  82:./subsystems/navigation/common_nav.c **** 
  83:./subsystems/navigation/common_nav.c ****   previous_ground_alt = ground_alt;
  84:./subsystems/navigation/common_nav.c ****   ground_alt = gps.hmsl/1000.;
  85:./subsystems/navigation/common_nav.c ****   return 0;
  86:./subsystems/navigation/common_nav.c **** }
  87:./subsystems/navigation/common_nav.c **** 
  88:./subsystems/navigation/common_nav.c **** /** Shift altitude of the waypoint according to a new ground altitude */
  89:./subsystems/navigation/common_nav.c **** unit_t nav_update_waypoints_alt( void ) {
 287              		.loc 2 89 0
 288              		.cfi_startproc
 289              		@ args = 0, pretend = 0, frame = 0
 290              		@ frame_needed = 0, uses_anonymous_args = 0
  90:./subsystems/navigation/common_nav.c ****   uint8_t i;
  91:./subsystems/navigation/common_nav.c ****   for(i = 0; i < NB_WAYPOINT; i++) {
  92:./subsystems/navigation/common_nav.c ****     waypoints[i].a += ground_alt - previous_ground_alt;
 291              		.loc 2 92 0
 292 0000 0A4B     		ldr	r3, .L26
  89:./subsystems/navigation/common_nav.c **** unit_t nav_update_waypoints_alt( void ) {
 293              		.loc 2 89 0
 294 0002 70B5     		push	{r4, r5, r6, lr}
 295              	.LCFI2:
 296              		.cfi_def_cfa_offset 16
 297              		.loc 2 92 0
 298 0004 1868     		ldr	r0, [r3, #0]	@ float
 299 0006 0A4B     		ldr	r3, .L26+4
 300 0008 0A4C     		ldr	r4, .L26+8
 301              		.cfi_offset 14, -4
 302              		.cfi_offset 6, -8
 303              		.cfi_offset 5, -12
 304              		.cfi_offset 4, -16
 305 000a 1968     		ldr	r1, [r3, #0]	@ float
 306 000c FFF7FEFF 		bl	__aeabi_fsub
  89:./subsystems/navigation/common_nav.c **** unit_t nav_update_waypoints_alt( void ) {
 307              		.loc 2 89 0
 308 0010 04F19005 		add	r5, r4, #144
 309              		.loc 2 92 0
 310 0014 0646     		mov	r6, r0
 311              	.L24:
 312 0016 A068     		ldr	r0, [r4, #8]	@ float
 313 0018 3146     		mov	r1, r6
 314 001a FFF7FEFF 		bl	__aeabi_fadd
 315 001e A060     		str	r0, [r4, #8]	@ float
 316 0020 0C34     		adds	r4, r4, #12
  91:./subsystems/navigation/common_nav.c ****   for(i = 0; i < NB_WAYPOINT; i++) {
 317              		.loc 2 91 0
 318 0022 AC42     		cmp	r4, r5
 319 0024 F7D1     		bne	.L24
  93:./subsystems/navigation/common_nav.c ****   }
  94:./subsystems/navigation/common_nav.c ****   return 0;
  95:./subsystems/navigation/common_nav.c **** }
 320              		.loc 2 95 0
 321 0026 0020     		movs	r0, #0
 322 0028 70BD     		pop	{r4, r5, r6, pc}
 323              	.L27:
 324 002a 00BF     		.align	2
 325              	.L26:
 326 002c 00000000 		.word	.LANCHOR11
 327 0030 00000000 		.word	.LANCHOR12
 328 0034 00000000 		.word	.LANCHOR8
 329              		.cfi_endproc
 330              	.LFE47:
 332              		.section	.text.common_nav_periodic_task_4Hz,"ax",%progbits
 333              		.align	1
 334              		.global	common_nav_periodic_task_4Hz
 335              		.thumb
 336              		.thumb_func
 338              	common_nav_periodic_task_4Hz:
 339              	.LFB48:
  96:./subsystems/navigation/common_nav.c **** 
  97:./subsystems/navigation/common_nav.c **** void common_nav_periodic_task_4Hz() {
 340              		.loc 2 97 0
 341              		.cfi_startproc
 342              		@ args = 0, pretend = 0, frame = 0
 343              		@ frame_needed = 0, uses_anonymous_args = 0
 344              		@ link register save eliminated.
 345              	.LBB2:
  98:./subsystems/navigation/common_nav.c ****   RunOnceEvery(4, { stage_time++;  block_time++; });
 346              		.loc 2 98 0
 347 0000 094B     		ldr	r3, .L31
 348 0002 1A88     		ldrh	r2, [r3, #0]
 349 0004 0132     		adds	r2, r2, #1
 350 0006 92B2     		uxth	r2, r2
 351 0008 032A     		cmp	r2, #3
 352 000a 1A80     		strh	r2, [r3, #0]	@ movhi
 353 000c 0AD9     		bls	.L30
 354 000e 4FF00002 		mov	r2, #0	@ movhi
 355 0012 1A80     		strh	r2, [r3, #0]	@ movhi
 356 0014 054B     		ldr	r3, .L31+4
 357 0016 1A88     		ldrh	r2, [r3, #0]
 358 0018 0132     		adds	r2, r2, #1
 359 001a 1A80     		strh	r2, [r3, #0]	@ movhi
 360 001c 044B     		ldr	r3, .L31+8
 361 001e 1A88     		ldrh	r2, [r3, #0]
 362 0020 0132     		adds	r2, r2, #1
 363 0022 1A80     		strh	r2, [r3, #0]	@ movhi
 364              	.L30:
 365 0024 7047     		bx	lr
 366              	.L32:
 367 0026 00BF     		.align	2
 368              	.L31:
 369 0028 00000000 		.word	.LANCHOR13
 370 002c 00000000 		.word	stage_time
 371 0030 00000000 		.word	block_time
 372              	.LBE2:
 373              		.cfi_endproc
 374              	.LFE48:
 376              		.global	__aeabi_i2f
 377              		.section	.text.nav_move_waypoint,"ax",%progbits
 378              		.align	1
 379              		.global	nav_move_waypoint
 380              		.thumb
 381              		.thumb_func
 383              	nav_move_waypoint:
 384              	.LFB49:
  99:./subsystems/navigation/common_nav.c **** }
 100:./subsystems/navigation/common_nav.c **** 
 101:./subsystems/navigation/common_nav.c **** void nav_move_waypoint(uint8_t wp_id, float ux, float uy, float alt) {
 385              		.loc 2 101 0
 386              		.cfi_startproc
 387              		@ args = 0, pretend = 0, frame = 0
 388              		@ frame_needed = 0, uses_anonymous_args = 0
 389              	.LVL5:
 102:./subsystems/navigation/common_nav.c ****   if (wp_id < nb_waypoint) {
 390              		.loc 2 102 0
 391 0000 0B28     		cmp	r0, #11
 101:./subsystems/navigation/common_nav.c **** void nav_move_waypoint(uint8_t wp_id, float ux, float uy, float alt) {
 392              		.loc 2 101 0
 393 0002 2DE9F047 		push	{r4, r5, r6, r7, r8, r9, sl, lr}
 394              	.LCFI3:
 395              		.cfi_def_cfa_offset 32
 101:./subsystems/navigation/common_nav.c **** void nav_move_waypoint(uint8_t wp_id, float ux, float uy, float alt) {
 396              		.loc 2 101 0
 397 0006 0446     		mov	r4, r0
 398              		.cfi_offset 14, -4
 399              		.cfi_offset 10, -8
 400              		.cfi_offset 9, -12
 401              		.cfi_offset 8, -16
 402              		.cfi_offset 7, -20
 403              		.cfi_offset 6, -24
 404              		.cfi_offset 5, -28
 405              		.cfi_offset 4, -32
 406 0008 0E46     		mov	r6, r1
 407 000a 1546     		mov	r5, r2
 408 000c 9A46     		mov	sl, r3
 409              		.loc 2 102 0
 410 000e 4ED8     		bhi	.L43
 411              	.LVL6:
 412              	.LBB3:
 103:./subsystems/navigation/common_nav.c ****     float dx, dy;
 104:./subsystems/navigation/common_nav.c ****     dx = ux - nav_utm_east0 - waypoints[WP_HOME].x;
 413              		.loc 2 104 0
 414 0010 284B     		ldr	r3, .L51
 415 0012 DFF8AC90 		ldr	r9, .L51+12
 416 0016 1868     		ldr	r0, [r3, #0]
 417 0018 FFF7FEFF 		bl	__aeabi_i2f
 418 001c D9F80C80 		ldr	r8, [r9, #12]	@ float
 419 0020 0146     		mov	r1, r0
 420 0022 3046     		mov	r0, r6
 421 0024 FFF7FEFF 		bl	__aeabi_fsub
 422 0028 4146     		mov	r1, r8
 423 002a FFF7FEFF 		bl	__aeabi_fsub
 105:./subsystems/navigation/common_nav.c ****     dy = uy - nav_utm_north0 - waypoints[WP_HOME].y;
 424              		.loc 2 105 0
 425 002e 224B     		ldr	r3, .L51+4
 104:./subsystems/navigation/common_nav.c ****     dx = ux - nav_utm_east0 - waypoints[WP_HOME].x;
 426              		.loc 2 104 0
 427 0030 0746     		mov	r7, r0
 428              	.LVL7:
 429              		.loc 2 105 0
 430 0032 1868     		ldr	r0, [r3, #0]
 431 0034 FFF7FEFF 		bl	__aeabi_i2f
 432 0038 0146     		mov	r1, r0
 433 003a 2846     		mov	r0, r5
 434 003c FFF7FEFF 		bl	__aeabi_fsub
 435 0040 D9F81010 		ldr	r1, [r9, #16]	@ float
 436 0044 FFF7FEFF 		bl	__aeabi_fsub
 106:./subsystems/navigation/common_nav.c ****     BoundAbs(dx, max_dist_from_home);
 437              		.loc 2 106 0
 438 0048 1C4B     		ldr	r3, .L51+8
 105:./subsystems/navigation/common_nav.c ****     dy = uy - nav_utm_north0 - waypoints[WP_HOME].y;
 439              		.loc 2 105 0
 440 004a 0646     		mov	r6, r0
 441              	.LVL8:
 442              		.loc 2 106 0
 443 004c 1D68     		ldr	r5, [r3, #0]	@ float
 444              	.LVL9:
 445 004e 3846     		mov	r0, r7
 446 0050 2946     		mov	r1, r5
 447 0052 FFF7FEFF 		bl	__aeabi_fcmpgt
 448 0056 08B1     		cbz	r0, .L48
 449 0058 2F46     		mov	r7, r5
 450 005a 07E0     		b	.L37
 451              	.L48:
 452 005c 05F10049 		add	r9, r5, #-2147483648
 453              	.LVL10:
 454 0060 3846     		mov	r0, r7
 455 0062 4946     		mov	r1, r9
 456 0064 FFF7FEFF 		bl	__aeabi_fcmplt
 457 0068 00B1     		cbz	r0, .L37
 458 006a 4F46     		mov	r7, r9
 459              	.LVL11:
 460              	.L37:
 107:./subsystems/navigation/common_nav.c ****     BoundAbs(dy, max_dist_from_home);
 461              		.loc 2 107 0
 462 006c 3046     		mov	r0, r6
 463 006e 2946     		mov	r1, r5
 464 0070 FFF7FEFF 		bl	__aeabi_fcmpgt
 465 0074 30B9     		cbnz	r0, .L50
 466              	.LVL12:
 467 0076 05F10045 		add	r5, r5, #-2147483648
 468              	.LVL13:
 469 007a 3046     		mov	r0, r6
 470 007c 2946     		mov	r1, r5
 471 007e FFF7FEFF 		bl	__aeabi_fcmplt
 472 0082 00B1     		cbz	r0, .L41
 473              	.LVL14:
 474              	.L50:
 475 0084 2E46     		mov	r6, r5
 476              	.LVL15:
 477              	.L41:
 108:./subsystems/navigation/common_nav.c ****     waypoints[wp_id].x = waypoints[WP_HOME].x + dx;
 478              		.loc 2 108 0
 479 0086 3946     		mov	r1, r7
 480 0088 4046     		mov	r0, r8
 481 008a FFF7FEFF 		bl	__aeabi_fadd
 482 008e 4FF00C09 		mov	r9, #12
 483 0092 09FB04F9 		mul	r9, r9, r4
 484 0096 0A4D     		ldr	r5, .L51+12
 485              	.LVL16:
 109:./subsystems/navigation/common_nav.c ****     waypoints[wp_id].y = waypoints[WP_HOME].y + dy;
 486              		.loc 2 109 0
 487 0098 3146     		mov	r1, r6
 108:./subsystems/navigation/common_nav.c ****     waypoints[wp_id].x = waypoints[WP_HOME].x + dx;
 488              		.loc 2 108 0
 489 009a 49F80500 		str	r0, [r9, r5]	@ float
 490              		.loc 2 109 0
 491 009e 2869     		ldr	r0, [r5, #16]	@ float
 492 00a0 FFF7FEFF 		bl	__aeabi_fadd
 108:./subsystems/navigation/common_nav.c ****     waypoints[wp_id].x = waypoints[WP_HOME].x + dx;
 493              		.loc 2 108 0
 494 00a4 09EB0504 		add	r4, r9, r5
 495              	.LVL17:
 496              		.loc 2 109 0
 497 00a8 6060     		str	r0, [r4, #4]	@ float
 110:./subsystems/navigation/common_nav.c ****     waypoints[wp_id].a = alt;
 498              		.loc 2 110 0
 499 00aa C4F808A0 		str	sl, [r4, #8]	@ float
 500              	.LVL18:
 501              	.L43:
 502 00ae BDE8F087 		pop	{r4, r5, r6, r7, r8, r9, sl, pc}
 503              	.L52:
 504 00b2 00BF     		.align	2
 505              	.L51:
 506 00b4 00000000 		.word	.LANCHOR14
 507 00b8 00000000 		.word	.LANCHOR15
 508 00bc 00000000 		.word	.LANCHOR16
 509 00c0 00000000 		.word	.LANCHOR8
 510              	.LBE3:
 511              		.cfi_endproc
 512              	.LFE49:
 514              		.section	.text.nav_set_altitude,"ax",%progbits
 515              		.align	1
 516              		.thumb
 517              		.thumb_func
 519              	nav_set_altitude:
 520              	.LFB50:
 315:subsystems/nav.c **** 
 316:subsystems/nav.c **** 
 317:subsystems/nav.c **** /**
 318:subsystems/nav.c ****  *  \brief Computes \a desired_x, \a desired_y and \a desired_course.
 319:subsystems/nav.c ****  */
 320:subsystems/nav.c **** //static inline void fly_to_xy(float x, float y) {
 321:subsystems/nav.c **** void fly_to_xy(float x, float y) {
 322:subsystems/nav.c ****   desired_x = x;
 323:subsystems/nav.c ****   desired_y = y;
 324:subsystems/nav.c ****   if (nav_mode == NAV_MODE_COURSE) {
 325:subsystems/nav.c ****     h_ctl_course_setpoint = atan2(x - estimator_x, y - estimator_y);
 326:subsystems/nav.c ****     if (h_ctl_course_setpoint < 0.)
 327:subsystems/nav.c ****       h_ctl_course_setpoint += 2 * M_PI;
 328:subsystems/nav.c ****     lateral_mode = LATERAL_MODE_COURSE;
 329:subsystems/nav.c ****   } else {
 330:subsystems/nav.c ****     float diff = atan2(x - estimator_x, y - estimator_y) - estimator_hspeed_dir;
 331:subsystems/nav.c ****     NormRadAngle(diff);
 332:subsystems/nav.c ****     BoundAbs(diff,M_PI/2.);
 333:subsystems/nav.c ****     float s = sin(diff);
 334:subsystems/nav.c ****     h_ctl_roll_setpoint = atan(2 * estimator_hspeed_mod*estimator_hspeed_mod * s * (-h_ctl_course_p
 335:subsystems/nav.c ****     BoundAbs(h_ctl_roll_setpoint, h_ctl_roll_max_setpoint);
 336:subsystems/nav.c ****     lateral_mode = LATERAL_MODE_ROLL;
 337:subsystems/nav.c ****   }
 338:subsystems/nav.c **** }
 339:subsystems/nav.c **** 
 340:subsystems/nav.c **** /**
 341:subsystems/nav.c ****  *  \brief Computes the carrot position along the desired segment.
 342:subsystems/nav.c ****  */
 343:subsystems/nav.c **** void nav_route_xy(float last_wp_x, float last_wp_y, float wp_x, float wp_y) {
 344:subsystems/nav.c ****   float leg_x = wp_x - last_wp_x;
 345:subsystems/nav.c ****   float leg_y = wp_y - last_wp_y;
 346:subsystems/nav.c ****   float leg2 = Max(leg_x * leg_x + leg_y * leg_y, 1.);
 347:subsystems/nav.c ****   nav_leg_progress = ((estimator_x - last_wp_x) * leg_x + (estimator_y - last_wp_y) * leg_y) / leg2
 348:subsystems/nav.c ****   nav_leg_length = sqrt(leg2);
 349:subsystems/nav.c **** 
 350:subsystems/nav.c ****   /** distance of carrot (in meter) */
 351:subsystems/nav.c ****   float carrot = CARROT * NOMINAL_AIRSPEED;
 352:subsystems/nav.c **** 
 353:subsystems/nav.c ****   nav_leg_progress += Max(carrot / nav_leg_length, 0.);
 354:subsystems/nav.c ****   nav_in_segment = TRUE;
 355:subsystems/nav.c ****   nav_segment_x_1 = last_wp_x;
 356:subsystems/nav.c ****   nav_segment_y_1 = last_wp_y;
 357:subsystems/nav.c ****   nav_segment_x_2 = wp_x;
 358:subsystems/nav.c ****   nav_segment_y_2 = wp_y;
 359:subsystems/nav.c ****   horizontal_mode = HORIZONTAL_MODE_ROUTE;
 360:subsystems/nav.c **** 
 361:subsystems/nav.c ****   fly_to_xy(last_wp_x + nav_leg_progress*leg_x +nav_shift*leg_y/nav_leg_length, last_wp_y + nav_leg
 362:subsystems/nav.c **** }
 363:subsystems/nav.c **** 
 364:subsystems/nav.c **** #include "subsystems/navigation/common_nav.c"
 365:subsystems/nav.c **** 
 366:subsystems/nav.c **** #ifndef FAILSAFE_HOME_RADIUS
 367:subsystems/nav.c **** #define FAILSAFE_HOME_RADIUS DEFAULT_CIRCLE_RADIUS
 368:subsystems/nav.c **** #endif
 369:subsystems/nav.c **** 
 370:subsystems/nav.c **** static void nav_set_altitude(void) {
 521              		.loc 1 370 0
 522              		.cfi_startproc
 523              		@ args = 0, pretend = 0, frame = 0
 524              		@ frame_needed = 0, uses_anonymous_args = 0
 525 0000 38B5     		push	{r3, r4, r5, lr}
 526              	.LCFI4:
 527              		.cfi_def_cfa_offset 16
 371:subsystems/nav.c ****   static float last_nav_altitude;
 372:subsystems/nav.c ****   if (fabs(nav_altitude - last_nav_altitude) > 1.) {
 528              		.loc 1 372 0
 529 0002 0B4B     		ldr	r3, .L58
 530              		.cfi_offset 14, -4
 531              		.cfi_offset 5, -8
 532              		.cfi_offset 4, -12
 533              		.cfi_offset 3, -16
 534 0004 0B4D     		ldr	r5, .L58+4
 535 0006 1C68     		ldr	r4, [r3, #0]	@ float
 536 0008 2968     		ldr	r1, [r5, #0]	@ float
 537 000a 2046     		mov	r0, r4
 538 000c FFF7FEFF 		bl	__aeabi_fsub
 539 0010 4FF07E51 		mov	r1, #1065353216
 540 0014 20F00040 		bic	r0, r0, #-2147483648
 541 0018 FFF7FEFF 		bl	__aeabi_fcmpgt
 542 001c 10B1     		cbz	r0, .L54
 373:subsystems/nav.c ****     flight_altitude = nav_altitude;
 543              		.loc 1 373 0
 544 001e 064B     		ldr	r3, .L58+8
 374:subsystems/nav.c ****     last_nav_altitude = nav_altitude;
 545              		.loc 1 374 0
 546 0020 2C60     		str	r4, [r5, #0]	@ float
 373:subsystems/nav.c ****     flight_altitude = nav_altitude;
 547              		.loc 1 373 0
 548 0022 1C60     		str	r4, [r3, #0]	@ float
 549              	.L54:
 375:subsystems/nav.c ****   }
 376:subsystems/nav.c ****   v_ctl_altitude_setpoint = flight_altitude;
 550              		.loc 1 376 0
 551 0024 044B     		ldr	r3, .L58+8
 552 0026 1A68     		ldr	r2, [r3, #0]	@ float
 553 0028 044B     		ldr	r3, .L58+12
 554 002a 1A60     		str	r2, [r3, #0]	@ float
 377:subsystems/nav.c **** }
 555              		.loc 1 377 0
 556 002c 38BD     		pop	{r3, r4, r5, pc}
 557              	.L59:
 558 002e 00BF     		.align	2
 559              	.L58:
 560 0030 00000000 		.word	.LANCHOR17
 561 0034 00000000 		.word	.LANCHOR18
 562 0038 00000000 		.word	.LANCHOR19
 563 003c 00000000 		.word	v_ctl_altitude_setpoint
 564              		.cfi_endproc
 565              	.LFE50:
 567              		.section	.text.nav_init,"ax",%progbits
 568              		.align	1
 569              		.global	nav_init
 570              		.thumb
 571              		.thumb_func
 573              	nav_init:
 574              	.LFB53:
 378:subsystems/nav.c **** 
 379:subsystems/nav.c **** /** \brief Home mode navigation (circle around HOME) */
 380:subsystems/nav.c **** void nav_home(void) {
 381:subsystems/nav.c ****   NavCircleWaypoint(WP_HOME, FAILSAFE_HOME_RADIUS);
 382:subsystems/nav.c ****   /** Nominal speed */
 383:subsystems/nav.c ****   nav_pitch = 0.;
 384:subsystems/nav.c ****   v_ctl_mode = V_CTL_MODE_AUTO_ALT;
 385:subsystems/nav.c ****   nav_altitude = ground_alt+SECURITY_HEIGHT;
 386:subsystems/nav.c ****   compute_dist2_to_home();
 387:subsystems/nav.c ****   dist2_to_wp = dist2_to_home;
 388:subsystems/nav.c ****   nav_set_altitude();
 389:subsystems/nav.c **** }
 390:subsystems/nav.c **** 
 391:subsystems/nav.c **** /**
 392:subsystems/nav.c ****  *  \brief Navigation main: call to the code generated from the XML flight
 393:subsystems/nav.c ****  * plan
 394:subsystems/nav.c ****  */
 395:subsystems/nav.c **** void nav_periodic_task(void) {
 396:subsystems/nav.c ****   nav_survey_active = FALSE;
 397:subsystems/nav.c **** 
 398:subsystems/nav.c ****   compute_dist2_to_home();
 399:subsystems/nav.c ****   dist2_to_wp = 0.;
 400:subsystems/nav.c **** 
 401:subsystems/nav.c ****   auto_nav(); /* From flight_plan.h */
 402:subsystems/nav.c **** 
 403:subsystems/nav.c ****   h_ctl_course_pre_bank = nav_in_circle ? circle_bank : 0;
 404:subsystems/nav.c **** 
 405:subsystems/nav.c **** #ifdef AGR_CLIMB
 406:subsystems/nav.c ****   if ( v_ctl_mode == V_CTL_MODE_AUTO_CLIMB)
 407:subsystems/nav.c ****     v_ctl_auto_throttle_submode =  V_CTL_AUTO_THROTTLE_STANDARD;
 408:subsystems/nav.c **** #endif
 409:subsystems/nav.c **** 
 410:subsystems/nav.c ****   nav_set_altitude();
 411:subsystems/nav.c **** }
 412:subsystems/nav.c **** 
 413:subsystems/nav.c **** 
 414:subsystems/nav.c **** /**
 415:subsystems/nav.c ****  *  \brief Navigation Initialisation
 416:subsystems/nav.c ****  */
 417:subsystems/nav.c **** void nav_init(void) {
 575              		.loc 1 417 0
 576              		.cfi_startproc
 577              		@ args = 0, pretend = 0, frame = 0
 578              		@ frame_needed = 0, uses_anonymous_args = 0
 579              		@ link register save eliminated.
 418:subsystems/nav.c ****   nav_block = 0;
 580              		.loc 1 418 0
 581 0000 094A     		ldr	r2, .L62
 582 0002 0023     		movs	r3, #0
 583 0004 1370     		strb	r3, [r2, #0]
 419:subsystems/nav.c ****   nav_stage = 0;
 584              		.loc 1 419 0
 585 0006 094A     		ldr	r2, .L62+4
 586 0008 1370     		strb	r3, [r2, #0]
 420:subsystems/nav.c ****   ground_alt = GROUND_ALT;
 587              		.loc 1 420 0
 588 000a 094A     		ldr	r2, .L62+8
 589 000c 0023     		movs	r3, #0
 590 000e 1360     		str	r3, [r2, #0]	@ float
 421:subsystems/nav.c ****   nav_glide_pitch_trim = NAV_GLIDE_PITCH_TRIM;
 591              		.loc 1 421 0
 592 0010 084A     		ldr	r2, .L62+12
 593 0012 1360     		str	r3, [r2, #0]	@ float
 422:subsystems/nav.c ****   nav_radius = DEFAULT_CIRCLE_RADIUS;
 594              		.loc 1 422 0
 595 0014 084A     		ldr	r2, .L62+16
 596 0016 094B     		ldr	r3, .L62+20
 597 0018 1A60     		str	r2, [r3, #0]	@ float
 423:subsystems/nav.c ****   nav_survey_shift = 2*DEFAULT_CIRCLE_RADIUS;
 598              		.loc 1 423 0
 599 001a 094A     		ldr	r2, .L62+24
 600 001c 094B     		ldr	r3, .L62+28
 601 001e 1A60     		str	r2, [r3, #0]	@ float
 424:subsystems/nav.c ****   nav_mode = NAV_MODE_COURSE;
 602              		.loc 1 424 0
 603 0020 094B     		ldr	r3, .L62+32
 604 0022 0222     		movs	r2, #2
 605 0024 1A60     		str	r2, [r3, #0]
 425:subsystems/nav.c **** 
 426:subsystems/nav.c **** #ifdef NAV_GROUND_SPEED_PGAIN
 427:subsystems/nav.c ****   nav_ground_speed_pgain = NAV_GROUND_SPEED_PGAIN;
 428:subsystems/nav.c ****   nav_ground_speed_setpoint = NOMINAL_AIRSPEED;
 429:subsystems/nav.c **** #endif
 430:subsystems/nav.c **** }
 606              		.loc 1 430 0
 607 0026 7047     		bx	lr
 608              	.L63:
 609              		.align	2
 610              	.L62:
 611 0028 00000000 		.word	nav_block
 612 002c 00000000 		.word	nav_stage
 613 0030 00000000 		.word	.LANCHOR11
 614 0034 00000000 		.word	.LANCHOR20
 615 0038 00004842 		.word	1112014848
 616 003c 00000000 		.word	.LANCHOR21
 617 0040 0000C842 		.word	1120403456
 618 0044 00000000 		.word	.LANCHOR22
 619 0048 00000000 		.word	.LANCHOR23
 620              		.cfi_endproc
 621              	.LFE53:
 623              		.section	.text.nav_without_gps,"ax",%progbits
 624              		.align	1
 625              		.global	nav_without_gps
 626              		.thumb
 627              		.thumb_func
 629              	nav_without_gps:
 630              	.LFB54:
 431:subsystems/nav.c **** 
 432:subsystems/nav.c **** /**
 433:subsystems/nav.c ****  *  \brief Failsafe navigation without position estimation
 434:subsystems/nav.c ****  *
 435:subsystems/nav.c ****  * Just set attitude and throttle to FAILSAFE values
 436:subsystems/nav.c ****  * to prevent the plane from crashing.
 437:subsystems/nav.c ****  */
 438:subsystems/nav.c **** void nav_without_gps(void) {
 631              		.loc 1 438 0
 632              		.cfi_startproc
 633              		@ args = 0, pretend = 0, frame = 0
 634              		@ frame_needed = 0, uses_anonymous_args = 0
 635              		@ link register save eliminated.
 439:subsystems/nav.c ****   lateral_mode = LATERAL_MODE_ROLL;
 636              		.loc 1 439 0
 637 0000 084B     		ldr	r3, .L66
 638 0002 0222     		movs	r2, #2
 639 0004 1A70     		strb	r2, [r3, #0]
 440:subsystems/nav.c ****   v_ctl_mode = V_CTL_MODE_AUTO_THROTTLE;
 640              		.loc 1 440 0
 641 0006 084B     		ldr	r3, .L66+4
 642 0008 013A     		subs	r2, r2, #1
 643 000a 1A70     		strb	r2, [r3, #0]
 441:subsystems/nav.c **** 
 442:subsystems/nav.c **** #ifdef SECTION_FAILSAFE
 443:subsystems/nav.c ****   h_ctl_roll_setpoint = FAILSAFE_DEFAULT_ROLL;
 644              		.loc 1 443 0
 645 000c 074A     		ldr	r2, .L66+8
 646 000e 084B     		ldr	r3, .L66+12
 647 0010 1A60     		str	r2, [r3, #0]	@ float
 444:subsystems/nav.c ****   nav_pitch = FAILSAFE_DEFAULT_PITCH;
 648              		.loc 1 444 0
 649 0012 084B     		ldr	r3, .L66+16
 650 0014 4FF07C52 		mov	r2, #1056964608
 651 0018 1A60     		str	r2, [r3, #0]	@ float
 445:subsystems/nav.c ****   nav_throttle_setpoint = TRIM_UPPRZ((FAILSAFE_DEFAULT_THROTTLE)*MAX_PPRZ);
 652              		.loc 1 445 0
 653 001a 074B     		ldr	r3, .L66+20
 654 001c 4FF43462 		mov	r2, #2880	@ movhi
 655 0020 1A80     		strh	r2, [r3, #0]	@ movhi
 446:subsystems/nav.c **** #else
 447:subsystems/nav.c ****   h_ctl_roll_setpoint = 0;
 448:subsystems/nav.c ****   nav_pitch = 0;
 449:subsystems/nav.c ****   nav_throttle_setpoint = TRIM_UPPRZ((V_CTL_AUTO_THROTTLE_NOMINAL_CRUISE_THROTTLE)*MAX_PPRZ);
 450:subsystems/nav.c **** #endif
 451:subsystems/nav.c **** }
 656              		.loc 1 451 0
 657 0022 7047     		bx	lr
 658              	.L67:
 659              		.align	2
 660              	.L66:
 661 0024 00000000 		.word	lateral_mode
 662 0028 00000000 		.word	v_ctl_mode
 663 002c 9A99993E 		.word	1050253722
 664 0030 00000000 		.word	h_ctl_roll_setpoint
 665 0034 00000000 		.word	.LANCHOR6
 666 0038 00000000 		.word	.LANCHOR24
 667              		.cfi_endproc
 668              	.LFE54:
 670              		.section	.text.nav_eight_init,"ax",%progbits
 671              		.align	1
 672              		.global	nav_eight_init
 673              		.thumb
 674              		.thumb_func
 676              	nav_eight_init:
 677              	.LFB55:
 452:subsystems/nav.c **** 
 453:subsystems/nav.c **** 
 454:subsystems/nav.c **** /**************** 8 Navigation **********************************************/
 455:subsystems/nav.c **** 
 456:subsystems/nav.c **** 
 457:subsystems/nav.c **** enum eight_status { R1T, RT2, C2, R2T, RT1, C1 };
 458:subsystems/nav.c **** 
 459:subsystems/nav.c **** static enum eight_status eight_status;
 460:subsystems/nav.c **** void nav_eight_init( void ) {
 678              		.loc 1 460 0
 679              		.cfi_startproc
 680              		@ args = 0, pretend = 0, frame = 0
 681              		@ frame_needed = 0, uses_anonymous_args = 0
 682              		@ link register save eliminated.
 461:subsystems/nav.c ****   eight_status = C1;
 683              		.loc 1 461 0
 684 0000 014B     		ldr	r3, .L70
 685 0002 0522     		movs	r2, #5
 686 0004 1A70     		strb	r2, [r3, #0]
 462:subsystems/nav.c **** }
 687              		.loc 1 462 0
 688 0006 7047     		bx	lr
 689              	.L71:
 690              		.align	2
 691              	.L70:
 692 0008 00000000 		.word	.LANCHOR25
 693              		.cfi_endproc
 694              	.LFE55:
 696              		.section	.text.nav_oval_init,"ax",%progbits
 697              		.align	1
 698              		.global	nav_oval_init
 699              		.thumb
 700              		.thumb_func
 702              	nav_oval_init:
 703              	.LFB57:
 463:subsystems/nav.c **** 
 464:subsystems/nav.c **** /** Navigation along a figure 8. The cross center is defined by the waypoint
 465:subsystems/nav.c ****     [target], the center of one of the circles is defined by [c1]. Altitude is
 466:subsystems/nav.c ****     given by [target].
 467:subsystems/nav.c ****     The navigation goes through 6 states: C1 (circle around [c1]), R1T, RT2
 468:subsystems/nav.c ****     (route from circle 1 to circle 2 over [target]), C2 and R2T, RT1.
 469:subsystems/nav.c ****     If necessary, the [c1] waypoint is moved in the direction of [target]
 470:subsystems/nav.c ****     to be not far than [2*radius].
 471:subsystems/nav.c **** */
 472:subsystems/nav.c **** void nav_eight(uint8_t target, uint8_t c1, float radius) {
 473:subsystems/nav.c ****   float aradius = fabs(radius);
 474:subsystems/nav.c ****   float alt = waypoints[target].a;
 475:subsystems/nav.c ****   waypoints[c1].a = alt;
 476:subsystems/nav.c **** 
 477:subsystems/nav.c ****   float target_c1_x = waypoints[c1].x - waypoints[target].x;
 478:subsystems/nav.c ****   float target_c1_y = waypoints[c1].y - waypoints[target].y;
 479:subsystems/nav.c ****   float d = sqrt(target_c1_x*target_c1_x+target_c1_y*target_c1_y);
 480:subsystems/nav.c ****   d = Max(d, 1.); /* To prevent a division by zero */
 481:subsystems/nav.c **** 
 482:subsystems/nav.c ****   /* Unit vector from target to c1 */
 483:subsystems/nav.c ****   float u_x = target_c1_x / d;
 484:subsystems/nav.c ****   float u_y = target_c1_y / d;
 485:subsystems/nav.c **** 
 486:subsystems/nav.c ****   /* Move [c1] closer if needed */
 487:subsystems/nav.c ****   if (d > 2 * aradius) {
 488:subsystems/nav.c ****     d = 2*aradius;
 489:subsystems/nav.c ****     waypoints[c1].x = waypoints[target].x + d*u_x;
 490:subsystems/nav.c ****     waypoints[c1].y = waypoints[target].y + d*u_y;
 491:subsystems/nav.c ****   }
 492:subsystems/nav.c **** 
 493:subsystems/nav.c ****   /* The other center */
 494:subsystems/nav.c ****   struct point c2 = {
 495:subsystems/nav.c ****     waypoints[target].x - d*u_x,
 496:subsystems/nav.c ****     waypoints[target].y - d*u_y,
 497:subsystems/nav.c ****     alt };
 498:subsystems/nav.c **** 
 499:subsystems/nav.c ****   struct point c1_in = {
 500:subsystems/nav.c ****     waypoints[c1].x + radius * -u_y,
 501:subsystems/nav.c ****     waypoints[c1].y + radius * u_x,
 502:subsystems/nav.c ****     alt };
 503:subsystems/nav.c ****   struct point c1_out = {
 504:subsystems/nav.c ****     waypoints[c1].x - radius * -u_y,
 505:subsystems/nav.c ****     waypoints[c1].y - radius * u_x,
 506:subsystems/nav.c ****     alt };
 507:subsystems/nav.c **** 
 508:subsystems/nav.c ****   struct point c2_in = {
 509:subsystems/nav.c ****     c2.x + radius * -u_y,
 510:subsystems/nav.c ****     c2.y + radius * u_x,
 511:subsystems/nav.c ****     alt };
 512:subsystems/nav.c ****   struct point c2_out = {
 513:subsystems/nav.c ****     c2.x - radius * -u_y,
 514:subsystems/nav.c ****     c2.y - radius * u_x,
 515:subsystems/nav.c ****     alt };
 516:subsystems/nav.c **** 
 517:subsystems/nav.c ****   float qdr_out = M_PI - atan2(u_y, u_x);
 518:subsystems/nav.c ****   if (radius < 0)
 519:subsystems/nav.c ****     qdr_out += M_PI;
 520:subsystems/nav.c **** 
 521:subsystems/nav.c ****   switch (eight_status) {
 522:subsystems/nav.c ****   case C1 :
 523:subsystems/nav.c ****     NavCircleWaypoint(c1, radius);
 524:subsystems/nav.c ****     if (NavQdrCloseTo(DegOfRad(qdr_out)-10)) {
 525:subsystems/nav.c ****       eight_status = R1T;
 526:subsystems/nav.c ****       InitStage();
 527:subsystems/nav.c ****     }
 528:subsystems/nav.c ****     return;
 529:subsystems/nav.c **** 
 530:subsystems/nav.c ****   case R1T:
 531:subsystems/nav.c ****     nav_route_xy(c1_out.x, c1_out.y, c2_in.x, c2_in.y);
 532:subsystems/nav.c ****     if (nav_approaching_xy(waypoints[target].x, waypoints[target].y, c1_out.x, c1_out.y, 0)) {
 533:subsystems/nav.c ****       eight_status = RT2;
 534:subsystems/nav.c ****       InitStage();
 535:subsystems/nav.c ****     }
 536:subsystems/nav.c ****     return;
 537:subsystems/nav.c **** 
 538:subsystems/nav.c ****   case RT2:
 539:subsystems/nav.c ****     nav_route_xy(c1_out.x, c1_out.y, c2_in.x, c2_in.y);
 540:subsystems/nav.c ****     if (nav_approaching_xy(c2_in.x, c2_in.y, c1_out.x, c1_out.y, CARROT)) {
 541:subsystems/nav.c ****       eight_status = C2;
 542:subsystems/nav.c ****       InitStage();
 543:subsystems/nav.c ****     }
 544:subsystems/nav.c ****     return;
 545:subsystems/nav.c **** 
 546:subsystems/nav.c ****   case C2 :
 547:subsystems/nav.c ****     nav_circle_XY(c2.x, c2.y, -radius);
 548:subsystems/nav.c ****     if (NavQdrCloseTo(DegOfRad(qdr_out)+10)) {
 549:subsystems/nav.c ****       eight_status = R2T;
 550:subsystems/nav.c ****       InitStage();
 551:subsystems/nav.c ****     }
 552:subsystems/nav.c ****     return;
 553:subsystems/nav.c **** 
 554:subsystems/nav.c ****   case R2T:
 555:subsystems/nav.c ****     nav_route_xy(c2_out.x, c2_out.y, c1_in.x, c1_in.y);
 556:subsystems/nav.c ****     if (nav_approaching_xy(waypoints[target].x, waypoints[target].y, c2_out.x, c2_out.y, 0)) {
 557:subsystems/nav.c ****       eight_status = RT1;
 558:subsystems/nav.c ****       InitStage();
 559:subsystems/nav.c ****     }
 560:subsystems/nav.c ****     return;
 561:subsystems/nav.c **** 
 562:subsystems/nav.c ****   case RT1:
 563:subsystems/nav.c ****     nav_route_xy(c2_out.x, c2_out.y, c1_in.x, c1_in.y);
 564:subsystems/nav.c ****     if (nav_approaching_xy(c1_in.x, c1_in.y, c2_out.x, c2_out.y, CARROT)) {
 565:subsystems/nav.c ****       eight_status = C1;
 566:subsystems/nav.c ****       InitStage();
 567:subsystems/nav.c ****     }
 568:subsystems/nav.c ****     return;
 569:subsystems/nav.c **** 
 570:subsystems/nav.c ****   default:/* Should not occur !!! Doing nothing */
 571:subsystems/nav.c ****     return;
 572:subsystems/nav.c ****   } /* switch */
 573:subsystems/nav.c **** }
 574:subsystems/nav.c **** 
 575:subsystems/nav.c **** /************** Oval Navigation **********************************************/
 576:subsystems/nav.c **** 
 577:subsystems/nav.c **** /** Navigation along a figure O. One side leg is defined by waypoints [p1] and
 578:subsystems/nav.c ****     [p2].
 579:subsystems/nav.c ****     The navigation goes through 4 states: OC1 (half circle next to [p1]),
 580:subsystems/nav.c ****     OR21 (route [p2] to [p1], OC2 (half circle next to [p2]) and OR12
 581:subsystems/nav.c ****     (opposite leg).
 582:subsystems/nav.c **** 
 583:subsystems/nav.c ****     Initial state is the route along the desired segment (OC2).
 584:subsystems/nav.c **** */
 585:subsystems/nav.c **** 
 586:subsystems/nav.c **** uint8_t nav_oval_count;
 587:subsystems/nav.c **** 
 588:subsystems/nav.c **** void nav_oval_init( void ) {
 704              		.loc 1 588 0
 705              		.cfi_startproc
 706              		@ args = 0, pretend = 0, frame = 0
 707              		@ frame_needed = 0, uses_anonymous_args = 0
 708              		@ link register save eliminated.
 589:subsystems/nav.c ****   oval_status = OC2;
 709              		.loc 1 589 0
 710 0000 034B     		ldr	r3, .L74
 711 0002 0122     		movs	r2, #1
 712 0004 1A70     		strb	r2, [r3, #0]
 590:subsystems/nav.c ****   nav_oval_count = 0;
 713              		.loc 1 590 0
 714 0006 034B     		ldr	r3, .L74+4
 715 0008 013A     		subs	r2, r2, #1
 716 000a 1A70     		strb	r2, [r3, #0]
 591:subsystems/nav.c **** }
 717              		.loc 1 591 0
 718 000c 7047     		bx	lr
 719              	.L75:
 720 000e 00BF     		.align	2
 721              	.L74:
 722 0010 00000000 		.word	.LANCHOR26
 723 0014 00000000 		.word	.LANCHOR27
 724              		.cfi_endproc
 725              	.LFE57:
 727              		.global	__aeabi_i2d
 728              		.global	__aeabi_ddiv
 729              		.global	__aeabi_dmul
 730              		.global	__aeabi_dadd
 731              		.global	__aeabi_d2uiz
 732              		.global	__aeabi_d2f
 733              		.global	__aeabi_f2iz
 734              		.section	.text.nav_reset_reference,"ax",%progbits
 735              		.align	1
 736              		.global	nav_reset_reference
 737              		.thumb
 738              		.thumb_func
 740              	nav_reset_reference:
 741              	.LFB46:
  63:./subsystems/navigation/common_nav.c **** unit_t nav_reset_reference( void ) {
 742              		.loc 2 63 0
 743              		.cfi_startproc
 744              		@ args = 0, pretend = 0, frame = 32
 745              		@ frame_needed = 0, uses_anonymous_args = 0
 746 0000 F0B5     		push	{r4, r5, r6, r7, lr}
 747              	.LCFI5:
 748              		.cfi_def_cfa_offset 20
  66:./subsystems/navigation/common_nav.c ****   nav_utm_zone0 = (DegOfRad(gps.lla_pos.lon/1e7)+180) / 6 + 1;
 749              		.loc 2 66 0
 750 0002 334C     		ldr	r4, .L78+32
 751              		.cfi_offset 14, -4
 752              		.cfi_offset 7, -8
 753              		.cfi_offset 6, -12
 754              		.cfi_offset 5, -16
 755              		.cfi_offset 4, -20
  63:./subsystems/navigation/common_nav.c **** unit_t nav_reset_reference( void ) {
 756              		.loc 2 63 0
 757 0004 89B0     		sub	sp, sp, #36
 758              	.LCFI6:
 759              		.cfi_def_cfa_offset 56
  66:./subsystems/navigation/common_nav.c ****   nav_utm_zone0 = (DegOfRad(gps.lla_pos.lon/1e7)+180) / 6 + 1;
 760              		.loc 2 66 0
 761 0006 E068     		ldr	r0, [r4, #12]
 762 0008 FFF7FEFF 		bl	__aeabi_i2d
 763 000c 28A3     		adr	r3, .L78
 764 000e D3E90023 		ldrd	r2, [r3]
 765 0012 FFF7FEFF 		bl	__aeabi_ddiv
 766 0016 28A3     		adr	r3, .L78+8
 767 0018 D3E90023 		ldrd	r2, [r3]
 768 001c 0646     		mov	r6, r0
 769 001e 0F46     		mov	r7, r1
 770 0020 FFF7FEFF 		bl	__aeabi_dmul
 771 0024 26A3     		adr	r3, .L78+16
 772 0026 D3E90023 		ldrd	r2, [r3]
 773 002a FFF7FEFF 		bl	__aeabi_dadd
 774 002e 0022     		movs	r2, #0
 775 0030 284B     		ldr	r3, .L78+36
 776 0032 FFF7FEFF 		bl	__aeabi_ddiv
 777 0036 0022     		movs	r2, #0
 778 0038 274B     		ldr	r3, .L78+40
 779 003a FFF7FEFF 		bl	__aeabi_dadd
 780 003e FFF7FEFF 		bl	__aeabi_d2uiz
 781 0042 264B     		ldr	r3, .L78+44
 782 0044 C5B2     		uxtb	r5, r0
 783 0046 1D70     		strb	r5, [r3, #0]
  70:./subsystems/navigation/common_nav.c ****   lla.lat = gps.lla_pos.lat/1e7;
 784              		.loc 2 70 0
 785 0048 2069     		ldr	r0, [r4, #16]
 786 004a FFF7FEFF 		bl	__aeabi_i2d
 787 004e 18A3     		adr	r3, .L78
 788 0050 D3E90023 		ldrd	r2, [r3]
 789 0054 FFF7FEFF 		bl	__aeabi_ddiv
 790 0058 FFF7FEFF 		bl	__aeabi_d2f
  71:./subsystems/navigation/common_nav.c ****   lla.lon = gps.lla_pos.lon/1e7;
 791              		.loc 2 71 0
 792 005c 3946     		mov	r1, r7
  70:./subsystems/navigation/common_nav.c ****   lla.lat = gps.lla_pos.lat/1e7;
 793              		.loc 2 70 0
 794 005e 0690     		str	r0, [sp, #24]	@ float
  71:./subsystems/navigation/common_nav.c ****   lla.lon = gps.lla_pos.lon/1e7;
 795              		.loc 2 71 0
 796 0060 3046     		mov	r0, r6
 797 0062 FFF7FEFF 		bl	__aeabi_d2f
  74:./subsystems/navigation/common_nav.c ****   utm_of_lla_f(&utm, &lla);
 798              		.loc 2 74 0
 799 0066 05A9     		add	r1, sp, #20
  71:./subsystems/navigation/common_nav.c ****   lla.lon = gps.lla_pos.lon/1e7;
 800              		.loc 2 71 0
 801 0068 0590     		str	r0, [sp, #20]	@ float
  74:./subsystems/navigation/common_nav.c ****   utm_of_lla_f(&utm, &lla);
 802              		.loc 2 74 0
 803 006a 01A8     		add	r0, sp, #4
  73:./subsystems/navigation/common_nav.c ****   utm.zone = nav_utm_zone0;
 804              		.loc 2 73 0
 805 006c 8DF81050 		strb	r5, [sp, #16]
  74:./subsystems/navigation/common_nav.c ****   utm_of_lla_f(&utm, &lla);
 806              		.loc 2 74 0
 807 0070 FFF7FEFF 		bl	utm_of_lla_f
  75:./subsystems/navigation/common_nav.c ****   nav_utm_east0 = utm.east;
 808              		.loc 2 75 0
 809 0074 0298     		ldr	r0, [sp, #8]	@ float
 810 0076 FFF7FEFF 		bl	__aeabi_f2iz
 811 007a 194B     		ldr	r3, .L78+48
  83:./subsystems/navigation/common_nav.c ****   previous_ground_alt = ground_alt;
 812              		.loc 2 83 0
 813 007c 194D     		ldr	r5, .L78+52
  75:./subsystems/navigation/common_nav.c ****   nav_utm_east0 = utm.east;
 814              		.loc 2 75 0
 815 007e 1860     		str	r0, [r3, #0]
  76:./subsystems/navigation/common_nav.c ****   nav_utm_north0 = utm.north;
 816              		.loc 2 76 0
 817 0080 0198     		ldr	r0, [sp, #4]	@ float
 818 0082 FFF7FEFF 		bl	__aeabi_f2iz
 819 0086 184B     		ldr	r3, .L78+56
  83:./subsystems/navigation/common_nav.c ****   previous_ground_alt = ground_alt;
 820              		.loc 2 83 0
 821 0088 2A68     		ldr	r2, [r5, #0]	@ float
  76:./subsystems/navigation/common_nav.c ****   nav_utm_north0 = utm.north;
 822              		.loc 2 76 0
 823 008a 1860     		str	r0, [r3, #0]
  83:./subsystems/navigation/common_nav.c ****   previous_ground_alt = ground_alt;
 824              		.loc 2 83 0
 825 008c 174B     		ldr	r3, .L78+60
  84:./subsystems/navigation/common_nav.c ****   ground_alt = gps.hmsl/1000.;
 826              		.loc 2 84 0
 827 008e A06A     		ldr	r0, [r4, #40]
  83:./subsystems/navigation/common_nav.c ****   previous_ground_alt = ground_alt;
 828              		.loc 2 83 0
 829 0090 1A60     		str	r2, [r3, #0]	@ float
  84:./subsystems/navigation/common_nav.c ****   ground_alt = gps.hmsl/1000.;
 830              		.loc 2 84 0
 831 0092 FFF7FEFF 		bl	__aeabi_i2d
 832 0096 0CA3     		adr	r3, .L78+24
 833 0098 D3E90023 		ldrd	r2, [r3]
 834 009c FFF7FEFF 		bl	__aeabi_ddiv
 835 00a0 FFF7FEFF 		bl	__aeabi_d2f
 836 00a4 2860     		str	r0, [r5, #0]	@ float
  86:./subsystems/navigation/common_nav.c **** }
 837              		.loc 2 86 0
 838 00a6 0020     		movs	r0, #0
 839 00a8 09B0     		add	sp, sp, #36
 840 00aa F0BD     		pop	{r4, r5, r6, r7, pc}
 841              	.L79:
 842 00ac AFF30080 		.align	3
 843              	.L78:
 844 00b0 00000000 		.word	0
 845 00b4 D0126341 		.word	1097011920
 846 00b8 F8C1631A 		.word	442745336
 847 00bc DCA54C40 		.word	1078765020
 848 00c0 00000000 		.word	0
 849 00c4 00806640 		.word	1080459264
 850 00c8 00000000 		.word	0
 851 00cc 00408F40 		.word	1083129856
 852 00d0 00000000 		.word	gps
 853 00d4 00001840 		.word	1075314688
 854 00d8 0000F03F 		.word	1072693248
 855 00dc 00000000 		.word	.LANCHOR28
 856 00e0 00000000 		.word	.LANCHOR14
 857 00e4 00000000 		.word	.LANCHOR11
 858 00e8 00000000 		.word	.LANCHOR15
 859 00ec 00000000 		.word	.LANCHOR12
 860              		.cfi_endproc
 861              	.LFE46:
 863              		.global	__aeabi_f2d
 864              		.global	__aeabi_dsub
 865              		.global	__aeabi_dcmpgt
 866              		.global	__aeabi_dcmplt
 867              		.section	.text.fly_to_xy,"ax",%progbits
 868              		.align	1
 869              		.global	fly_to_xy
 870              		.thumb
 871              		.thumb_func
 873              	fly_to_xy:
 874              	.LFB41:
 321:subsystems/nav.c **** void fly_to_xy(float x, float y) {
 875              		.loc 1 321 0
 876              		.cfi_startproc
 877              		@ args = 0, pretend = 0, frame = 0
 878              		@ frame_needed = 0, uses_anonymous_args = 0
 879              	.LVL19:
 880 0000 F8B5     		push	{r3, r4, r5, r6, r7, lr}
 881              	.LCFI7:
 882              		.cfi_def_cfa_offset 24
 322:subsystems/nav.c ****   desired_x = x;
 883              		.loc 1 322 0
 884 0002 734B     		ldr	r3, .L108+48
 885              		.cfi_offset 14, -4
 886              		.cfi_offset 7, -8
 887              		.cfi_offset 6, -12
 888              		.cfi_offset 5, -16
 889              		.cfi_offset 4, -20
 890              		.cfi_offset 3, -24
 321:subsystems/nav.c **** void fly_to_xy(float x, float y) {
 891              		.loc 1 321 0
 892 0004 0C46     		mov	r4, r1
 322:subsystems/nav.c ****   desired_x = x;
 893              		.loc 1 322 0
 894 0006 1860     		str	r0, [r3, #0]	@ float
 323:subsystems/nav.c ****   desired_y = y;
 895              		.loc 1 323 0
 896 0008 724B     		ldr	r3, .L108+52
 897 000a 734D     		ldr	r5, .L108+56
 898 000c 1960     		str	r1, [r3, #0]	@ float
 324:subsystems/nav.c ****   if (nav_mode == NAV_MODE_COURSE) {
 899              		.loc 1 324 0
 900 000e 734B     		ldr	r3, .L108+60
 901 0010 1B68     		ldr	r3, [r3, #0]
 902 0012 022B     		cmp	r3, #2
 903 0014 724B     		ldr	r3, .L108+64
 904 0016 28D1     		bne	.L81
 325:subsystems/nav.c ****     h_ctl_course_setpoint = atan2(x - estimator_x, y - estimator_y);
 905              		.loc 1 325 0
 906 0018 1968     		ldr	r1, [r3, #0]	@ float
 907              	.LVL20:
 908 001a FFF7FEFF 		bl	__aeabi_fsub
 909              	.LVL21:
 910 001e FFF7FEFF 		bl	__aeabi_f2d
 911 0022 0646     		mov	r6, r0
 912 0024 0F46     		mov	r7, r1
 913 0026 2046     		mov	r0, r4
 914 0028 2968     		ldr	r1, [r5, #0]	@ float
 915 002a FFF7FEFF 		bl	__aeabi_fsub
 916 002e FFF7FEFF 		bl	__aeabi_f2d
 917 0032 0246     		mov	r2, r0
 918 0034 0B46     		mov	r3, r1
 919 0036 3046     		mov	r0, r6
 920 0038 3946     		mov	r1, r7
 921 003a FFF7FEFF 		bl	atan2
 922 003e FFF7FEFF 		bl	__aeabi_d2f
 923 0042 684C     		ldr	r4, .L108+68
 924              	.LVL22:
 326:subsystems/nav.c ****     if (h_ctl_course_setpoint < 0.)
 925              		.loc 1 326 0
 926 0044 0021     		movs	r1, #0
 325:subsystems/nav.c ****     h_ctl_course_setpoint = atan2(x - estimator_x, y - estimator_y);
 927              		.loc 1 325 0
 928 0046 2060     		str	r0, [r4, #0]	@ float
 929              	.LVL23:
 930 0048 0546     		mov	r5, r0
 931              	.LVL24:
 326:subsystems/nav.c ****     if (h_ctl_course_setpoint < 0.)
 932              		.loc 1 326 0
 933 004a FFF7FEFF 		bl	__aeabi_fcmplt
 934 004e 50B1     		cbz	r0, .L82
 327:subsystems/nav.c ****       h_ctl_course_setpoint += 2 * M_PI;
 935              		.loc 1 327 0
 936 0050 2846     		mov	r0, r5
 937 0052 FFF7FEFF 		bl	__aeabi_f2d
 938 0056 52A3     		adr	r3, .L108
 939 0058 D3E90023 		ldrd	r2, [r3]
 940 005c FFF7FEFF 		bl	__aeabi_dadd
 941 0060 FFF7FEFF 		bl	__aeabi_d2f
 942 0064 2060     		str	r0, [r4, #0]	@ float
 943              	.L82:
 328:subsystems/nav.c ****     lateral_mode = LATERAL_MODE_COURSE;
 944              		.loc 1 328 0
 945 0066 0322     		movs	r2, #3
 946 0068 97E0     		b	.L107
 947              	.LVL25:
 948              	.L81:
 949              	.LBB4:
 330:subsystems/nav.c ****     float diff = atan2(x - estimator_x, y - estimator_y) - estimator_hspeed_dir;
 950              		.loc 1 330 0
 951 006a 1968     		ldr	r1, [r3, #0]	@ float
 952              	.LVL26:
 953 006c FFF7FEFF 		bl	__aeabi_fsub
 954              	.LVL27:
 955 0070 FFF7FEFF 		bl	__aeabi_f2d
 956 0074 0646     		mov	r6, r0
 957 0076 0F46     		mov	r7, r1
 958 0078 2046     		mov	r0, r4
 959 007a 2968     		ldr	r1, [r5, #0]	@ float
 960 007c FFF7FEFF 		bl	__aeabi_fsub
 961 0080 FFF7FEFF 		bl	__aeabi_f2d
 962 0084 0246     		mov	r2, r0
 963 0086 0B46     		mov	r3, r1
 964 0088 3046     		mov	r0, r6
 965 008a 3946     		mov	r1, r7
 966 008c FFF7FEFF 		bl	atan2
 967 0090 554B     		ldr	r3, .L108+72
 968 0092 0446     		mov	r4, r0
 969              	.LVL28:
 970 0094 1868     		ldr	r0, [r3, #0]	@ float
 971 0096 0D46     		mov	r5, r1
 972 0098 FFF7FEFF 		bl	__aeabi_f2d
 973 009c 0246     		mov	r2, r0
 974 009e 0B46     		mov	r3, r1
 975 00a0 2046     		mov	r0, r4
 976 00a2 2946     		mov	r1, r5
 977 00a4 04E0     		b	.L105
 978              	.LVL29:
 979              	.L86:
 331:subsystems/nav.c ****     NormRadAngle(diff);
 980              		.loc 1 331 0
 981 00a6 3046     		mov	r0, r6
 982 00a8 3946     		mov	r1, r7
 983 00aa 3DA3     		adr	r3, .L108
 984 00ac D3E90023 		ldrd	r2, [r3]
 985              	.L105:
 986 00b0 FFF7FEFF 		bl	__aeabi_dsub
 987 00b4 FFF7FEFF 		bl	__aeabi_d2f
 988 00b8 0446     		mov	r4, r0
 989 00ba FFF7FEFF 		bl	__aeabi_f2d
 990 00be 3AA3     		adr	r3, .L108+8
 991 00c0 D3E90023 		ldrd	r2, [r3]
 992 00c4 0646     		mov	r6, r0
 993 00c6 0F46     		mov	r7, r1
 994 00c8 FFF7FEFF 		bl	__aeabi_dcmpgt
 995 00cc 0028     		cmp	r0, #0
 996 00ce EAD1     		bne	.L86
 997 00d0 09E0     		b	.L87
 998              	.L88:
 999 00d2 33A3     		adr	r3, .L108
 1000 00d4 D3E90023 		ldrd	r2, [r3]
 1001 00d8 3046     		mov	r0, r6
 1002 00da 3946     		mov	r1, r7
 1003 00dc FFF7FEFF 		bl	__aeabi_dadd
 1004 00e0 FFF7FEFF 		bl	__aeabi_d2f
 1005 00e4 0446     		mov	r4, r0
 1006              	.L87:
 1007 00e6 2046     		mov	r0, r4
 1008 00e8 FFF7FEFF 		bl	__aeabi_f2d
 1009 00ec 30A3     		adr	r3, .L108+16
 1010 00ee D3E90023 		ldrd	r2, [r3]
 1011 00f2 0646     		mov	r6, r0
 1012 00f4 0F46     		mov	r7, r1
 1013 00f6 FFF7FEFF 		bl	__aeabi_dcmplt
 1014 00fa 0028     		cmp	r0, #0
 1015 00fc E9D1     		bne	.L88
 332:subsystems/nav.c ****     BoundAbs(diff,M_PI/2.);
 1016              		.loc 1 332 0
 1017 00fe 3046     		mov	r0, r6
 1018 0100 3946     		mov	r1, r7
 1019 0102 2DA3     		adr	r3, .L108+24
 1020 0104 D3E90023 		ldrd	r2, [r3]
 1021 0108 FFF7FEFF 		bl	__aeabi_dcmpgt
 1022 010c 08B1     		cbz	r0, .L103
 1023 010e 374C     		ldr	r4, .L108+76
 1024              	.LVL30:
 1025 0110 08E0     		b	.L91
 1026              	.L103:
 1027 0112 3046     		mov	r0, r6
 1028 0114 3946     		mov	r1, r7
 1029 0116 2AA3     		adr	r3, .L108+32
 1030 0118 D3E90023 		ldrd	r2, [r3]
 1031 011c FFF7FEFF 		bl	__aeabi_dcmplt
 1032 0120 00B1     		cbz	r0, .L91
 1033 0122 334C     		ldr	r4, .L108+80
 1034              	.LVL31:
 1035              	.L91:
 333:subsystems/nav.c ****     float s = sin(diff);
 1036              		.loc 1 333 0
 1037 0124 2046     		mov	r0, r4
 1038 0126 FFF7FEFF 		bl	__aeabi_f2d
 1039 012a FFF7FEFF 		bl	sin
 334:subsystems/nav.c ****     h_ctl_roll_setpoint = atan(2 * estimator_hspeed_mod*estimator_hspeed_mod * s * (-h_ctl_course_p
 1040              		.loc 1 334 0
 1041 012e 314B     		ldr	r3, .L108+84
 333:subsystems/nav.c ****     float s = sin(diff);
 1042              		.loc 1 333 0
 1043 0130 0646     		mov	r6, r0
 334:subsystems/nav.c ****     h_ctl_roll_setpoint = atan(2 * estimator_hspeed_mod*estimator_hspeed_mod * s * (-h_ctl_course_p
 1044              		.loc 1 334 0
 1045 0132 1C68     		ldr	r4, [r3, #0]	@ float
 1046              	.LVL32:
 333:subsystems/nav.c ****     float s = sin(diff);
 1047              		.loc 1 333 0
 1048 0134 0F46     		mov	r7, r1
 334:subsystems/nav.c ****     h_ctl_roll_setpoint = atan(2 * estimator_hspeed_mod*estimator_hspeed_mod * s * (-h_ctl_course_p
 1049              		.loc 1 334 0
 1050 0136 2046     		mov	r0, r4
 1051 0138 4FF04041 		mov	r1, #-1073741824
 1052 013c FFF7FEFF 		bl	__aeabi_fmul
 1053 0140 2146     		mov	r1, r4
 1054 0142 FFF7FEFF 		bl	__aeabi_fmul
 1055 0146 3946     		mov	r1, r7
 1056 0148 0446     		mov	r4, r0
 1057 014a 3046     		mov	r0, r6
 1058 014c FFF7FEFF 		bl	__aeabi_d2f
 1059 0150 0146     		mov	r1, r0
 1060 0152 2046     		mov	r0, r4
 1061 0154 FFF7FEFF 		bl	__aeabi_fmul
 1062 0158 274B     		ldr	r3, .L108+88
 1063 015a 284C     		ldr	r4, .L108+92
 1064 015c 1968     		ldr	r1, [r3, #0]	@ float
 1065 015e FFF7FEFF 		bl	__aeabi_fmul
 1066 0162 FFF7FEFF 		bl	__aeabi_f2d
 1067 0166 18A3     		adr	r3, .L108+40
 1068 0168 D3E90023 		ldrd	r2, [r3]
 1069 016c FFF7FEFF 		bl	__aeabi_ddiv
 1070 0170 FFF7FEFF 		bl	atan
 1071 0174 FFF7FEFF 		bl	__aeabi_d2f
 335:subsystems/nav.c ****     BoundAbs(h_ctl_roll_setpoint, h_ctl_roll_max_setpoint);
 1072              		.loc 1 335 0
 1073 0178 214B     		ldr	r3, .L108+96
 334:subsystems/nav.c ****     h_ctl_roll_setpoint = atan(2 * estimator_hspeed_mod*estimator_hspeed_mod * s * (-h_ctl_course_p
 1074              		.loc 1 334 0
 1075 017a 2060     		str	r0, [r4, #0]	@ float
 1076              	.LVL33:
 335:subsystems/nav.c ****     BoundAbs(h_ctl_roll_setpoint, h_ctl_roll_max_setpoint);
 1077              		.loc 1 335 0
 1078 017c 1E68     		ldr	r6, [r3, #0]	@ float
 1079              	.LVL34:
 334:subsystems/nav.c ****     h_ctl_roll_setpoint = atan(2 * estimator_hspeed_mod*estimator_hspeed_mod * s * (-h_ctl_course_p
 1080              		.loc 1 334 0
 1081 017e 0546     		mov	r5, r0
 1082              	.LVL35:
 335:subsystems/nav.c ****     BoundAbs(h_ctl_roll_setpoint, h_ctl_roll_max_setpoint);
 1083              		.loc 1 335 0
 1084 0180 3146     		mov	r1, r6
 1085 0182 FFF7FEFF 		bl	__aeabi_fcmpgt
 1086 0186 30B9     		cbnz	r0, .L106
 1087              	.LVL36:
 1088 0188 06F10046 		add	r6, r6, #-2147483648
 1089              	.LVL37:
 1090 018c 2846     		mov	r0, r5
 1091 018e 3146     		mov	r1, r6
 1092 0190 FFF7FEFF 		bl	__aeabi_fcmplt
 1093 0194 00B1     		cbz	r0, .L95
 1094              	.L106:
 1095 0196 2660     		str	r6, [r4, #0]	@ float
 1096              	.L95:
 336:subsystems/nav.c ****     lateral_mode = LATERAL_MODE_ROLL;
 1097              		.loc 1 336 0
 1098 0198 0222     		movs	r2, #2
 1099              	.LVL38:
 1100              	.L107:
 1101 019a 1A4B     		ldr	r3, .L108+100
 1102 019c 1A70     		strb	r2, [r3, #0]
 1103 019e F8BD     		pop	{r3, r4, r5, r6, r7, pc}
 1104              	.L109:
 1105              		.align	3
 1106              	.L108:
 1107 01a0 182D4454 		.word	1413754136
 1108 01a4 FB211940 		.word	1075388923
 1109 01a8 182D4454 		.word	1413754136
 1110 01ac FB210940 		.word	1074340347
 1111 01b0 182D4454 		.word	1413754136
 1112 01b4 FB2109C0 		.word	-1073143301
 1113 01b8 182D4454 		.word	1413754136
 1114 01bc FB21F93F 		.word	1073291771
 1115 01c0 182D4454 		.word	1413754136
 1116 01c4 FB21F9BF 		.word	-1074191877
 1117 01c8 00000000 		.word	0
 1118 01cc 00298340 		.word	1082337536
 1119 01d0 00000000 		.word	.LANCHOR29
 1120 01d4 00000000 		.word	.LANCHOR30
 1121 01d8 00000000 		.word	estimator_y
 1122 01dc 00000000 		.word	.LANCHOR23
 1123 01e0 00000000 		.word	estimator_x
 1124 01e4 00000000 		.word	h_ctl_course_setpoint
 1125 01e8 00000000 		.word	estimator_hspeed_dir
 1126 01ec DB0FC93F 		.word	1070141403
 1127 01f0 DB0FC9BF 		.word	-1077342245
 1128 01f4 00000000 		.word	estimator_hspeed_mod
 1129 01f8 00000000 		.word	h_ctl_course_pgain
 1130 01fc 00000000 		.word	h_ctl_roll_setpoint
 1131 0200 00000000 		.word	h_ctl_roll_max_setpoint
 1132 0204 00000000 		.word	lateral_mode
 1133              	.LBE4:
 1134              		.cfi_endproc
 1135              	.LFE41:
 1137              		.global	__aeabi_fdiv
 1138              		.section	.text.nav_route_xy,"ax",%progbits
 1139              		.align	1
 1140              		.global	nav_route_xy
 1141              		.thumb
 1142              		.thumb_func
 1144              	nav_route_xy:
 1145              	.LFB42:
 343:subsystems/nav.c **** void nav_route_xy(float last_wp_x, float last_wp_y, float wp_x, float wp_y) {
 1146              		.loc 1 343 0
 1147              		.cfi_startproc
 1148              		@ args = 0, pretend = 0, frame = 16
 1149              		@ frame_needed = 0, uses_anonymous_args = 0
 1150              	.LVL39:
 1151 0000 2DE9F04F 		push	{r4, r5, r6, r7, r8, r9, sl, fp, lr}
 1152              	.LCFI8:
 1153              		.cfi_def_cfa_offset 36
 1154 0004 0746     		mov	r7, r0
 1155              		.cfi_offset 14, -4
 1156              		.cfi_offset 11, -8
 1157              		.cfi_offset 10, -12
 1158              		.cfi_offset 9, -16
 1159              		.cfi_offset 8, -20
 1160              		.cfi_offset 7, -24
 1161              		.cfi_offset 6, -28
 1162              		.cfi_offset 5, -32
 1163              		.cfi_offset 4, -36
 1164 0006 85B0     		sub	sp, sp, #20
 1165              	.LCFI9:
 1166              		.cfi_def_cfa_offset 56
 344:subsystems/nav.c ****   float leg_x = wp_x - last_wp_x;
 1167              		.loc 1 344 0
 1168 0008 1046     		mov	r0, r2
 1169              	.LVL40:
 343:subsystems/nav.c **** void nav_route_xy(float last_wp_x, float last_wp_y, float wp_x, float wp_y) {
 1170              		.loc 1 343 0
 1171 000a 0E46     		mov	r6, r1
 344:subsystems/nav.c ****   float leg_x = wp_x - last_wp_x;
 1172              		.loc 1 344 0
 1173 000c 3946     		mov	r1, r7
 1174              	.LVL41:
 343:subsystems/nav.c **** void nav_route_xy(float last_wp_x, float last_wp_y, float wp_x, float wp_y) {
 1175              		.loc 1 343 0
 1176 000e 9946     		mov	r9, r3
 1177 0010 9246     		mov	sl, r2
 344:subsystems/nav.c ****   float leg_x = wp_x - last_wp_x;
 1178              		.loc 1 344 0
 1179 0012 FFF7FEFF 		bl	__aeabi_fsub
 1180              	.LVL42:
 345:subsystems/nav.c ****   float leg_y = wp_y - last_wp_y;
 1181              		.loc 1 345 0
 1182 0016 3146     		mov	r1, r6
 344:subsystems/nav.c ****   float leg_x = wp_x - last_wp_x;
 1183              		.loc 1 344 0
 1184 0018 0446     		mov	r4, r0
 1185              	.LVL43:
 345:subsystems/nav.c ****   float leg_y = wp_y - last_wp_y;
 1186              		.loc 1 345 0
 1187 001a 4846     		mov	r0, r9
 1188 001c FFF7FEFF 		bl	__aeabi_fsub
 346:subsystems/nav.c ****   float leg2 = Max(leg_x * leg_x + leg_y * leg_y, 1.);
 1189              		.loc 1 346 0
 1190 0020 2146     		mov	r1, r4
 345:subsystems/nav.c ****   float leg_y = wp_y - last_wp_y;
 1191              		.loc 1 345 0
 1192 0022 0546     		mov	r5, r0
 1193              	.LVL44:
 346:subsystems/nav.c ****   float leg2 = Max(leg_x * leg_x + leg_y * leg_y, 1.);
 1194              		.loc 1 346 0
 1195 0024 2046     		mov	r0, r4
 1196 0026 FFF7FEFF 		bl	__aeabi_fmul
 1197 002a 2946     		mov	r1, r5
 1198 002c 8046     		mov	r8, r0
 1199 002e 2846     		mov	r0, r5
 1200 0030 FFF7FEFF 		bl	__aeabi_fmul
 1201 0034 0146     		mov	r1, r0
 1202 0036 4046     		mov	r0, r8
 1203 0038 FFF7FEFF 		bl	__aeabi_fadd
 1204 003c 4FF07E51 		mov	r1, #1065353216
 1205 0040 8046     		mov	r8, r0
 1206              	.LVL45:
 1207 0042 FFF7FEFF 		bl	__aeabi_fcmpgt
 1208 0046 08B9     		cbnz	r0, .L111
 1209 0048 4FF07E58 		mov	r8, #1065353216
 1210              	.LVL46:
 1211              	.L111:
 347:subsystems/nav.c ****   nav_leg_progress = ((estimator_x - last_wp_x) * leg_x + (estimator_y - last_wp_y) * leg_y) / leg2
 1212              		.loc 1 347 0
 1213 004c 454B     		ldr	r3, .L115
 1214 004e 3946     		mov	r1, r7
 1215 0050 1868     		ldr	r0, [r3, #0]	@ float
 1216 0052 FFF7FEFF 		bl	__aeabi_fsub
 1217 0056 2146     		mov	r1, r4
 1218 0058 FFF7FEFF 		bl	__aeabi_fmul
 1219 005c 424A     		ldr	r2, .L115+4
 1220 005e 0346     		mov	r3, r0
 1221 0060 3146     		mov	r1, r6
 1222 0062 1068     		ldr	r0, [r2, #0]	@ float
 1223 0064 0193     		str	r3, [sp, #4]
 1224 0066 FFF7FEFF 		bl	__aeabi_fsub
 1225 006a 2946     		mov	r1, r5
 1226 006c FFF7FEFF 		bl	__aeabi_fmul
 1227 0070 019B     		ldr	r3, [sp, #4]
 1228 0072 0146     		mov	r1, r0
 1229 0074 1846     		mov	r0, r3
 1230 0076 FFF7FEFF 		bl	__aeabi_fadd
 1231 007a 4146     		mov	r1, r8
 1232 007c FFF7FEFF 		bl	__aeabi_fdiv
 1233 0080 DFF8F0B0 		ldr	fp, .L115+16
 1234 0084 CBF80000 		str	r0, [fp, #0]	@ float
 348:subsystems/nav.c ****   nav_leg_length = sqrt(leg2);
 1235              		.loc 1 348 0
 1236 0088 4046     		mov	r0, r8
 1237 008a FFF7FEFF 		bl	__aeabi_f2d
 1238 008e FFF7FEFF 		bl	sqrt
 1239 0092 FFF7FEFF 		bl	__aeabi_d2f
 1240 0096 354B     		ldr	r3, .L115+8
 1241 0098 8046     		mov	r8, r0
 1242              	.LVL47:
 353:subsystems/nav.c ****   nav_leg_progress += Max(carrot / nav_leg_length, 0.);
 1243              		.loc 1 353 0
 1244 009a DBF800B0 		ldr	fp, [fp, #0]	@ float
 348:subsystems/nav.c ****   nav_leg_length = sqrt(leg2);
 1245              		.loc 1 348 0
 1246 009e 1860     		str	r0, [r3, #0]	@ float
 353:subsystems/nav.c ****   nav_leg_progress += Max(carrot / nav_leg_length, 0.);
 1247              		.loc 1 353 0
 1248 00a0 4146     		mov	r1, r8
 1249 00a2 3348     		ldr	r0, .L115+12
 1250 00a4 CDF80CB0 		str	fp, [sp, #12]	@ float
 1251 00a8 FFF7FEFF 		bl	__aeabi_fdiv
 1252 00ac 0021     		movs	r1, #0
 1253 00ae 8346     		mov	fp, r0
 1254 00b0 FFF7FEFF 		bl	__aeabi_fcmpgt
 1255 00b4 10B9     		cbnz	r0, .L112
 1256 00b6 0022     		movs	r2, #0
 1257 00b8 0023     		movs	r3, #0
 1258 00ba 04E0     		b	.L113
 1259              	.L112:
 1260 00bc 5846     		mov	r0, fp
 1261 00be FFF7FEFF 		bl	__aeabi_f2d
 1262 00c2 0246     		mov	r2, r0
 1263 00c4 0B46     		mov	r3, r1
 1264              	.L113:
 1265 00c6 0398     		ldr	r0, [sp, #12]	@ float
 1266 00c8 0292     		str	r2, [sp, #8]
 1267 00ca 0193     		str	r3, [sp, #4]
 1268 00cc FFF7FEFF 		bl	__aeabi_f2d
 1269 00d0 029A     		ldr	r2, [sp, #8]
 1270 00d2 019B     		ldr	r3, [sp, #4]
 1271 00d4 FFF7FEFF 		bl	__aeabi_dadd
 1272 00d8 FFF7FEFF 		bl	__aeabi_d2f
 1273 00dc 254B     		ldr	r3, .L115+16
 354:subsystems/nav.c ****   nav_in_segment = TRUE;
 1274              		.loc 1 354 0
 1275 00de 264A     		ldr	r2, .L115+20
 353:subsystems/nav.c ****   nav_leg_progress += Max(carrot / nav_leg_length, 0.);
 1276              		.loc 1 353 0
 1277 00e0 1860     		str	r0, [r3, #0]	@ float
 354:subsystems/nav.c ****   nav_in_segment = TRUE;
 1278              		.loc 1 354 0
 1279 00e2 0123     		movs	r3, #1
 1280 00e4 1370     		strb	r3, [r2, #0]
 355:subsystems/nav.c ****   nav_segment_x_1 = last_wp_x;
 1281              		.loc 1 355 0
 1282 00e6 254A     		ldr	r2, .L115+24
 361:subsystems/nav.c ****   fly_to_xy(last_wp_x + nav_leg_progress*leg_x +nav_shift*leg_y/nav_leg_length, last_wp_y + nav_leg
 1283              		.loc 1 361 0
 1284 00e8 2146     		mov	r1, r4
 355:subsystems/nav.c ****   nav_segment_x_1 = last_wp_x;
 1285              		.loc 1 355 0
 1286 00ea 1760     		str	r7, [r2, #0]	@ float
 356:subsystems/nav.c ****   nav_segment_y_1 = last_wp_y;
 1287              		.loc 1 356 0
 1288 00ec 244A     		ldr	r2, .L115+28
 353:subsystems/nav.c ****   nav_leg_progress += Max(carrot / nav_leg_length, 0.);
 1289              		.loc 1 353 0
 1290 00ee 8346     		mov	fp, r0
 356:subsystems/nav.c ****   nav_segment_y_1 = last_wp_y;
 1291              		.loc 1 356 0
 1292 00f0 1660     		str	r6, [r2, #0]	@ float
 357:subsystems/nav.c ****   nav_segment_x_2 = wp_x;
 1293              		.loc 1 357 0
 1294 00f2 244A     		ldr	r2, .L115+32
 1295 00f4 C2F800A0 		str	sl, [r2, #0]	@ float
 358:subsystems/nav.c ****   nav_segment_y_2 = wp_y;
 1296              		.loc 1 358 0
 1297 00f8 234A     		ldr	r2, .L115+36
 1298 00fa C2F80090 		str	r9, [r2, #0]	@ float
 359:subsystems/nav.c ****   horizontal_mode = HORIZONTAL_MODE_ROUTE;
 1299              		.loc 1 359 0
 1300 00fe 234A     		ldr	r2, .L115+40
 1301 0100 1370     		strb	r3, [r2, #0]
 361:subsystems/nav.c ****   fly_to_xy(last_wp_x + nav_leg_progress*leg_x +nav_shift*leg_y/nav_leg_length, last_wp_y + nav_leg
 1302              		.loc 1 361 0
 1303 0102 234B     		ldr	r3, .L115+44
 1304 0104 D3F800A0 		ldr	sl, [r3, #0]	@ float
 1305              	.LVL48:
 1306 0108 FFF7FEFF 		bl	__aeabi_fmul
 1307 010c 0146     		mov	r1, r0
 1308 010e 3846     		mov	r0, r7
 1309 0110 FFF7FEFF 		bl	__aeabi_fadd
 1310 0114 2946     		mov	r1, r5
 1311 0116 0746     		mov	r7, r0
 1312              	.LVL49:
 1313 0118 5046     		mov	r0, sl
 1314 011a FFF7FEFF 		bl	__aeabi_fmul
 1315 011e 4146     		mov	r1, r8
 1316 0120 FFF7FEFF 		bl	__aeabi_fdiv
 1317 0124 0146     		mov	r1, r0
 1318 0126 3846     		mov	r0, r7
 1319 0128 FFF7FEFF 		bl	__aeabi_fadd
 1320 012c 2946     		mov	r1, r5
 1321 012e 0746     		mov	r7, r0
 1322 0130 5846     		mov	r0, fp
 1323 0132 FFF7FEFF 		bl	__aeabi_fmul
 1324 0136 0146     		mov	r1, r0
 1325 0138 3046     		mov	r0, r6
 1326 013a FFF7FEFF 		bl	__aeabi_fadd
 1327 013e 2146     		mov	r1, r4
 1328 0140 0546     		mov	r5, r0
 1329              	.LVL50:
 1330 0142 5046     		mov	r0, sl
 1331 0144 FFF7FEFF 		bl	__aeabi_fmul
 1332 0148 4146     		mov	r1, r8
 1333 014a FFF7FEFF 		bl	__aeabi_fdiv
 1334 014e 0146     		mov	r1, r0
 1335 0150 2846     		mov	r0, r5
 1336 0152 FFF7FEFF 		bl	__aeabi_fsub
 1337 0156 0146     		mov	r1, r0
 1338 0158 3846     		mov	r0, r7
 362:subsystems/nav.c **** }
 1339              		.loc 1 362 0
 1340 015a 05B0     		add	sp, sp, #20
 1341 015c BDE8F04F 		pop	{r4, r5, r6, r7, r8, r9, sl, fp, lr}
 361:subsystems/nav.c ****   fly_to_xy(last_wp_x + nav_leg_progress*leg_x +nav_shift*leg_y/nav_leg_length, last_wp_y + nav_leg
 1342              		.loc 1 361 0
 1343 0160 FFF7FEBF 		b	fly_to_xy
 1344              	.L116:
 1345              		.align	2
 1346              	.L115:
 1347 0164 00000000 		.word	estimator_x
 1348 0168 00000000 		.word	estimator_y
 1349 016c 00000000 		.word	.LANCHOR32
 1350 0170 00007A42 		.word	1115291648
 1351 0174 00000000 		.word	.LANCHOR31
 1352 0178 00000000 		.word	.LANCHOR4
 1353 017c 00000000 		.word	.LANCHOR33
 1354 0180 00000000 		.word	.LANCHOR34
 1355 0184 00000000 		.word	.LANCHOR35
 1356 0188 00000000 		.word	.LANCHOR36
 1357 018c 00000000 		.word	.LANCHOR37
 1358 0190 00000000 		.word	.LANCHOR5
 1359              		.cfi_endproc
 1360              	.LFE42:
 1362              		.section	.text.nav_circle_XY,"ax",%progbits
 1363              		.align	1
 1364              		.global	nav_circle_XY
 1365              		.thumb
 1366              		.thumb_func
 1368              	nav_circle_XY:
 1369              	.LFB35:
 109:subsystems/nav.c **** void nav_circle_XY(float x, float y, float radius) {
 1370              		.loc 1 109 0
 1371              		.cfi_startproc
 1372              		@ args = 0, pretend = 0, frame = 24
 1373              		@ frame_needed = 0, uses_anonymous_args = 0
 1374              	.LVL51:
 1375 0000 2DE9F04F 		push	{r4, r5, r6, r7, r8, r9, sl, fp, lr}
 1376              	.LCFI10:
 1377              		.cfi_def_cfa_offset 36
 111:subsystems/nav.c ****   nav_circle_trigo_qdr = atan2(estimator_y - y, estimator_x - x);
 1378              		.loc 1 111 0
 1379 0004 684B     		ldr	r3, .L133+32
 109:subsystems/nav.c **** void nav_circle_XY(float x, float y, float radius) {
 1380              		.loc 1 109 0
 1381 0006 87B0     		sub	sp, sp, #28
 1382              	.LCFI11:
 1383              		.cfi_def_cfa_offset 64
 109:subsystems/nav.c **** void nav_circle_XY(float x, float y, float radius) {
 1384              		.loc 1 109 0
 1385 0008 0646     		mov	r6, r0
 1386              		.cfi_offset 14, -4
 1387              		.cfi_offset 11, -8
 1388              		.cfi_offset 10, -12
 1389              		.cfi_offset 9, -16
 1390              		.cfi_offset 8, -20
 1391              		.cfi_offset 7, -24
 1392              		.cfi_offset 6, -28
 1393              		.cfi_offset 5, -32
 1394              		.cfi_offset 4, -36
 111:subsystems/nav.c ****   nav_circle_trigo_qdr = atan2(estimator_y - y, estimator_x - x);
 1395              		.loc 1 111 0
 1396 000a 1868     		ldr	r0, [r3, #0]	@ float
 1397              	.LVL52:
 109:subsystems/nav.c **** void nav_circle_XY(float x, float y, float radius) {
 1398              		.loc 1 109 0
 1399 000c 1446     		mov	r4, r2
 1400 000e 0F46     		mov	r7, r1
 111:subsystems/nav.c ****   nav_circle_trigo_qdr = atan2(estimator_y - y, estimator_x - x);
 1401              		.loc 1 111 0
 1402 0010 FFF7FEFF 		bl	__aeabi_fsub
 1403              	.LVL53:
 1404 0014 FFF7FEFF 		bl	__aeabi_f2d
 1405 0018 644B     		ldr	r3, .L133+36
 1406 001a 8246     		mov	sl, r0
 1407 001c 8B46     		mov	fp, r1
 1408 001e 1868     		ldr	r0, [r3, #0]	@ float
 1409 0020 3146     		mov	r1, r6
 1410 0022 FFF7FEFF 		bl	__aeabi_fsub
 1411 0026 FFF7FEFF 		bl	__aeabi_f2d
 110:subsystems/nav.c ****   float last_trigo_qdr = nav_circle_trigo_qdr;
 1412              		.loc 1 110 0
 1413 002a 614D     		ldr	r5, .L133+40
 111:subsystems/nav.c ****   nav_circle_trigo_qdr = atan2(estimator_y - y, estimator_x - x);
 1414              		.loc 1 111 0
 1415 002c 0B46     		mov	r3, r1
 1416 002e 0246     		mov	r2, r0
 1417 0030 5946     		mov	r1, fp
 1418 0032 5046     		mov	r0, sl
 110:subsystems/nav.c ****   float last_trigo_qdr = nav_circle_trigo_qdr;
 1419              		.loc 1 110 0
 1420 0034 D5F80080 		ldr	r8, [r5, #0]	@ float
 1421              	.LVL54:
 111:subsystems/nav.c ****   nav_circle_trigo_qdr = atan2(estimator_y - y, estimator_x - x);
 1422              		.loc 1 111 0
 1423 0038 FFF7FEFF 		bl	atan2
 1424 003c FFF7FEFF 		bl	__aeabi_d2f
 113:subsystems/nav.c ****   if (nav_in_circle) {
 1425              		.loc 1 113 0
 1426 0040 5C4B     		ldr	r3, .L133+44
 111:subsystems/nav.c ****   nav_circle_trigo_qdr = atan2(estimator_y - y, estimator_x - x);
 1427              		.loc 1 111 0
 1428 0042 8146     		mov	r9, r0
 113:subsystems/nav.c ****   if (nav_in_circle) {
 1429              		.loc 1 113 0
 1430 0044 1B78     		ldrb	r3, [r3, #0]	@ zero_extendqisi2
 111:subsystems/nav.c ****   nav_circle_trigo_qdr = atan2(estimator_y - y, estimator_x - x);
 1431              		.loc 1 111 0
 1432 0046 2860     		str	r0, [r5, #0]	@ float
 113:subsystems/nav.c ****   if (nav_in_circle) {
 1433              		.loc 1 113 0
 1434 0048 002B     		cmp	r3, #0
 1435 004a 38D0     		beq	.L118
 1436              	.LBB5:
 114:subsystems/nav.c ****     float trigo_diff = nav_circle_trigo_qdr - last_trigo_qdr;
 1437              		.loc 1 114 0
 1438 004c 4146     		mov	r1, r8
 1439 004e FFF7FEFF 		bl	__aeabi_fsub
 1440 0052 08E0     		b	.L132
 1441              	.LVL55:
 1442              	.L120:
 115:subsystems/nav.c ****     NormRadAngle(trigo_diff);
 1443              		.loc 1 115 0
 1444 0054 4CA3     		adr	r3, .L133
 1445 0056 D3E90023 		ldrd	r2, [r3]
 1446 005a 5046     		mov	r0, sl
 1447 005c 5946     		mov	r1, fp
 1448 005e FFF7FEFF 		bl	__aeabi_dsub
 1449 0062 FFF7FEFF 		bl	__aeabi_d2f
 1450              	.L132:
 1451 0066 0546     		mov	r5, r0
 1452 0068 FFF7FEFF 		bl	__aeabi_f2d
 1453 006c 48A3     		adr	r3, .L133+8
 1454 006e D3E90023 		ldrd	r2, [r3]
 1455 0072 8246     		mov	sl, r0
 1456 0074 8B46     		mov	fp, r1
 1457 0076 FFF7FEFF 		bl	__aeabi_dcmpgt
 1458 007a 0028     		cmp	r0, #0
 1459 007c EAD1     		bne	.L120
 1460 007e 09E0     		b	.L121
 1461              	.L122:
 1462 0080 41A3     		adr	r3, .L133
 1463 0082 D3E90023 		ldrd	r2, [r3]
 1464 0086 5046     		mov	r0, sl
 1465 0088 5946     		mov	r1, fp
 1466 008a FFF7FEFF 		bl	__aeabi_dadd
 1467 008e FFF7FEFF 		bl	__aeabi_d2f
 1468 0092 0546     		mov	r5, r0
 1469              	.L121:
 1470 0094 2846     		mov	r0, r5
 1471 0096 FFF7FEFF 		bl	__aeabi_f2d
 1472 009a 3FA3     		adr	r3, .L133+16
 1473 009c D3E90023 		ldrd	r2, [r3]
 1474 00a0 8246     		mov	sl, r0
 1475 00a2 8B46     		mov	fp, r1
 1476 00a4 FFF7FEFF 		bl	__aeabi_dcmplt
 1477 00a8 0028     		cmp	r0, #0
 1478 00aa E9D1     		bne	.L122
 116:subsystems/nav.c ****     nav_circle_radians += trigo_diff;
 1479              		.loc 1 116 0
 1480 00ac DFF81481 		ldr	r8, .L133+60
 1481              	.LVL56:
 1482 00b0 2946     		mov	r1, r5
 1483 00b2 D8F80000 		ldr	r0, [r8, #0]	@ float
 1484 00b6 FFF7FEFF 		bl	__aeabi_fadd
 1485 00ba C8F80000 		str	r0, [r8, #0]	@ float
 1486              	.LVL57:
 1487              	.L118:
 1488              	.LBE5:
 119:subsystems/nav.c ****   float dist2_center = DistanceSquare(estimator_x, estimator_y, x, y);
 1489              		.loc 1 119 0
 1490 00be 3B4B     		ldr	r3, .L133+36
 1491 00c0 3146     		mov	r1, r6
 1492 00c2 1868     		ldr	r0, [r3, #0]	@ float
 1493 00c4 FFF7FEFF 		bl	__aeabi_fsub
 1494 00c8 374B     		ldr	r3, .L133+32
 1495 00ca 0546     		mov	r5, r0
 1496              	.LVL58:
 1497 00cc 3946     		mov	r1, r7
 1498 00ce 1868     		ldr	r0, [r3, #0]	@ float
 1499 00d0 FFF7FEFF 		bl	__aeabi_fsub
 1500 00d4 2946     		mov	r1, r5
 1501 00d6 8046     		mov	r8, r0
 1502              	.LVL59:
 1503 00d8 2846     		mov	r0, r5
 1504 00da FFF7FEFF 		bl	__aeabi_fmul
 1505 00de 4146     		mov	r1, r8
 1506 00e0 0546     		mov	r5, r0
 1507 00e2 4046     		mov	r0, r8
 1508 00e4 FFF7FEFF 		bl	__aeabi_fmul
 1509 00e8 0146     		mov	r1, r0
 1510 00ea 2846     		mov	r0, r5
 1511 00ec FFF7FEFF 		bl	__aeabi_fadd
 121:subsystems/nav.c ****   float sign_radius = radius > 0 ? 1 : -1;
 1512              		.loc 1 121 0
 1513 00f0 0021     		movs	r1, #0
 119:subsystems/nav.c ****   float dist2_center = DistanceSquare(estimator_x, estimator_y, x, y);
 1514              		.loc 1 119 0
 1515 00f2 8346     		mov	fp, r0
 1516              	.LVL60:
 121:subsystems/nav.c ****   float sign_radius = radius > 0 ? 1 : -1;
 1517              		.loc 1 121 0
 1518 00f4 2046     		mov	r0, r4
 1519 00f6 FFF7FEFF 		bl	__aeabi_fcmpgt
 1520 00fa 10B9     		cbnz	r0, .L123
 1521 00fc DFF8C8A0 		ldr	sl, .L133+64
 1522              	.LVL61:
 1523 0100 01E0     		b	.L124
 1524              	.LVL62:
 1525              	.L123:
 1526 0102 4FF07E5A 		mov	sl, #1065353216
 1527              	.LVL63:
 1528              	.L124:
 123:subsystems/nav.c ****   radius += -nav_shift;
 1529              		.loc 1 123 0
 1530 0106 2C4B     		ldr	r3, .L133+48
 1531 0108 2046     		mov	r0, r4
 1532 010a 1968     		ldr	r1, [r3, #0]	@ float
 1533 010c FFF7FEFF 		bl	__aeabi_fsub
 125:subsystems/nav.c ****   float abs_radius = fabs(radius);
 1534              		.loc 1 125 0
 1535 0110 20F00045 		bic	r5, r0, #-2147483648
 1536              	.LVL64:
 129:subsystems/nav.c ****     (dist2_center > Square(abs_radius + dist_carrot)
 1537              		.loc 1 129 0
 1538 0114 2949     		ldr	r1, .L133+52
 123:subsystems/nav.c ****   radius += -nav_shift;
 1539              		.loc 1 123 0
 1540 0116 8046     		mov	r8, r0
 1541              	.LVL65:
 129:subsystems/nav.c ****     (dist2_center > Square(abs_radius + dist_carrot)
 1542              		.loc 1 129 0
 1543 0118 2846     		mov	r0, r5
 1544 011a FFF7FEFF 		bl	__aeabi_fadd
 128:subsystems/nav.c ****   circle_bank =
 1545              		.loc 1 128 0
 1546 011e 0146     		mov	r1, r0
 1547 0120 FFF7FEFF 		bl	__aeabi_fmul
 1548 0124 0146     		mov	r1, r0
 1549 0126 5846     		mov	r0, fp
 1550 0128 FFF7FEFF 		bl	__aeabi_fcmpgt
 1551 012c 0028     		cmp	r0, #0
 1552 012e 4DD1     		bne	.L125
 130:subsystems/nav.c ****       || dist2_center < Square(abs_radius - dist_carrot)) ?
 1553              		.loc 1 130 0
 1554 0130 2249     		ldr	r1, .L133+52
 1555 0132 2846     		mov	r0, r5
 1556 0134 FFF7FEFF 		bl	__aeabi_fsub
 128:subsystems/nav.c ****   circle_bank =
 1557              		.loc 1 128 0
 1558 0138 0146     		mov	r1, r0
 1559 013a FFF7FEFF 		bl	__aeabi_fmul
 1560 013e 0146     		mov	r1, r0
 1561 0140 5846     		mov	r0, fp
 1562 0142 FFF7FEFF 		bl	__aeabi_fcmplt
 1563 0146 0028     		cmp	r0, #0
 1564 0148 40D1     		bne	.L125
 132:subsystems/nav.c ****     atan(estimator_hspeed_mod*estimator_hspeed_mod / (G*radius));
 1565              		.loc 1 132 0
 1566 014a 1D4B     		ldr	r3, .L133+56
 1567 014c 1868     		ldr	r0, [r3, #0]	@ float
 1568 014e 0146     		mov	r1, r0
 1569 0150 FFF7FEFF 		bl	__aeabi_fmul
 1570 0154 FFF7FEFF 		bl	__aeabi_f2d
 1571 0158 CDE90201 		strd	r0, [sp, #8]
 1572 015c 4046     		mov	r0, r8
 1573 015e FFF7FEFF 		bl	__aeabi_f2d
 1574 0162 0FA3     		adr	r3, .L133+24
 1575 0164 D3E90023 		ldrd	r2, [r3]
 1576 0168 FFF7FEFF 		bl	__aeabi_dmul
 1577 016c 0246     		mov	r2, r0
 1578 016e 0B46     		mov	r3, r1
 1579 0170 DDE90201 		ldrd	r0, [sp, #8]
 1580 0174 FFF7FEFF 		bl	__aeabi_ddiv
 1581 0178 FFF7FEFF 		bl	atan
 128:subsystems/nav.c ****   circle_bank =
 1582              		.loc 1 128 0
 1583 017c FFF7FEFF 		bl	__aeabi_d2f
 1584 0180 25E0     		b	.L126
 1585              	.L134:
 1586 0182 00BFAFF3 		.align	3
 1586      0080
 1587              	.L133:
 1588 0188 182D4454 		.word	1413754136
 1589 018c FB211940 		.word	1075388923
 1590 0190 182D4454 		.word	1413754136
 1591 0194 FB210940 		.word	1074340347
 1592 0198 182D4454 		.word	1413754136
 1593 019c FB2109C0 		.word	-1073143301
 1594 01a0 E9263108 		.word	137438953
 1595 01a4 AC9C2340 		.word	1076075692
 1596 01a8 00000000 		.word	estimator_y
 1597 01ac 00000000 		.word	estimator_x
 1598 01b0 00000000 		.word	.LANCHOR38
 1599 01b4 00000000 		.word	.LANCHOR3
 1600 01b8 00000000 		.word	.LANCHOR5
 1601 01bc 00007A42 		.word	1115291648
 1602 01c0 00000000 		.word	estimator_hspeed_mod
 1603 01c4 00000000 		.word	.LANCHOR2
 1604 01c8 000080BF 		.word	-1082130432
 1605              	.L125:
 1606 01cc 0020     		movs	r0, #0
 1607              	.L126:
 1608 01ce 4E4B     		ldr	r3, .L135+16
 134:subsystems/nav.c ****   float carrot_angle = dist_carrot / abs_radius;
 1609              		.loc 1 134 0
 1610 01d0 2946     		mov	r1, r5
 128:subsystems/nav.c ****   circle_bank =
 1611              		.loc 1 128 0
 1612 01d2 1860     		str	r0, [r3, #0]	@ float
 134:subsystems/nav.c ****   float carrot_angle = dist_carrot / abs_radius;
 1613              		.loc 1 134 0
 1614 01d4 4D48     		ldr	r0, .L135+20
 1615 01d6 FFF7FEFF 		bl	__aeabi_fdiv
 1616 01da 0446     		mov	r4, r0
 1617              	.LVL66:
 135:subsystems/nav.c ****   carrot_angle = Min(carrot_angle, M_PI/4);
 1618              		.loc 1 135 0
 1619 01dc FFF7FEFF 		bl	__aeabi_f2d
 1620 01e0 45A3     		adr	r3, .L135
 1621 01e2 D3E90023 		ldrd	r2, [r3]
 1622 01e6 FFF7FEFF 		bl	__aeabi_dcmplt
 1623 01ea 00B9     		cbnz	r0, .L127
 1624 01ec 484C     		ldr	r4, .L135+24
 1625              	.LVL67:
 1626              	.L127:
 136:subsystems/nav.c ****   carrot_angle = Max(carrot_angle, M_PI/16);
 1627              		.loc 1 136 0
 1628 01ee 2046     		mov	r0, r4
 1629 01f0 FFF7FEFF 		bl	__aeabi_f2d
 1630 01f4 42A3     		adr	r3, .L135+8
 1631 01f6 D3E90023 		ldrd	r2, [r3]
 1632 01fa FFF7FEFF 		bl	__aeabi_dcmpgt
 1633 01fe 00B9     		cbnz	r0, .L128
 1634 0200 444C     		ldr	r4, .L135+28
 1635              	.LVL68:
 1636              	.L128:
 138:subsystems/nav.c ****   horizontal_mode = HORIZONTAL_MODE_CIRCLE;
 1637              		.loc 1 138 0
 1638 0202 454B     		ldr	r3, .L135+32
 1639 0204 0222     		movs	r2, #2
 1640 0206 1A70     		strb	r2, [r3, #0]
 140:subsystems/nav.c ****   if (nav_mode == NAV_MODE_COURSE)
 1641              		.loc 1 140 0
 1642 0208 444B     		ldr	r3, .L135+36
 1643 020a 1B68     		ldr	r3, [r3, #0]
 1644 020c 9342     		cmp	r3, r2
 1645 020e 1CD1     		bne	.L130
 141:subsystems/nav.c ****     radius_carrot += (abs_radius / cos(carrot_angle) - abs_radius);
 1646              		.loc 1 141 0
 1647 0210 2846     		mov	r0, r5
 1648 0212 FFF7FEFF 		bl	__aeabi_f2d
 1649 0216 CDE90201 		strd	r0, [sp, #8]
 1650 021a 2046     		mov	r0, r4
 1651 021c FFF7FEFF 		bl	__aeabi_f2d
 1652 0220 FFF7FEFF 		bl	cos
 1653 0224 0246     		mov	r2, r0
 1654 0226 0B46     		mov	r3, r1
 1655 0228 DDE90201 		ldrd	r0, [sp, #8]
 1656 022c FFF7FEFF 		bl	__aeabi_ddiv
 1657 0230 DDE90223 		ldrd	r2, [sp, #8]
 1658 0234 FFF7FEFF 		bl	__aeabi_dsub
 1659 0238 0246     		mov	r2, r0
 1660 023a 0B46     		mov	r3, r1
 1661 023c DDE90201 		ldrd	r0, [sp, #8]
 1662 0240 FFF7FEFF 		bl	__aeabi_dadd
 1663 0244 FFF7FEFF 		bl	__aeabi_d2f
 1664 0248 0546     		mov	r5, r0
 1665              	.LVL69:
 1666              	.L130:
 142:subsystems/nav.c ****   fly_to_xy(x+cos(alpha_carrot)*radius_carrot,
 1667              		.loc 1 142 0
 1668 024a 2146     		mov	r1, r4
 1669 024c 5046     		mov	r0, sl
 1670 024e FFF7FEFF 		bl	__aeabi_fmul
 1671 0252 0146     		mov	r1, r0
 1672 0254 4846     		mov	r0, r9
 1673 0256 FFF7FEFF 		bl	__aeabi_fsub
 1674 025a FFF7FEFF 		bl	__aeabi_f2d
 1675 025e 0190     		str	r0, [sp, #4]
 1676 0260 0091     		str	r1, [sp, #0]
 1677 0262 FFF7FEFF 		bl	cos
 1678 0266 CDE90401 		strd	r0, [sp, #16]
 1679 026a 2846     		mov	r0, r5
 1680 026c FFF7FEFF 		bl	__aeabi_f2d
 143:subsystems/nav.c **** 	    y+sin(alpha_carrot)*radius_carrot);
 1681              		.loc 1 143 0
 1682 0270 019A     		ldr	r2, [sp, #4]
 1683 0272 009B     		ldr	r3, [sp, #0]
 142:subsystems/nav.c ****   fly_to_xy(x+cos(alpha_carrot)*radius_carrot,
 1684              		.loc 1 142 0
 1685 0274 8246     		mov	sl, r0
 1686              	.LVL70:
 1687 0276 8B46     		mov	fp, r1
 1688              	.LVL71:
 143:subsystems/nav.c **** 	    y+sin(alpha_carrot)*radius_carrot);
 1689              		.loc 1 143 0
 1690 0278 1046     		mov	r0, r2
 1691 027a 1946     		mov	r1, r3
 1692 027c FFF7FEFF 		bl	sin
 1693 0280 CDE90201 		strd	r0, [sp, #8]
 142:subsystems/nav.c ****   fly_to_xy(x+cos(alpha_carrot)*radius_carrot,
 1694              		.loc 1 142 0
 1695 0284 3046     		mov	r0, r6
 1696 0286 FFF7FEFF 		bl	__aeabi_f2d
 1697 028a 5246     		mov	r2, sl
 1698 028c 0446     		mov	r4, r0
 1699              	.LVL72:
 1700 028e 0D46     		mov	r5, r1
 1701              	.LVL73:
 1702 0290 5B46     		mov	r3, fp
 1703 0292 DDE90401 		ldrd	r0, [sp, #16]
 1704 0296 FFF7FEFF 		bl	__aeabi_dmul
 1705 029a 0246     		mov	r2, r0
 1706 029c 0B46     		mov	r3, r1
 1707 029e 2046     		mov	r0, r4
 1708 02a0 2946     		mov	r1, r5
 1709 02a2 FFF7FEFF 		bl	__aeabi_dadd
 1710 02a6 FFF7FEFF 		bl	__aeabi_d2f
 1711 02aa 0446     		mov	r4, r0
 1712 02ac 3846     		mov	r0, r7
 1713 02ae FFF7FEFF 		bl	__aeabi_f2d
 1714 02b2 5246     		mov	r2, sl
 1715 02b4 CDE90401 		strd	r0, [sp, #16]
 1716 02b8 DDE90201 		ldrd	r0, [sp, #8]
 1717 02bc 5B46     		mov	r3, fp
 1718 02be FFF7FEFF 		bl	__aeabi_dmul
 1719 02c2 0246     		mov	r2, r0
 1720 02c4 0B46     		mov	r3, r1
 1721 02c6 DDE90401 		ldrd	r0, [sp, #16]
 1722 02ca FFF7FEFF 		bl	__aeabi_dadd
 1723 02ce FFF7FEFF 		bl	__aeabi_d2f
 1724 02d2 0146     		mov	r1, r0
 1725 02d4 2046     		mov	r0, r4
 1726 02d6 FFF7FEFF 		bl	fly_to_xy
 144:subsystems/nav.c ****   nav_in_circle = TRUE;
 1727              		.loc 1 144 0
 1728 02da 114B     		ldr	r3, .L135+40
 1729 02dc 0122     		movs	r2, #1
 1730 02de 1A70     		strb	r2, [r3, #0]
 145:subsystems/nav.c ****   nav_circle_x = x;
 1731              		.loc 1 145 0
 1732 02e0 104B     		ldr	r3, .L135+44
 1733 02e2 1E60     		str	r6, [r3, #0]	@ float
 146:subsystems/nav.c ****   nav_circle_y = y;
 1734              		.loc 1 146 0
 1735 02e4 104B     		ldr	r3, .L135+48
 1736 02e6 1F60     		str	r7, [r3, #0]	@ float
 147:subsystems/nav.c ****   nav_circle_radius = radius;
 1737              		.loc 1 147 0
 1738 02e8 104B     		ldr	r3, .L135+52
 1739 02ea C3F80080 		str	r8, [r3, #0]	@ float
 148:subsystems/nav.c **** }
 1740              		.loc 1 148 0
 1741 02ee 07B0     		add	sp, sp, #28
 1742 02f0 BDE8F08F 		pop	{r4, r5, r6, r7, r8, r9, sl, fp, pc}
 1743              	.L136:
 1744 02f4 AFF30080 		.align	3
 1745              	.L135:
 1746 02f8 182D4454 		.word	1413754136
 1747 02fc FB21E93F 		.word	1072243195
 1748 0300 182D4454 		.word	1413754136
 1749 0304 FB21C93F 		.word	1070146043
 1750 0308 00000000 		.word	.LANCHOR39
 1751 030c 00007A42 		.word	1115291648
 1752 0310 DB0F493F 		.word	1061752795
 1753 0314 DB0F493E 		.word	1044975579
 1754 0318 00000000 		.word	.LANCHOR37
 1755 031c 00000000 		.word	.LANCHOR23
 1756 0320 00000000 		.word	.LANCHOR3
 1757 0324 00000000 		.word	.LANCHOR40
 1758 0328 00000000 		.word	.LANCHOR41
 1759 032c 00000000 		.word	.LANCHOR42
 1760              		.cfi_endproc
 1761              	.LFE35:
 1763              		.global	__aeabi_fcmpge
 1764              		.section	.text.nav_oval,"ax",%progbits
 1765              		.align	1
 1766              		.global	nav_oval
 1767              		.thumb
 1768              		.thumb_func
 1770              	nav_oval:
 1771              	.LFB58:
 592:subsystems/nav.c **** 
 593:subsystems/nav.c **** void nav_oval(uint8_t p1, uint8_t p2, float radius) {
 1772              		.loc 1 593 0
 1773              		.cfi_startproc
 1774              		@ args = 0, pretend = 0, frame = 40
 1775              		@ frame_needed = 0, uses_anonymous_args = 0
 1776              	.LVL74:
 1777 0000 2DE9F04F 		push	{r4, r5, r6, r7, r8, r9, sl, fp, lr}
 1778              	.LCFI12:
 1779              		.cfi_def_cfa_offset 36
 594:subsystems/nav.c ****   radius = - radius; /* Historical error ? */
 595:subsystems/nav.c **** 
 596:subsystems/nav.c ****   float alt = waypoints[p1].a;
 597:subsystems/nav.c ****   waypoints[p2].a = alt;
 1780              		.loc 1 597 0
 1781 0004 4FF00C09 		mov	r9, #12
 1782              		.cfi_offset 14, -4
 1783              		.cfi_offset 11, -8
 1784              		.cfi_offset 10, -12
 1785              		.cfi_offset 9, -16
 1786              		.cfi_offset 8, -20
 1787              		.cfi_offset 7, -24
 1788              		.cfi_offset 6, -28
 1789              		.cfi_offset 5, -32
 1790              		.cfi_offset 4, -36
 1791 0008 09FB01F8 		mul	r8, r9, r1
 1792 000c 09FB00F9 		mul	r9, r9, r0
 1793 0010 9D4D     		ldr	r5, .L196+24
 593:subsystems/nav.c **** void nav_oval(uint8_t p1, uint8_t p2, float radius) {
 1794              		.loc 1 593 0
 1795 0012 8DB0     		sub	sp, sp, #52
 1796              	.LCFI13:
 1797              		.cfi_def_cfa_offset 88
 1798              		.loc 1 597 0
 1799 0014 09EB050A 		add	sl, r9, r5
 1800 0018 DAF80830 		ldr	r3, [sl, #8]	@ float
 1801 001c 08EB0506 		add	r6, r8, r5
 1802 0020 B360     		str	r3, [r6, #8]	@ float
 593:subsystems/nav.c **** void nav_oval(uint8_t p1, uint8_t p2, float radius) {
 1803              		.loc 1 593 0
 1804 0022 0890     		str	r0, [sp, #32]
 1805 0024 0991     		str	r1, [sp, #36]
 598:subsystems/nav.c **** 
 599:subsystems/nav.c ****   float p2_p1_x = waypoints[p1].x - waypoints[p2].x;
 1806              		.loc 1 599 0
 1807 0026 59F80500 		ldr	r0, [r9, r5]	@ float
 1808              	.LVL75:
 1809 002a 58F80510 		ldr	r1, [r8, r5]	@ float
 1810              	.LVL76:
 594:subsystems/nav.c ****   radius = - radius; /* Historical error ? */
 1811              		.loc 1 594 0
 1812 002e 02F10044 		add	r4, r2, #-2147483648
 1813              	.LVL77:
 593:subsystems/nav.c **** void nav_oval(uint8_t p1, uint8_t p2, float radius) {
 1814              		.loc 1 593 0
 1815 0032 0392     		str	r2, [sp, #12]	@ float
 1816              		.loc 1 599 0
 1817 0034 FFF7FEFF 		bl	__aeabi_fsub
 600:subsystems/nav.c ****   float p2_p1_y = waypoints[p1].y - waypoints[p2].y;
 1818              		.loc 1 600 0
 1819 0038 7168     		ldr	r1, [r6, #4]	@ float
 599:subsystems/nav.c ****   float p2_p1_x = waypoints[p1].x - waypoints[p2].x;
 1820              		.loc 1 599 0
 1821 003a 8346     		mov	fp, r0
 1822              		.loc 1 600 0
 1823 003c DAF80400 		ldr	r0, [sl, #4]	@ float
 1824 0040 FFF7FEFF 		bl	__aeabi_fsub
 601:subsystems/nav.c ****   float d = sqrt(p2_p1_x*p2_p1_x+p2_p1_y*p2_p1_y);
 1825              		.loc 1 601 0
 1826 0044 5946     		mov	r1, fp
 600:subsystems/nav.c ****   float p2_p1_y = waypoints[p1].y - waypoints[p2].y;
 1827              		.loc 1 600 0
 1828 0046 0746     		mov	r7, r0
 1829              		.loc 1 601 0
 1830 0048 5846     		mov	r0, fp
 1831 004a FFF7FEFF 		bl	__aeabi_fmul
 1832 004e 3946     		mov	r1, r7
 1833 0050 0346     		mov	r3, r0
 1834 0052 3846     		mov	r0, r7
 1835 0054 0293     		str	r3, [sp, #8]
 1836 0056 FFF7FEFF 		bl	__aeabi_fmul
 1837 005a 029B     		ldr	r3, [sp, #8]
 1838 005c 0146     		mov	r1, r0
 1839 005e 1846     		mov	r0, r3
 1840 0060 FFF7FEFF 		bl	__aeabi_fadd
 1841 0064 FFF7FEFF 		bl	__aeabi_f2d
 1842 0068 FFF7FEFF 		bl	sqrt
 1843 006c FFF7FEFF 		bl	__aeabi_d2f
 1844 0070 0346     		mov	r3, r0
 602:subsystems/nav.c **** 
 603:subsystems/nav.c ****   /* Unit vector from p1 to p2 */
 604:subsystems/nav.c ****   float u_x = p2_p1_x / d;
 1845              		.loc 1 604 0
 1846 0072 1946     		mov	r1, r3
 1847 0074 5846     		mov	r0, fp
 1848 0076 0293     		str	r3, [sp, #8]
 1849 0078 FFF7FEFF 		bl	__aeabi_fdiv
 605:subsystems/nav.c ****   float u_y = p2_p1_y / d;
 1850              		.loc 1 605 0
 1851 007c 029B     		ldr	r3, [sp, #8]
 604:subsystems/nav.c ****   float u_x = p2_p1_x / d;
 1852              		.loc 1 604 0
 1853 007e 8346     		mov	fp, r0
 1854              	.LVL78:
 1855              		.loc 1 605 0
 1856 0080 1946     		mov	r1, r3
 1857 0082 3846     		mov	r0, r7
 1858 0084 FFF7FEFF 		bl	__aeabi_fdiv
 606:subsystems/nav.c **** 
 607:subsystems/nav.c ****   /* The half circle centers and the other leg */
 608:subsystems/nav.c ****   struct point p1_center = { waypoints[p1].x + radius * -u_y,
 1859              		.loc 1 608 0
 1860 0088 59F80590 		ldr	r9, [r9, r5]	@ float
 1861 008c 00F10041 		add	r1, r0, #-2147483648
 605:subsystems/nav.c ****   float u_y = p2_p1_y / d;
 1862              		.loc 1 605 0
 1863 0090 0746     		mov	r7, r0
 1864              	.LVL79:
 1865              		.loc 1 608 0
 1866 0092 2046     		mov	r0, r4
 1867 0094 CDF81490 		str	r9, [sp, #20]	@ float
 1868 0098 FFF7FEFF 		bl	__aeabi_fmul
 609:subsystems/nav.c **** 			     waypoints[p1].y + radius * u_x,
 1869              		.loc 1 609 0
 1870 009c DAF804A0 		ldr	sl, [sl, #4]	@ float
 608:subsystems/nav.c ****   struct point p1_center = { waypoints[p1].x + radius * -u_y,
 1871              		.loc 1 608 0
 1872 00a0 0790     		str	r0, [sp, #28]	@ float
 1873              		.loc 1 609 0
 1874 00a2 5946     		mov	r1, fp
 1875 00a4 2046     		mov	r0, r4
 1876 00a6 CDF810A0 		str	sl, [sp, #16]	@ float
 1877 00aa FFF7FEFF 		bl	__aeabi_fmul
 1878 00ae 0690     		str	r0, [sp, #24]	@ float
 610:subsystems/nav.c **** 			     alt  };
 611:subsystems/nav.c ****   struct point p1_out = { waypoints[p1].x + 2*radius * -u_y,
 612:subsystems/nav.c **** 			  waypoints[p1].y + 2*radius * u_x,
 613:subsystems/nav.c **** 			  alt  };
 614:subsystems/nav.c **** 
 615:subsystems/nav.c ****   struct point p2_in = { waypoints[p2].x + 2*radius * -u_y,
 616:subsystems/nav.c **** 			 waypoints[p2].y + 2*radius * u_x,
 617:subsystems/nav.c **** 			 alt  };
 618:subsystems/nav.c ****   struct point p2_center = { waypoints[p2].x + radius * -u_y,
 619:subsystems/nav.c **** 			     waypoints[p2].y + radius * u_x,
 620:subsystems/nav.c **** 			     alt  };
 621:subsystems/nav.c **** 
 622:subsystems/nav.c ****   float qdr_out_2 = M_PI - atan2(u_y, u_x);
 1879              		.loc 1 622 0
 1880 00b0 3846     		mov	r0, r7
 1881 00b2 FFF7FEFF 		bl	__aeabi_f2d
 1882 00b6 CDE90A01 		strd	r0, [sp, #40]
 1883 00ba 5846     		mov	r0, fp
 1884 00bc FFF7FEFF 		bl	__aeabi_f2d
 1885 00c0 0246     		mov	r2, r0
 1886 00c2 0B46     		mov	r3, r1
 1887 00c4 DDE90A01 		ldrd	r0, [sp, #40]
 615:subsystems/nav.c ****   struct point p2_in = { waypoints[p2].x + 2*radius * -u_y,
 1888              		.loc 1 615 0
 1889 00c8 58F80590 		ldr	r9, [r8, r5]	@ float
 616:subsystems/nav.c **** 			 waypoints[p2].y + 2*radius * u_x,
 1890              		.loc 1 616 0
 1891 00cc D6F80480 		ldr	r8, [r6, #4]	@ float
 1892              		.loc 1 622 0
 1893 00d0 FFF7FEFF 		bl	atan2
 1894 00d4 0246     		mov	r2, r0
 1895 00d6 0B46     		mov	r3, r1
 1896 00d8 65A1     		adr	r1, .L196
 1897 00da D1E90001 		ldrd	r0, [r1]
 1898 00de FFF7FEFF 		bl	__aeabi_dsub
 1899 00e2 FFF7FEFF 		bl	__aeabi_d2f
 1900 00e6 8246     		mov	sl, r0
 1901              	.LVL80:
 623:subsystems/nav.c ****   float qdr_out_1 = qdr_out_2 + M_PI;
 1902              		.loc 1 623 0
 1903 00e8 FFF7FEFF 		bl	__aeabi_f2d
 1904 00ec 60A3     		adr	r3, .L196
 1905 00ee D3E90023 		ldrd	r2, [r3]
 1906 00f2 FFF7FEFF 		bl	__aeabi_dadd
 1907 00f6 FFF7FEFF 		bl	__aeabi_d2f
 624:subsystems/nav.c ****   if (radius < 0) {
 1908              		.loc 1 624 0
 1909 00fa 0021     		movs	r1, #0
 623:subsystems/nav.c ****   float qdr_out_1 = qdr_out_2 + M_PI;
 1910              		.loc 1 623 0
 1911 00fc 0546     		mov	r5, r0
 1912              	.LVL81:
 1913              		.loc 1 624 0
 1914 00fe 2046     		mov	r0, r4
 1915 0100 FFF7FEFF 		bl	__aeabi_fcmplt
 1916 0104 58B1     		cbz	r0, .L138
 625:subsystems/nav.c ****     qdr_out_2 += M_PI;
 626:subsystems/nav.c ****     qdr_out_1 += M_PI;
 1917              		.loc 1 626 0
 1918 0106 2846     		mov	r0, r5
 1919 0108 FFF7FEFF 		bl	__aeabi_f2d
 1920 010c 58A3     		adr	r3, .L196
 1921 010e D3E90023 		ldrd	r2, [r3]
 1922 0112 FFF7FEFF 		bl	__aeabi_dadd
 1923 0116 FFF7FEFF 		bl	__aeabi_d2f
 1924 011a AA46     		mov	sl, r5
 1925 011c 0546     		mov	r5, r0
 1926              	.L138:
 627:subsystems/nav.c ****   }
 628:subsystems/nav.c ****   float qdr_anticipation = (radius > 0 ? -15 : 15);
 1927              		.loc 1 628 0
 1928 011e 2046     		mov	r0, r4
 1929 0120 0021     		movs	r1, #0
 1930 0122 FFF7FEFF 		bl	__aeabi_fcmpgt
 1931 0126 08B9     		cbnz	r0, .L140
 1932 0128 584E     		ldr	r6, .L196+28
 1933              	.LVL82:
 1934 012a 00E0     		b	.L141
 1935              	.LVL83:
 1936              	.L140:
 1937 012c 584E     		ldr	r6, .L196+32
 1938              	.LVL84:
 1939              	.L141:
 629:subsystems/nav.c **** 
 630:subsystems/nav.c ****   switch (oval_status) {
 1940              		.loc 1 630 0
 1941 012e 594B     		ldr	r3, .L196+36
 1942 0130 1B78     		ldrb	r3, [r3, #0]	@ zero_extendqisi2
 1943 0132 032B     		cmp	r3, #3
 1944 0134 00F2A981 		bhi	.L180
 1945 0138 DFE813F0 		tbh	[pc, r3, lsl #1]
 1946              	.L147:
 1947 013c B600     		.2byte	(.L143-.L147)/2
 1948 013e F300     		.2byte	(.L144-.L147)/2
 1949 0140 8401     		.2byte	(.L145-.L147)/2
 1950 0142 0400     		.2byte	(.L146-.L147)/2
 1951              	.L146:
 631:subsystems/nav.c ****   case OC1 :
 632:subsystems/nav.c ****     nav_circle_XY(p1_center.x,p1_center.y, -radius);
 1952              		.loc 1 632 0
 1953 0144 0799     		ldr	r1, [sp, #28]	@ float
 1954 0146 0598     		ldr	r0, [sp, #20]	@ float
 1955 0148 FFF7FEFF 		bl	__aeabi_fadd
 1956 014c 0699     		ldr	r1, [sp, #24]	@ float
 1957 014e 0446     		mov	r4, r0
 1958              	.LVL85:
 1959 0150 0498     		ldr	r0, [sp, #16]	@ float
 1960 0152 FFF7FEFF 		bl	__aeabi_fadd
 1961 0156 039A     		ldr	r2, [sp, #12]	@ float
 1962 0158 0146     		mov	r1, r0
 1963 015a 2046     		mov	r0, r4
 1964 015c FFF7FEFF 		bl	nav_circle_XY
 1965              	.LBB6:
 1966              	.LBB7:
 633:subsystems/nav.c ****     if (NavQdrCloseTo(DegOfRad(qdr_out_1)-qdr_anticipation)) {
 1967              		.loc 1 633 0
 1968 0160 4D4B     		ldr	r3, .L196+40
 1969 0162 4FF00008 		mov	r8, #0
 1970 0166 1868     		ldr	r0, [r3, #0]	@ float
 1971 0168 FFF7FEFF 		bl	__aeabi_f2d
 1972 016c 0246     		mov	r2, r0
 1973 016e 0B46     		mov	r3, r1
 1974 0170 41A1     		adr	r1, .L196+8
 1975 0172 D1E90001 		ldrd	r0, [r1]
 1976 0176 FFF7FEFF 		bl	__aeabi_dsub
 1977 017a 41A3     		adr	r3, .L196+16
 1978 017c D3E90023 		ldrd	r2, [r3]
 1979 0180 FFF7FEFF 		bl	__aeabi_dmul
 1980 0184 FFF7FEFF 		bl	__aeabi_d2f
 1981 0188 0446     		mov	r4, r0
 1982              	.LVL86:
 1983              	.LBB8:
 1984 018a 04E0     		b	.L148
 1985              	.LVL87:
 1986              	.L151:
 1987 018c 2046     		mov	r0, r4
 1988 018e 4349     		ldr	r1, .L196+44
 1989 0190 FFF7FEFF 		bl	__aeabi_fadd
 1990 0194 0446     		mov	r4, r0
 1991              	.LVL88:
 1992              	.L148:
 1993 0196 2046     		mov	r0, r4
 1994 0198 0021     		movs	r1, #0
 1995 019a 5FFA88F7 		uxtb	r7, r8
 1996              	.LVL89:
 1997 019e FFF7FEFF 		bl	__aeabi_fcmplt
 1998 01a2 58B1     		cbz	r0, .L149
 1999 01a4 08F10108 		add	r8, r8, #1
 2000 01a8 B8F5807F 		cmp	r8, #256
 2001 01ac EED1     		bne	.L151
 2002 01ae 0027     		movs	r7, #0
 2003              	.LVL90:
 2004 01b0 04E0     		b	.L149
 2005              	.L154:
 2006 01b2 2046     		mov	r0, r4
 2007 01b4 3949     		ldr	r1, .L196+44
 2008 01b6 FFF7FEFF 		bl	__aeabi_fsub
 2009 01ba 0446     		mov	r4, r0
 2010              	.LVL91:
 2011              	.L149:
 2012 01bc 2046     		mov	r0, r4
 2013 01be 3749     		ldr	r1, .L196+44
 2014 01c0 FFF7FEFF 		bl	__aeabi_fcmpge
 2015 01c4 18B1     		cbz	r0, .L152
 2016 01c6 0137     		adds	r7, r7, #1
 2017              	.LVL92:
 2018 01c8 FFB2     		uxtb	r7, r7
 2019              	.LVL93:
 2020 01ca 002F     		cmp	r7, #0
 2021 01cc F1D1     		bne	.L154
 2022              	.L152:
 2023              	.LBE8:
 2024              	.LBE7:
 2025 01ce 2846     		mov	r0, r5
 2026 01d0 FFF7FEFF 		bl	__aeabi_f2d
 2027 01d4 2AA3     		adr	r3, .L196+16
 2028 01d6 D3E90023 		ldrd	r2, [r3]
 2029 01da FFF7FEFF 		bl	__aeabi_dmul
 2030 01de 8046     		mov	r8, r0
 2031 01e0 3046     		mov	r0, r6
 2032 01e2 8946     		mov	r9, r1
 2033 01e4 FFF7FEFF 		bl	__aeabi_f2d
 2034 01e8 0246     		mov	r2, r0
 2035 01ea 0B46     		mov	r3, r1
 2036 01ec 4046     		mov	r0, r8
 2037 01ee 4946     		mov	r1, r9
 2038 01f0 FFF7FEFF 		bl	__aeabi_dsub
 2039 01f4 0646     		mov	r6, r0
 2040              	.LVL94:
 2041 01f6 2046     		mov	r0, r4
 2042 01f8 0F46     		mov	r7, r1
 2043              	.LVL95:
 2044 01fa FFF7FEFF 		bl	__aeabi_f2d
 2045 01fe 0246     		mov	r2, r0
 2046 0200 0B46     		mov	r3, r1
 2047 0202 3046     		mov	r0, r6
 2048 0204 3946     		mov	r1, r7
 2049 0206 FFF7FEFF 		bl	__aeabi_dsub
 2050 020a FFF7FEFF 		bl	__aeabi_d2f
 2051 020e 0026     		movs	r6, #0
 2052 0210 0446     		mov	r4, r0
 2053              	.LVL96:
 2054              	.LBB9:
 2055 0212 04E0     		b	.L155
 2056              	.LVL97:
 2057              	.L158:
 2058 0214 2046     		mov	r0, r4
 2059 0216 2149     		ldr	r1, .L196+44
 2060 0218 FFF7FEFF 		bl	__aeabi_fadd
 2061 021c 0446     		mov	r4, r0
 2062              	.LVL98:
 2063              	.L155:
 2064 021e 2046     		mov	r0, r4
 2065 0220 0021     		movs	r1, #0
 2066 0222 F5B2     		uxtb	r5, r6
 2067              	.LVL99:
 2068 0224 FFF7FEFF 		bl	__aeabi_fcmplt
 2069 0228 50B1     		cbz	r0, .L156
 2070 022a 0136     		adds	r6, r6, #1
 2071 022c B6F5807F 		cmp	r6, #256
 2072 0230 F0D1     		bne	.L158
 2073 0232 0025     		movs	r5, #0
 2074              	.LVL100:
 2075 0234 04E0     		b	.L156
 2076              	.L161:
 2077 0236 2046     		mov	r0, r4
 2078 0238 1849     		ldr	r1, .L196+44
 2079 023a FFF7FEFF 		bl	__aeabi_fsub
 2080 023e 0446     		mov	r4, r0
 2081              	.LVL101:
 2082              	.L156:
 2083 0240 2046     		mov	r0, r4
 2084 0242 1649     		ldr	r1, .L196+44
 2085 0244 FFF7FEFF 		bl	__aeabi_fcmpge
 2086 0248 18B1     		cbz	r0, .L159
 2087 024a 0135     		adds	r5, r5, #1
 2088              	.LVL102:
 2089 024c EDB2     		uxtb	r5, r5
 2090              	.LVL103:
 2091 024e 002D     		cmp	r5, #0
 2092 0250 F1D1     		bne	.L161
 2093              	.L159:
 2094              	.LBE9:
 2095 0252 2046     		mov	r0, r4
 2096 0254 1249     		ldr	r1, .L196+48
 2097 0256 FFF7FEFF 		bl	__aeabi_fcmpgt
 2098 025a 30B9     		cbnz	r0, .L162
 2099 025c 2046     		mov	r0, r4
 2100 025e 1149     		ldr	r1, .L196+52
 2101 0260 FFF7FEFF 		bl	__aeabi_fcmplt
 2102 0264 0028     		cmp	r0, #0
 2103 0266 00F01081 		beq	.L180
 2104              	.L162:
 2105              	.LBE6:
 634:subsystems/nav.c ****       oval_status = OR12;
 2106              		.loc 1 634 0
 2107 026a 0022     		movs	r2, #0
 2108 026c 06E1     		b	.L194
 2109              	.L197:
 2110 026e 00BF     		.align	3
 2111              	.L196:
 2112 0270 182D4454 		.word	1413754136
 2113 0274 FB210940 		.word	1074340347
 2114 0278 182D4454 		.word	1413754136
 2115 027c FB21F93F 		.word	1073291771
 2116 0280 F8C1631A 		.word	442745336
 2117 0284 DCA54C40 		.word	1078765020
 2118 0288 00000000 		.word	.LANCHOR8
 2119 028c 00007041 		.word	1097859072
 2120 0290 000070C1 		.word	-1049624576
 2121 0294 00000000 		.word	.LANCHOR26
 2122 0298 00000000 		.word	.LANCHOR38
 2123 029c 0000B443 		.word	1135869952
 2124 02a0 0000AF43 		.word	1135542272
 2125 02a4 00002041 		.word	1092616192
 2126              	.LVL104:
 2127              	.L143:
 611:subsystems/nav.c ****   struct point p1_out = { waypoints[p1].x + 2*radius * -u_y,
 2128              		.loc 1 611 0
 2129 02a8 2046     		mov	r0, r4
 2130 02aa 4FF04041 		mov	r1, #-1073741824
 2131 02ae FFF7FEFF 		bl	__aeabi_fmul
 2132 02b2 3946     		mov	r1, r7
 2133 02b4 FFF7FEFF 		bl	__aeabi_fmul
 2134 02b8 0646     		mov	r6, r0
 2135              	.LVL105:
 2136 02ba 3146     		mov	r1, r6
 2137 02bc 0598     		ldr	r0, [sp, #20]	@ float
 2138 02be FFF7FEFF 		bl	__aeabi_fadd
 612:subsystems/nav.c **** 			  waypoints[p1].y + 2*radius * u_x,
 2139              		.loc 1 612 0
 2140 02c2 2146     		mov	r1, r4
 2141              	.LVL106:
 611:subsystems/nav.c ****   struct point p1_out = { waypoints[p1].x + 2*radius * -u_y,
 2142              		.loc 1 611 0
 2143 02c4 0546     		mov	r5, r0
 2144              	.LVL107:
 612:subsystems/nav.c **** 			  waypoints[p1].y + 2*radius * u_x,
 2145              		.loc 1 612 0
 2146 02c6 2046     		mov	r0, r4
 2147              	.LVL108:
 2148 02c8 FFF7FEFF 		bl	__aeabi_fadd
 2149 02cc 5946     		mov	r1, fp
 2150 02ce FFF7FEFF 		bl	__aeabi_fmul
 2151 02d2 0746     		mov	r7, r0
 2152              	.LVL109:
 2153 02d4 3946     		mov	r1, r7
 2154 02d6 0498     		ldr	r0, [sp, #16]	@ float
 2155 02d8 FFF7FEFF 		bl	__aeabi_fadd
 615:subsystems/nav.c ****   struct point p2_in = { waypoints[p2].x + 2*radius * -u_y,
 2156              		.loc 1 615 0
 2157 02dc 3146     		mov	r1, r6
 612:subsystems/nav.c **** 			  waypoints[p1].y + 2*radius * u_x,
 2158              		.loc 1 612 0
 2159 02de 0446     		mov	r4, r0
 2160              	.LVL110:
 615:subsystems/nav.c ****   struct point p2_in = { waypoints[p2].x + 2*radius * -u_y,
 2161              		.loc 1 615 0
 2162 02e0 4846     		mov	r0, r9
 2163 02e2 FFF7FEFF 		bl	__aeabi_fadd
 616:subsystems/nav.c **** 			 waypoints[p2].y + 2*radius * u_x,
 2164              		.loc 1 616 0
 2165 02e6 3946     		mov	r1, r7
 615:subsystems/nav.c ****   struct point p2_in = { waypoints[p2].x + 2*radius * -u_y,
 2166              		.loc 1 615 0
 2167 02e8 0646     		mov	r6, r0
 616:subsystems/nav.c **** 			 waypoints[p2].y + 2*radius * u_x,
 2168              		.loc 1 616 0
 2169 02ea 4046     		mov	r0, r8
 2170 02ec FFF7FEFF 		bl	__aeabi_fadd
 2171 02f0 0746     		mov	r7, r0
 635:subsystems/nav.c ****       InitStage();
 636:subsystems/nav.c ****       LINE_START_FUNCTION;
 637:subsystems/nav.c ****     }
 638:subsystems/nav.c ****     return;
 639:subsystems/nav.c **** 
 640:subsystems/nav.c ****   case OR12:
 641:subsystems/nav.c ****     nav_route_xy(p1_out.x, p1_out.y, p2_in.x, p2_in.y);
 2172              		.loc 1 641 0
 2173 02f2 2146     		mov	r1, r4
 2174 02f4 2846     		mov	r0, r5
 2175 02f6 3246     		mov	r2, r6
 2176 02f8 3B46     		mov	r3, r7
 2177 02fa FFF7FEFF 		bl	nav_route_xy
 642:subsystems/nav.c ****     if (nav_approaching_xy(p2_in.x, p2_in.y, p1_out.x, p1_out.y, CARROT)) {
 2178              		.loc 1 642 0
 2179 02fe 684B     		ldr	r3, .L198+16
 2180 0300 3046     		mov	r0, r6
 2181 0302 0093     		str	r3, [sp, #0]	@ float
 2182 0304 3946     		mov	r1, r7
 2183 0306 2A46     		mov	r2, r5
 2184 0308 2346     		mov	r3, r4
 2185 030a FFF7FEFF 		bl	nav_approaching_xy
 2186 030e 0028     		cmp	r0, #0
 2187 0310 00F0BB80 		beq	.L180
 643:subsystems/nav.c ****       oval_status = OC2;
 2188              		.loc 1 643 0
 2189 0314 634B     		ldr	r3, .L198+20
 2190 0316 0122     		movs	r2, #1
 2191 0318 1A70     		strb	r2, [r3, #0]
 644:subsystems/nav.c ****       nav_oval_count++;
 2192              		.loc 1 644 0
 2193 031a 634B     		ldr	r3, .L198+24
 2194 031c 1A78     		ldrb	r2, [r3, #0]	@ zero_extendqisi2
 2195 031e 0132     		adds	r2, r2, #1
 2196 0320 ADE0     		b	.L195
 2197              	.LVL111:
 2198              	.L144:
 645:subsystems/nav.c ****       InitStage();
 646:subsystems/nav.c ****       LINE_STOP_FUNCTION;
 647:subsystems/nav.c ****     }
 648:subsystems/nav.c ****     return;
 649:subsystems/nav.c **** 
 650:subsystems/nav.c ****   case OC2 :
 651:subsystems/nav.c ****     nav_circle_XY(p2_center.x, p2_center.y, -radius);
 2199              		.loc 1 651 0
 2200 0322 0799     		ldr	r1, [sp, #28]	@ float
 2201 0324 4846     		mov	r0, r9
 2202 0326 FFF7FEFF 		bl	__aeabi_fadd
 2203 032a 0699     		ldr	r1, [sp, #24]	@ float
 2204 032c 0446     		mov	r4, r0
 2205              	.LVL112:
 2206 032e 4046     		mov	r0, r8
 2207 0330 FFF7FEFF 		bl	__aeabi_fadd
 2208 0334 039A     		ldr	r2, [sp, #12]	@ float
 2209 0336 0146     		mov	r1, r0
 2210 0338 2046     		mov	r0, r4
 2211 033a FFF7FEFF 		bl	nav_circle_XY
 2212              	.LBB10:
 2213              	.LBB11:
 652:subsystems/nav.c ****     if (NavQdrCloseTo(DegOfRad(qdr_out_2)-qdr_anticipation)) {
 2214              		.loc 1 652 0
 2215 033e 5B4B     		ldr	r3, .L198+28
 2216 0340 0027     		movs	r7, #0
 2217              	.LVL113:
 2218 0342 1868     		ldr	r0, [r3, #0]	@ float
 2219 0344 FFF7FEFF 		bl	__aeabi_f2d
 2220 0348 0246     		mov	r2, r0
 2221 034a 0B46     		mov	r3, r1
 2222 034c 50A1     		adr	r1, .L198
 2223 034e D1E90001 		ldrd	r0, [r1]
 2224 0352 FFF7FEFF 		bl	__aeabi_dsub
 2225 0356 50A3     		adr	r3, .L198+8
 2226 0358 D3E90023 		ldrd	r2, [r3]
 2227 035c FFF7FEFF 		bl	__aeabi_dmul
 2228 0360 FFF7FEFF 		bl	__aeabi_d2f
 2229 0364 0446     		mov	r4, r0
 2230              	.LVL114:
 2231              	.LBB12:
 2232 0366 04E0     		b	.L164
 2233              	.LVL115:
 2234              	.L167:
 2235 0368 2046     		mov	r0, r4
 2236 036a 5149     		ldr	r1, .L198+32
 2237 036c FFF7FEFF 		bl	__aeabi_fadd
 2238 0370 0446     		mov	r4, r0
 2239              	.LVL116:
 2240              	.L164:
 2241 0372 2046     		mov	r0, r4
 2242 0374 0021     		movs	r1, #0
 2243 0376 FDB2     		uxtb	r5, r7
 2244              	.LVL117:
 2245 0378 FFF7FEFF 		bl	__aeabi_fcmplt
 2246 037c 50B1     		cbz	r0, .L165
 2247 037e 0137     		adds	r7, r7, #1
 2248 0380 B7F5807F 		cmp	r7, #256
 2249 0384 F0D1     		bne	.L167
 2250 0386 0025     		movs	r5, #0
 2251              	.LVL118:
 2252 0388 04E0     		b	.L165
 2253              	.L170:
 2254 038a 2046     		mov	r0, r4
 2255 038c 4849     		ldr	r1, .L198+32
 2256 038e FFF7FEFF 		bl	__aeabi_fsub
 2257 0392 0446     		mov	r4, r0
 2258              	.LVL119:
 2259              	.L165:
 2260 0394 2046     		mov	r0, r4
 2261 0396 4649     		ldr	r1, .L198+32
 2262 0398 FFF7FEFF 		bl	__aeabi_fcmpge
 2263 039c 18B1     		cbz	r0, .L168
 2264 039e 0135     		adds	r5, r5, #1
 2265              	.LVL120:
 2266 03a0 EDB2     		uxtb	r5, r5
 2267              	.LVL121:
 2268 03a2 002D     		cmp	r5, #0
 2269 03a4 F1D1     		bne	.L170
 2270              	.L168:
 2271              	.LBE12:
 2272              	.LBE11:
 2273 03a6 5046     		mov	r0, sl
 2274 03a8 FFF7FEFF 		bl	__aeabi_f2d
 2275 03ac 3AA3     		adr	r3, .L198+8
 2276 03ae D3E90023 		ldrd	r2, [r3]
 2277 03b2 FFF7FEFF 		bl	__aeabi_dmul
 2278 03b6 8046     		mov	r8, r0
 2279 03b8 3046     		mov	r0, r6
 2280 03ba 8946     		mov	r9, r1
 2281 03bc FFF7FEFF 		bl	__aeabi_f2d
 2282 03c0 0246     		mov	r2, r0
 2283 03c2 0B46     		mov	r3, r1
 2284 03c4 4046     		mov	r0, r8
 2285 03c6 4946     		mov	r1, r9
 2286 03c8 FFF7FEFF 		bl	__aeabi_dsub
 2287 03cc 0646     		mov	r6, r0
 2288              	.LVL122:
 2289 03ce 2046     		mov	r0, r4
 2290 03d0 0F46     		mov	r7, r1
 2291 03d2 FFF7FEFF 		bl	__aeabi_f2d
 2292 03d6 0246     		mov	r2, r0
 2293 03d8 0B46     		mov	r3, r1
 2294 03da 3046     		mov	r0, r6
 2295 03dc 3946     		mov	r1, r7
 2296 03de FFF7FEFF 		bl	__aeabi_dsub
 2297 03e2 FFF7FEFF 		bl	__aeabi_d2f
 2298 03e6 0026     		movs	r6, #0
 2299 03e8 0446     		mov	r4, r0
 2300              	.LVL123:
 2301              	.LBB13:
 2302 03ea 04E0     		b	.L171
 2303              	.LVL124:
 2304              	.L174:
 2305 03ec 2046     		mov	r0, r4
 2306 03ee 3049     		ldr	r1, .L198+32
 2307 03f0 FFF7FEFF 		bl	__aeabi_fadd
 2308 03f4 0446     		mov	r4, r0
 2309              	.LVL125:
 2310              	.L171:
 2311 03f6 2046     		mov	r0, r4
 2312 03f8 0021     		movs	r1, #0
 2313 03fa F5B2     		uxtb	r5, r6
 2314              	.LVL126:
 2315 03fc FFF7FEFF 		bl	__aeabi_fcmplt
 2316 0400 50B1     		cbz	r0, .L172
 2317 0402 0136     		adds	r6, r6, #1
 2318 0404 B6F5807F 		cmp	r6, #256
 2319 0408 F0D1     		bne	.L174
 2320 040a 0025     		movs	r5, #0
 2321              	.LVL127:
 2322 040c 04E0     		b	.L172
 2323              	.L177:
 2324 040e 2046     		mov	r0, r4
 2325 0410 2749     		ldr	r1, .L198+32
 2326 0412 FFF7FEFF 		bl	__aeabi_fsub
 2327 0416 0446     		mov	r4, r0
 2328              	.LVL128:
 2329              	.L172:
 2330 0418 2046     		mov	r0, r4
 2331 041a 2549     		ldr	r1, .L198+32
 2332 041c FFF7FEFF 		bl	__aeabi_fcmpge
 2333 0420 18B1     		cbz	r0, .L175
 2334 0422 0135     		adds	r5, r5, #1
 2335              	.LVL129:
 2336 0424 EDB2     		uxtb	r5, r5
 2337              	.LVL130:
 2338 0426 002D     		cmp	r5, #0
 2339 0428 F1D1     		bne	.L177
 2340              	.L175:
 2341              	.LBE13:
 2342 042a 2046     		mov	r0, r4
 2343 042c 2149     		ldr	r1, .L198+36
 2344 042e FFF7FEFF 		bl	__aeabi_fcmpgt
 2345 0432 28B9     		cbnz	r0, .L178
 2346 0434 2046     		mov	r0, r4
 2347 0436 2049     		ldr	r1, .L198+40
 2348 0438 FFF7FEFF 		bl	__aeabi_fcmplt
 2349 043c 0028     		cmp	r0, #0
 2350 043e 24D0     		beq	.L180
 2351              	.L178:
 2352              	.LBE10:
 653:subsystems/nav.c ****       oval_status = OR21;
 2353              		.loc 1 653 0
 2354 0440 0222     		movs	r2, #2
 2355 0442 1BE0     		b	.L194
 2356              	.LVL131:
 2357              	.L145:
 654:subsystems/nav.c ****       InitStage();
 655:subsystems/nav.c ****       LINE_START_FUNCTION;
 656:subsystems/nav.c ****     }
 657:subsystems/nav.c ****    return;
 658:subsystems/nav.c **** 
 659:subsystems/nav.c ****   case OR21:
 660:subsystems/nav.c ****     nav_route_xy(waypoints[p2].x, waypoints[p2].y, waypoints[p1].x, waypoints[p1].y);
 2358              		.loc 1 660 0
 2359 0444 099A     		ldr	r2, [sp, #36]
 2360 0446 089B     		ldr	r3, [sp, #32]
 2361 0448 0C26     		movs	r6, #12
 2362              	.LVL132:
 2363 044a 06FB02F5 		mul	r5, r6, r2
 2364              	.LVL133:
 2365 044e 5E43     		muls	r6, r3, r6
 2366 0450 1A4C     		ldr	r4, .L198+44
 2367              	.LVL134:
 2368 0452 05EB0408 		add	r8, r5, r4
 2369 0456 3719     		adds	r7, r6, r4
 2370              	.LVL135:
 2371 0458 2859     		ldr	r0, [r5, r4]	@ float
 2372 045a D8F80410 		ldr	r1, [r8, #4]	@ float
 2373 045e 3259     		ldr	r2, [r6, r4]	@ float
 2374 0460 7B68     		ldr	r3, [r7, #4]	@ float
 2375 0462 FFF7FEFF 		bl	nav_route_xy
 661:subsystems/nav.c ****     if (nav_approaching_xy(waypoints[p1].x, waypoints[p1].y, waypoints[p2].x, waypoints[p2].y, CARR
 2376              		.loc 1 661 0
 2377 0466 0E4B     		ldr	r3, .L198+16
 2378 0468 0093     		str	r3, [sp, #0]	@ float
 2379 046a 3059     		ldr	r0, [r6, r4]	@ float
 2380 046c 7968     		ldr	r1, [r7, #4]	@ float
 2381 046e 2A59     		ldr	r2, [r5, r4]	@ float
 2382 0470 D8F80430 		ldr	r3, [r8, #4]	@ float
 2383 0474 FFF7FEFF 		bl	nav_approaching_xy
 2384 0478 38B1     		cbz	r0, .L180
 662:subsystems/nav.c ****       oval_status = OC1;
 2385              		.loc 1 662 0
 2386 047a 0322     		movs	r2, #3
 2387              	.LVL136:
 2388              	.L194:
 2389 047c 094B     		ldr	r3, .L198+20
 2390              	.L195:
 2391 047e 1A70     		strb	r2, [r3, #0]
 663:subsystems/nav.c ****       InitStage();
 664:subsystems/nav.c ****       LINE_STOP_FUNCTION;
 665:subsystems/nav.c ****     }
 666:subsystems/nav.c ****     return;
 667:subsystems/nav.c **** 
 668:subsystems/nav.c ****  default: /* Should not occur !!! Doing nothing */
 669:subsystems/nav.c ****    return;
 670:subsystems/nav.c ****   }
 671:subsystems/nav.c **** }
 2392              		.loc 1 671 0
 2393 0480 0DB0     		add	sp, sp, #52
 2394 0482 BDE8F04F 		pop	{r4, r5, r6, r7, r8, r9, sl, fp, lr}
 663:subsystems/nav.c ****       InitStage();
 2395              		.loc 1 663 0
 2396 0486 FFF7FEBF 		b	nav_init_stage
 2397              	.LVL137:
 2398              	.L180:
 2399              		.loc 1 671 0
 2400 048a 0DB0     		add	sp, sp, #52
 2401 048c BDE8F08F 		pop	{r4, r5, r6, r7, r8, r9, sl, fp, pc}
 2402              	.L199:
 2403              		.align	3
 2404              	.L198:
 2405 0490 182D4454 		.word	1413754136
 2406 0494 FB21F93F 		.word	1073291771
 2407 0498 F8C1631A 		.word	442745336
 2408 049c DCA54C40 		.word	1078765020
 2409 04a0 0000A040 		.word	1084227584
 2410 04a4 00000000 		.word	.LANCHOR26
 2411 04a8 00000000 		.word	.LANCHOR27
 2412 04ac 00000000 		.word	.LANCHOR38
 2413 04b0 0000B443 		.word	1135869952
 2414 04b4 0000AF43 		.word	1135542272
 2415 04b8 00002041 		.word	1092616192
 2416 04bc 00000000 		.word	.LANCHOR8
 2417              		.cfi_endproc
 2418              	.LFE58:
 2420              		.section	.text.nav_eight,"ax",%progbits
 2421              		.align	1
 2422              		.global	nav_eight
 2423              		.thumb
 2424              		.thumb_func
 2426              	nav_eight:
 2427              	.LFB56:
 472:subsystems/nav.c **** void nav_eight(uint8_t target, uint8_t c1, float radius) {
 2428              		.loc 1 472 0
 2429              		.cfi_startproc
 2430              		@ args = 0, pretend = 0, frame = 48
 2431              		@ frame_needed = 0, uses_anonymous_args = 0
 2432              	.LVL138:
 2433 0000 2DE9F04F 		push	{r4, r5, r6, r7, r8, r9, sl, fp, lr}
 2434              	.LCFI14:
 2435              		.cfi_def_cfa_offset 36
 2436 0004 1446     		mov	r4, r2
 2437              		.cfi_offset 14, -4
 2438              		.cfi_offset 11, -8
 2439              		.cfi_offset 10, -12
 2440              		.cfi_offset 9, -16
 2441              		.cfi_offset 8, -20
 2442              		.cfi_offset 7, -24
 2443              		.cfi_offset 6, -28
 2444              		.cfi_offset 5, -32
 2445              		.cfi_offset 4, -36
 2446 0006 8FB0     		sub	sp, sp, #60
 2447              	.LCFI15:
 2448              		.cfi_def_cfa_offset 96
 475:subsystems/nav.c ****   waypoints[c1].a = alt;
 2449              		.loc 1 475 0
 2450 0008 0C22     		movs	r2, #12
 2451              	.LVL139:
 472:subsystems/nav.c **** void nav_eight(uint8_t target, uint8_t c1, float radius) {
 2452              		.loc 1 472 0
 2453 000a 0591     		str	r1, [sp, #20]
 475:subsystems/nav.c ****   waypoints[c1].a = alt;
 2454              		.loc 1 475 0
 2455 000c 5143     		muls	r1, r2, r1
 2456              	.LVL140:
 2457 000e 4243     		muls	r2, r0, r2
 2458 0010 9B4B     		ldr	r3, .L261+24
 472:subsystems/nav.c **** void nav_eight(uint8_t target, uint8_t c1, float radius) {
 2459              		.loc 1 472 0
 2460 0012 0546     		mov	r5, r0
 475:subsystems/nav.c ****   waypoints[c1].a = alt;
 2461              		.loc 1 475 0
 2462 0014 D618     		adds	r6, r2, r3
 2463 0016 B068     		ldr	r0, [r6, #8]	@ float
 2464              	.LVL141:
 2465 0018 CF18     		adds	r7, r1, r3
 2466 001a B860     		str	r0, [r7, #8]	@ float
 477:subsystems/nav.c ****   float target_c1_x = waypoints[c1].x - waypoints[target].x;
 2467              		.loc 1 477 0
 2468 001c C858     		ldr	r0, [r1, r3]	@ float
 2469 001e D158     		ldr	r1, [r2, r3]	@ float
 2470 0020 FFF7FEFF 		bl	__aeabi_fsub
 478:subsystems/nav.c ****   float target_c1_y = waypoints[c1].y - waypoints[target].y;
 2471              		.loc 1 478 0
 2472 0024 7168     		ldr	r1, [r6, #4]	@ float
 477:subsystems/nav.c ****   float target_c1_x = waypoints[c1].x - waypoints[target].x;
 2473              		.loc 1 477 0
 2474 0026 8046     		mov	r8, r0
 2475              	.LVL142:
 478:subsystems/nav.c ****   float target_c1_y = waypoints[c1].y - waypoints[target].y;
 2476              		.loc 1 478 0
 2477 0028 7868     		ldr	r0, [r7, #4]	@ float
 2478 002a FFF7FEFF 		bl	__aeabi_fsub
 479:subsystems/nav.c ****   float d = sqrt(target_c1_x*target_c1_x+target_c1_y*target_c1_y);
 2479              		.loc 1 479 0
 2480 002e 4146     		mov	r1, r8
 478:subsystems/nav.c ****   float target_c1_y = waypoints[c1].y - waypoints[target].y;
 2481              		.loc 1 478 0
 2482 0030 0646     		mov	r6, r0
 2483              	.LVL143:
 479:subsystems/nav.c ****   float d = sqrt(target_c1_x*target_c1_x+target_c1_y*target_c1_y);
 2484              		.loc 1 479 0
 2485 0032 4046     		mov	r0, r8
 2486 0034 FFF7FEFF 		bl	__aeabi_fmul
 2487 0038 3146     		mov	r1, r6
 2488 003a 0746     		mov	r7, r0
 2489 003c 3046     		mov	r0, r6
 2490 003e FFF7FEFF 		bl	__aeabi_fmul
 2491 0042 0146     		mov	r1, r0
 2492 0044 3846     		mov	r0, r7
 2493 0046 FFF7FEFF 		bl	__aeabi_fadd
 2494 004a FFF7FEFF 		bl	__aeabi_f2d
 2495 004e FFF7FEFF 		bl	sqrt
 2496 0052 FFF7FEFF 		bl	__aeabi_d2f
 480:subsystems/nav.c ****   d = Max(d, 1.); /* To prevent a division by zero */
 2497              		.loc 1 480 0
 2498 0056 4FF07E51 		mov	r1, #1065353216
 479:subsystems/nav.c ****   float d = sqrt(target_c1_x*target_c1_x+target_c1_y*target_c1_y);
 2499              		.loc 1 479 0
 2500 005a 0746     		mov	r7, r0
 2501              	.LVL144:
 480:subsystems/nav.c ****   d = Max(d, 1.); /* To prevent a division by zero */
 2502              		.loc 1 480 0
 2503 005c FFF7FEFF 		bl	__aeabi_fcmpgt
 2504 0060 08B9     		cbnz	r0, .L201
 2505 0062 4FF07E57 		mov	r7, #1065353216
 2506              	.LVL145:
 2507              	.L201:
 483:subsystems/nav.c ****   float u_x = target_c1_x / d;
 2508              		.loc 1 483 0
 2509 0066 4046     		mov	r0, r8
 2510 0068 3946     		mov	r1, r7
 2511 006a FFF7FEFF 		bl	__aeabi_fdiv
 484:subsystems/nav.c ****   float u_y = target_c1_y / d;
 2512              		.loc 1 484 0
 2513 006e 3946     		mov	r1, r7
 483:subsystems/nav.c ****   float u_x = target_c1_x / d;
 2514              		.loc 1 483 0
 2515 0070 8346     		mov	fp, r0
 2516              	.LVL146:
 484:subsystems/nav.c ****   float u_y = target_c1_y / d;
 2517              		.loc 1 484 0
 2518 0072 3046     		mov	r0, r6
 2519 0074 FFF7FEFF 		bl	__aeabi_fdiv
 2520 0078 8046     		mov	r8, r0
 2521              	.LVL147:
 487:subsystems/nav.c ****   if (d > 2 * aradius) {
 2522              		.loc 1 487 0
 2523 007a 24F00040 		bic	r0, r4, #-2147483648
 2524 007e 0146     		mov	r1, r0
 2525 0080 FFF7FEFF 		bl	__aeabi_fadd
 2526 0084 0646     		mov	r6, r0
 2527              	.LVL148:
 2528 0086 3146     		mov	r1, r6
 2529 0088 3846     		mov	r0, r7
 2530 008a FFF7FEFF 		bl	__aeabi_fcmpgt
 2531 008e 08B9     		cbnz	r0, .L202
 2532              	.LVL149:
 2533 0090 3E46     		mov	r6, r7
 2534 0092 23E0     		b	.L203
 2535              	.L202:
 489:subsystems/nav.c ****     waypoints[c1].x = waypoints[target].x + d*u_x;
 2536              		.loc 1 489 0
 2537 0094 0598     		ldr	r0, [sp, #20]
 2538 0096 4FF00C09 		mov	r9, #12
 2539 009a 09FB00FA 		mul	sl, r9, r0
 2540 009e 09FB05F9 		mul	r9, r9, r5
 2541 00a2 774F     		ldr	r7, .L261+24
 2542              	.LVL150:
 2543 00a4 5946     		mov	r1, fp
 2544 00a6 0AEB0702 		add	r2, sl, r7
 2545 00aa 09EB0703 		add	r3, r9, r7
 2546 00ae 3046     		mov	r0, r6
 2547 00b0 0492     		str	r2, [sp, #16]
 2548 00b2 0393     		str	r3, [sp, #12]
 2549 00b4 FFF7FEFF 		bl	__aeabi_fmul
 2550 00b8 0146     		mov	r1, r0
 2551 00ba 59F80700 		ldr	r0, [r9, r7]	@ float
 2552 00be FFF7FEFF 		bl	__aeabi_fadd
 490:subsystems/nav.c ****     waypoints[c1].y = waypoints[target].y + d*u_y;
 2553              		.loc 1 490 0
 2554 00c2 4146     		mov	r1, r8
 489:subsystems/nav.c ****     waypoints[c1].x = waypoints[target].x + d*u_x;
 2555              		.loc 1 489 0
 2556 00c4 4AF80700 		str	r0, [sl, r7]	@ float
 490:subsystems/nav.c ****     waypoints[c1].y = waypoints[target].y + d*u_y;
 2557              		.loc 1 490 0
 2558 00c8 3046     		mov	r0, r6
 2559 00ca FFF7FEFF 		bl	__aeabi_fmul
 2560 00ce 039B     		ldr	r3, [sp, #12]
 2561 00d0 0146     		mov	r1, r0
 2562 00d2 5868     		ldr	r0, [r3, #4]	@ float
 2563 00d4 FFF7FEFF 		bl	__aeabi_fadd
 2564 00d8 049A     		ldr	r2, [sp, #16]
 2565 00da 5060     		str	r0, [r2, #4]	@ float
 2566              	.LVL151:
 2567              	.L203:
 495:subsystems/nav.c ****     waypoints[target].x - d*u_x,
 2568              		.loc 1 495 0
 2569 00dc 4FF00C0A 		mov	sl, #12
 2570 00e0 0AFB05F9 		mul	r9, sl, r5
 2571 00e4 664F     		ldr	r7, .L261+24
 2572 00e6 3046     		mov	r0, r6
 2573 00e8 09EB0703 		add	r3, r9, r7
 2574 00ec 5946     		mov	r1, fp
 2575 00ee 0393     		str	r3, [sp, #12]
 2576 00f0 FFF7FEFF 		bl	__aeabi_fmul
 2577 00f4 0146     		mov	r1, r0
 2578 00f6 59F80700 		ldr	r0, [r9, r7]	@ float
 2579 00fa FFF7FEFF 		bl	__aeabi_fsub
 496:subsystems/nav.c ****     waypoints[target].y - d*u_y,
 2580              		.loc 1 496 0
 2581 00fe 4146     		mov	r1, r8
 495:subsystems/nav.c ****     waypoints[target].x - d*u_x,
 2582              		.loc 1 495 0
 2583 0100 0B90     		str	r0, [sp, #44]	@ float
 496:subsystems/nav.c ****     waypoints[target].y - d*u_y,
 2584              		.loc 1 496 0
 2585 0102 3046     		mov	r0, r6
 2586 0104 FFF7FEFF 		bl	__aeabi_fmul
 2587 0108 039B     		ldr	r3, [sp, #12]
 2588 010a 0146     		mov	r1, r0
 2589 010c 5868     		ldr	r0, [r3, #4]	@ float
 2590 010e FFF7FEFF 		bl	__aeabi_fsub
 500:subsystems/nav.c ****     waypoints[c1].x + radius * -u_y,
 2591              		.loc 1 500 0
 2592 0112 059A     		ldr	r2, [sp, #20]
 2593 0114 08F10041 		add	r1, r8, #-2147483648
 496:subsystems/nav.c ****     waypoints[target].y - d*u_y,
 2594              		.loc 1 496 0
 2595 0118 0A90     		str	r0, [sp, #40]	@ float
 500:subsystems/nav.c ****     waypoints[c1].x + radius * -u_y,
 2596              		.loc 1 500 0
 2597 011a 2046     		mov	r0, r4
 2598 011c 0AFB02FA 		mul	sl, sl, r2
 2599 0120 FFF7FEFF 		bl	__aeabi_fmul
 2600 0124 0AEB0706 		add	r6, sl, r7
 2601              	.LVL152:
 2602 0128 5AF80770 		ldr	r7, [sl, r7]	@ float
 2603 012c 8246     		mov	sl, r0
 2604 012e 5146     		mov	r1, sl
 2605 0130 3846     		mov	r0, r7
 2606 0132 FFF7FEFF 		bl	__aeabi_fadd
 501:subsystems/nav.c ****     waypoints[c1].y + radius * u_x,
 2607              		.loc 1 501 0
 2608 0136 5946     		mov	r1, fp
 500:subsystems/nav.c ****     waypoints[c1].x + radius * -u_y,
 2609              		.loc 1 500 0
 2610 0138 0990     		str	r0, [sp, #36]	@ float
 501:subsystems/nav.c ****     waypoints[c1].y + radius * u_x,
 2611              		.loc 1 501 0
 2612 013a 2046     		mov	r0, r4
 2613 013c FFF7FEFF 		bl	__aeabi_fmul
 2614 0140 7668     		ldr	r6, [r6, #4]	@ float
 2615 0142 8146     		mov	r9, r0
 2616 0144 4946     		mov	r1, r9
 2617 0146 3046     		mov	r0, r6
 2618 0148 FFF7FEFF 		bl	__aeabi_fadd
 504:subsystems/nav.c ****     waypoints[c1].x - radius * -u_y,
 2619              		.loc 1 504 0
 2620 014c 4146     		mov	r1, r8
 501:subsystems/nav.c ****     waypoints[c1].y + radius * u_x,
 2621              		.loc 1 501 0
 2622 014e 0890     		str	r0, [sp, #32]	@ float
 504:subsystems/nav.c ****     waypoints[c1].x - radius * -u_y,
 2623              		.loc 1 504 0
 2624 0150 2046     		mov	r0, r4
 2625 0152 FFF7FEFF 		bl	__aeabi_fmul
 2626 0156 0346     		mov	r3, r0
 2627 0158 1946     		mov	r1, r3
 2628 015a 3846     		mov	r0, r7
 2629 015c 0393     		str	r3, [sp, #12]
 2630 015e FFF7FEFF 		bl	__aeabi_fadd
 505:subsystems/nav.c ****     waypoints[c1].y - radius * u_x,
 2631              		.loc 1 505 0
 2632 0162 4946     		mov	r1, r9
 504:subsystems/nav.c ****     waypoints[c1].x - radius * -u_y,
 2633              		.loc 1 504 0
 2634 0164 0746     		mov	r7, r0
 505:subsystems/nav.c ****     waypoints[c1].y - radius * u_x,
 2635              		.loc 1 505 0
 2636 0166 3046     		mov	r0, r6
 2637 0168 FFF7FEFF 		bl	__aeabi_fsub
 509:subsystems/nav.c ****     c2.x + radius * -u_y,
 2638              		.loc 1 509 0
 2639 016c 5146     		mov	r1, sl
 505:subsystems/nav.c ****     waypoints[c1].y - radius * u_x,
 2640              		.loc 1 505 0
 2641 016e 0646     		mov	r6, r0
 509:subsystems/nav.c ****     c2.x + radius * -u_y,
 2642              		.loc 1 509 0
 2643 0170 0B98     		ldr	r0, [sp, #44]	@ float
 2644 0172 FFF7FEFF 		bl	__aeabi_fadd
 510:subsystems/nav.c ****     c2.y + radius * u_x,
 2645              		.loc 1 510 0
 2646 0176 4946     		mov	r1, r9
 509:subsystems/nav.c ****     c2.x + radius * -u_y,
 2647              		.loc 1 509 0
 2648 0178 0790     		str	r0, [sp, #28]	@ float
 510:subsystems/nav.c ****     c2.y + radius * u_x,
 2649              		.loc 1 510 0
 2650 017a 0A98     		ldr	r0, [sp, #40]	@ float
 2651 017c FFF7FEFF 		bl	__aeabi_fadd
 513:subsystems/nav.c ****     c2.x - radius * -u_y,
 2652              		.loc 1 513 0
 2653 0180 039B     		ldr	r3, [sp, #12]
 510:subsystems/nav.c ****     c2.y + radius * u_x,
 2654              		.loc 1 510 0
 2655 0182 0690     		str	r0, [sp, #24]	@ float
 513:subsystems/nav.c ****     c2.x - radius * -u_y,
 2656              		.loc 1 513 0
 2657 0184 1946     		mov	r1, r3
 2658 0186 0B98     		ldr	r0, [sp, #44]	@ float
 2659 0188 FFF7FEFF 		bl	__aeabi_fadd
 514:subsystems/nav.c ****     c2.y - radius * u_x,
 2660              		.loc 1 514 0
 2661 018c 4946     		mov	r1, r9
 513:subsystems/nav.c ****     c2.x - radius * -u_y,
 2662              		.loc 1 513 0
 2663 018e 8246     		mov	sl, r0
 514:subsystems/nav.c ****     c2.y - radius * u_x,
 2664              		.loc 1 514 0
 2665 0190 0A98     		ldr	r0, [sp, #40]	@ float
 2666 0192 FFF7FEFF 		bl	__aeabi_fsub
 2667 0196 8146     		mov	r9, r0
 517:subsystems/nav.c ****   float qdr_out = M_PI - atan2(u_y, u_x);
 2668              		.loc 1 517 0
 2669 0198 4046     		mov	r0, r8
 2670 019a FFF7FEFF 		bl	__aeabi_f2d
 2671 019e CDE90C01 		strd	r0, [sp, #48]
 2672 01a2 5846     		mov	r0, fp
 2673 01a4 FFF7FEFF 		bl	__aeabi_f2d
 2674 01a8 0246     		mov	r2, r0
 2675 01aa 0B46     		mov	r3, r1
 2676 01ac DDE90C01 		ldrd	r0, [sp, #48]
 2677 01b0 FFF7FEFF 		bl	atan2
 2678 01b4 0246     		mov	r2, r0
 2679 01b6 0B46     		mov	r3, r1
 2680 01b8 2BA1     		adr	r1, .L261
 2681 01ba D1E90001 		ldrd	r0, [r1]
 2682 01be FFF7FEFF 		bl	__aeabi_dsub
 2683 01c2 FFF7FEFF 		bl	__aeabi_d2f
 518:subsystems/nav.c ****   if (radius < 0)
 2684              		.loc 1 518 0
 2685 01c6 0021     		movs	r1, #0
 517:subsystems/nav.c ****   float qdr_out = M_PI - atan2(u_y, u_x);
 2686              		.loc 1 517 0
 2687 01c8 8046     		mov	r8, r0
 2688              	.LVL153:
 518:subsystems/nav.c ****   if (radius < 0)
 2689              		.loc 1 518 0
 2690 01ca 2046     		mov	r0, r4
 2691 01cc FFF7FEFF 		bl	__aeabi_fcmplt
 2692 01d0 50B1     		cbz	r0, .L204
 519:subsystems/nav.c ****     qdr_out += M_PI;
 2693              		.loc 1 519 0
 2694 01d2 4046     		mov	r0, r8
 2695 01d4 FFF7FEFF 		bl	__aeabi_f2d
 2696 01d8 23A3     		adr	r3, .L261
 2697 01da D3E90023 		ldrd	r2, [r3]
 2698 01de FFF7FEFF 		bl	__aeabi_dadd
 2699 01e2 FFF7FEFF 		bl	__aeabi_d2f
 2700 01e6 8046     		mov	r8, r0
 2701              	.L204:
 521:subsystems/nav.c ****   switch (eight_status) {
 2702              		.loc 1 521 0
 2703 01e8 264B     		ldr	r3, .L261+28
 2704 01ea 1B78     		ldrb	r3, [r3, #0]	@ zero_extendqisi2
 2705 01ec 052B     		cmp	r3, #5
 2706 01ee 00F29881 		bhi	.L246
 2707 01f2 DFE813F0 		tbh	[pc, r3, lsl #1]
 2708              	.L213:
 2709 01f6 A400     		.2byte	(.L207-.L213)/2
 2710 01f8 BB00     		.2byte	(.L208-.L213)/2
 2711 01fa CE00     		.2byte	(.L209-.L213)/2
 2712 01fc 5001     		.2byte	(.L210-.L213)/2
 2713 01fe 7F01     		.2byte	(.L211-.L213)/2
 2714 0200 0600     		.2byte	(.L212-.L213)/2
 2715              	.L212:
 523:subsystems/nav.c ****     NavCircleWaypoint(c1, radius);
 2716              		.loc 1 523 0
 2717 0202 059B     		ldr	r3, [sp, #20]
 2718 0204 0C21     		movs	r1, #12
 2719 0206 5943     		muls	r1, r3, r1
 2720 0208 1D4A     		ldr	r2, .L261+24
 2721              	.LBB14:
 2722              	.LBB15:
 524:subsystems/nav.c ****     if (NavQdrCloseTo(DegOfRad(qdr_out)-10)) {
 2723              		.loc 1 524 0
 2724 020a 0026     		movs	r6, #0
 2725              	.LBE15:
 2726              	.LBE14:
 523:subsystems/nav.c ****     NavCircleWaypoint(c1, radius);
 2727              		.loc 1 523 0
 2728 020c 8B18     		adds	r3, r1, r2
 2729 020e 8858     		ldr	r0, [r1, r2]	@ float
 2730 0210 2246     		mov	r2, r4
 2731 0212 5968     		ldr	r1, [r3, #4]	@ float
 2732 0214 FFF7FEFF 		bl	nav_circle_XY
 2733              	.LBB19:
 2734              	.LBB17:
 524:subsystems/nav.c ****     if (NavQdrCloseTo(DegOfRad(qdr_out)-10)) {
 2735              		.loc 1 524 0
 2736 0218 1B4B     		ldr	r3, .L261+32
 2737 021a 1868     		ldr	r0, [r3, #0]	@ float
 2738 021c FFF7FEFF 		bl	__aeabi_f2d
 2739 0220 0246     		mov	r2, r0
 2740 0222 0B46     		mov	r3, r1
 2741 0224 12A1     		adr	r1, .L261+8
 2742 0226 D1E90001 		ldrd	r0, [r1]
 2743 022a FFF7FEFF 		bl	__aeabi_dsub
 2744 022e 12A3     		adr	r3, .L261+16
 2745 0230 D3E90023 		ldrd	r2, [r3]
 2746 0234 FFF7FEFF 		bl	__aeabi_dmul
 2747 0238 FFF7FEFF 		bl	__aeabi_d2f
 2748 023c 0446     		mov	r4, r0
 2749              	.LVL154:
 2750              	.LBB16:
 2751 023e 04E0     		b	.L214
 2752              	.LVL155:
 2753              	.L217:
 2754 0240 2046     		mov	r0, r4
 2755 0242 1249     		ldr	r1, .L261+36
 2756 0244 FFF7FEFF 		bl	__aeabi_fadd
 2757 0248 0446     		mov	r4, r0
 2758              	.LVL156:
 2759              	.L214:
 2760 024a 2046     		mov	r0, r4
 2761 024c 0021     		movs	r1, #0
 2762 024e F5B2     		uxtb	r5, r6
 2763              	.LVL157:
 2764 0250 FFF7FEFF 		bl	__aeabi_fcmplt
 2765 0254 08B3     		cbz	r0, .L215
 2766 0256 0136     		adds	r6, r6, #1
 2767 0258 B6F5807F 		cmp	r6, #256
 2768 025c F0D1     		bne	.L217
 2769 025e 0025     		movs	r5, #0
 2770              	.LVL158:
 2771 0260 1BE0     		b	.L215
 2772              	.L262:
 2773 0262 00BFAFF3 		.align	3
 2773      0080
 2774              	.L261:
 2775 0268 182D4454 		.word	1413754136
 2776 026c FB210940 		.word	1074340347
 2777 0270 182D4454 		.word	1413754136
 2778 0274 FB21F93F 		.word	1073291771
 2779 0278 F8C1631A 		.word	442745336
 2780 027c DCA54C40 		.word	1078765020
 2781 0280 00000000 		.word	.LANCHOR8
 2782 0284 00000000 		.word	.LANCHOR25
 2783 0288 00000000 		.word	.LANCHOR38
 2784 028c 0000B443 		.word	1135869952
 2785              	.L220:
 2786 0290 2046     		mov	r0, r4
 2787 0292 9149     		ldr	r1, .L263+16
 2788 0294 FFF7FEFF 		bl	__aeabi_fsub
 2789 0298 0446     		mov	r4, r0
 2790              	.LVL159:
 2791              	.L215:
 2792 029a 2046     		mov	r0, r4
 2793 029c 8E49     		ldr	r1, .L263+16
 2794 029e FFF7FEFF 		bl	__aeabi_fcmpge
 2795 02a2 18B1     		cbz	r0, .L218
 2796 02a4 0135     		adds	r5, r5, #1
 2797              	.LVL160:
 2798 02a6 EDB2     		uxtb	r5, r5
 2799              	.LVL161:
 2800 02a8 002D     		cmp	r5, #0
 2801 02aa F1D1     		bne	.L220
 2802              	.L218:
 2803              	.LBE16:
 2804              	.LBE17:
 2805 02ac 4046     		mov	r0, r8
 2806 02ae FFF7FEFF 		bl	__aeabi_f2d
 2807 02b2 85A3     		adr	r3, .L263
 2808 02b4 D3E90023 		ldrd	r2, [r3]
 2809 02b8 FFF7FEFF 		bl	__aeabi_dmul
 2810 02bc 0022     		movs	r2, #0
 2811 02be 874B     		ldr	r3, .L263+20
 2812 02c0 FFF7FEFF 		bl	__aeabi_dsub
 2813 02c4 0646     		mov	r6, r0
 2814 02c6 2046     		mov	r0, r4
 2815 02c8 0F46     		mov	r7, r1
 2816 02ca FFF7FEFF 		bl	__aeabi_f2d
 2817 02ce 0246     		mov	r2, r0
 2818 02d0 0B46     		mov	r3, r1
 2819 02d2 3046     		mov	r0, r6
 2820 02d4 3946     		mov	r1, r7
 2821 02d6 FFF7FEFF 		bl	__aeabi_dsub
 2822 02da FFF7FEFF 		bl	__aeabi_d2f
 2823 02de 0026     		movs	r6, #0
 2824 02e0 0446     		mov	r4, r0
 2825              	.LVL162:
 2826              	.LBB18:
 2827 02e2 04E0     		b	.L221
 2828              	.LVL163:
 2829              	.L224:
 2830 02e4 2046     		mov	r0, r4
 2831 02e6 7C49     		ldr	r1, .L263+16
 2832 02e8 FFF7FEFF 		bl	__aeabi_fadd
 2833 02ec 0446     		mov	r4, r0
 2834              	.LVL164:
 2835              	.L221:
 2836 02ee 2046     		mov	r0, r4
 2837 02f0 0021     		movs	r1, #0
 2838 02f2 F5B2     		uxtb	r5, r6
 2839              	.LVL165:
 2840 02f4 FFF7FEFF 		bl	__aeabi_fcmplt
 2841 02f8 50B1     		cbz	r0, .L222
 2842 02fa 0136     		adds	r6, r6, #1
 2843 02fc B6F5807F 		cmp	r6, #256
 2844 0300 F0D1     		bne	.L224
 2845 0302 0025     		movs	r5, #0
 2846              	.LVL166:
 2847 0304 04E0     		b	.L222
 2848              	.L227:
 2849 0306 2046     		mov	r0, r4
 2850 0308 7349     		ldr	r1, .L263+16
 2851 030a FFF7FEFF 		bl	__aeabi_fsub
 2852 030e 0446     		mov	r4, r0
 2853              	.LVL167:
 2854              	.L222:
 2855 0310 2046     		mov	r0, r4
 2856 0312 7149     		ldr	r1, .L263+16
 2857 0314 FFF7FEFF 		bl	__aeabi_fcmpge
 2858 0318 18B1     		cbz	r0, .L225
 2859 031a 0135     		adds	r5, r5, #1
 2860              	.LVL168:
 2861 031c EDB2     		uxtb	r5, r5
 2862              	.LVL169:
 2863 031e 002D     		cmp	r5, #0
 2864 0320 F1D1     		bne	.L227
 2865              	.L225:
 2866              	.LBE18:
 2867 0322 2046     		mov	r0, r4
 2868 0324 6E49     		ldr	r1, .L263+24
 2869 0326 FFF7FEFF 		bl	__aeabi_fcmpgt
 2870 032a 30B9     		cbnz	r0, .L228
 2871 032c 2046     		mov	r0, r4
 2872 032e 6D49     		ldr	r1, .L263+28
 2873 0330 FFF7FEFF 		bl	__aeabi_fcmplt
 2874 0334 0028     		cmp	r0, #0
 2875 0336 00F0F480 		beq	.L246
 2876              	.L228:
 2877              	.LBE19:
 525:subsystems/nav.c ****       eight_status = R1T;
 2878              		.loc 1 525 0
 2879 033a 0022     		movs	r2, #0
 2880 033c EAE0     		b	.L260
 2881              	.LVL170:
 2882              	.L207:
 531:subsystems/nav.c ****     nav_route_xy(c1_out.x, c1_out.y, c2_in.x, c2_in.y);
 2883              		.loc 1 531 0
 2884 033e 3846     		mov	r0, r7
 2885 0340 3146     		mov	r1, r6
 2886 0342 079A     		ldr	r2, [sp, #28]	@ float
 2887 0344 069B     		ldr	r3, [sp, #24]	@ float
 2888 0346 FFF7FEFF 		bl	nav_route_xy
 532:subsystems/nav.c ****     if (nav_approaching_xy(waypoints[target].x, waypoints[target].y, c1_out.x, c1_out.y, 0)) {
 2889              		.loc 1 532 0
 2890 034a 0C23     		movs	r3, #12
 2891 034c 5D43     		muls	r5, r3, r5
 2892              	.LVL171:
 2893 034e 664A     		ldr	r2, .L263+32
 2894 0350 0021     		movs	r1, #0
 2895 0352 AB18     		adds	r3, r5, r2
 2896 0354 0091     		str	r1, [sp, #0]	@ float
 2897 0356 A858     		ldr	r0, [r5, r2]	@ float
 2898 0358 5968     		ldr	r1, [r3, #4]	@ float
 2899 035a 3A46     		mov	r2, r7
 2900 035c 3346     		mov	r3, r6
 2901 035e FFF7FEFF 		bl	nav_approaching_xy
 2902 0362 0028     		cmp	r0, #0
 2903 0364 00F0DD80 		beq	.L246
 533:subsystems/nav.c ****       eight_status = RT2;
 2904              		.loc 1 533 0
 2905 0368 0122     		movs	r2, #1
 2906 036a D3E0     		b	.L260
 2907              	.LVL172:
 2908              	.L208:
 539:subsystems/nav.c ****     nav_route_xy(c1_out.x, c1_out.y, c2_in.x, c2_in.y);
 2909              		.loc 1 539 0
 2910 036c 3846     		mov	r0, r7
 2911 036e 3146     		mov	r1, r6
 2912 0370 079A     		ldr	r2, [sp, #28]	@ float
 2913 0372 069B     		ldr	r3, [sp, #24]	@ float
 2914 0374 FFF7FEFF 		bl	nav_route_xy
 540:subsystems/nav.c ****     if (nav_approaching_xy(c2_in.x, c2_in.y, c1_out.x, c1_out.y, CARROT)) {
 2915              		.loc 1 540 0
 2916 0378 5C4B     		ldr	r3, .L263+36
 2917 037a 0798     		ldr	r0, [sp, #28]	@ float
 2918 037c 0093     		str	r3, [sp, #0]	@ float
 2919 037e 0699     		ldr	r1, [sp, #24]	@ float
 2920 0380 3A46     		mov	r2, r7
 2921 0382 3346     		mov	r3, r6
 2922 0384 FFF7FEFF 		bl	nav_approaching_xy
 2923 0388 0028     		cmp	r0, #0
 2924 038a 00F0CA80 		beq	.L246
 541:subsystems/nav.c ****       eight_status = C2;
 2925              		.loc 1 541 0
 2926 038e 0222     		movs	r2, #2
 2927 0390 C0E0     		b	.L260
 2928              	.L209:
 547:subsystems/nav.c ****     nav_circle_XY(c2.x, c2.y, -radius);
 2929              		.loc 1 547 0
 2930 0392 04F10042 		add	r2, r4, #-2147483648
 2931 0396 0B98     		ldr	r0, [sp, #44]	@ float
 2932 0398 0A99     		ldr	r1, [sp, #40]	@ float
 2933 039a FFF7FEFF 		bl	nav_circle_XY
 2934              	.LBB20:
 2935              	.LBB21:
 548:subsystems/nav.c ****     if (NavQdrCloseTo(DegOfRad(qdr_out)+10)) {
 2936              		.loc 1 548 0
 2937 039e 544B     		ldr	r3, .L263+40
 2938 03a0 0026     		movs	r6, #0
 2939 03a2 1868     		ldr	r0, [r3, #0]	@ float
 2940 03a4 FFF7FEFF 		bl	__aeabi_f2d
 2941 03a8 0246     		mov	r2, r0
 2942 03aa 0B46     		mov	r3, r1
 2943 03ac 48A1     		adr	r1, .L263+8
 2944 03ae D1E90001 		ldrd	r0, [r1]
 2945 03b2 FFF7FEFF 		bl	__aeabi_dsub
 2946 03b6 44A3     		adr	r3, .L263
 2947 03b8 D3E90023 		ldrd	r2, [r3]
 2948 03bc FFF7FEFF 		bl	__aeabi_dmul
 2949 03c0 FFF7FEFF 		bl	__aeabi_d2f
 2950 03c4 0446     		mov	r4, r0
 2951              	.LVL173:
 2952              	.LBB22:
 2953 03c6 04E0     		b	.L230
 2954              	.LVL174:
 2955              	.L233:
 2956 03c8 2046     		mov	r0, r4
 2957 03ca 4349     		ldr	r1, .L263+16
 2958 03cc FFF7FEFF 		bl	__aeabi_fadd
 2959 03d0 0446     		mov	r4, r0
 2960              	.LVL175:
 2961              	.L230:
 2962 03d2 2046     		mov	r0, r4
 2963 03d4 0021     		movs	r1, #0
 2964 03d6 F5B2     		uxtb	r5, r6
 2965              	.LVL176:
 2966 03d8 FFF7FEFF 		bl	__aeabi_fcmplt
 2967 03dc 50B1     		cbz	r0, .L231
 2968 03de 0136     		adds	r6, r6, #1
 2969 03e0 B6F5807F 		cmp	r6, #256
 2970 03e4 F0D1     		bne	.L233
 2971 03e6 0025     		movs	r5, #0
 2972              	.LVL177:
 2973 03e8 04E0     		b	.L231
 2974              	.L236:
 2975 03ea 2046     		mov	r0, r4
 2976 03ec 3A49     		ldr	r1, .L263+16
 2977 03ee FFF7FEFF 		bl	__aeabi_fsub
 2978 03f2 0446     		mov	r4, r0
 2979              	.LVL178:
 2980              	.L231:
 2981 03f4 2046     		mov	r0, r4
 2982 03f6 3849     		ldr	r1, .L263+16
 2983 03f8 FFF7FEFF 		bl	__aeabi_fcmpge
 2984 03fc 18B1     		cbz	r0, .L234
 2985 03fe 0135     		adds	r5, r5, #1
 2986              	.LVL179:
 2987 0400 EDB2     		uxtb	r5, r5
 2988              	.LVL180:
 2989 0402 002D     		cmp	r5, #0
 2990 0404 F1D1     		bne	.L236
 2991              	.L234:
 2992              	.LBE22:
 2993              	.LBE21:
 2994 0406 4046     		mov	r0, r8
 2995 0408 FFF7FEFF 		bl	__aeabi_f2d
 2996 040c 2EA3     		adr	r3, .L263
 2997 040e D3E90023 		ldrd	r2, [r3]
 2998 0412 FFF7FEFF 		bl	__aeabi_dmul
 2999 0416 0022     		movs	r2, #0
 3000 0418 304B     		ldr	r3, .L263+20
 3001 041a FFF7FEFF 		bl	__aeabi_dadd
 3002 041e 0646     		mov	r6, r0
 3003 0420 2046     		mov	r0, r4
 3004 0422 0F46     		mov	r7, r1
 3005 0424 FFF7FEFF 		bl	__aeabi_f2d
 3006 0428 0246     		mov	r2, r0
 3007 042a 0B46     		mov	r3, r1
 3008 042c 3046     		mov	r0, r6
 3009 042e 3946     		mov	r1, r7
 3010 0430 FFF7FEFF 		bl	__aeabi_dsub
 3011 0434 FFF7FEFF 		bl	__aeabi_d2f
 3012 0438 0026     		movs	r6, #0
 3013 043a 0446     		mov	r4, r0
 3014              	.LVL181:
 3015              	.LBB23:
 3016 043c 04E0     		b	.L237
 3017              	.LVL182:
 3018              	.L240:
 3019 043e 2046     		mov	r0, r4
 3020 0440 2549     		ldr	r1, .L263+16
 3021 0442 FFF7FEFF 		bl	__aeabi_fadd
 3022 0446 0446     		mov	r4, r0
 3023              	.LVL183:
 3024              	.L237:
 3025 0448 2046     		mov	r0, r4
 3026 044a 0021     		movs	r1, #0
 3027 044c F5B2     		uxtb	r5, r6
 3028              	.LVL184:
 3029 044e FFF7FEFF 		bl	__aeabi_fcmplt
 3030 0452 50B1     		cbz	r0, .L238
 3031 0454 0136     		adds	r6, r6, #1
 3032 0456 B6F5807F 		cmp	r6, #256
 3033 045a F0D1     		bne	.L240
 3034 045c 0025     		movs	r5, #0
 3035              	.LVL185:
 3036 045e 04E0     		b	.L238
 3037              	.L243:
 3038 0460 2046     		mov	r0, r4
 3039 0462 1D49     		ldr	r1, .L263+16
 3040 0464 FFF7FEFF 		bl	__aeabi_fsub
 3041 0468 0446     		mov	r4, r0
 3042              	.LVL186:
 3043              	.L238:
 3044 046a 2046     		mov	r0, r4
 3045 046c 1A49     		ldr	r1, .L263+16
 3046 046e FFF7FEFF 		bl	__aeabi_fcmpge
 3047 0472 18B1     		cbz	r0, .L241
 3048 0474 0135     		adds	r5, r5, #1
 3049              	.LVL187:
 3050 0476 EDB2     		uxtb	r5, r5
 3051              	.LVL188:
 3052 0478 002D     		cmp	r5, #0
 3053 047a F1D1     		bne	.L243
 3054              	.L241:
 3055              	.LBE23:
 3056 047c 2046     		mov	r0, r4
 3057 047e 1849     		ldr	r1, .L263+24
 3058 0480 FFF7FEFF 		bl	__aeabi_fcmpgt
 3059 0484 28B9     		cbnz	r0, .L244
 3060 0486 2046     		mov	r0, r4
 3061 0488 1649     		ldr	r1, .L263+28
 3062 048a FFF7FEFF 		bl	__aeabi_fcmplt
 3063 048e 0028     		cmp	r0, #0
 3064 0490 47D0     		beq	.L246
 3065              	.L244:
 3066              	.LBE20:
 549:subsystems/nav.c ****       eight_status = R2T;
 3067              		.loc 1 549 0
 3068 0492 0322     		movs	r2, #3
 3069 0494 3EE0     		b	.L260
 3070              	.LVL189:
 3071              	.L210:
 555:subsystems/nav.c ****     nav_route_xy(c2_out.x, c2_out.y, c1_in.x, c1_in.y);
 3072              		.loc 1 555 0
 3073 0496 5046     		mov	r0, sl
 3074 0498 4946     		mov	r1, r9
 3075 049a 099A     		ldr	r2, [sp, #36]	@ float
 3076 049c 089B     		ldr	r3, [sp, #32]	@ float
 3077 049e FFF7FEFF 		bl	nav_route_xy
 556:subsystems/nav.c ****     if (nav_approaching_xy(waypoints[target].x, waypoints[target].y, c2_out.x, c2_out.y, 0)) {
 3078              		.loc 1 556 0
 3079 04a2 0C23     		movs	r3, #12
 3080 04a4 5D43     		muls	r5, r3, r5
 3081              	.LVL190:
 3082 04a6 104A     		ldr	r2, .L263+32
 3083 04a8 0021     		movs	r1, #0
 3084 04aa AB18     		adds	r3, r5, r2
 3085 04ac 0091     		str	r1, [sp, #0]	@ float
 3086 04ae A858     		ldr	r0, [r5, r2]	@ float
 3087 04b0 5968     		ldr	r1, [r3, #4]	@ float
 3088 04b2 5246     		mov	r2, sl
 3089 04b4 4B46     		mov	r3, r9
 3090 04b6 FFF7FEFF 		bl	nav_approaching_xy
 3091 04ba 0028     		cmp	r0, #0
 3092 04bc 31D0     		beq	.L246
 557:subsystems/nav.c ****       eight_status = RT1;
 3093              		.loc 1 557 0
 3094 04be 0422     		movs	r2, #4
 3095 04c0 28E0     		b	.L260
 3096              	.L264:
 3097 04c2 00BFAFF3 		.align	3
 3097      0080
 3098              	.L263:
 3099 04c8 F8C1631A 		.word	442745336
 3100 04cc DCA54C40 		.word	1078765020
 3101 04d0 182D4454 		.word	1413754136
 3102 04d4 FB21F93F 		.word	1073291771
 3103 04d8 0000B443 		.word	1135869952
 3104 04dc 00002440 		.word	1076101120
 3105 04e0 0000AF43 		.word	1135542272
 3106 04e4 00002041 		.word	1092616192
 3107 04e8 00000000 		.word	.LANCHOR8
 3108 04ec 0000A040 		.word	1084227584
 3109 04f0 00000000 		.word	.LANCHOR38
 3110              	.LVL191:
 3111              	.L211:
 563:subsystems/nav.c ****     nav_route_xy(c2_out.x, c2_out.y, c1_in.x, c1_in.y);
 3112              		.loc 1 563 0
 3113 04f4 5046     		mov	r0, sl
 3114 04f6 4946     		mov	r1, r9
 3115 04f8 099A     		ldr	r2, [sp, #36]	@ float
 3116 04fa 089B     		ldr	r3, [sp, #32]	@ float
 3117 04fc FFF7FEFF 		bl	nav_route_xy
 564:subsystems/nav.c ****     if (nav_approaching_xy(c1_in.x, c1_in.y, c2_out.x, c2_out.y, CARROT)) {
 3118              		.loc 1 564 0
 3119 0500 094B     		ldr	r3, .L265
 3120 0502 0998     		ldr	r0, [sp, #36]	@ float
 3121 0504 0093     		str	r3, [sp, #0]	@ float
 3122 0506 0899     		ldr	r1, [sp, #32]	@ float
 3123 0508 5246     		mov	r2, sl
 3124 050a 4B46     		mov	r3, r9
 3125 050c FFF7FEFF 		bl	nav_approaching_xy
 3126 0510 38B1     		cbz	r0, .L246
 565:subsystems/nav.c ****       eight_status = C1;
 3127              		.loc 1 565 0
 3128 0512 0522     		movs	r2, #5
 3129              	.LVL192:
 3130              	.L260:
 3131 0514 054B     		ldr	r3, .L265+4
 3132 0516 1A70     		strb	r2, [r3, #0]
 573:subsystems/nav.c **** }
 3133              		.loc 1 573 0
 3134 0518 0FB0     		add	sp, sp, #60
 3135 051a BDE8F04F 		pop	{r4, r5, r6, r7, r8, r9, sl, fp, lr}
 566:subsystems/nav.c ****       InitStage();
 3136              		.loc 1 566 0
 3137 051e FFF7FEBF 		b	nav_init_stage
 3138              	.L246:
 573:subsystems/nav.c **** }
 3139              		.loc 1 573 0
 3140 0522 0FB0     		add	sp, sp, #60
 3141 0524 BDE8F08F 		pop	{r4, r5, r6, r7, r8, r9, sl, fp, pc}
 3142              	.L266:
 3143              		.align	2
 3144              	.L265:
 3145 0528 0000A040 		.word	1084227584
 3146 052c 00000000 		.word	.LANCHOR25
 3147              		.cfi_endproc
 3148              	.LFE56:
 3150              		.section	.text.nav_home,"ax",%progbits
 3151              		.align	1
 3152              		.global	nav_home
 3153              		.thumb
 3154              		.thumb_func
 3156              	nav_home:
 3157              	.LFB51:
 380:subsystems/nav.c **** void nav_home(void) {
 3158              		.loc 1 380 0
 3159              		.cfi_startproc
 3160              		@ args = 0, pretend = 0, frame = 0
 3161              		@ frame_needed = 0, uses_anonymous_args = 0
 381:subsystems/nav.c ****   NavCircleWaypoint(WP_HOME, FAILSAFE_HOME_RADIUS);
 3162              		.loc 1 381 0
 3163 0000 0E4B     		ldr	r3, .L269
 380:subsystems/nav.c **** void nav_home(void) {
 3164              		.loc 1 380 0
 3165 0002 10B5     		push	{r4, lr}
 3166              	.LCFI16:
 3167              		.cfi_def_cfa_offset 8
 381:subsystems/nav.c ****   NavCircleWaypoint(WP_HOME, FAILSAFE_HOME_RADIUS);
 3168              		.loc 1 381 0
 3169 0004 D868     		ldr	r0, [r3, #12]	@ float
 3170 0006 1969     		ldr	r1, [r3, #16]	@ float
 3171 0008 0D4A     		ldr	r2, .L269+4
 3172              		.cfi_offset 14, -4
 3173              		.cfi_offset 4, -8
 3174 000a FFF7FEFF 		bl	nav_circle_XY
 383:subsystems/nav.c ****   nav_pitch = 0.;
 3175              		.loc 1 383 0
 3176 000e 0D4B     		ldr	r3, .L269+8
 3177 0010 0022     		movs	r2, #0
 3178 0012 1A60     		str	r2, [r3, #0]	@ float
 384:subsystems/nav.c ****   v_ctl_mode = V_CTL_MODE_AUTO_ALT;
 3179              		.loc 1 384 0
 3180 0014 0C4B     		ldr	r3, .L269+12
 3181 0016 0322     		movs	r2, #3
 3182 0018 1A70     		strb	r2, [r3, #0]
 385:subsystems/nav.c ****   nav_altitude = ground_alt+SECURITY_HEIGHT;
 3183              		.loc 1 385 0
 3184 001a 0C4B     		ldr	r3, .L269+16
 3185 001c 0C49     		ldr	r1, .L269+20
 3186 001e 1868     		ldr	r0, [r3, #0]	@ float
 3187 0020 FFF7FEFF 		bl	__aeabi_fadd
 3188 0024 0B4B     		ldr	r3, .L269+24
 3189 0026 1860     		str	r0, [r3, #0]	@ float
 386:subsystems/nav.c ****   compute_dist2_to_home();
 3190              		.loc 1 386 0
 3191 0028 FFF7FEFF 		bl	compute_dist2_to_home
 387:subsystems/nav.c ****   dist2_to_wp = dist2_to_home;
 3192              		.loc 1 387 0
 3193 002c 0A4B     		ldr	r3, .L269+28
 3194 002e 1A68     		ldr	r2, [r3, #0]	@ float
 3195 0030 0A4B     		ldr	r3, .L269+32
 3196 0032 1A60     		str	r2, [r3, #0]	@ float
 389:subsystems/nav.c **** }
 3197              		.loc 1 389 0
 3198 0034 BDE81040 		pop	{r4, lr}
 388:subsystems/nav.c ****   nav_set_altitude();
 3199              		.loc 1 388 0
 3200 0038 FFF7FEBF 		b	nav_set_altitude
 3201              	.L270:
 3202              		.align	2
 3203              	.L269:
 3204 003c 00000000 		.word	.LANCHOR8
 3205 0040 0000C842 		.word	1120403456
 3206 0044 00000000 		.word	.LANCHOR6
 3207 0048 00000000 		.word	v_ctl_mode
 3208 004c 00000000 		.word	.LANCHOR11
 3209 0050 0000C841 		.word	1103626240
 3210 0054 00000000 		.word	.LANCHOR17
 3211 0058 00000000 		.word	.LANCHOR9
 3212 005c 00000000 		.word	.LANCHOR7
 3213              		.cfi_endproc
 3214              	.LFE51:
 3216              		.section	.text.nav_periodic_task,"ax",%progbits
 3217              		.align	1
 3218              		.global	nav_periodic_task
 3219              		.thumb
 3220              		.thumb_func
 3222              	nav_periodic_task:
 3223              	.LFB52:
 395:subsystems/nav.c **** void nav_periodic_task(void) {
 3224              		.loc 1 395 0
 3225              		.cfi_startproc
 3226              		@ args = 0, pretend = 0, frame = 0
 3227              		@ frame_needed = 0, uses_anonymous_args = 0
 396:subsystems/nav.c ****   nav_survey_active = FALSE;
 3228              		.loc 1 396 0
 3229 0000 874B     		ldr	r3, .L455
 395:subsystems/nav.c **** void nav_periodic_task(void) {
 3230              		.loc 1 395 0
 3231 0002 2DE9F743 		push	{r0, r1, r2, r4, r5, r6, r7, r8, r9, lr}
 3232              	.LCFI17:
 3233              		.cfi_def_cfa_offset 40
 396:subsystems/nav.c ****   nav_survey_active = FALSE;
 3234              		.loc 1 396 0
 3235 0006 0022     		movs	r2, #0
 3236              		.cfi_offset 14, -4
 3237              		.cfi_offset 9, -8
 3238              		.cfi_offset 8, -12
 3239              		.cfi_offset 7, -16
 3240              		.cfi_offset 6, -20
 3241              		.cfi_offset 5, -24
 3242              		.cfi_offset 4, -28
 3243              		.cfi_offset 2, -32
 3244              		.cfi_offset 1, -36
 3245              		.cfi_offset 0, -40
 3246 0008 1A70     		strb	r2, [r3, #0]
 398:subsystems/nav.c ****   compute_dist2_to_home();
 3247              		.loc 1 398 0
 3248 000a FFF7FEFF 		bl	compute_dist2_to_home
 399:subsystems/nav.c ****   dist2_to_wp = 0.;
 3249              		.loc 1 399 0
 3250 000e 854B     		ldr	r3, .L455+4
 3251 0010 0022     		movs	r2, #0
 3252 0012 1A60     		str	r2, [r3, #0]	@ float
 3253              	.LBB33:
 3254              	.LBB34:
 3255              		.file 3 "/home/woz/lisa-m-team4938/paparazzi/var/ECE_2012/generated/flight_plan.h"
   1:/home/woz/lisa-m-team4938/paparazzi/var/ECE_2012/generated/flight_plan.h **** /* This file has been generated from /home/woz/lisa-m-team4938/paparazzi/conf/flight_plans/basic.xm
   2:/home/woz/lisa-m-team4938/paparazzi/var/ECE_2012/generated/flight_plan.h **** /* Please DO NOT EDIT */
   3:/home/woz/lisa-m-team4938/paparazzi/var/ECE_2012/generated/flight_plan.h **** 
   4:/home/woz/lisa-m-team4938/paparazzi/var/ECE_2012/generated/flight_plan.h **** #ifndef FLIGHT_PLAN_H
   5:/home/woz/lisa-m-team4938/paparazzi/var/ECE_2012/generated/flight_plan.h **** #define FLIGHT_PLAN_H 
   6:/home/woz/lisa-m-team4938/paparazzi/var/ECE_2012/generated/flight_plan.h **** 
   7:/home/woz/lisa-m-team4938/paparazzi/var/ECE_2012/generated/flight_plan.h **** #include "std.h"
   8:/home/woz/lisa-m-team4938/paparazzi/var/ECE_2012/generated/flight_plan.h **** #include "generated/modules.h"
   9:/home/woz/lisa-m-team4938/paparazzi/var/ECE_2012/generated/flight_plan.h **** #include "subsystems/navigation/nav_line.h"
  10:/home/woz/lisa-m-team4938/paparazzi/var/ECE_2012/generated/flight_plan.h **** #include "datalink.h"
  11:/home/woz/lisa-m-team4938/paparazzi/var/ECE_2012/generated/flight_plan.h **** #define FLIGHT_PLAN_NAME "Basic"
  12:/home/woz/lisa-m-team4938/paparazzi/var/ECE_2012/generated/flight_plan.h **** #define NAV_UTM_EAST0 360285
  13:/home/woz/lisa-m-team4938/paparazzi/var/ECE_2012/generated/flight_plan.h **** #define NAV_UTM_NORTH0 4813595
  14:/home/woz/lisa-m-team4938/paparazzi/var/ECE_2012/generated/flight_plan.h **** #define NAV_UTM_ZONE0 31
  15:/home/woz/lisa-m-team4938/paparazzi/var/ECE_2012/generated/flight_plan.h **** #define NAV_LAT0 434622300 /* 1e7deg */
  16:/home/woz/lisa-m-team4938/paparazzi/var/ECE_2012/generated/flight_plan.h **** #define NAV_LON0 12728900 /* 1e7deg */
  17:/home/woz/lisa-m-team4938/paparazzi/var/ECE_2012/generated/flight_plan.h **** #define NAV_ALT0 0 /* mm above msl */
  18:/home/woz/lisa-m-team4938/paparazzi/var/ECE_2012/generated/flight_plan.h **** #define NAV_MSL0 51850 /* mm, EGM96 geoid-height (msl) over ellipsoid */
  19:/home/woz/lisa-m-team4938/paparazzi/var/ECE_2012/generated/flight_plan.h **** #define QFU 0.0
  20:/home/woz/lisa-m-team4938/paparazzi/var/ECE_2012/generated/flight_plan.h **** #define WP_dummy 0
  21:/home/woz/lisa-m-team4938/paparazzi/var/ECE_2012/generated/flight_plan.h **** #define WP_HOME 1
  22:/home/woz/lisa-m-team4938/paparazzi/var/ECE_2012/generated/flight_plan.h **** #define WP_STDBY 2
  23:/home/woz/lisa-m-team4938/paparazzi/var/ECE_2012/generated/flight_plan.h **** #define WP_1 3
  24:/home/woz/lisa-m-team4938/paparazzi/var/ECE_2012/generated/flight_plan.h **** #define WP_2 4
  25:/home/woz/lisa-m-team4938/paparazzi/var/ECE_2012/generated/flight_plan.h **** #define WP_MOB 5
  26:/home/woz/lisa-m-team4938/paparazzi/var/ECE_2012/generated/flight_plan.h **** #define WP_S1 6
  27:/home/woz/lisa-m-team4938/paparazzi/var/ECE_2012/generated/flight_plan.h **** #define WP_S2 7
  28:/home/woz/lisa-m-team4938/paparazzi/var/ECE_2012/generated/flight_plan.h **** #define WP_AF 8
  29:/home/woz/lisa-m-team4938/paparazzi/var/ECE_2012/generated/flight_plan.h **** #define WP_TD 9
  30:/home/woz/lisa-m-team4938/paparazzi/var/ECE_2012/generated/flight_plan.h **** #define WP__BASELEG 10
  31:/home/woz/lisa-m-team4938/paparazzi/var/ECE_2012/generated/flight_plan.h **** #define WP_CLIMB 11
  32:/home/woz/lisa-m-team4938/paparazzi/var/ECE_2012/generated/flight_plan.h **** #define WAYPOINTS { \
  33:/home/woz/lisa-m-team4938/paparazzi/var/ECE_2012/generated/flight_plan.h ****  {42.0, 42.0, 75},\
  34:/home/woz/lisa-m-team4938/paparazzi/var/ECE_2012/generated/flight_plan.h ****  {0.0, 0.0, 75},\
  35:/home/woz/lisa-m-team4938/paparazzi/var/ECE_2012/generated/flight_plan.h ****  {49.5, 100.1, 75},\
  36:/home/woz/lisa-m-team4938/paparazzi/var/ECE_2012/generated/flight_plan.h ****  {10.1, 189.9, 75},\
  37:/home/woz/lisa-m-team4938/paparazzi/var/ECE_2012/generated/flight_plan.h ****  {132.3, 139.1, 75},\
  38:/home/woz/lisa-m-team4938/paparazzi/var/ECE_2012/generated/flight_plan.h ****  {137.0, -11.6, 75},\
  39:/home/woz/lisa-m-team4938/paparazzi/var/ECE_2012/generated/flight_plan.h ****  {-119.2, 69.6, 75},\
  40:/home/woz/lisa-m-team4938/paparazzi/var/ECE_2012/generated/flight_plan.h ****  {274.4, 209.5, 75},\
  41:/home/woz/lisa-m-team4938/paparazzi/var/ECE_2012/generated/flight_plan.h ****  {177.4, 45.1, 30.0},\
  42:/home/woz/lisa-m-team4938/paparazzi/var/ECE_2012/generated/flight_plan.h ****  {28.8, 57.0, 0.0},\
  43:/home/woz/lisa-m-team4938/paparazzi/var/ECE_2012/generated/flight_plan.h ****  {168.8, -13.8, 75},\
  44:/home/woz/lisa-m-team4938/paparazzi/var/ECE_2012/generated/flight_plan.h ****  {-114.5, 162.3, 75},\
  45:/home/woz/lisa-m-team4938/paparazzi/var/ECE_2012/generated/flight_plan.h **** };
  46:/home/woz/lisa-m-team4938/paparazzi/var/ECE_2012/generated/flight_plan.h **** #define WAYPOINTS_LLA { \
  47:/home/woz/lisa-m-team4938/paparazzi/var/ECE_2012/generated/flight_plan.h ****  {434626158, 12733981, 7500}, /* 1e7deg, 1e7deg, cm (hmsl=51.85m) */ \
  48:/home/woz/lisa-m-team4938/paparazzi/var/ECE_2012/generated/flight_plan.h ****  {434622299, 12728900, 7500}, /* 1e7deg, 1e7deg, cm (hmsl=51.85m) */ \
  49:/home/woz/lisa-m-team4938/paparazzi/var/ECE_2012/generated/flight_plan.h ****  {434631401, 12734759, 7500}, /* 1e7deg, 1e7deg, cm (hmsl=51.85m) */ \
  50:/home/woz/lisa-m-team4938/paparazzi/var/ECE_2012/generated/flight_plan.h ****  {434639410, 12729661, 7500}, /* 1e7deg, 1e7deg, cm (hmsl=51.85m) */ \
  51:/home/woz/lisa-m-team4938/paparazzi/var/ECE_2012/generated/flight_plan.h ****  {434635066, 12744890, 7500}, /* 1e7deg, 1e7deg, cm (hmsl=51.85m) */ \
  52:/home/woz/lisa-m-team4938/paparazzi/var/ECE_2012/generated/flight_plan.h ****  {434621511, 12745857, 7500}, /* 1e7deg, 1e7deg, cm (hmsl=51.85m) */ \
  53:/home/woz/lisa-m-team4938/paparazzi/var/ECE_2012/generated/flight_plan.h ****  {434628341, 12713992, 7500}, /* 1e7deg, 1e7deg, cm (hmsl=51.85m) */ \
  54:/home/woz/lisa-m-team4938/paparazzi/var/ECE_2012/generated/flight_plan.h ****  {434641667, 12762269, 7500}, /* 1e7deg, 1e7deg, cm (hmsl=51.85m) */ \
  55:/home/woz/lisa-m-team4938/paparazzi/var/ECE_2012/generated/flight_plan.h ****  {434626690, 12750704, 3000}, /* 1e7deg, 1e7deg, cm (hmsl=51.85m) */ \
  56:/home/woz/lisa-m-team4938/paparazzi/var/ECE_2012/generated/flight_plan.h ****  {434627483, 12732312, 0}, /* 1e7deg, 1e7deg, cm (hmsl=51.85m) */ \
  57:/home/woz/lisa-m-team4938/paparazzi/var/ECE_2012/generated/flight_plan.h ****  {434621372, 12749792, 7500}, /* 1e7deg, 1e7deg, cm (hmsl=51.85m) */ \
  58:/home/woz/lisa-m-team4938/paparazzi/var/ECE_2012/generated/flight_plan.h ****  {434636693, 12714335, 7500}, /* 1e7deg, 1e7deg, cm (hmsl=51.85m) */ \
  59:/home/woz/lisa-m-team4938/paparazzi/var/ECE_2012/generated/flight_plan.h **** };
  60:/home/woz/lisa-m-team4938/paparazzi/var/ECE_2012/generated/flight_plan.h **** #define NB_WAYPOINT 12
  61:/home/woz/lisa-m-team4938/paparazzi/var/ECE_2012/generated/flight_plan.h **** #define NB_BLOCK 17
  62:/home/woz/lisa-m-team4938/paparazzi/var/ECE_2012/generated/flight_plan.h **** #define GROUND_ALT 0.
  63:/home/woz/lisa-m-team4938/paparazzi/var/ECE_2012/generated/flight_plan.h **** #define GROUND_ALT_CM 0
  64:/home/woz/lisa-m-team4938/paparazzi/var/ECE_2012/generated/flight_plan.h **** #define SECURITY_HEIGHT 25.
  65:/home/woz/lisa-m-team4938/paparazzi/var/ECE_2012/generated/flight_plan.h **** #define SECURITY_ALT 25.
  66:/home/woz/lisa-m-team4938/paparazzi/var/ECE_2012/generated/flight_plan.h **** #define MAX_DIST_FROM_HOME 1500.
  67:/home/woz/lisa-m-team4938/paparazzi/var/ECE_2012/generated/flight_plan.h **** #ifdef NAV_C
  68:/home/woz/lisa-m-team4938/paparazzi/var/ECE_2012/generated/flight_plan.h **** 
  69:/home/woz/lisa-m-team4938/paparazzi/var/ECE_2012/generated/flight_plan.h **** static inline void auto_nav(void) {
  70:/home/woz/lisa-m-team4938/paparazzi/var/ECE_2012/generated/flight_plan.h ****   switch (nav_block) {
 3256              		.loc 3 70 0
 3257 0014 844B     		ldr	r3, .L455+8
 3258 0016 1B78     		ldrb	r3, [r3, #0]	@ zero_extendqisi2
 3259 0018 102B     		cmp	r3, #16
 3260 001a 00F21B85 		bhi	.L272
 3261 001e DFE813F0 		tbh	[pc, r3, lsl #1]
 3262              	.L290:
 3263 0022 1100     		.2byte	(.L273-.L290)/2
 3264 0024 2900     		.2byte	(.L274-.L290)/2
 3265 0026 4700     		.2byte	(.L275-.L290)/2
 3266 0028 5C00     		.2byte	(.L276-.L290)/2
 3267 002a AD00     		.2byte	(.L277-.L290)/2
 3268 002c C900     		.2byte	(.L278-.L290)/2
 3269 002e F200     		.2byte	(.L279-.L290)/2
 3270 0030 4701     		.2byte	(.L280-.L290)/2
 3271 0032 7B01     		.2byte	(.L281-.L290)/2
 3272 0034 9701     		.2byte	(.L282-.L290)/2
 3273 0036 B301     		.2byte	(.L283-.L290)/2
 3274 0038 7C02     		.2byte	(.L284-.L290)/2
 3275 003a 8B02     		.2byte	(.L285-.L290)/2
 3276 003c 9D02     		.2byte	(.L286-.L290)/2
 3277 003e 3D04     		.2byte	(.L287-.L290)/2
 3278 0040 8D04     		.2byte	(.L288-.L290)/2
 3279 0042 0905     		.2byte	(.L289-.L290)/2
 3280              	.L273:
  71:/home/woz/lisa-m-team4938/paparazzi/var/ECE_2012/generated/flight_plan.h ****     Block(0) // Wait GPS
 3281              		.loc 3 71 0
 3282 0044 784B     		ldr	r3, .L455+8
 3283 0046 0022     		movs	r2, #0
 3284 0048 1A70     		strb	r2, [r3, #0]
  72:/home/woz/lisa-m-team4938/paparazzi/var/ECE_2012/generated/flight_plan.h ****     ; // pre_call
  73:/home/woz/lisa-m-team4938/paparazzi/var/ECE_2012/generated/flight_plan.h ****     switch(nav_stage) {
 3285              		.loc 3 73 0
 3286 004a 784B     		ldr	r3, .L455+12
 3287 004c 1A78     		ldrb	r2, [r3, #0]	@ zero_extendqisi2
 3288 004e 012A     		cmp	r2, #1
 3289 0050 02D0     		beq	.L293
 3290 0052 36D3     		bcc	.L300
 3291 0054 022A     		cmp	r2, #2
 3292 0056 06D1     		bne	.L291
 3293              	.L293:
  74:/home/woz/lisa-m-team4938/paparazzi/var/ECE_2012/generated/flight_plan.h ****       Stage(0)
  75:/home/woz/lisa-m-team4938/paparazzi/var/ECE_2012/generated/flight_plan.h ****         kill_throttle = 1;
  76:/home/woz/lisa-m-team4938/paparazzi/var/ECE_2012/generated/flight_plan.h ****         NextStageAndBreak();
  77:/home/woz/lisa-m-team4938/paparazzi/var/ECE_2012/generated/flight_plan.h ****         break;
  78:/home/woz/lisa-m-team4938/paparazzi/var/ECE_2012/generated/flight_plan.h ****       Label(while_1)
  79:/home/woz/lisa-m-team4938/paparazzi/var/ECE_2012/generated/flight_plan.h ****       Stage(1)
  80:/home/woz/lisa-m-team4938/paparazzi/var/ECE_2012/generated/flight_plan.h ****         if (! (!(GpsFixValid()))) Goto(endwhile_2) else NextStageAndBreak();
 3294              		.loc 3 80 0
 3295 0058 754B     		ldr	r3, .L455+16
 3296 005a 93F85730 		ldrb	r3, [r3, #87]	@ zero_extendqisi2
 3297 005e 032B     		cmp	r3, #3
 3298 0060 01D0     		beq	.L291
 3299 0062 0222     		movs	r2, #2
 3300 0064 16E0     		b	.L432
 3301              	.L291:
  81:/home/woz/lisa-m-team4938/paparazzi/var/ECE_2012/generated/flight_plan.h ****         Stage(2)
  82:/home/woz/lisa-m-team4938/paparazzi/var/ECE_2012/generated/flight_plan.h ****           Goto(while_1)
  83:/home/woz/lisa-m-team4938/paparazzi/var/ECE_2012/generated/flight_plan.h ****         Label(endwhile_2)
  84:/home/woz/lisa-m-team4938/paparazzi/var/ECE_2012/generated/flight_plan.h ****       default:
  85:/home/woz/lisa-m-team4938/paparazzi/var/ECE_2012/generated/flight_plan.h ****       Stage(3)
 3302              		.loc 3 85 0
 3303 0066 714B     		ldr	r3, .L455+12
 3304 0068 0322     		movs	r2, #3
 3305 006a 1A70     		strb	r2, [r3, #0]
  86:/home/woz/lisa-m-team4938/paparazzi/var/ECE_2012/generated/flight_plan.h ****         NextBlock();
 3306              		.loc 3 86 0
 3307 006c 6E4B     		ldr	r3, .L455+8
 3308 006e 1A78     		ldrb	r2, [r3, #0]	@ zero_extendqisi2
 3309 0070 0132     		adds	r2, r2, #1
 3310 0072 50E2     		b	.L423
 3311              	.L274:
  87:/home/woz/lisa-m-team4938/paparazzi/var/ECE_2012/generated/flight_plan.h ****         break;
  88:/home/woz/lisa-m-team4938/paparazzi/var/ECE_2012/generated/flight_plan.h ****     }
  89:/home/woz/lisa-m-team4938/paparazzi/var/ECE_2012/generated/flight_plan.h ****     ; // post_call
  90:/home/woz/lisa-m-team4938/paparazzi/var/ECE_2012/generated/flight_plan.h ****     break;
  91:/home/woz/lisa-m-team4938/paparazzi/var/ECE_2012/generated/flight_plan.h **** 
  92:/home/woz/lisa-m-team4938/paparazzi/var/ECE_2012/generated/flight_plan.h ****     Block(1) // Geo init
 3312              		.loc 3 92 0
 3313 0074 6C4B     		ldr	r3, .L455+8
 3314 0076 0122     		movs	r2, #1
 3315 0078 1A70     		strb	r2, [r3, #0]
  93:/home/woz/lisa-m-team4938/paparazzi/var/ECE_2012/generated/flight_plan.h ****     ; // pre_call
  94:/home/woz/lisa-m-team4938/paparazzi/var/ECE_2012/generated/flight_plan.h ****     switch(nav_stage) {
 3316              		.loc 3 94 0
 3317 007a 6C4A     		ldr	r2, .L455+12
 3318 007c 1178     		ldrb	r1, [r2, #0]	@ zero_extendqisi2
 3319 007e 0129     		cmp	r1, #1
 3320 0080 03D0     		beq	.L296
 3321 0082 02D3     		bcc	.L296
 3322 0084 0229     		cmp	r1, #2
 3323 0086 0FD1     		bne	.L394
 3324 0088 06E0     		b	.L298
 3325              	.L296:
  95:/home/woz/lisa-m-team4938/paparazzi/var/ECE_2012/generated/flight_plan.h ****       Label(while_3)
  96:/home/woz/lisa-m-team4938/paparazzi/var/ECE_2012/generated/flight_plan.h ****       Stage(0)
  97:/home/woz/lisa-m-team4938/paparazzi/var/ECE_2012/generated/flight_plan.h ****         if (! (LessThan(NavBlockTime(),10))) Goto(endwhile_4) else NextStageAndBreak();
 3326              		.loc 3 97 0
 3327 008a 6A4B     		ldr	r3, .L455+20
 3328 008c 1B88     		ldrh	r3, [r3, #0]
 3329 008e 092B     		cmp	r3, #9
 3330 0090 02D8     		bhi	.L298
 3331 0092 0122     		movs	r2, #1
 3332              	.L432:
 3333 0094 654B     		ldr	r3, .L455+12
 3334 0096 FBE3     		b	.L419
 3335              	.L298:
  98:/home/woz/lisa-m-team4938/paparazzi/var/ECE_2012/generated/flight_plan.h ****         Stage(1)
  99:/home/woz/lisa-m-team4938/paparazzi/var/ECE_2012/generated/flight_plan.h ****           Goto(while_3)
 100:/home/woz/lisa-m-team4938/paparazzi/var/ECE_2012/generated/flight_plan.h ****         Label(endwhile_4)
 101:/home/woz/lisa-m-team4938/paparazzi/var/ECE_2012/generated/flight_plan.h ****       Stage(2)
 3336              		.loc 3 101 0
 3337 0098 644C     		ldr	r4, .L455+12
 3338 009a 0223     		movs	r3, #2
 3339 009c 2370     		strb	r3, [r4, #0]
 102:/home/woz/lisa-m-team4938/paparazzi/var/ECE_2012/generated/flight_plan.h ****         if (! (NavSetGroundReferenceHere()))
 3340              		.loc 3 102 0
 3341 009e FFF7FEFF 		bl	nav_reset_reference
 3342 00a2 FFF7FEFF 		bl	nav_update_waypoints_alt
 3343 00a6 62E1     		b	.L426
 3344              	.L394:
 103:/home/woz/lisa-m-team4938/paparazzi/var/ECE_2012/generated/flight_plan.h ****           NextStageAndBreak();
 104:/home/woz/lisa-m-team4938/paparazzi/var/ECE_2012/generated/flight_plan.h ****         break;
 105:/home/woz/lisa-m-team4938/paparazzi/var/ECE_2012/generated/flight_plan.h ****       default:
 106:/home/woz/lisa-m-team4938/paparazzi/var/ECE_2012/generated/flight_plan.h ****       Stage(3)
 3345              		.loc 3 106 0
 3346 00a8 0321     		movs	r1, #3
 3347 00aa 1170     		strb	r1, [r2, #0]
 107:/home/woz/lisa-m-team4938/paparazzi/var/ECE_2012/generated/flight_plan.h ****         NextBlock();
 3348              		.loc 3 107 0
 3349 00ac 0222     		movs	r2, #2
 3350 00ae 32E2     		b	.L423
 3351              	.L275:
 108:/home/woz/lisa-m-team4938/paparazzi/var/ECE_2012/generated/flight_plan.h ****         break;
 109:/home/woz/lisa-m-team4938/paparazzi/var/ECE_2012/generated/flight_plan.h ****     }
 110:/home/woz/lisa-m-team4938/paparazzi/var/ECE_2012/generated/flight_plan.h ****     ; // post_call
 111:/home/woz/lisa-m-team4938/paparazzi/var/ECE_2012/generated/flight_plan.h ****     break;
 112:/home/woz/lisa-m-team4938/paparazzi/var/ECE_2012/generated/flight_plan.h **** 
 113:/home/woz/lisa-m-team4938/paparazzi/var/ECE_2012/generated/flight_plan.h ****     Block(2) // Holding point
 114:/home/woz/lisa-m-team4938/paparazzi/var/ECE_2012/generated/flight_plan.h ****     ; // pre_call
 115:/home/woz/lisa-m-team4938/paparazzi/var/ECE_2012/generated/flight_plan.h ****     switch(nav_stage) {
 3352              		.loc 3 115 0
 3353 00b0 5E4B     		ldr	r3, .L455+12
 113:/home/woz/lisa-m-team4938/paparazzi/var/ECE_2012/generated/flight_plan.h ****     Block(2) // Holding point
 3354              		.loc 3 113 0
 3355 00b2 5D48     		ldr	r0, .L455+8
 3356              		.loc 3 115 0
 3357 00b4 1978     		ldrb	r1, [r3, #0]	@ zero_extendqisi2
 113:/home/woz/lisa-m-team4938/paparazzi/var/ECE_2012/generated/flight_plan.h ****     Block(2) // Holding point
 3358              		.loc 3 113 0
 3359 00b6 0222     		movs	r2, #2
 3360 00b8 0270     		strb	r2, [r0, #0]
 3361              		.loc 3 115 0
 3362 00ba 11B1     		cbz	r1, .L300
 3363 00bc 0129     		cmp	r1, #1
 3364 00be 07D1     		bne	.L395
 3365 00c0 03E0     		b	.L446
 3366              	.L300:
 116:/home/woz/lisa-m-team4938/paparazzi/var/ECE_2012/generated/flight_plan.h ****       Stage(0)
 117:/home/woz/lisa-m-team4938/paparazzi/var/ECE_2012/generated/flight_plan.h ****         kill_throttle = 1;
 3367              		.loc 3 117 0
 3368 00c2 5D49     		ldr	r1, .L455+24
 3369 00c4 0122     		movs	r2, #1
 3370 00c6 0A70     		strb	r2, [r1, #0]
 3371 00c8 E2E3     		b	.L419
 3372              	.L446:
 118:/home/woz/lisa-m-team4938/paparazzi/var/ECE_2012/generated/flight_plan.h ****         NextStageAndBreak();
 119:/home/woz/lisa-m-team4938/paparazzi/var/ECE_2012/generated/flight_plan.h ****         break;
 120:/home/woz/lisa-m-team4938/paparazzi/var/ECE_2012/generated/flight_plan.h ****       Stage(1)
 3373              		.loc 3 120 0
 3374 00ca 1970     		strb	r1, [r3, #0]
 3375 00cc 00F066BC 		b	.L435
 3376              	.L395:
 121:/home/woz/lisa-m-team4938/paparazzi/var/ECE_2012/generated/flight_plan.h ****         {
 122:/home/woz/lisa-m-team4938/paparazzi/var/ECE_2012/generated/flight_plan.h ****           NavAttitude(RadOfDeg(0));
 123:/home/woz/lisa-m-team4938/paparazzi/var/ECE_2012/generated/flight_plan.h ****           NavVerticalAutoThrottleMode(RadOfDeg(0.000000));
 124:/home/woz/lisa-m-team4938/paparazzi/var/ECE_2012/generated/flight_plan.h ****           NavVerticalThrottleMode(9600*(0));
 125:/home/woz/lisa-m-team4938/paparazzi/var/ECE_2012/generated/flight_plan.h ****         }
 126:/home/woz/lisa-m-team4938/paparazzi/var/ECE_2012/generated/flight_plan.h ****         break;
 127:/home/woz/lisa-m-team4938/paparazzi/var/ECE_2012/generated/flight_plan.h ****       default:
 128:/home/woz/lisa-m-team4938/paparazzi/var/ECE_2012/generated/flight_plan.h ****       Stage(2)
 3377              		.loc 3 128 0
 3378 00d0 1A70     		strb	r2, [r3, #0]
 129:/home/woz/lisa-m-team4938/paparazzi/var/ECE_2012/generated/flight_plan.h ****         NextBlock();
 3379              		.loc 3 129 0
 3380 00d2 0323     		movs	r3, #3
 3381 00d4 0370     		strb	r3, [r0, #0]
 3382 00d6 00F0BBBC 		b	.L412
 3383              	.L276:
 130:/home/woz/lisa-m-team4938/paparazzi/var/ECE_2012/generated/flight_plan.h ****         break;
 131:/home/woz/lisa-m-team4938/paparazzi/var/ECE_2012/generated/flight_plan.h ****     }
 132:/home/woz/lisa-m-team4938/paparazzi/var/ECE_2012/generated/flight_plan.h ****     ; // post_call
 133:/home/woz/lisa-m-team4938/paparazzi/var/ECE_2012/generated/flight_plan.h ****     break;
 134:/home/woz/lisa-m-team4938/paparazzi/var/ECE_2012/generated/flight_plan.h **** 
 135:/home/woz/lisa-m-team4938/paparazzi/var/ECE_2012/generated/flight_plan.h ****     Block(3) // Takeoff
 136:/home/woz/lisa-m-team4938/paparazzi/var/ECE_2012/generated/flight_plan.h ****     ; // pre_call
 137:/home/woz/lisa-m-team4938/paparazzi/var/ECE_2012/generated/flight_plan.h ****     if ((nav_block != 4) && (estimator_z>(ground_alt+25))) { GotoBlock(4); return; }
 3384              		.loc 3 137 0
 3385 00da 584B     		ldr	r3, .L455+28
 135:/home/woz/lisa-m-team4938/paparazzi/var/ECE_2012/generated/flight_plan.h ****     Block(3) // Takeoff
 3386              		.loc 3 135 0
 3387 00dc 524D     		ldr	r5, .L455+8
 3388 00de 0326     		movs	r6, #3
 3389              		.loc 3 137 0
 3390 00e0 1868     		ldr	r0, [r3, #0]	@ float
 3391 00e2 5749     		ldr	r1, .L455+32
 135:/home/woz/lisa-m-team4938/paparazzi/var/ECE_2012/generated/flight_plan.h ****     Block(3) // Takeoff
 3392              		.loc 3 135 0
 3393 00e4 2E70     		strb	r6, [r5, #0]
 3394              		.loc 3 137 0
 3395 00e6 FFF7FEFF 		bl	__aeabi_fadd
 3396 00ea 564B     		ldr	r3, .L455+36
 3397 00ec 0146     		mov	r1, r0
 3398 00ee 1868     		ldr	r0, [r3, #0]	@ float
 3399 00f0 FFF7FEFF 		bl	__aeabi_fcmpgt
 3400 00f4 0028     		cmp	r0, #0
 3401 00f6 3DD1     		bne	.L424
 138:/home/woz/lisa-m-team4938/paparazzi/var/ECE_2012/generated/flight_plan.h ****     switch(nav_stage) {
 3402              		.loc 3 138 0
 3403 00f8 4C4C     		ldr	r4, .L455+12
 3404 00fa 2378     		ldrb	r3, [r4, #0]	@ zero_extendqisi2
 3405 00fc 012B     		cmp	r3, #1
 3406 00fe 0AD0     		beq	.L307
 3407 0100 02D3     		bcc	.L306
 3408 0102 022B     		cmp	r3, #2
 3409 0104 35D1     		bne	.L397
 3410 0106 0CE0     		b	.L447
 3411              	.L306:
 139:/home/woz/lisa-m-team4938/paparazzi/var/ECE_2012/generated/flight_plan.h ****       Stage(0)
 140:/home/woz/lisa-m-team4938/paparazzi/var/ECE_2012/generated/flight_plan.h ****         kill_throttle = 0;
 3412              		.loc 3 140 0
 3413 0108 4B4B     		ldr	r3, .L455+24
 3414 010a 0022     		movs	r2, #0
 3415 010c 1A70     		strb	r2, [r3, #0]
 141:/home/woz/lisa-m-team4938/paparazzi/var/ECE_2012/generated/flight_plan.h ****         NextStageAndBreak();
 3416              		.loc 3 141 0
 3417 010e 0123     		movs	r3, #1
 3418              	.L418:
 3419 0110 2370     		strb	r3, [r4, #0]
 3420 0112 00F02EBC 		b	.L414
 3421              	.L307:
 142:/home/woz/lisa-m-team4938/paparazzi/var/ECE_2012/generated/flight_plan.h ****         break;
 143:/home/woz/lisa-m-team4938/paparazzi/var/ECE_2012/generated/flight_plan.h ****       Stage(1)
 144:/home/woz/lisa-m-team4938/paparazzi/var/ECE_2012/generated/flight_plan.h ****         estimator_flight_time = 0;
 3422              		.loc 3 144 0
 3423 0116 4C4B     		ldr	r3, .L455+40
 3424 0118 4FF00002 		mov	r2, #0	@ movhi
 3425 011c 1A80     		strh	r2, [r3, #0]	@ movhi
 145:/home/woz/lisa-m-team4938/paparazzi/var/ECE_2012/generated/flight_plan.h ****         NextStageAndBreak();
 3426              		.loc 3 145 0
 3427 011e 0223     		movs	r3, #2
 3428 0120 F6E7     		b	.L418
 3429              	.L447:
 146:/home/woz/lisa-m-team4938/paparazzi/var/ECE_2012/generated/flight_plan.h ****         break;
 147:/home/woz/lisa-m-team4938/paparazzi/var/ECE_2012/generated/flight_plan.h ****       Stage(2)
 3430              		.loc 3 147 0
 3431 0122 2370     		strb	r3, [r4, #0]
 148:/home/woz/lisa-m-team4938/paparazzi/var/ECE_2012/generated/flight_plan.h ****         if (NavApproachingFrom(11,1,CARROT)) NextStageAndBreakFrom(11) else {
 3432              		.loc 3 148 0
 3433 0124 494B     		ldr	r3, .L455+44
 3434 0126 4A4D     		ldr	r5, .L455+48
 3435 0128 0093     		str	r3, [sp, #0]	@ float
 3436 012a D5F88400 		ldr	r0, [r5, #132]	@ float
 3437 012e D5F88810 		ldr	r1, [r5, #136]	@ float
 3438 0132 EA68     		ldr	r2, [r5, #12]	@ float
 3439 0134 2B69     		ldr	r3, [r5, #16]	@ float
 3440 0136 FFF7FEFF 		bl	nav_approaching_xy
 3441 013a 0646     		mov	r6, r0
 3442 013c 18B1     		cbz	r0, .L309
 3443 013e 454B     		ldr	r3, .L455+52
 3444 0140 0B22     		movs	r2, #11
 3445 0142 1A70     		strb	r2, [r3, #0]
 3446 0144 13E1     		b	.L426
 3447              	.L309:
 149:/home/woz/lisa-m-team4938/paparazzi/var/ECE_2012/generated/flight_plan.h ****           NavGotoWaypoint(11);
 3448              		.loc 3 149 0
 3449 0146 444B     		ldr	r3, .L455+56
 3450 0148 1870     		strb	r0, [r3, #0]
 3451 014a D5F88810 		ldr	r1, [r5, #136]	@ float
 3452 014e D5F88400 		ldr	r0, [r5, #132]	@ float
 3453 0152 FFF7FEFF 		bl	fly_to_xy
 150:/home/woz/lisa-m-team4938/paparazzi/var/ECE_2012/generated/flight_plan.h ****           NavVerticalAutoThrottleMode(RadOfDeg(15));
 3454              		.loc 3 150 0
 3455 0156 414B     		ldr	r3, .L455+60
 3456 0158 414A     		ldr	r2, .L455+64
 3457 015a 1E70     		strb	r6, [r3, #0]
 3458 015c 414B     		ldr	r3, .L455+68
 151:/home/woz/lisa-m-team4938/paparazzi/var/ECE_2012/generated/flight_plan.h ****           NavVerticalThrottleMode(9600*(1.000000));
 3459              		.loc 3 151 0
 3460 015e 4FF41651 		mov	r1, #9600	@ movhi
 150:/home/woz/lisa-m-team4938/paparazzi/var/ECE_2012/generated/flight_plan.h ****           NavVerticalAutoThrottleMode(RadOfDeg(15));
 3461              		.loc 3 150 0
 3462 0162 1A60     		str	r2, [r3, #0]	@ float
 3463              		.loc 3 151 0
 3464 0164 404B     		ldr	r3, .L455+72
 3465 0166 0122     		movs	r2, #1
 3466 0168 1A70     		strb	r2, [r3, #0]
 3467 016a 404B     		ldr	r3, .L455+76
 3468 016c 1980     		strh	r1, [r3, #0]	@ movhi
 3469 016e 00F071BC 		b	.L272
 3470              	.L397:
 152:/home/woz/lisa-m-team4938/paparazzi/var/ECE_2012/generated/flight_plan.h ****         }
 153:/home/woz/lisa-m-team4938/paparazzi/var/ECE_2012/generated/flight_plan.h ****         break;
 154:/home/woz/lisa-m-team4938/paparazzi/var/ECE_2012/generated/flight_plan.h ****       default:
 155:/home/woz/lisa-m-team4938/paparazzi/var/ECE_2012/generated/flight_plan.h ****       Stage(3)
 3471              		.loc 3 155 0
 3472 0172 2670     		strb	r6, [r4, #0]
 3473              	.L424:
 156:/home/woz/lisa-m-team4938/paparazzi/var/ECE_2012/generated/flight_plan.h ****         NextBlock();
 3474              		.loc 3 156 0
 3475 0174 0423     		movs	r3, #4
 3476 0176 2B70     		strb	r3, [r5, #0]
 3477 0178 00F06ABC 		b	.L412
 3478              	.L277:
 157:/home/woz/lisa-m-team4938/paparazzi/var/ECE_2012/generated/flight_plan.h ****         break;
 158:/home/woz/lisa-m-team4938/paparazzi/var/ECE_2012/generated/flight_plan.h ****     }
 159:/home/woz/lisa-m-team4938/paparazzi/var/ECE_2012/generated/flight_plan.h ****     ; // post_call
 160:/home/woz/lisa-m-team4938/paparazzi/var/ECE_2012/generated/flight_plan.h ****     break;
 161:/home/woz/lisa-m-team4938/paparazzi/var/ECE_2012/generated/flight_plan.h **** 
 162:/home/woz/lisa-m-team4938/paparazzi/var/ECE_2012/generated/flight_plan.h ****     Block(4) // Standby
 3479              		.loc 3 162 0
 3480 017c 2A49     		ldr	r1, .L455+8
 3481 017e 0423     		movs	r3, #4
 3482 0180 0B70     		strb	r3, [r1, #0]
 163:/home/woz/lisa-m-team4938/paparazzi/var/ECE_2012/generated/flight_plan.h ****     ; // pre_call
 164:/home/woz/lisa-m-team4938/paparazzi/var/ECE_2012/generated/flight_plan.h ****     switch(nav_stage) {
 3483              		.loc 3 164 0
 3484 0182 2A4B     		ldr	r3, .L455+12
 3485 0184 1A78     		ldrb	r2, [r3, #0]	@ zero_extendqisi2
 3486 0186 8AB9     		cbnz	r2, .L398
 165:/home/woz/lisa-m-team4938/paparazzi/var/ECE_2012/generated/flight_plan.h ****       Stage(0)
 3487              		.loc 3 165 0
 3488 0188 1A70     		strb	r2, [r3, #0]
 166:/home/woz/lisa-m-team4938/paparazzi/var/ECE_2012/generated/flight_plan.h ****         NavVerticalAutoThrottleMode(RadOfDeg(0.000000));
 3489              		.loc 3 166 0
 3490 018a 344B     		ldr	r3, .L455+60
 167:/home/woz/lisa-m-team4938/paparazzi/var/ECE_2012/generated/flight_plan.h ****         NavVerticalAltitudeMode(WaypointAlt(2), 0.);
 3491              		.loc 3 167 0
 3492 018c 0321     		movs	r1, #3
 166:/home/woz/lisa-m-team4938/paparazzi/var/ECE_2012/generated/flight_plan.h ****         NavVerticalAutoThrottleMode(RadOfDeg(0.000000));
 3493              		.loc 3 166 0
 3494 018e 1A70     		strb	r2, [r3, #0]
 3495 0190 344B     		ldr	r3, .L455+68
 3496 0192 0022     		movs	r2, #0
 3497 0194 1A60     		str	r2, [r3, #0]	@ float
 3498              		.loc 3 167 0
 3499 0196 344B     		ldr	r3, .L455+72
 3500 0198 1970     		strb	r1, [r3, #0]
 3501 019a 2D4B     		ldr	r3, .L455+48
 3502 019c 3449     		ldr	r1, .L455+80
 3503 019e 186A     		ldr	r0, [r3, #32]	@ float
 3504 01a0 0860     		str	r0, [r1, #0]	@ float
 3505 01a2 3449     		ldr	r1, .L455+84
 3506 01a4 0A60     		str	r2, [r1, #0]	@ float
 168:/home/woz/lisa-m-team4938/paparazzi/var/ECE_2012/generated/flight_plan.h ****         NavCircleWaypoint(2, nav_radius);
 3507              		.loc 3 168 0
 3508 01a6 9869     		ldr	r0, [r3, #24]	@ float
 3509 01a8 D969     		ldr	r1, [r3, #28]	@ float
 3510 01aa ABE0     		b	.L415
 3511              	.L398:
 169:/home/woz/lisa-m-team4938/paparazzi/var/ECE_2012/generated/flight_plan.h ****         break;
 170:/home/woz/lisa-m-team4938/paparazzi/var/ECE_2012/generated/flight_plan.h ****       default:
 171:/home/woz/lisa-m-team4938/paparazzi/var/ECE_2012/generated/flight_plan.h ****       Stage(1)
 3512              		.loc 3 171 0
 3513 01ac 0122     		movs	r2, #1
 3514 01ae 1A70     		strb	r2, [r3, #0]
 172:/home/woz/lisa-m-team4938/paparazzi/var/ECE_2012/generated/flight_plan.h ****         NextBlock();
 3515              		.loc 3 172 0
 3516 01b0 0523     		movs	r3, #5
 3517 01b2 AFE0     		b	.L425
 3518              	.L278:
 173:/home/woz/lisa-m-team4938/paparazzi/var/ECE_2012/generated/flight_plan.h ****         break;
 174:/home/woz/lisa-m-team4938/paparazzi/var/ECE_2012/generated/flight_plan.h ****     }
 175:/home/woz/lisa-m-team4938/paparazzi/var/ECE_2012/generated/flight_plan.h ****     ; // post_call
 176:/home/woz/lisa-m-team4938/paparazzi/var/ECE_2012/generated/flight_plan.h ****     break;
 177:/home/woz/lisa-m-team4938/paparazzi/var/ECE_2012/generated/flight_plan.h **** 
 178:/home/woz/lisa-m-team4938/paparazzi/var/ECE_2012/generated/flight_plan.h ****     Block(5) // Figure 8 around wp 1
 3519              		.loc 3 178 0
 3520 01b4 1C4A     		ldr	r2, .L455+8
 179:/home/woz/lisa-m-team4938/paparazzi/var/ECE_2012/generated/flight_plan.h ****     ; // pre_call
 180:/home/woz/lisa-m-team4938/paparazzi/var/ECE_2012/generated/flight_plan.h ****     switch(nav_stage) {
 3521              		.loc 3 180 0
 3522 01b6 1D4C     		ldr	r4, .L455+12
 178:/home/woz/lisa-m-team4938/paparazzi/var/ECE_2012/generated/flight_plan.h ****     Block(5) // Figure 8 around wp 1
 3523              		.loc 3 178 0
 3524 01b8 0523     		movs	r3, #5
 3525 01ba 1370     		strb	r3, [r2, #0]
 3526              		.loc 3 180 0
 3527 01bc 2378     		ldrb	r3, [r4, #0]	@ zero_extendqisi2
 3528 01be 13B1     		cbz	r3, .L313
 3529 01c0 012B     		cmp	r3, #1
 3530 01c2 1BD1     		bne	.L399
 3531 01c4 03E0     		b	.L448
 3532              	.L313:
 181:/home/woz/lisa-m-team4938/paparazzi/var/ECE_2012/generated/flight_plan.h ****       Stage(0)
 3533              		.loc 3 181 0
 3534 01c6 2370     		strb	r3, [r4, #0]
 182:/home/woz/lisa-m-team4938/paparazzi/var/ECE_2012/generated/flight_plan.h ****         nav_eight_init();
 3535              		.loc 3 182 0
 3536 01c8 FFF7FEFF 		bl	nav_eight_init
 3537 01cc CFE0     		b	.L426
 3538              	.L448:
 183:/home/woz/lisa-m-team4938/paparazzi/var/ECE_2012/generated/flight_plan.h ****         NextStageAndBreak();
 184:/home/woz/lisa-m-team4938/paparazzi/var/ECE_2012/generated/flight_plan.h ****       Stage(1)
 3539              		.loc 3 184 0
 3540 01ce 2370     		strb	r3, [r4, #0]
 185:/home/woz/lisa-m-team4938/paparazzi/var/ECE_2012/generated/flight_plan.h ****         NavVerticalAutoThrottleMode(RadOfDeg(0.000000));
 3541              		.loc 3 185 0
 3542 01d0 224B     		ldr	r3, .L455+60
 3543 01d2 0022     		movs	r2, #0
 3544 01d4 1A70     		strb	r2, [r3, #0]
 3545 01d6 234A     		ldr	r2, .L455+68
 3546 01d8 0023     		movs	r3, #0
 3547 01da 1360     		str	r3, [r2, #0]	@ float
 186:/home/woz/lisa-m-team4938/paparazzi/var/ECE_2012/generated/flight_plan.h ****         NavVerticalAltitudeMode(WaypointAlt(3), 0.);
 3548              		.loc 3 186 0
 3549 01dc 224A     		ldr	r2, .L455+72
 3550 01de 0320     		movs	r0, #3
 3551 01e0 1070     		strb	r0, [r2, #0]
 3552 01e2 1B4A     		ldr	r2, .L455+48
 3553 01e4 D16A     		ldr	r1, [r2, #44]	@ float
 3554 01e6 224A     		ldr	r2, .L455+80
 3555 01e8 1160     		str	r1, [r2, #0]	@ float
 3556 01ea 224A     		ldr	r2, .L455+84
 187:/home/woz/lisa-m-team4938/paparazzi/var/ECE_2012/generated/flight_plan.h ****         Eight(3, 4, nav_radius);
 3557              		.loc 3 187 0
 3558 01ec 0421     		movs	r1, #4
 186:/home/woz/lisa-m-team4938/paparazzi/var/ECE_2012/generated/flight_plan.h ****         NavVerticalAltitudeMode(WaypointAlt(3), 0.);
 3559              		.loc 3 186 0
 3560 01ee 1360     		str	r3, [r2, #0]	@ float
 3561              		.loc 3 187 0
 3562 01f0 214B     		ldr	r3, .L455+88
 3563 01f2 1A68     		ldr	r2, [r3, #0]	@ float
 3564 01f4 FFF7FEFF 		bl	nav_eight
 3565 01f8 00F02CBC 		b	.L272
 3566              	.L399:
 188:/home/woz/lisa-m-team4938/paparazzi/var/ECE_2012/generated/flight_plan.h ****         break;
 189:/home/woz/lisa-m-team4938/paparazzi/var/ECE_2012/generated/flight_plan.h ****       default:
 190:/home/woz/lisa-m-team4938/paparazzi/var/ECE_2012/generated/flight_plan.h ****       Stage(2)
 3567              		.loc 3 190 0
 3568 01fc 0223     		movs	r3, #2
 3569 01fe 2370     		strb	r3, [r4, #0]
 191:/home/woz/lisa-m-team4938/paparazzi/var/ECE_2012/generated/flight_plan.h ****         NextBlock();
 3570              		.loc 3 191 0
 3571 0200 0433     		adds	r3, r3, #4
 3572 0202 00F024BC 		b	.L411
 3573              	.L279:
 192:/home/woz/lisa-m-team4938/paparazzi/var/ECE_2012/generated/flight_plan.h ****         break;
 193:/home/woz/lisa-m-team4938/paparazzi/var/ECE_2012/generated/flight_plan.h ****     }
 194:/home/woz/lisa-m-team4938/paparazzi/var/ECE_2012/generated/flight_plan.h ****     ; // post_call
 195:/home/woz/lisa-m-team4938/paparazzi/var/ECE_2012/generated/flight_plan.h ****     break;
 196:/home/woz/lisa-m-team4938/paparazzi/var/ECE_2012/generated/flight_plan.h **** 
 197:/home/woz/lisa-m-team4938/paparazzi/var/ECE_2012/generated/flight_plan.h ****     Block(6) // Oval 1-2
 3574              		.loc 3 197 0
 3575 0206 084A     		ldr	r2, .L455+8
 198:/home/woz/lisa-m-team4938/paparazzi/var/ECE_2012/generated/flight_plan.h ****     ; // pre_call
 199:/home/woz/lisa-m-team4938/paparazzi/var/ECE_2012/generated/flight_plan.h ****     switch(nav_stage) {
 3576              		.loc 3 199 0
 3577 0208 084C     		ldr	r4, .L455+12
 197:/home/woz/lisa-m-team4938/paparazzi/var/ECE_2012/generated/flight_plan.h ****     Block(6) // Oval 1-2
 3578              		.loc 3 197 0
 3579 020a 0623     		movs	r3, #6
 3580 020c 1370     		strb	r3, [r2, #0]
 3581              		.loc 3 199 0
 3582 020e 2378     		ldrb	r3, [r4, #0]	@ zero_extendqisi2
 3583 0210 13B1     		cbz	r3, .L316
 3584 0212 012B     		cmp	r3, #1
 3585 0214 48D1     		bne	.L400
 3586 0216 31E0     		b	.L449
 3587              	.L316:
 200:/home/woz/lisa-m-team4938/paparazzi/var/ECE_2012/generated/flight_plan.h ****       Stage(0)
 3588              		.loc 3 200 0
 3589 0218 2370     		strb	r3, [r4, #0]
 201:/home/woz/lisa-m-team4938/paparazzi/var/ECE_2012/generated/flight_plan.h ****         nav_oval_init();
 3590              		.loc 3 201 0
 3591 021a FFF7FEFF 		bl	nav_oval_init
 3592 021e A6E0     		b	.L426
 3593              	.L456:
 3594              		.align	2
 3595              	.L455:
 3596 0220 00000000 		.word	.LANCHOR43
 3597 0224 00000000 		.word	.LANCHOR7
 3598 0228 00000000 		.word	nav_block
 3599 022c 00000000 		.word	nav_stage
 3600 0230 00000000 		.word	gps
 3601 0234 00000000 		.word	block_time
 3602 0238 00000000 		.word	kill_throttle
 3603 023c 00000000 		.word	.LANCHOR11
 3604 0240 0000C841 		.word	1103626240
 3605 0244 00000000 		.word	estimator_z
 3606 0248 00000000 		.word	estimator_flight_time
 3607 024c 0000A040 		.word	1084227584
 3608 0250 00000000 		.word	.LANCHOR8
 3609 0254 00000000 		.word	.LANCHOR44
 3610 0258 00000000 		.word	.LANCHOR37
 3611 025c 00000000 		.word	v_ctl_climb_mode
 3612 0260 920A863E 		.word	1048971922
 3613 0264 00000000 		.word	.LANCHOR6
 3614 0268 00000000 		.word	v_ctl_mode
 3615 026c 00000000 		.word	.LANCHOR24
 3616 0270 00000000 		.word	.LANCHOR17
 3617 0274 00000000 		.word	v_ctl_altitude_pre_climb
 3618 0278 00000000 		.word	.LANCHOR21
 3619              	.L449:
 202:/home/woz/lisa-m-team4938/paparazzi/var/ECE_2012/generated/flight_plan.h ****         NextStageAndBreak();
 203:/home/woz/lisa-m-team4938/paparazzi/var/ECE_2012/generated/flight_plan.h ****       Stage(1)
 3620              		.loc 3 203 0
 3621 027c 2370     		strb	r3, [r4, #0]
 204:/home/woz/lisa-m-team4938/paparazzi/var/ECE_2012/generated/flight_plan.h ****         NavVerticalAutoThrottleMode(RadOfDeg(0.000000));
 3622              		.loc 3 204 0
 3623 027e 874B     		ldr	r3, .L457
 3624 0280 0022     		movs	r2, #0
 3625 0282 1A70     		strb	r2, [r3, #0]
 3626 0284 864A     		ldr	r2, .L457+4
 3627 0286 0023     		movs	r3, #0
 3628 0288 1360     		str	r3, [r2, #0]	@ float
 205:/home/woz/lisa-m-team4938/paparazzi/var/ECE_2012/generated/flight_plan.h ****         NavVerticalAltitudeMode(WaypointAlt(3), 0.);
 3629              		.loc 3 205 0
 3630 028a 864A     		ldr	r2, .L457+8
 3631 028c 0321     		movs	r1, #3
 3632 028e 1170     		strb	r1, [r2, #0]
 3633 0290 854A     		ldr	r2, .L457+12
 3634 0292 D06A     		ldr	r0, [r2, #44]	@ float
 3635 0294 854A     		ldr	r2, .L457+16
 3636 0296 1060     		str	r0, [r2, #0]	@ float
 3637 0298 854A     		ldr	r2, .L457+20
 206:/home/woz/lisa-m-team4938/paparazzi/var/ECE_2012/generated/flight_plan.h ****         Oval(3, 4, nav_radius);
 3638              		.loc 3 206 0
 3639 029a 0420     		movs	r0, #4
 205:/home/woz/lisa-m-team4938/paparazzi/var/ECE_2012/generated/flight_plan.h ****         NavVerticalAltitudeMode(WaypointAlt(3), 0.);
 3640              		.loc 3 205 0
 3641 029c 1360     		str	r3, [r2, #0]	@ float
 3642              		.loc 3 206 0
 3643 029e 854B     		ldr	r3, .L457+24
 3644 02a0 1A68     		ldr	r2, [r3, #0]	@ float
 3645 02a2 FFF7FEFF 		bl	nav_oval
 3646 02a6 D5E3     		b	.L272
 3647              	.L400:
 207:/home/woz/lisa-m-team4938/paparazzi/var/ECE_2012/generated/flight_plan.h ****         break;
 208:/home/woz/lisa-m-team4938/paparazzi/var/ECE_2012/generated/flight_plan.h ****       default:
 209:/home/woz/lisa-m-team4938/paparazzi/var/ECE_2012/generated/flight_plan.h ****       Stage(2)
 3648              		.loc 3 209 0
 3649 02a8 0223     		movs	r3, #2
 3650 02aa 2370     		strb	r3, [r4, #0]
 210:/home/woz/lisa-m-team4938/paparazzi/var/ECE_2012/generated/flight_plan.h ****         NextBlock();
 3651              		.loc 3 210 0
 3652 02ac 0533     		adds	r3, r3, #5
 3653 02ae CEE3     		b	.L411
 3654              	.L280:
 211:/home/woz/lisa-m-team4938/paparazzi/var/ECE_2012/generated/flight_plan.h ****         break;
 212:/home/woz/lisa-m-team4938/paparazzi/var/ECE_2012/generated/flight_plan.h ****     }
 213:/home/woz/lisa-m-team4938/paparazzi/var/ECE_2012/generated/flight_plan.h ****     ; // post_call
 214:/home/woz/lisa-m-team4938/paparazzi/var/ECE_2012/generated/flight_plan.h ****     break;
 215:/home/woz/lisa-m-team4938/paparazzi/var/ECE_2012/generated/flight_plan.h **** 
 216:/home/woz/lisa-m-team4938/paparazzi/var/ECE_2012/generated/flight_plan.h ****     Block(7) // MOB
 3655              		.loc 3 216 0
 3656 02b0 8149     		ldr	r1, .L457+28
 3657 02b2 0723     		movs	r3, #7
 3658 02b4 0B70     		strb	r3, [r1, #0]
 217:/home/woz/lisa-m-team4938/paparazzi/var/ECE_2012/generated/flight_plan.h ****     ; // pre_call
 218:/home/woz/lisa-m-team4938/paparazzi/var/ECE_2012/generated/flight_plan.h ****     switch(nav_stage) {
 3659              		.loc 3 218 0
 3660 02b6 814B     		ldr	r3, .L457+32
 3661 02b8 1A78     		ldrb	r2, [r3, #0]	@ zero_extendqisi2
 3662 02ba 012A     		cmp	r2, #1
 3663 02bc 0BD0     		beq	.L320
 3664 02be 02D3     		bcc	.L319
 3665 02c0 022A     		cmp	r2, #2
 3666 02c2 24D1     		bne	.L401
 3667 02c4 0CE0     		b	.L450
 3668              	.L319:
 219:/home/woz/lisa-m-team4938/paparazzi/var/ECE_2012/generated/flight_plan.h ****       Stage(0)
 220:/home/woz/lisa-m-team4938/paparazzi/var/ECE_2012/generated/flight_plan.h ****         if (! (NavSetWaypointHere(WP_MOB)))
 3669              		.loc 3 220 0
 3670 02c6 7E49     		ldr	r1, .L457+36
 3671 02c8 774A     		ldr	r2, .L457+12
 3672 02ca 0968     		ldr	r1, [r1, #0]	@ float
 3673 02cc D163     		str	r1, [r2, #60]	@ float
 3674 02ce 7D49     		ldr	r1, .L457+40
 3675 02d0 0968     		ldr	r1, [r1, #0]	@ float
 3676 02d2 1164     		str	r1, [r2, #64]	@ float
 3677 02d4 3CE1     		b	.L431
 3678              	.L320:
 221:/home/woz/lisa-m-team4938/paparazzi/var/ECE_2012/generated/flight_plan.h ****           NextStageAndBreak();
 222:/home/woz/lisa-m-team4938/paparazzi/var/ECE_2012/generated/flight_plan.h ****         break;
 223:/home/woz/lisa-m-team4938/paparazzi/var/ECE_2012/generated/flight_plan.h ****       Stage(1)
 224:/home/woz/lisa-m-team4938/paparazzi/var/ECE_2012/generated/flight_plan.h ****         nav_radius = DEFAULT_CIRCLE_RADIUS;
 3679              		.loc 3 224 0
 3680 02d6 774A     		ldr	r2, .L457+24
 3681 02d8 7B49     		ldr	r1, .L457+44
 3682 02da 1160     		str	r1, [r2, #0]	@ float
 225:/home/woz/lisa-m-team4938/paparazzi/var/ECE_2012/generated/flight_plan.h ****         NextStageAndBreak();
 3683              		.loc 3 225 0
 3684 02dc 0222     		movs	r2, #2
 3685 02de D7E2     		b	.L419
 3686              	.L450:
 226:/home/woz/lisa-m-team4938/paparazzi/var/ECE_2012/generated/flight_plan.h ****         break;
 227:/home/woz/lisa-m-team4938/paparazzi/var/ECE_2012/generated/flight_plan.h ****       Stage(2)
 3687              		.loc 3 227 0
 3688 02e0 1A70     		strb	r2, [r3, #0]
 228:/home/woz/lisa-m-team4938/paparazzi/var/ECE_2012/generated/flight_plan.h ****         NavVerticalAutoThrottleMode(RadOfDeg(0.000000));
 3689              		.loc 3 228 0
 3690 02e2 6E4B     		ldr	r3, .L457
 3691 02e4 0022     		movs	r2, #0
 3692 02e6 1A70     		strb	r2, [r3, #0]
 3693 02e8 6D4B     		ldr	r3, .L457+4
 3694 02ea 0022     		movs	r2, #0
 3695 02ec 1A60     		str	r2, [r3, #0]	@ float
 229:/home/woz/lisa-m-team4938/paparazzi/var/ECE_2012/generated/flight_plan.h ****         NavVerticalAltitudeMode(WaypointAlt(5), 0.);
 3696              		.loc 3 229 0
 3697 02ee 6D4B     		ldr	r3, .L457+8
 3698 02f0 0321     		movs	r1, #3
 3699 02f2 1970     		strb	r1, [r3, #0]
 3700 02f4 6C4B     		ldr	r3, .L457+12
 3701 02f6 6D49     		ldr	r1, .L457+16
 3702 02f8 586C     		ldr	r0, [r3, #68]	@ float
 3703 02fa 0860     		str	r0, [r1, #0]	@ float
 3704 02fc 6C49     		ldr	r1, .L457+20
 3705 02fe 0A60     		str	r2, [r1, #0]	@ float
 230:/home/woz/lisa-m-team4938/paparazzi/var/ECE_2012/generated/flight_plan.h ****         NavCircleWaypoint(5, nav_radius);
 3706              		.loc 3 230 0
 3707 0300 D86B     		ldr	r0, [r3, #60]	@ float
 3708 0302 196C     		ldr	r1, [r3, #64]	@ float
 3709              	.L415:
 3710 0304 6B4B     		ldr	r3, .L457+24
 3711 0306 1A68     		ldr	r2, [r3, #0]	@ float
 3712 0308 FFF7FEFF 		bl	nav_circle_XY
 3713 030c A2E3     		b	.L272
 3714              	.L401:
 231:/home/woz/lisa-m-team4938/paparazzi/var/ECE_2012/generated/flight_plan.h ****         break;
 232:/home/woz/lisa-m-team4938/paparazzi/var/ECE_2012/generated/flight_plan.h ****       default:
 233:/home/woz/lisa-m-team4938/paparazzi/var/ECE_2012/generated/flight_plan.h ****       Stage(3)
 3715              		.loc 3 233 0
 3716 030e 0322     		movs	r2, #3
 3717 0310 1A70     		strb	r2, [r3, #0]
 234:/home/woz/lisa-m-team4938/paparazzi/var/ECE_2012/generated/flight_plan.h ****         NextBlock();
 3718              		.loc 3 234 0
 3719 0312 0823     		movs	r3, #8
 3720              	.L425:
 3721 0314 0B70     		strb	r3, [r1, #0]
 3722 0316 9BE3     		b	.L412
 3723              	.L281:
 235:/home/woz/lisa-m-team4938/paparazzi/var/ECE_2012/generated/flight_plan.h ****         break;
 236:/home/woz/lisa-m-team4938/paparazzi/var/ECE_2012/generated/flight_plan.h ****     }
 237:/home/woz/lisa-m-team4938/paparazzi/var/ECE_2012/generated/flight_plan.h ****     ; // post_call
 238:/home/woz/lisa-m-team4938/paparazzi/var/ECE_2012/generated/flight_plan.h ****     break;
 239:/home/woz/lisa-m-team4938/paparazzi/var/ECE_2012/generated/flight_plan.h **** 
 240:/home/woz/lisa-m-team4938/paparazzi/var/ECE_2012/generated/flight_plan.h ****     Block(8) // Line 1-2
 3724              		.loc 3 240 0
 3725 0318 674A     		ldr	r2, .L457+28
 241:/home/woz/lisa-m-team4938/paparazzi/var/ECE_2012/generated/flight_plan.h ****     ; // pre_call
 242:/home/woz/lisa-m-team4938/paparazzi/var/ECE_2012/generated/flight_plan.h ****     switch(nav_stage) {
 3726              		.loc 3 242 0
 3727 031a 684C     		ldr	r4, .L457+32
 240:/home/woz/lisa-m-team4938/paparazzi/var/ECE_2012/generated/flight_plan.h ****     Block(8) // Line 1-2
 3728              		.loc 3 240 0
 3729 031c 0823     		movs	r3, #8
 3730 031e 1370     		strb	r3, [r2, #0]
 3731              		.loc 3 242 0
 3732 0320 2378     		ldrb	r3, [r4, #0]	@ zero_extendqisi2
 3733 0322 13B1     		cbz	r3, .L323
 3734 0324 012B     		cmp	r3, #1
 3735 0326 0FD1     		bne	.L402
 3736 0328 03E0     		b	.L451
 3737              	.L323:
 243:/home/woz/lisa-m-team4938/paparazzi/var/ECE_2012/generated/flight_plan.h ****       Stage(0)
 3738              		.loc 3 243 0
 3739 032a 2370     		strb	r3, [r4, #0]
 244:/home/woz/lisa-m-team4938/paparazzi/var/ECE_2012/generated/flight_plan.h ****         if (! (nav_line_init()))
 3740              		.loc 3 244 0
 3741 032c FFF7FEFF 		bl	nav_line_init
 3742 0330 06E0     		b	.L428
 3743              	.L451:
 245:/home/woz/lisa-m-team4938/paparazzi/var/ECE_2012/generated/flight_plan.h ****           NextStageAndBreak();
 246:/home/woz/lisa-m-team4938/paparazzi/var/ECE_2012/generated/flight_plan.h ****         break;
 247:/home/woz/lisa-m-team4938/paparazzi/var/ECE_2012/generated/flight_plan.h ****       Stage(1)
 3744              		.loc 3 247 0
 3745 0332 2370     		strb	r3, [r4, #0]
 248:/home/woz/lisa-m-team4938/paparazzi/var/ECE_2012/generated/flight_plan.h ****         if (! (nav_line(WP_1, WP_2, nav_radius)))
 3746              		.loc 3 248 0
 3747 0334 5F4B     		ldr	r3, .L457+24
 3748 0336 0320     		movs	r0, #3
 3749 0338 0421     		movs	r1, #4
 3750 033a 1A68     		ldr	r2, [r3, #0]	@ float
 3751 033c FFF7FEFF 		bl	nav_line
 3752              	.L428:
 3753 0340 0028     		cmp	r0, #0
 3754 0342 40F08783 		bne	.L272
 3755 0346 12E0     		b	.L426
 3756              	.L402:
 249:/home/woz/lisa-m-team4938/paparazzi/var/ECE_2012/generated/flight_plan.h ****           NextStageAndBreak();
 250:/home/woz/lisa-m-team4938/paparazzi/var/ECE_2012/generated/flight_plan.h ****         break;
 251:/home/woz/lisa-m-team4938/paparazzi/var/ECE_2012/generated/flight_plan.h ****       default:
 252:/home/woz/lisa-m-team4938/paparazzi/var/ECE_2012/generated/flight_plan.h ****       Stage(2)
 3757              		.loc 3 252 0
 3758 0348 0223     		movs	r3, #2
 3759 034a 2370     		strb	r3, [r4, #0]
 253:/home/woz/lisa-m-team4938/paparazzi/var/ECE_2012/generated/flight_plan.h ****         NextBlock();
 3760              		.loc 3 253 0
 3761 034c 0733     		adds	r3, r3, #7
 3762 034e 7EE3     		b	.L411
 3763              	.L282:
 254:/home/woz/lisa-m-team4938/paparazzi/var/ECE_2012/generated/flight_plan.h ****         break;
 255:/home/woz/lisa-m-team4938/paparazzi/var/ECE_2012/generated/flight_plan.h ****     }
 256:/home/woz/lisa-m-team4938/paparazzi/var/ECE_2012/generated/flight_plan.h ****     ; // post_call
 257:/home/woz/lisa-m-team4938/paparazzi/var/ECE_2012/generated/flight_plan.h ****     break;
 258:/home/woz/lisa-m-team4938/paparazzi/var/ECE_2012/generated/flight_plan.h **** 
 259:/home/woz/lisa-m-team4938/paparazzi/var/ECE_2012/generated/flight_plan.h ****     Block(9) // Survey S1-S2
 3764              		.loc 3 259 0
 3765 0350 594A     		ldr	r2, .L457+28
 260:/home/woz/lisa-m-team4938/paparazzi/var/ECE_2012/generated/flight_plan.h ****     ; // pre_call
 261:/home/woz/lisa-m-team4938/paparazzi/var/ECE_2012/generated/flight_plan.h ****     switch(nav_stage) {
 3766              		.loc 3 261 0
 3767 0352 5A4C     		ldr	r4, .L457+32
 259:/home/woz/lisa-m-team4938/paparazzi/var/ECE_2012/generated/flight_plan.h ****     Block(9) // Survey S1-S2
 3768              		.loc 3 259 0
 3769 0354 0923     		movs	r3, #9
 3770 0356 1370     		strb	r3, [r2, #0]
 3771              		.loc 3 261 0
 3772 0358 2378     		ldrb	r3, [r4, #0]	@ zero_extendqisi2
 3773 035a 13B1     		cbz	r3, .L326
 3774 035c 012B     		cmp	r3, #1
 3775 035e 0FD1     		bne	.L403
 3776 0360 08E0     		b	.L452
 3777              	.L326:
 262:/home/woz/lisa-m-team4938/paparazzi/var/ECE_2012/generated/flight_plan.h ****       Stage(0)
 3778              		.loc 3 262 0
 3779 0362 2370     		strb	r3, [r4, #0]
 263:/home/woz/lisa-m-team4938/paparazzi/var/ECE_2012/generated/flight_plan.h ****         NavSurveyRectangleInit(6, 7, 150, NS);
 3780              		.loc 3 263 0
 3781 0364 0620     		movs	r0, #6
 3782 0366 0721     		movs	r1, #7
 3783 0368 584A     		ldr	r2, .L457+48
 3784 036a FFF7FEFF 		bl	nav_survey_rectangle_init
 3785              	.L426:
 264:/home/woz/lisa-m-team4938/paparazzi/var/ECE_2012/generated/flight_plan.h ****         NextStageAndBreak();
 3786              		.loc 3 264 0
 3787 036e 2378     		ldrb	r3, [r4, #0]	@ zero_extendqisi2
 3788 0370 0133     		adds	r3, r3, #1
 3789 0372 CDE6     		b	.L418
 3790              	.L452:
 265:/home/woz/lisa-m-team4938/paparazzi/var/ECE_2012/generated/flight_plan.h ****       Stage(1)
 3791              		.loc 3 265 0
 3792 0374 2370     		strb	r3, [r4, #0]
 266:/home/woz/lisa-m-team4938/paparazzi/var/ECE_2012/generated/flight_plan.h ****         NavSurveyRectangle(6, 7);
 3793              		.loc 3 266 0
 3794 0376 0620     		movs	r0, #6
 3795 0378 0721     		movs	r1, #7
 3796 037a FFF7FEFF 		bl	nav_survey_rectangle
 3797 037e 69E3     		b	.L272
 3798              	.L403:
 267:/home/woz/lisa-m-team4938/paparazzi/var/ECE_2012/generated/flight_plan.h ****         break;
 268:/home/woz/lisa-m-team4938/paparazzi/var/ECE_2012/generated/flight_plan.h ****       default:
 269:/home/woz/lisa-m-team4938/paparazzi/var/ECE_2012/generated/flight_plan.h ****       Stage(2)
 3799              		.loc 3 269 0
 3800 0380 0223     		movs	r3, #2
 3801 0382 2370     		strb	r3, [r4, #0]
 270:/home/woz/lisa-m-team4938/paparazzi/var/ECE_2012/generated/flight_plan.h ****         NextBlock();
 3802              		.loc 3 270 0
 3803 0384 0833     		adds	r3, r3, #8
 3804 0386 62E3     		b	.L411
 3805              	.L283:
 271:/home/woz/lisa-m-team4938/paparazzi/var/ECE_2012/generated/flight_plan.h ****         break;
 272:/home/woz/lisa-m-team4938/paparazzi/var/ECE_2012/generated/flight_plan.h ****     }
 273:/home/woz/lisa-m-team4938/paparazzi/var/ECE_2012/generated/flight_plan.h ****     ; // post_call
 274:/home/woz/lisa-m-team4938/paparazzi/var/ECE_2012/generated/flight_plan.h ****     break;
 275:/home/woz/lisa-m-team4938/paparazzi/var/ECE_2012/generated/flight_plan.h **** 
 276:/home/woz/lisa-m-team4938/paparazzi/var/ECE_2012/generated/flight_plan.h ****     Block(10) // Path 1,2,S1,S2,STDBY
 3806              		.loc 3 276 0
 3807 0388 4B4B     		ldr	r3, .L457+28
 3808 038a 0A22     		movs	r2, #10
 3809 038c 1A70     		strb	r2, [r3, #0]
 277:/home/woz/lisa-m-team4938/paparazzi/var/ECE_2012/generated/flight_plan.h ****     ; // pre_call
 278:/home/woz/lisa-m-team4938/paparazzi/var/ECE_2012/generated/flight_plan.h ****     switch(nav_stage) {
 3810              		.loc 3 278 0
 3811 038e 4B4B     		ldr	r3, .L457+32
 3812 0390 1A78     		ldrb	r2, [r3, #0]	@ zero_extendqisi2
 3813 0392 042A     		cmp	r2, #4
 3814 0394 00F2BB80 		bhi	.L328
 3815 0398 DFE812F0 		tbh	[pc, r2, lsl #1]
 3816              	.L334:
 3817 039c 0500     		.2byte	(.L329-.L334)/2
 3818 039e 2500     		.2byte	(.L330-.L334)/2
 3819 03a0 4900     		.2byte	(.L331-.L334)/2
 3820 03a2 6B00     		.2byte	(.L332-.L334)/2
 3821 03a4 B600     		.2byte	(.L333-.L334)/2
 3822              	.L329:
 279:/home/woz/lisa-m-team4938/paparazzi/var/ECE_2012/generated/flight_plan.h ****       Stage(0)
 3823              		.loc 3 279 0
 3824 03a6 0022     		movs	r2, #0
 3825 03a8 1A70     		strb	r2, [r3, #0]
 280:/home/woz/lisa-m-team4938/paparazzi/var/ECE_2012/generated/flight_plan.h ****         if (NavApproachingFrom(4,3,CARROT)) NextStageAndBreakFrom(4) else {
 3826              		.loc 3 280 0
 3827 03aa 494B     		ldr	r3, .L457+52
 3828 03ac 3E4C     		ldr	r4, .L457+12
 3829 03ae 0093     		str	r3, [sp, #0]	@ float
 3830 03b0 206B     		ldr	r0, [r4, #48]	@ float
 3831 03b2 616B     		ldr	r1, [r4, #52]	@ float
 3832 03b4 626A     		ldr	r2, [r4, #36]	@ float
 3833 03b6 A36A     		ldr	r3, [r4, #40]	@ float
 3834 03b8 FFF7FEFF 		bl	nav_approaching_xy
 279:/home/woz/lisa-m-team4938/paparazzi/var/ECE_2012/generated/flight_plan.h ****       Stage(0)
 3835              		.loc 3 279 0
 3836 03bc 3F4D     		ldr	r5, .L457+32
 3837              		.loc 3 280 0
 3838 03be 0646     		mov	r6, r0
 3839 03c0 08B1     		cbz	r0, .L335
 3840 03c2 0422     		movs	r2, #4
 3841 03c4 D0E2     		b	.L420
 3842              	.L335:
 281:/home/woz/lisa-m-team4938/paparazzi/var/ECE_2012/generated/flight_plan.h ****           NavSegment(3, 4);
 3843              		.loc 3 281 0
 3844 03c6 A16A     		ldr	r1, [r4, #40]	@ float
 3845 03c8 226B     		ldr	r2, [r4, #48]	@ float
 3846 03ca 636B     		ldr	r3, [r4, #52]	@ float
 3847 03cc 606A     		ldr	r0, [r4, #36]	@ float
 3848 03ce FFF7FEFF 		bl	nav_route_xy
 282:/home/woz/lisa-m-team4938/paparazzi/var/ECE_2012/generated/flight_plan.h ****           NavVerticalAutoThrottleMode(RadOfDeg(0.000000));
 3849              		.loc 3 282 0
 3850 03d2 324B     		ldr	r3, .L457
 3851 03d4 324A     		ldr	r2, .L457+4
 3852 03d6 1E70     		strb	r6, [r3, #0]
 3853 03d8 0023     		movs	r3, #0
 3854 03da 1360     		str	r3, [r2, #0]	@ float
 283:/home/woz/lisa-m-team4938/paparazzi/var/ECE_2012/generated/flight_plan.h ****           NavVerticalAltitudeMode(WaypointAlt(4), 0.);
 3855              		.loc 3 283 0
 3856 03dc 314A     		ldr	r2, .L457+8
 3857 03de 0321     		movs	r1, #3
 3858 03e0 1170     		strb	r1, [r2, #0]
 3859 03e2 A16B     		ldr	r1, [r4, #56]	@ float
 3860 03e4 1EE0     		b	.L416
 3861              	.L330:
 284:/home/woz/lisa-m-team4938/paparazzi/var/ECE_2012/generated/flight_plan.h ****         }
 285:/home/woz/lisa-m-team4938/paparazzi/var/ECE_2012/generated/flight_plan.h ****         break;
 286:/home/woz/lisa-m-team4938/paparazzi/var/ECE_2012/generated/flight_plan.h ****       Stage(1)
 3862              		.loc 3 286 0
 3863 03e6 0122     		movs	r2, #1
 3864 03e8 1A70     		strb	r2, [r3, #0]
 287:/home/woz/lisa-m-team4938/paparazzi/var/ECE_2012/generated/flight_plan.h ****         if (NavApproachingFrom(6,4,CARROT)) NextStageAndBreakFrom(6) else {
 3865              		.loc 3 287 0
 3866 03ea 394B     		ldr	r3, .L457+52
 3867 03ec 2E4C     		ldr	r4, .L457+12
 3868 03ee 0093     		str	r3, [sp, #0]	@ float
 3869 03f0 A06C     		ldr	r0, [r4, #72]	@ float
 3870 03f2 E16C     		ldr	r1, [r4, #76]	@ float
 3871 03f4 226B     		ldr	r2, [r4, #48]	@ float
 3872 03f6 636B     		ldr	r3, [r4, #52]	@ float
 3873 03f8 FFF7FEFF 		bl	nav_approaching_xy
 286:/home/woz/lisa-m-team4938/paparazzi/var/ECE_2012/generated/flight_plan.h ****       Stage(1)
 3874              		.loc 3 286 0
 3875 03fc 2F4D     		ldr	r5, .L457+32
 3876              		.loc 3 287 0
 3877 03fe 0646     		mov	r6, r0
 3878 0400 08B1     		cbz	r0, .L336
 3879 0402 0622     		movs	r2, #6
 3880 0404 B0E2     		b	.L420
 3881              	.L336:
 288:/home/woz/lisa-m-team4938/paparazzi/var/ECE_2012/generated/flight_plan.h ****           NavSegment(4, 6);
 3882              		.loc 3 288 0
 3883 0406 616B     		ldr	r1, [r4, #52]	@ float
 3884 0408 A26C     		ldr	r2, [r4, #72]	@ float
 3885 040a E36C     		ldr	r3, [r4, #76]	@ float
 3886 040c 206B     		ldr	r0, [r4, #48]	@ float
 3887 040e FFF7FEFF 		bl	nav_route_xy
 289:/home/woz/lisa-m-team4938/paparazzi/var/ECE_2012/generated/flight_plan.h ****           NavVerticalAutoThrottleMode(RadOfDeg(0.000000));
 3888              		.loc 3 289 0
 3889 0412 224B     		ldr	r3, .L457
 3890 0414 224A     		ldr	r2, .L457+4
 3891 0416 1E70     		strb	r6, [r3, #0]
 3892 0418 0023     		movs	r3, #0
 3893 041a 1360     		str	r3, [r2, #0]	@ float
 290:/home/woz/lisa-m-team4938/paparazzi/var/ECE_2012/generated/flight_plan.h ****           NavVerticalAltitudeMode(WaypointAlt(6), 0.);
 3894              		.loc 3 290 0
 3895 041c 214A     		ldr	r2, .L457+8
 3896 041e 0321     		movs	r1, #3
 3897 0420 1170     		strb	r1, [r2, #0]
 3898 0422 216D     		ldr	r1, [r4, #80]	@ float
 3899              	.L416:
 3900 0424 214A     		ldr	r2, .L457+16
 3901 0426 1160     		str	r1, [r2, #0]	@ float
 3902 0428 214A     		ldr	r2, .L457+20
 3903 042a 1360     		str	r3, [r2, #0]	@ float
 3904 042c 12E3     		b	.L272
 3905              	.L331:
 291:/home/woz/lisa-m-team4938/paparazzi/var/ECE_2012/generated/flight_plan.h ****         }
 292:/home/woz/lisa-m-team4938/paparazzi/var/ECE_2012/generated/flight_plan.h ****         break;
 293:/home/woz/lisa-m-team4938/paparazzi/var/ECE_2012/generated/flight_plan.h ****       Stage(2)
 3906              		.loc 3 293 0
 3907 042e 0222     		movs	r2, #2
 3908 0430 1A70     		strb	r2, [r3, #0]
 294:/home/woz/lisa-m-team4938/paparazzi/var/ECE_2012/generated/flight_plan.h ****         if (NavApproachingFrom(7,6,1)) NextStageAndBreakFrom(7) else {
 3909              		.loc 3 294 0
 3910 0432 1D4C     		ldr	r4, .L457+12
 3911 0434 4FF07E53 		mov	r3, #1065353216
 3912 0438 0093     		str	r3, [sp, #0]	@ float
 3913 043a 606D     		ldr	r0, [r4, #84]	@ float
 3914 043c A16D     		ldr	r1, [r4, #88]	@ float
 3915 043e A26C     		ldr	r2, [r4, #72]	@ float
 3916 0440 E36C     		ldr	r3, [r4, #76]	@ float
 293:/home/woz/lisa-m-team4938/paparazzi/var/ECE_2012/generated/flight_plan.h ****       Stage(2)
 3917              		.loc 3 293 0
 3918 0442 1E4D     		ldr	r5, .L457+32
 3919              		.loc 3 294 0
 3920 0444 FFF7FEFF 		bl	nav_approaching_xy
 3921 0448 08B1     		cbz	r0, .L337
 3922 044a 0722     		movs	r2, #7
 3923 044c 8CE2     		b	.L420
 3924              	.L337:
 295:/home/woz/lisa-m-team4938/paparazzi/var/ECE_2012/generated/flight_plan.h ****           NavSegment(6, 7);
 3925              		.loc 3 295 0
 3926 044e 626D     		ldr	r2, [r4, #84]	@ float
 3927 0450 A36D     		ldr	r3, [r4, #88]	@ float
 3928 0452 A06C     		ldr	r0, [r4, #72]	@ float
 3929 0454 E16C     		ldr	r1, [r4, #76]	@ float
 3930 0456 FFF7FEFF 		bl	nav_route_xy
 296:/home/woz/lisa-m-team4938/paparazzi/var/ECE_2012/generated/flight_plan.h ****           NavVerticalAutoPitchMode(9600*(0.400000));
 3931              		.loc 3 296 0
 3932 045a 104B     		ldr	r3, .L457
 3933 045c 0122     		movs	r2, #1
 3934 045e 1A70     		strb	r2, [r3, #0]
 3935 0460 1C4B     		ldr	r3, .L457+56
 3936 0462 4FF47062 		mov	r2, #3840	@ movhi
 3937 0466 1A80     		strh	r2, [r3, #0]	@ movhi
 297:/home/woz/lisa-m-team4938/paparazzi/var/ECE_2012/generated/flight_plan.h ****           NavVerticalAltitudeMode(WaypointAlt(7), 0.);
 3938              		.loc 3 297 0
 3939 0468 0E4B     		ldr	r3, .L457+8
 3940 046a 0322     		movs	r2, #3
 3941 046c 1A70     		strb	r2, [r3, #0]
 3942 046e E26D     		ldr	r2, [r4, #92]	@ float
 3943 0470 44E0     		b	.L417
 3944              	.L332:
 298:/home/woz/lisa-m-team4938/paparazzi/var/ECE_2012/generated/flight_plan.h ****         }
 299:/home/woz/lisa-m-team4938/paparazzi/var/ECE_2012/generated/flight_plan.h ****         break;
 300:/home/woz/lisa-m-team4938/paparazzi/var/ECE_2012/generated/flight_plan.h ****       Stage(3)
 3945              		.loc 3 300 0
 3946 0472 0325     		movs	r5, #3
 3947 0474 1D70     		strb	r5, [r3, #0]
 301:/home/woz/lisa-m-team4938/paparazzi/var/ECE_2012/generated/flight_plan.h ****         if (NavApproachingFrom(2,7,1)) NextStageAndBreakFrom(2) else {
 3948              		.loc 3 301 0
 3949 0476 0C4C     		ldr	r4, .L457+12
 3950 0478 4FF07E53 		mov	r3, #1065353216
 3951 047c 0093     		str	r3, [sp, #0]	@ float
 3952 047e A069     		ldr	r0, [r4, #24]	@ float
 3953 0480 E169     		ldr	r1, [r4, #28]	@ float
 3954 0482 626D     		ldr	r2, [r4, #84]	@ float
 3955 0484 A36D     		ldr	r3, [r4, #88]	@ float
 300:/home/woz/lisa-m-team4938/paparazzi/var/ECE_2012/generated/flight_plan.h ****       Stage(3)
 3956              		.loc 3 300 0
 3957 0486 0D4E     		ldr	r6, .L457+32
 3958              		.loc 3 301 0
 3959 0488 FFF7FEFF 		bl	nav_approaching_xy
 3960 048c 30B3     		cbz	r0, .L338
 3961 048e 124B     		ldr	r3, .L457+60
 3962 0490 0222     		movs	r2, #2
 3963 0492 1A70     		strb	r2, [r3, #0]
 3964 0494 3378     		ldrb	r3, [r6, #0]	@ zero_extendqisi2
 3965 0496 0133     		adds	r3, r3, #1
 3966 0498 3370     		strb	r3, [r6, #0]
 3967 049a 6AE2     		b	.L414
 3968              	.L458:
 3969              		.align	2
 3970              	.L457:
 3971 049c 00000000 		.word	v_ctl_climb_mode
 3972 04a0 00000000 		.word	.LANCHOR6
 3973 04a4 00000000 		.word	v_ctl_mode
 3974 04a8 00000000 		.word	.LANCHOR8
 3975 04ac 00000000 		.word	.LANCHOR17
 3976 04b0 00000000 		.word	v_ctl_altitude_pre_climb
 3977 04b4 00000000 		.word	.LANCHOR21
 3978 04b8 00000000 		.word	nav_block
 3979 04bc 00000000 		.word	nav_stage
 3980 04c0 00000000 		.word	estimator_x
 3981 04c4 00000000 		.word	estimator_y
 3982 04c8 00004842 		.word	1112014848
 3983 04cc 00001643 		.word	1125515264
 3984 04d0 0000A040 		.word	1084227584
 3985 04d4 00000000 		.word	.LANCHOR24
 3986 04d8 00000000 		.word	.LANCHOR44
 3987              	.L338:
 302:/home/woz/lisa-m-team4938/paparazzi/var/ECE_2012/generated/flight_plan.h ****           NavSegment(7, 2);
 3988              		.loc 3 302 0
 3989 04dc A16D     		ldr	r1, [r4, #88]	@ float
 3990 04de A269     		ldr	r2, [r4, #24]	@ float
 3991 04e0 E369     		ldr	r3, [r4, #28]	@ float
 3992 04e2 606D     		ldr	r0, [r4, #84]	@ float
 3993 04e4 FFF7FEFF 		bl	nav_route_xy
 303:/home/woz/lisa-m-team4938/paparazzi/var/ECE_2012/generated/flight_plan.h ****           NavVerticalAutoPitchMode(9600*(0.400000));
 3994              		.loc 3 303 0
 3995 04e8 994B     		ldr	r3, .L459+32
 3996 04ea 0122     		movs	r2, #1
 3997 04ec 1A70     		strb	r2, [r3, #0]
 3998 04ee 994B     		ldr	r3, .L459+36
 3999 04f0 4FF47061 		mov	r1, #3840	@ movhi
 4000 04f4 1980     		strh	r1, [r3, #0]	@ movhi
 304:/home/woz/lisa-m-team4938/paparazzi/var/ECE_2012/generated/flight_plan.h ****           NavVerticalAltitudeMode(WaypointAlt(2), 0.);
 4001              		.loc 3 304 0
 4002 04f6 984B     		ldr	r3, .L459+40
 4003 04f8 1D70     		strb	r5, [r3, #0]
 4004 04fa 226A     		ldr	r2, [r4, #32]	@ float
 4005              	.L417:
 4006 04fc 974B     		ldr	r3, .L459+44
 4007 04fe 1A60     		str	r2, [r3, #0]	@ float
 4008 0500 974B     		ldr	r3, .L459+48
 4009 0502 0022     		movs	r2, #0
 4010 0504 1A60     		str	r2, [r3, #0]	@ float
 4011 0506 A5E2     		b	.L272
 4012              	.L333:
 305:/home/woz/lisa-m-team4938/paparazzi/var/ECE_2012/generated/flight_plan.h ****         }
 306:/home/woz/lisa-m-team4938/paparazzi/var/ECE_2012/generated/flight_plan.h ****         break;
 307:/home/woz/lisa-m-team4938/paparazzi/var/ECE_2012/generated/flight_plan.h ****       Stage(4)
 4013              		.loc 3 307 0
 4014 0508 0422     		movs	r2, #4
 4015 050a 1A70     		strb	r2, [r3, #0]
 4016 050c 02E0     		b	.L429
 4017              	.L328:
 308:/home/woz/lisa-m-team4938/paparazzi/var/ECE_2012/generated/flight_plan.h ****         GotoBlock(4);
 309:/home/woz/lisa-m-team4938/paparazzi/var/ECE_2012/generated/flight_plan.h ****         break;
 310:/home/woz/lisa-m-team4938/paparazzi/var/ECE_2012/generated/flight_plan.h ****       default:
 311:/home/woz/lisa-m-team4938/paparazzi/var/ECE_2012/generated/flight_plan.h ****       Stage(5)
 4018              		.loc 3 311 0
 4019 050e 0522     		movs	r2, #5
 4020 0510 1A70     		strb	r2, [r3, #0]
 312:/home/woz/lisa-m-team4938/paparazzi/var/ECE_2012/generated/flight_plan.h ****         NextBlock();
 4021              		.loc 3 312 0
 4022 0512 0632     		adds	r2, r2, #6
 4023              	.L429:
 4024 0514 934B     		ldr	r3, .L459+52
 4025              	.L423:
 4026 0516 1A70     		strb	r2, [r3, #0]
 4027 0518 9AE2     		b	.L412
 4028              	.L284:
 313:/home/woz/lisa-m-team4938/paparazzi/var/ECE_2012/generated/flight_plan.h ****         break;
 314:/home/woz/lisa-m-team4938/paparazzi/var/ECE_2012/generated/flight_plan.h ****     }
 315:/home/woz/lisa-m-team4938/paparazzi/var/ECE_2012/generated/flight_plan.h ****     ; // post_call
 316:/home/woz/lisa-m-team4938/paparazzi/var/ECE_2012/generated/flight_plan.h ****     break;
 317:/home/woz/lisa-m-team4938/paparazzi/var/ECE_2012/generated/flight_plan.h **** 
 318:/home/woz/lisa-m-team4938/paparazzi/var/ECE_2012/generated/flight_plan.h ****     Block(11) // Land Right AF-TD
 4029              		.loc 3 318 0
 4030 051a 924A     		ldr	r2, .L459+52
 4031 051c 0B23     		movs	r3, #11
 4032 051e 1370     		strb	r3, [r2, #0]
 319:/home/woz/lisa-m-team4938/paparazzi/var/ECE_2012/generated/flight_plan.h ****     ; // pre_call
 320:/home/woz/lisa-m-team4938/paparazzi/var/ECE_2012/generated/flight_plan.h ****     switch(nav_stage) {
 4033              		.loc 3 320 0
 4034 0520 914B     		ldr	r3, .L459+56
 4035 0522 1978     		ldrb	r1, [r3, #0]	@ zero_extendqisi2
 4036 0524 11B1     		cbz	r1, .L340
 4037 0526 0129     		cmp	r1, #1
 4038 0528 02D1     		bne	.L404
 4039 052a 14E0     		b	.L436
 4040              	.L340:
 321:/home/woz/lisa-m-team4938/paparazzi/var/ECE_2012/generated/flight_plan.h ****       Stage(0)
 322:/home/woz/lisa-m-team4938/paparazzi/var/ECE_2012/generated/flight_plan.h ****         nav_radius = DEFAULT_CIRCLE_RADIUS;
 4041              		.loc 3 322 0
 4042 052c 8F49     		ldr	r1, .L459+60
 4043 052e 0DE0     		b	.L430
 4044              	.L404:
 323:/home/woz/lisa-m-team4938/paparazzi/var/ECE_2012/generated/flight_plan.h ****         NextStageAndBreak();
 324:/home/woz/lisa-m-team4938/paparazzi/var/ECE_2012/generated/flight_plan.h ****         break;
 325:/home/woz/lisa-m-team4938/paparazzi/var/ECE_2012/generated/flight_plan.h ****       Stage(1)
 326:/home/woz/lisa-m-team4938/paparazzi/var/ECE_2012/generated/flight_plan.h ****         GotoBlock(13);
 327:/home/woz/lisa-m-team4938/paparazzi/var/ECE_2012/generated/flight_plan.h ****         break;
 328:/home/woz/lisa-m-team4938/paparazzi/var/ECE_2012/generated/flight_plan.h ****       default:
 329:/home/woz/lisa-m-team4938/paparazzi/var/ECE_2012/generated/flight_plan.h ****       Stage(2)
 4045              		.loc 3 329 0
 4046 0530 0221     		movs	r1, #2
 4047 0532 1970     		strb	r1, [r3, #0]
 330:/home/woz/lisa-m-team4938/paparazzi/var/ECE_2012/generated/flight_plan.h ****         NextBlock();
 4048              		.loc 3 330 0
 4049 0534 0C23     		movs	r3, #12
 4050 0536 8AE2     		b	.L411
 4051              	.L285:
 331:/home/woz/lisa-m-team4938/paparazzi/var/ECE_2012/generated/flight_plan.h ****         break;
 332:/home/woz/lisa-m-team4938/paparazzi/var/ECE_2012/generated/flight_plan.h ****     }
 333:/home/woz/lisa-m-team4938/paparazzi/var/ECE_2012/generated/flight_plan.h ****     ; // post_call
 334:/home/woz/lisa-m-team4938/paparazzi/var/ECE_2012/generated/flight_plan.h ****     break;
 335:/home/woz/lisa-m-team4938/paparazzi/var/ECE_2012/generated/flight_plan.h **** 
 336:/home/woz/lisa-m-team4938/paparazzi/var/ECE_2012/generated/flight_plan.h ****     Block(12) // Land Left AF-TD
 4052              		.loc 3 336 0
 4053 0538 8A4A     		ldr	r2, .L459+52
 4054 053a 0C23     		movs	r3, #12
 4055 053c 1370     		strb	r3, [r2, #0]
 337:/home/woz/lisa-m-team4938/paparazzi/var/ECE_2012/generated/flight_plan.h ****     ; // pre_call
 338:/home/woz/lisa-m-team4938/paparazzi/var/ECE_2012/generated/flight_plan.h ****     switch(nav_stage) {
 4056              		.loc 3 338 0
 4057 053e 8A4B     		ldr	r3, .L459+56
 4058 0540 1978     		ldrb	r1, [r3, #0]	@ zero_extendqisi2
 4059 0542 11B1     		cbz	r1, .L343
 4060 0544 0129     		cmp	r1, #1
 4061 0546 05D1     		bne	.L405
 4062 0548 05E0     		b	.L436
 4063              	.L343:
 339:/home/woz/lisa-m-team4938/paparazzi/var/ECE_2012/generated/flight_plan.h ****       Stage(0)
